

Microchip MPLAB XC8 Assembler V2.31 build 20201012212115 
                                                                                               Fri May 28 19:01:27 2021

Microchip MPLAB XC8 C Compiler v2.31 (Free license) build 20201012212115 Og1 
     1                           	processor	16F887
     2                           	pagewidth 120
     3                           	opt	flic
     4                           	psect	strings,global,class=STRING,delta=2,noexec
     5                           	psect	stringtext,global,reloc=256,class=STRCODE,delta=2,noexec
     6                           	psect	cinit,global,class=CODE,merge=1,delta=2
     7                           	psect	bssCOMMON,global,class=COMMON,space=1,delta=1,noexec
     8                           	psect	bssBANK0,global,class=BANK0,space=1,delta=1,noexec
     9                           	psect	clrtext,global,class=CODE,delta=2
    10                           	psect	cstackCOMMON,global,class=COMMON,space=1,delta=1,noexec
    11                           	psect	cstackBANK0,global,class=BANK0,space=1,delta=1,noexec
    12                           	psect	maintext,global,class=CODE,split=1,delta=2
    13                           	psect	text1,local,class=CODE,merge=1,delta=2
    14                           	psect	text2,local,class=CODE,merge=1,delta=2
    15                           	psect	text3,local,class=CODE,merge=1,delta=2
    16                           	psect	text4,local,class=CODE,merge=1,delta=2
    17                           	psect	text5,local,class=CODE,merge=1,delta=2
    18                           	psect	text6,local,class=CODE,merge=1,delta=2
    19                           	psect	text7,local,class=CODE,merge=1,delta=2
    20                           	psect	text8,local,class=CODE,merge=1,delta=2
    21                           	psect	intentry,global,class=CODE,delta=2
    22                           	psect	config,global,abs,ovrld,class=CONFIG,space=4,delta=2,noexec
    23                           	psect	maintext_split_1,global,class=CODE,split=1,delta=2
    24                           	dabs	1,0x7E,2
    25  0000                     
    26                           ; Version 2.20
    27                           ; Generated 12/02/2020 GMT
    28                           ; 
    29                           ; Copyright © 2020, Microchip Technology Inc. and its subsidiaries ("Microchip")
    30                           ; All rights reserved.
    31                           ; 
    32                           ; This software is developed by Microchip Technology Inc. and its subsidiaries ("Microch
      +                          ip").
    33                           ; 
    34                           ; Redistribution and use in source and binary forms, with or without modification, are
    35                           ; permitted provided that the following conditions are met:
    36                           ; 
    37                           ;     1. Redistributions of source code must retain the above copyright notice, this lis
      +                          t of
    38                           ;        conditions and the following disclaimer.
    39                           ; 
    40                           ;     2. Redistributions in binary form must reproduce the above copyright notice, this 
      +                          list
    41                           ;        of conditions and the following disclaimer in the documentation and/or other
    42                           ;        materials provided with the distribution.
    43                           ; 
    44                           ;     3. Microchip's name may not be used to endorse or promote products derived from th
      +                          is
    45                           ;        software without specific prior written permission.
    46                           ; 
    47                           ; THIS SOFTWARE IS PROVIDED BY MICROCHIP "AS IS" AND ANY EXPRESS OR IMPLIED WARRANTIES,
    48                           ; INCLUDING, BUT NOT LIMITED TO, THE IMPLIED WARRANTIES OF MERCHANTABILITY AND FITNESS F
      +                          OR
    49                           ; PURPOSE ARE DISCLAIMED.  IN NO EVENT SHALL MICROCHIP BE LIABLE FOR ANY DIRECT, INDIREC
      +                          T,
    50                           ; INCIDENTAL, SPECIAL, EXEMPLARY, OR CONSEQUENTIAL DAMAGES (INCLUDING BUT NOT LIMITED TO
    51                           ; PROCUREMENT OF SUBSTITUTE GOODS OR SERVICES; LOSS OF USE, DATA OR PROFITS; OR BUSINESS
    52                           ; INTERRUPTION) HOWSOEVER CAUSED AND ON ANY THEORY OF LIABILITY, WHETHER IN CONTRACT, ST
      +                          RICT
    53                           ; LIABILITY, OR TORT (INCLUDING NEGLIGENCE OR OTHERWISE) ARISING IN ANY WAY OUT OF THE U
      +                          SE OF
    54                           ; THIS SOFTWARE, EVEN IF ADVISED OF THE POSSIBILITY OF SUCH DAMAGE.
    55                           ; 
    56                           ; 
    57                           ; Code-generator required, PIC16F887 Definitions
    58                           ; 
    59                           ; SFR Addresses
    60  0000                     	;# 
    61  0001                     	;# 
    62  0002                     	;# 
    63  0003                     	;# 
    64  0004                     	;# 
    65  0005                     	;# 
    66  0006                     	;# 
    67  0007                     	;# 
    68  0008                     	;# 
    69  0009                     	;# 
    70  000A                     	;# 
    71  000B                     	;# 
    72  000C                     	;# 
    73  000D                     	;# 
    74  000E                     	;# 
    75  000E                     	;# 
    76  000F                     	;# 
    77  0010                     	;# 
    78  0011                     	;# 
    79  0012                     	;# 
    80  0013                     	;# 
    81  0014                     	;# 
    82  0015                     	;# 
    83  0015                     	;# 
    84  0016                     	;# 
    85  0017                     	;# 
    86  0018                     	;# 
    87  0019                     	;# 
    88  001A                     	;# 
    89  001B                     	;# 
    90  001B                     	;# 
    91  001C                     	;# 
    92  001D                     	;# 
    93  001E                     	;# 
    94  001F                     	;# 
    95  0081                     	;# 
    96  0085                     	;# 
    97  0086                     	;# 
    98  0087                     	;# 
    99  0088                     	;# 
   100  0089                     	;# 
   101  008C                     	;# 
   102  008D                     	;# 
   103  008E                     	;# 
   104  008F                     	;# 
   105  0090                     	;# 
   106  0091                     	;# 
   107  0092                     	;# 
   108  0093                     	;# 
   109  0093                     	;# 
   110  0093                     	;# 
   111  0094                     	;# 
   112  0095                     	;# 
   113  0096                     	;# 
   114  0097                     	;# 
   115  0098                     	;# 
   116  0099                     	;# 
   117  009A                     	;# 
   118  009B                     	;# 
   119  009C                     	;# 
   120  009D                     	;# 
   121  009E                     	;# 
   122  009F                     	;# 
   123  0105                     	;# 
   124  0107                     	;# 
   125  0108                     	;# 
   126  0109                     	;# 
   127  010C                     	;# 
   128  010C                     	;# 
   129  010D                     	;# 
   130  010E                     	;# 
   131  010F                     	;# 
   132  0185                     	;# 
   133  0187                     	;# 
   134  0188                     	;# 
   135  0189                     	;# 
   136  018C                     	;# 
   137  018D                     	;# 
   138  0000                     	;# 
   139  0001                     	;# 
   140  0002                     	;# 
   141  0003                     	;# 
   142  0004                     	;# 
   143  0005                     	;# 
   144  0006                     	;# 
   145  0007                     	;# 
   146  0008                     	;# 
   147  0009                     	;# 
   148  000A                     	;# 
   149  000B                     	;# 
   150  000C                     	;# 
   151  000D                     	;# 
   152  000E                     	;# 
   153  000E                     	;# 
   154  000F                     	;# 
   155  0010                     	;# 
   156  0011                     	;# 
   157  0012                     	;# 
   158  0013                     	;# 
   159  0014                     	;# 
   160  0015                     	;# 
   161  0015                     	;# 
   162  0016                     	;# 
   163  0017                     	;# 
   164  0018                     	;# 
   165  0019                     	;# 
   166  001A                     	;# 
   167  001B                     	;# 
   168  001B                     	;# 
   169  001C                     	;# 
   170  001D                     	;# 
   171  001E                     	;# 
   172  001F                     	;# 
   173  0081                     	;# 
   174  0085                     	;# 
   175  0086                     	;# 
   176  0087                     	;# 
   177  0088                     	;# 
   178  0089                     	;# 
   179  008C                     	;# 
   180  008D                     	;# 
   181  008E                     	;# 
   182  008F                     	;# 
   183  0090                     	;# 
   184  0091                     	;# 
   185  0092                     	;# 
   186  0093                     	;# 
   187  0093                     	;# 
   188  0093                     	;# 
   189  0094                     	;# 
   190  0095                     	;# 
   191  0096                     	;# 
   192  0097                     	;# 
   193  0098                     	;# 
   194  0099                     	;# 
   195  009A                     	;# 
   196  009B                     	;# 
   197  009C                     	;# 
   198  009D                     	;# 
   199  009E                     	;# 
   200  009F                     	;# 
   201  0105                     	;# 
   202  0107                     	;# 
   203  0108                     	;# 
   204  0109                     	;# 
   205  010C                     	;# 
   206  010C                     	;# 
   207  010D                     	;# 
   208  010E                     	;# 
   209  010F                     	;# 
   210  0185                     	;# 
   211  0187                     	;# 
   212  0188                     	;# 
   213  0189                     	;# 
   214  018C                     	;# 
   215  018D                     	;# 
   216  001A                     _RCREG	set	26
   217  0019                     _TXREG	set	25
   218  001E                     _ADRESH	set	30
   219  0009                     _PORTE	set	9
   220  0008                     _PORTD	set	8
   221  0007                     _PORTC	set	7
   222  0006                     _PORTB	set	6
   223  000C                     _PIR1bits	set	12
   224  000B                     _INTCONbits	set	11
   225  0018                     _RCSTAbits	set	24
   226  0010                     _T1CONbits	set	16
   227  0001                     _TMR0	set	1
   228  001F                     _ADCON0bits	set	31
   229  000E                     _TMR1L	set	14
   230  000F                     _TMR1H	set	15
   231  0005                     _PORTA	set	5
   232  0035                     _RB5	set	53
   233  0036                     _RB6	set	54
   234  0034                     _RB4	set	52
   235  0033                     _RB3	set	51
   236  0037                     _RB7	set	55
   237  0042                     _RD2	set	66
   238  0032                     _RB2	set	50
   239  0041                     _RD1	set	65
   240  0031                     _RB1	set	49
   241  0040                     _RD0	set	64
   242  0030                     _RB0	set	48
   243  005A                     _T0IF	set	90
   244  0060                     _TMR1IF	set	96
   245  008C                     _PIE1bits	set	140
   246  009A                     _SPBRGH	set	154
   247  0099                     _SPBRG	set	153
   248  0098                     _TXSTAbits	set	152
   249  008F                     _OSCCONbits	set	143
   250  0095                     _WPUBbits	set	149
   251  0081                     _OPTION_REGbits	set	129
   252  009F                     _ADCON1bits	set	159
   253  0089                     _TRISE	set	137
   254  0088                     _TRISD	set	136
   255  0086                     _TRISB	set	134
   256  0085                     _TRISA	set	133
   257  0460                     _TMR1IE	set	1120
   258  0187                     _BAUDCTLbits	set	391
   259  0189                     _ANSELH	set	393
   260  0188                     _ANSEL	set	392
   261                           
   262                           	psect	strings
   263  0AE7                     __pstrings:
   264  0AE7                     stringtab:
   265  0AE7                     __stringtab:
   266                           
   267                           ;	String table - string pointers are 2 bytes each
   268  0AE7  1BFF               	btfsc	btemp+1,7
   269  0AE8  2AF1               	ljmp	stringcode
   270  0AE9  1383               	bcf	3,7
   271  0AEA  187F               	btfsc	btemp+1,0
   272  0AEB  1783               	bsf	3,7
   273  0AEC  0800               	movf	0,w
   274  0AED  0A84               	incf	4,f
   275  0AEE  1903               	skipnz
   276  0AEF  0AFF               	incf	btemp+1,f
   277  0AF0  0008               	return
   278  0AF1                     stringcode:
   279  0AF1  087F               	movf	btemp+1,w
   280  0AF2  397F               	andlw	127
   281  0AF3  008A               	movwf	10
   282  0AF4  0804               	movf	4,w
   283  0AF5  0A84               	incf	4,f
   284  0AF6  1903               	skipnz
   285  0AF7  0AFF               	incf	btemp+1,f
   286  0AF8  0082               	movwf	2
   287  0AF9                     __stringbase:
   288  0AF9                     __end_of__stringtab:
   289                           
   290                           	psect	stringtext
   291  0800                     __pstringtext:
   292  0800                     STR_45:
   293  0800  3420               	retlw	32	;' '
   294  0801  3461               	retlw	97	;'a'
   295  0802  342E               	retlw	46	;'.'
   296  0803  3430               	retlw	48	;'0'
   297  0804  3420               	retlw	32	;' '
   298  0805  3420               	retlw	32	;' '
   299  0806  3462               	retlw	98	;'b'
   300  0807  342E               	retlw	46	;'.'
   301  0808  3431               	retlw	49	;'1'
   302  0809  3420               	retlw	32	;' '
   303  080A  3420               	retlw	32	;' '
   304  080B  3420               	retlw	32	;' '
   305  080C  3463               	retlw	99	;'c'
   306  080D  342E               	retlw	46	;'.'
   307  080E  3432               	retlw	50	;'2'
   308  080F  3420               	retlw	32	;' '
   309  0810  3420               	retlw	32	;' '
   310  0811  3420               	retlw	32	;' '
   311  0812  3464               	retlw	100	;'d'
   312  0813  342E               	retlw	46	;'.'
   313  0814  3433               	retlw	51	;'3'
   314  0815  3420               	retlw	32	;' '
   315  0816  3420               	retlw	32	;' '
   316  0817  3420               	retlw	32	;' '
   317  0818  3465               	retlw	101	;'e'
   318  0819  342E               	retlw	46	;'.'
   319  081A  3434               	retlw	52	;'4'
   320  081B  3420               	retlw	32	;' '
   321  081C  3420               	retlw	32	;' '
   322  081D  3420               	retlw	32	;' '
   323  081E  3466               	retlw	102	;'f'
   324  081F  342E               	retlw	46	;'.'
   325  0820  3435               	retlw	53	;'5'
   326  0821  3420               	retlw	32	;' '
   327  0822  3420               	retlw	32	;' '
   328  0823  3420               	retlw	32	;' '
   329  0824  3467               	retlw	103	;'g'
   330  0825  342E               	retlw	46	;'.'
   331  0826  3436               	retlw	54	;'6'
   332  0827  3420               	retlw	32	;' '
   333  0828  3420               	retlw	32	;' '
   334  0829  3420               	retlw	32	;' '
   335  082A  3468               	retlw	104	;'h'
   336  082B  342E               	retlw	46	;'.'
   337  082C  3437               	retlw	55	;'7'
   338  082D  3420               	retlw	32	;' '
   339  082E  3420               	retlw	32	;' '
   340  082F  3469               	retlw	105	;'i'
   341  0830  342E               	retlw	46	;'.'
   342  0831  3438               	retlw	56	;'8'
   343  0832  340D               	retlw	13
   344  0833  3400               	retlw	0
   345  0834                     STR_55:
   346  0834  3420               	retlw	32	;' '
   347  0835  3470               	retlw	112	;'p'
   348  0836  3472               	retlw	114	;'r'
   349  0837  3465               	retlw	101	;'e'
   350  0838  3473               	retlw	115	;'s'
   351  0839  3469               	retlw	105	;'i'
   352  083A  346F               	retlw	111	;'o'
   353  083B  346E               	retlw	110	;'n'
   354  083C  3465               	retlw	101	;'e'
   355  083D  3420               	retlw	32	;' '
   356  083E  3465               	retlw	101	;'e'
   357  083F  346C               	retlw	108	;'l'
   358  0840  3420               	retlw	32	;' '
   359  0841  346E               	retlw	110	;'n'
   360  0842  34C3               	retlw	-61
   361  0843  34BA               	retlw	-70
   362  0844  346D               	retlw	109	;'m'
   363  0845  3465               	retlw	101	;'e'
   364  0846  3472               	retlw	114	;'r'
   365  0847  346F               	retlw	111	;'o'
   366  0848  3420               	retlw	32	;' '
   367  0849  3464               	retlw	100	;'d'
   368  084A  3465               	retlw	101	;'e'
   369  084B  3420               	retlw	32	;' '
   370  084C  346D               	retlw	109	;'m'
   371  084D  3465               	retlw	101	;'e'
   372  084E  3464               	retlw	100	;'d'
   373  084F  3469               	retlw	105	;'i'
   374  0850  3463               	retlw	99	;'c'
   375  0851  3461               	retlw	97	;'a'
   376  0852  346D               	retlw	109	;'m'
   377  0853  3465               	retlw	101	;'e'
   378  0854  346E               	retlw	110	;'n'
   379  0855  3474               	retlw	116	;'t'
   380  0856  346F               	retlw	111	;'o'
   381  0857  3420               	retlw	32	;' '
   382  0858  3461               	retlw	97	;'a'
   383  0859  3420               	retlw	32	;' '
   384  085A  3467               	retlw	103	;'g'
   385  085B  3475               	retlw	117	;'u'
   386  085C  3461               	retlw	97	;'a'
   387  085D  3472               	retlw	114	;'r'
   388  085E  3464               	retlw	100	;'d'
   389  085F  3461               	retlw	97	;'a'
   390  0860  3472               	retlw	114	;'r'
   391  0861  3420               	retlw	32	;' '
   392  0862  340D               	retlw	13
   393  0863  3400               	retlw	0
   394  0864                     STR_47:
   395  0864  3472               	retlw	114	;'r'
   396  0865  342E               	retlw	46	;'.'
   397  0866  3431               	retlw	49	;'1'
   398  0867  3437               	retlw	55	;'7'
   399  0868  3420               	retlw	32	;' '
   400  0869  3420               	retlw	32	;' '
   401  086A  3473               	retlw	115	;'s'
   402  086B  342E               	retlw	46	;'.'
   403  086C  3431               	retlw	49	;'1'
   404  086D  3438               	retlw	56	;'8'
   405  086E  3420               	retlw	32	;' '
   406  086F  3420               	retlw	32	;' '
   407  0870  3474               	retlw	116	;'t'
   408  0871  342E               	retlw	46	;'.'
   409  0872  3431               	retlw	49	;'1'
   410  0873  3439               	retlw	57	;'9'
   411  0874  3420               	retlw	32	;' '
   412  0875  3420               	retlw	32	;' '
   413  0876  3475               	retlw	117	;'u'
   414  0877  342E               	retlw	46	;'.'
   415  0878  3432               	retlw	50	;'2'
   416  0879  3430               	retlw	48	;'0'
   417  087A  3420               	retlw	32	;' '
   418  087B  3420               	retlw	32	;' '
   419  087C  3476               	retlw	118	;'v'
   420  087D  342E               	retlw	46	;'.'
   421  087E  3432               	retlw	50	;'2'
   422  087F  3431               	retlw	49	;'1'
   423  0880  3420               	retlw	32	;' '
   424  0881  3420               	retlw	32	;' '
   425  0882  3477               	retlw	119	;'w'
   426  0883  342E               	retlw	46	;'.'
   427  0884  3432               	retlw	50	;'2'
   428  0885  3432               	retlw	50	;'2'
   429  0886  3420               	retlw	32	;' '
   430  0887  3420               	retlw	32	;' '
   431  0888  3478               	retlw	120	;'x'
   432  0889  342E               	retlw	46	;'.'
   433  088A  3432               	retlw	50	;'2'
   434  088B  3433               	retlw	51	;'3'
   435  088C  3420               	retlw	32	;' '
   436  088D  3420               	retlw	32	;' '
   437  088E  3479               	retlw	121	;'y'
   438  088F  342E               	retlw	46	;'.'
   439  0890  3432               	retlw	50	;'2'
   440  0891  3434               	retlw	52	;'4'
   441  0892  340D               	retlw	13
   442  0893  3400               	retlw	0
   443  0894                     STR_46:
   444  0894  3420               	retlw	32	;' '
   445  0895  346A               	retlw	106	;'j'
   446  0896  342E               	retlw	46	;'.'
   447  0897  3439               	retlw	57	;'9'
   448  0898  3420               	retlw	32	;' '
   449  0899  3420               	retlw	32	;' '
   450  089A  346B               	retlw	107	;'k'
   451  089B  342E               	retlw	46	;'.'
   452  089C  3431               	retlw	49	;'1'
   453  089D  3430               	retlw	48	;'0'
   454  089E  3420               	retlw	32	;' '
   455  089F  3420               	retlw	32	;' '
   456  08A0  346C               	retlw	108	;'l'
   457  08A1  342E               	retlw	46	;'.'
   458  08A2  3431               	retlw	49	;'1'
   459  08A3  3431               	retlw	49	;'1'
   460  08A4  3420               	retlw	32	;' '
   461  08A5  3420               	retlw	32	;' '
   462  08A6  346D               	retlw	109	;'m'
   463  08A7  342E               	retlw	46	;'.'
   464  08A8  3431               	retlw	49	;'1'
   465  08A9  3432               	retlw	50	;'2'
   466  08AA  3420               	retlw	32	;' '
   467  08AB  3420               	retlw	32	;' '
   468  08AC  346E               	retlw	110	;'n'
   469  08AD  342E               	retlw	46	;'.'
   470  08AE  3431               	retlw	49	;'1'
   471  08AF  3433               	retlw	51	;'3'
   472  08B0  3420               	retlw	32	;' '
   473  08B1  3420               	retlw	32	;' '
   474  08B2  346F               	retlw	111	;'o'
   475  08B3  342E               	retlw	46	;'.'
   476  08B4  3431               	retlw	49	;'1'
   477  08B5  3434               	retlw	52	;'4'
   478  08B6  3420               	retlw	32	;' '
   479  08B7  3420               	retlw	32	;' '
   480  08B8  3470               	retlw	112	;'p'
   481  08B9  342E               	retlw	46	;'.'
   482  08BA  3431               	retlw	49	;'1'
   483  08BB  3435               	retlw	53	;'5'
   484  08BC  3420               	retlw	32	;' '
   485  08BD  3420               	retlw	32	;' '
   486  08BE  3471               	retlw	113	;'q'
   487  08BF  342E               	retlw	46	;'.'
   488  08C0  3431               	retlw	49	;'1'
   489  08C1  3436               	retlw	54	;'6'
   490  08C2  340D               	retlw	13
   491  08C3  3400               	retlw	0
   492  08C4                     STR_50:
   493  08C4  3420               	retlw	32	;' '
   494  08C5  3449               	retlw	73	;'I'
   495  08C6  346E               	retlw	110	;'n'
   496  08C7  3467               	retlw	103	;'g'
   497  08C8  3472               	retlw	114	;'r'
   498  08C9  3465               	retlw	101	;'e'
   499  08CA  3473               	retlw	115	;'s'
   500  08CB  34C3               	retlw	-61
   501  08CC  34A1               	retlw	-95
   502  08CD  3420               	retlw	32	;' '
   503  08CE  346C               	retlw	108	;'l'
   504  08CF  3461               	retlw	97	;'a'
   505  08D0  3420               	retlw	32	;' '
   506  08D1  346C               	retlw	108	;'l'
   507  08D2  3465               	retlw	101	;'e'
   508  08D3  3474               	retlw	116	;'t'
   509  08D4  3472               	retlw	114	;'r'
   510  08D5  3461               	retlw	97	;'a'
   511  08D6  3420               	retlw	32	;' '
   512  08D7  3464               	retlw	100	;'d'
   513  08D8  3465               	retlw	101	;'e'
   514  08D9  3420               	retlw	32	;' '
   515  08DA  346C               	retlw	108	;'l'
   516  08DB  346F               	retlw	111	;'o'
   517  08DC  3473               	retlw	115	;'s'
   518  08DD  3420               	retlw	32	;' '
   519  08DE  346D               	retlw	109	;'m'
   520  08DF  3469               	retlw	105	;'i'
   521  08E0  346E               	retlw	110	;'n'
   522  08E1  3475               	retlw	117	;'u'
   523  08E2  3474               	retlw	116	;'t'
   524  08E3  346F               	retlw	111	;'o'
   525  08E4  3473               	retlw	115	;'s'
   526  08E5  3420               	retlw	32	;' '
   527  08E6  346E               	retlw	110	;'n'
   528  08E7  3475               	retlw	117	;'u'
   529  08E8  3465               	retlw	101	;'e'
   530  08E9  3476               	retlw	118	;'v'
   531  08EA  346F               	retlw	111	;'o'
   532  08EB  3473               	retlw	115	;'s'
   533  08EC  3420               	retlw	32	;' '
   534  08ED  3420               	retlw	32	;' '
   535  08EE  340D               	retlw	13
   536  08EF  3400               	retlw	0
   537  08F0                     STR_54:
   538  08F0  3420               	retlw	32	;' '
   539  08F1  3441               	retlw	65	;'A'
   540  08F2  3463               	retlw	99	;'c'
   541  08F3  3474               	retlw	116	;'t'
   542  08F4  3475               	retlw	117	;'u'
   543  08F5  3461               	retlw	97	;'a'
   544  08F6  346C               	retlw	108	;'l'
   545  08F7  346D               	retlw	109	;'m'
   546  08F8  3465               	retlw	101	;'e'
   547  08F9  346E               	retlw	110	;'n'
   548  08FA  3474               	retlw	116	;'t'
   549  08FB  3465               	retlw	101	;'e'
   550  08FC  3420               	retlw	32	;' '
   551  08FD  3473               	retlw	115	;'s'
   552  08FE  3465               	retlw	101	;'e'
   553  08FF  3420               	retlw	32	;' '
   554  0900  3463               	retlw	99	;'c'
   555  0901  3475               	retlw	117	;'u'
   556  0902  3465               	retlw	101	;'e'
   557  0903  346E               	retlw	110	;'n'
   558  0904  3474               	retlw	116	;'t'
   559  0905  3461               	retlw	97	;'a'
   560  0906  3420               	retlw	32	;' '
   561  0907  3463               	retlw	99	;'c'
   562  0908  346F               	retlw	111	;'o'
   563  0909  346E               	retlw	110	;'n'
   564  090A  3420               	retlw	32	;' '
   565  090B  3433               	retlw	51	;'3'
   566  090C  3420               	retlw	32	;' '
   567  090D  346D               	retlw	109	;'m'
   568  090E  3465               	retlw	101	;'e'
   569  090F  3464               	retlw	100	;'d'
   570  0910  3469               	retlw	105	;'i'
   571  0911  3463               	retlw	99	;'c'
   572  0912  3461               	retlw	97	;'a'
   573  0913  346D               	retlw	109	;'m'
   574  0914  3465               	retlw	101	;'e'
   575  0915  346E               	retlw	110	;'n'
   576  0916  3474               	retlw	116	;'t'
   577  0917  346F               	retlw	111	;'o'
   578  0918  3473               	retlw	115	;'s'
   579  0919  340D               	retlw	13
   580  091A  3400               	retlw	0
   581  091B                     STR_44:
   582  091B  3420               	retlw	32	;' '
   583  091C  3449               	retlw	73	;'I'
   584  091D  346E               	retlw	110	;'n'
   585  091E  3467               	retlw	103	;'g'
   586  091F  3472               	retlw	114	;'r'
   587  0920  3465               	retlw	101	;'e'
   588  0921  3473               	retlw	115	;'s'
   589  0922  34C3               	retlw	-61
   590  0923  34A1               	retlw	-95
   591  0924  3420               	retlw	32	;' '
   592  0925  346C               	retlw	108	;'l'
   593  0926  3461               	retlw	97	;'a'
   594  0927  3420               	retlw	32	;' '
   595  0928  346C               	retlw	108	;'l'
   596  0929  3465               	retlw	101	;'e'
   597  092A  3474               	retlw	116	;'t'
   598  092B  3472               	retlw	114	;'r'
   599  092C  3461               	retlw	97	;'a'
   600  092D  3420               	retlw	32	;' '
   601  092E  3464               	retlw	100	;'d'
   602  092F  3465               	retlw	101	;'e'
   603  0930  3420               	retlw	32	;' '
   604  0931  346C               	retlw	108	;'l'
   605  0932  3461               	retlw	97	;'a'
   606  0933  3420               	retlw	32	;' '
   607  0934  346E               	retlw	110	;'n'
   608  0935  3475               	retlw	117	;'u'
   609  0936  3465               	retlw	101	;'e'
   610  0937  3476               	retlw	118	;'v'
   611  0938  3461               	retlw	97	;'a'
   612  0939  3420               	retlw	32	;' '
   613  093A  3468               	retlw	104	;'h'
   614  093B  346F               	retlw	111	;'o'
   615  093C  3472               	retlw	114	;'r'
   616  093D  3461               	retlw	97	;'a'
   617  093E  3420               	retlw	32	;' '
   618  093F  3420               	retlw	32	;' '
   619  0940  340D               	retlw	13
   620  0941  3400               	retlw	0
   621  0942                     STR_7:
   622  0942  3436               	retlw	54	;'6'
   623  0943  3429               	retlw	41	;')'
   624  0944  3420               	retlw	32	;' '
   625  0945  344D               	retlw	77	;'M'
   626  0946  346F               	retlw	111	;'o'
   627  0947  3464               	retlw	100	;'d'
   628  0948  3469               	retlw	105	;'i'
   629  0949  3466               	retlw	102	;'f'
   630  094A  3469               	retlw	105	;'i'
   631  094B  3463               	retlw	99	;'c'
   632  094C  3461               	retlw	97	;'a'
   633  094D  3472               	retlw	114	;'r'
   634  094E  3420               	retlw	32	;' '
   635  094F  3468               	retlw	104	;'h'
   636  0950  346F               	retlw	111	;'o'
   637  0951  3472               	retlw	114	;'r'
   638  0952  3461               	retlw	97	;'a'
   639  0953  3472               	retlw	114	;'r'
   640  0954  3469               	retlw	105	;'i'
   641  0955  346F               	retlw	111	;'o'
   642  0956  3420               	retlw	32	;' '
   643  0957  3475               	retlw	117	;'u'
   644  0958  3473               	retlw	115	;'s'
   645  0959  3475               	retlw	117	;'u'
   646  095A  3461               	retlw	97	;'a'
   647  095B  3472               	retlw	114	;'r'
   648  095C  3469               	retlw	105	;'i'
   649  095D  346F               	retlw	111	;'o'
   650  095E  3420               	retlw	32	;' '
   651  095F  3474               	retlw	116	;'t'
   652  0960  3472               	retlw	114	;'r'
   653  0961  3465               	retlw	101	;'e'
   654  0962  3473               	retlw	115	;'s'
   655  0963  3420               	retlw	32	;' '
   656  0964  340D               	retlw	13
   657  0965  340D               	retlw	13
   658  0966  3400               	retlw	0
   659  0967                     STR_51:
   660  0967  3420               	retlw	32	;' '
   661  0968  3461               	retlw	97	;'a'
   662  0969  342E               	retlw	46	;'.'
   663  096A  3430               	retlw	48	;'0'
   664  096B  3420               	retlw	32	;' '
   665  096C  3420               	retlw	32	;' '
   666  096D  3462               	retlw	98	;'b'
   667  096E  342E               	retlw	46	;'.'
   668  096F  3431               	retlw	49	;'1'
   669  0970  3435               	retlw	53	;'5'
   670  0971  3420               	retlw	32	;' '
   671  0972  3420               	retlw	32	;' '
   672  0973  3420               	retlw	32	;' '
   673  0974  3463               	retlw	99	;'c'
   674  0975  342E               	retlw	46	;'.'
   675  0976  3433               	retlw	51	;'3'
   676  0977  3430               	retlw	48	;'0'
   677  0978  3420               	retlw	32	;' '
   678  0979  3420               	retlw	32	;' '
   679  097A  3420               	retlw	32	;' '
   680  097B  3464               	retlw	100	;'d'
   681  097C  342E               	retlw	46	;'.'
   682  097D  3434               	retlw	52	;'4'
   683  097E  3435               	retlw	53	;'5'
   684  097F  3420               	retlw	32	;' '
   685  0980  3420               	retlw	32	;' '
   686  0981  3420               	retlw	32	;' '
   687  0982  3465               	retlw	101	;'e'
   688  0983  342E               	retlw	46	;'.'
   689  0984  3435               	retlw	53	;'5'
   690  0985  3435               	retlw	53	;'5'
   691  0986  3420               	retlw	32	;' '
   692  0987  3420               	retlw	32	;' '
   693  0988  3420               	retlw	32	;' '
   694  0989  340D               	retlw	13
   695  098A  3400               	retlw	0
   696  098B                     STR_5:
   697  098B  3434               	retlw	52	;'4'
   698  098C  3429               	retlw	41	;')'
   699  098D  3420               	retlw	32	;' '
   700  098E  344D               	retlw	77	;'M'
   701  098F  346F               	retlw	111	;'o'
   702  0990  3464               	retlw	100	;'d'
   703  0991  3469               	retlw	105	;'i'
   704  0992  3466               	retlw	102	;'f'
   705  0993  3469               	retlw	105	;'i'
   706  0994  3463               	retlw	99	;'c'
   707  0995  3461               	retlw	97	;'a'
   708  0996  3472               	retlw	114	;'r'
   709  0997  3420               	retlw	32	;' '
   710  0998  3468               	retlw	104	;'h'
   711  0999  346F               	retlw	111	;'o'
   712  099A  3472               	retlw	114	;'r'
   713  099B  3461               	retlw	97	;'a'
   714  099C  3472               	retlw	114	;'r'
   715  099D  3469               	retlw	105	;'i'
   716  099E  346F               	retlw	111	;'o'
   717  099F  3420               	retlw	32	;' '
   718  09A0  3475               	retlw	117	;'u'
   719  09A1  3473               	retlw	115	;'s'
   720  09A2  3475               	retlw	117	;'u'
   721  09A3  3461               	retlw	97	;'a'
   722  09A4  3472               	retlw	114	;'r'
   723  09A5  3469               	retlw	105	;'i'
   724  09A6  346F               	retlw	111	;'o'
   725  09A7  3420               	retlw	32	;' '
   726  09A8  3475               	retlw	117	;'u'
   727  09A9  346E               	retlw	110	;'n'
   728  09AA  346F               	retlw	111	;'o'
   729  09AB  3420               	retlw	32	;' '
   730  09AC  340D               	retlw	13
   731  09AD  3400               	retlw	0
   732  09AE                     STR_6:
   733  09AE  3435               	retlw	53	;'5'
   734  09AF  3429               	retlw	41	;')'
   735  09B0  3420               	retlw	32	;' '
   736  09B1  344D               	retlw	77	;'M'
   737  09B2  346F               	retlw	111	;'o'
   738  09B3  3464               	retlw	100	;'d'
   739  09B4  3469               	retlw	105	;'i'
   740  09B5  3466               	retlw	102	;'f'
   741  09B6  3469               	retlw	105	;'i'
   742  09B7  3463               	retlw	99	;'c'
   743  09B8  3461               	retlw	97	;'a'
   744  09B9  3472               	retlw	114	;'r'
   745  09BA  3420               	retlw	32	;' '
   746  09BB  3468               	retlw	104	;'h'
   747  09BC  346F               	retlw	111	;'o'
   748  09BD  3472               	retlw	114	;'r'
   749  09BE  3461               	retlw	97	;'a'
   750  09BF  3472               	retlw	114	;'r'
   751  09C0  3469               	retlw	105	;'i'
   752  09C1  346F               	retlw	111	;'o'
   753  09C2  3420               	retlw	32	;' '
   754  09C3  3475               	retlw	117	;'u'
   755  09C4  3473               	retlw	115	;'s'
   756  09C5  3475               	retlw	117	;'u'
   757  09C6  3461               	retlw	97	;'a'
   758  09C7  3472               	retlw	114	;'r'
   759  09C8  3469               	retlw	105	;'i'
   760  09C9  346F               	retlw	111	;'o'
   761  09CA  3420               	retlw	32	;' '
   762  09CB  3464               	retlw	100	;'d'
   763  09CC  346F               	retlw	111	;'o'
   764  09CD  3473               	retlw	115	;'s'
   765  09CE  340D               	retlw	13
   766  09CF  3400               	retlw	0
   767  09D0                     STR_19:
   768  09D0  3420               	retlw	32	;' '
   769  09D1  346D               	retlw	109	;'m'
   770  09D2  3469               	retlw	105	;'i'
   771  09D3  346E               	retlw	110	;'n'
   772  09D4  3473               	retlw	115	;'s'
   773  09D5  342E               	retlw	46	;'.'
   774  09D6  3420               	retlw	32	;' '
   775  09D7  3470               	retlw	112	;'p'
   776  09D8  3461               	retlw	97	;'a'
   777  09D9  3472               	retlw	114	;'r'
   778  09DA  3461               	retlw	97	;'a'
   779  09DB  3420               	retlw	32	;' '
   780  09DC  3465               	retlw	101	;'e'
   781  09DD  346C               	retlw	108	;'l'
   782  09DE  3420               	retlw	32	;' '
   783  09DF  346D               	retlw	109	;'m'
   784  09E0  3465               	retlw	101	;'e'
   785  09E1  3464               	retlw	100	;'d'
   786  09E2  3469               	retlw	105	;'i'
   787  09E3  3463               	retlw	99	;'c'
   788  09E4  3461               	retlw	97	;'a'
   789  09E5  346D               	retlw	109	;'m'
   790  09E6  3465               	retlw	101	;'e'
   791  09E7  346E               	retlw	110	;'n'
   792  09E8  3474               	retlw	116	;'t'
   793  09E9  346F               	retlw	111	;'o'
   794  09EA  3420               	retlw	32	;' '
   795  09EB  3433               	retlw	51	;'3'
   796  09EC  3420               	retlw	32	;' '
   797  09ED  340D               	retlw	13
   798  09EE  340D               	retlw	13
   799  09EF  3400               	retlw	0
   800  09F0                     STR_11:
   801  09F0  3420               	retlw	32	;' '
   802  09F1  346D               	retlw	109	;'m'
   803  09F2  3469               	retlw	105	;'i'
   804  09F3  346E               	retlw	110	;'n'
   805  09F4  3473               	retlw	115	;'s'
   806  09F5  342E               	retlw	46	;'.'
   807  09F6  3420               	retlw	32	;' '
   808  09F7  3470               	retlw	112	;'p'
   809  09F8  3461               	retlw	97	;'a'
   810  09F9  3472               	retlw	114	;'r'
   811  09FA  3461               	retlw	97	;'a'
   812  09FB  3420               	retlw	32	;' '
   813  09FC  3465               	retlw	101	;'e'
   814  09FD  346C               	retlw	108	;'l'
   815  09FE  3420               	retlw	32	;' '
   816  09FF  346D               	retlw	109	;'m'
   817  0A00  3465               	retlw	101	;'e'
   818  0A01  3464               	retlw	100	;'d'
   819  0A02  3469               	retlw	105	;'i'
   820  0A03  3463               	retlw	99	;'c'
   821  0A04  3461               	retlw	97	;'a'
   822  0A05  346D               	retlw	109	;'m'
   823  0A06  3465               	retlw	101	;'e'
   824  0A07  346E               	retlw	110	;'n'
   825  0A08  3474               	retlw	116	;'t'
   826  0A09  346F               	retlw	111	;'o'
   827  0A0A  3420               	retlw	32	;' '
   828  0A0B  3431               	retlw	49	;'1'
   829  0A0C  3420               	retlw	32	;' '
   830  0A0D  340D               	retlw	13
   831  0A0E  3400               	retlw	0
   832  0A0F                     STR_15:
   833  0A0F  3420               	retlw	32	;' '
   834  0A10  346D               	retlw	109	;'m'
   835  0A11  3469               	retlw	105	;'i'
   836  0A12  346E               	retlw	110	;'n'
   837  0A13  3473               	retlw	115	;'s'
   838  0A14  342E               	retlw	46	;'.'
   839  0A15  3420               	retlw	32	;' '
   840  0A16  3470               	retlw	112	;'p'
   841  0A17  3461               	retlw	97	;'a'
   842  0A18  3472               	retlw	114	;'r'
   843  0A19  3461               	retlw	97	;'a'
   844  0A1A  3420               	retlw	32	;' '
   845  0A1B  3465               	retlw	101	;'e'
   846  0A1C  346C               	retlw	108	;'l'
   847  0A1D  3420               	retlw	32	;' '
   848  0A1E  346D               	retlw	109	;'m'
   849  0A1F  3465               	retlw	101	;'e'
   850  0A20  3464               	retlw	100	;'d'
   851  0A21  3469               	retlw	105	;'i'
   852  0A22  3463               	retlw	99	;'c'
   853  0A23  3461               	retlw	97	;'a'
   854  0A24  346D               	retlw	109	;'m'
   855  0A25  3465               	retlw	101	;'e'
   856  0A26  346E               	retlw	110	;'n'
   857  0A27  3474               	retlw	116	;'t'
   858  0A28  346F               	retlw	111	;'o'
   859  0A29  3420               	retlw	32	;' '
   860  0A2A  3432               	retlw	50	;'2'
   861  0A2B  3420               	retlw	32	;' '
   862  0A2C  340D               	retlw	13
   863  0A2D  3400               	retlw	0
   864  0A2E                     STR_1:
   865  0A2E  340D               	retlw	13
   866  0A2F  3420               	retlw	32	;' '
   867  0A30  3451               	retlw	81	;'Q'
   868  0A31  3475               	retlw	117	;'u'
   869  0A32  3465               	retlw	101	;'e'
   870  0A33  3420               	retlw	32	;' '
   871  0A34  3461               	retlw	97	;'a'
   872  0A35  3463               	retlw	99	;'c'
   873  0A36  3463               	retlw	99	;'c'
   874  0A37  3469               	retlw	105	;'i'
   875  0A38  346F               	retlw	111	;'o'
   876  0A39  346E               	retlw	110	;'n'
   877  0A3A  3420               	retlw	32	;' '
   878  0A3B  3464               	retlw	100	;'d'
   879  0A3C  3465               	retlw	101	;'e'
   880  0A3D  3473               	retlw	115	;'s'
   881  0A3E  3465               	retlw	101	;'e'
   882  0A3F  3461               	retlw	97	;'a'
   883  0A40  3420               	retlw	32	;' '
   884  0A41  3465               	retlw	101	;'e'
   885  0A42  346A               	retlw	106	;'j'
   886  0A43  3465               	retlw	101	;'e'
   887  0A44  3463               	retlw	99	;'c'
   888  0A45  3475               	retlw	117	;'u'
   889  0A46  3474               	retlw	116	;'t'
   890  0A47  3461               	retlw	97	;'a'
   891  0A48  3472               	retlw	114	;'r'
   892  0A49  343F               	retlw	63	;'?'
   893  0A4A  3420               	retlw	32	;' '
   894  0A4B  340D               	retlw	13
   895  0A4C  3400               	retlw	0
   896  0A4D                     STR_4:
   897  0A4D  3433               	retlw	51	;'3'
   898  0A4E  3429               	retlw	41	;')'
   899  0A4F  3420               	retlw	32	;' '
   900  0A50  3476               	retlw	118	;'v'
   901  0A51  3465               	retlw	101	;'e'
   902  0A52  3472               	retlw	114	;'r'
   903  0A53  3420               	retlw	32	;' '
   904  0A54  3464               	retlw	100	;'d'
   905  0A55  3461               	retlw	97	;'a'
   906  0A56  3474               	retlw	116	;'t'
   907  0A57  346F               	retlw	111	;'o'
   908  0A58  3473               	retlw	115	;'s'
   909  0A59  3420               	retlw	32	;' '
   910  0A5A  3464               	retlw	100	;'d'
   911  0A5B  3465               	retlw	101	;'e'
   912  0A5C  3420               	retlw	32	;' '
   913  0A5D  3475               	retlw	117	;'u'
   914  0A5E  3473               	retlw	115	;'s'
   915  0A5F  3475               	retlw	117	;'u'
   916  0A60  3461               	retlw	97	;'a'
   917  0A61  3472               	retlw	114	;'r'
   918  0A62  3469               	retlw	105	;'i'
   919  0A63  346F               	retlw	111	;'o'
   920  0A64  3420               	retlw	32	;' '
   921  0A65  3474               	retlw	116	;'t'
   922  0A66  3472               	retlw	114	;'r'
   923  0A67  3465               	retlw	101	;'e'
   924  0A68  3473               	retlw	115	;'s'
   925  0A69  3420               	retlw	32	;' '
   926  0A6A  340D               	retlw	13
   927  0A6B  3400               	retlw	0
   928  0A6C                     STR_2:
   929  0A6C  3431               	retlw	49	;'1'
   930  0A6D  3429               	retlw	41	;')'
   931  0A6E  3420               	retlw	32	;' '
   932  0A6F  3476               	retlw	118	;'v'
   933  0A70  3465               	retlw	101	;'e'
   934  0A71  3472               	retlw	114	;'r'
   935  0A72  3420               	retlw	32	;' '
   936  0A73  3464               	retlw	100	;'d'
   937  0A74  3461               	retlw	97	;'a'
   938  0A75  3474               	retlw	116	;'t'
   939  0A76  346F               	retlw	111	;'o'
   940  0A77  3473               	retlw	115	;'s'
   941  0A78  3420               	retlw	32	;' '
   942  0A79  3464               	retlw	100	;'d'
   943  0A7A  3465               	retlw	101	;'e'
   944  0A7B  3420               	retlw	32	;' '
   945  0A7C  3475               	retlw	117	;'u'
   946  0A7D  3473               	retlw	115	;'s'
   947  0A7E  3475               	retlw	117	;'u'
   948  0A7F  3461               	retlw	97	;'a'
   949  0A80  3472               	retlw	114	;'r'
   950  0A81  3469               	retlw	105	;'i'
   951  0A82  346F               	retlw	111	;'o'
   952  0A83  3420               	retlw	32	;' '
   953  0A84  3475               	retlw	117	;'u'
   954  0A85  346E               	retlw	110	;'n'
   955  0A86  346F               	retlw	111	;'o'
   956  0A87  3420               	retlw	32	;' '
   957  0A88  340D               	retlw	13
   958  0A89  3400               	retlw	0
   959  0A8A                     STR_3:
   960  0A8A  3432               	retlw	50	;'2'
   961  0A8B  3429               	retlw	41	;')'
   962  0A8C  3420               	retlw	32	;' '
   963  0A8D  3476               	retlw	118	;'v'
   964  0A8E  3465               	retlw	101	;'e'
   965  0A8F  3472               	retlw	114	;'r'
   966  0A90  3420               	retlw	32	;' '
   967  0A91  3464               	retlw	100	;'d'
   968  0A92  3461               	retlw	97	;'a'
   969  0A93  3474               	retlw	116	;'t'
   970  0A94  346F               	retlw	111	;'o'
   971  0A95  3473               	retlw	115	;'s'
   972  0A96  3420               	retlw	32	;' '
   973  0A97  3464               	retlw	100	;'d'
   974  0A98  3465               	retlw	101	;'e'
   975  0A99  3420               	retlw	32	;' '
   976  0A9A  3475               	retlw	117	;'u'
   977  0A9B  3473               	retlw	115	;'s'
   978  0A9C  3475               	retlw	117	;'u'
   979  0A9D  3461               	retlw	97	;'a'
   980  0A9E  3472               	retlw	114	;'r'
   981  0A9F  3469               	retlw	105	;'i'
   982  0AA0  346F               	retlw	111	;'o'
   983  0AA1  3420               	retlw	32	;' '
   984  0AA2  3464               	retlw	100	;'d'
   985  0AA3  346F               	retlw	111	;'o'
   986  0AA4  3473               	retlw	115	;'s'
   987  0AA5  340D               	retlw	13
   988  0AA6  3400               	retlw	0
   989  0AA7                     STR_56:
   990  0AA7  3420               	retlw	32	;' '
   991  0AA8  3431               	retlw	49	;'1'
   992  0AA9  342E               	retlw	46	;'.'
   993  0AAA  3441               	retlw	65	;'A'
   994  0AAB  3446               	retlw	70	;'F'
   995  0AAC  3443               	retlw	67	;'C'
   996  0AAD  3420               	retlw	32	;' '
   997  0AAE  3420               	retlw	32	;' '
   998  0AAF  3420               	retlw	32	;' '
   999  0AB0  3420               	retlw	32	;' '
  1000  0AB1  3432               	retlw	50	;'2'
  1001  0AB2  342E               	retlw	46	;'.'
  1002  0AB3  3446               	retlw	70	;'F'
  1003  0AB4  3446               	retlw	70	;'F'
  1004  0AB5  3454               	retlw	84	;'T'
  1005  0AB6  3420               	retlw	32	;' '
  1006  0AB7  3420               	retlw	32	;' '
  1007  0AB8  3420               	retlw	32	;' '
  1008  0AB9  3433               	retlw	51	;'3'
  1009  0ABA  342E               	retlw	46	;'.'
  1010  0ABB  3444               	retlw	68	;'D'
  1011  0ABC  3448               	retlw	72	;'H'
  1012  0ABD  344C               	retlw	76	;'L'
  1013  0ABE  3420               	retlw	32	;' '
  1014  0ABF  340D               	retlw	13
  1015  0AC0  3400               	retlw	0
  1016  0AC1                     STR_8:
  1017  0AC1  3420               	retlw	32	;' '
  1018  0AC2  3445               	retlw	69	;'E'
  1019  0AC3  3473               	retlw	115	;'s'
  1020  0AC4  3470               	retlw	112	;'p'
  1021  0AC5  3465               	retlw	101	;'e'
  1022  0AC6  3472               	retlw	114	;'r'
  1023  0AC7  3461               	retlw	97	;'a'
  1024  0AC8  3472               	retlw	114	;'r'
  1025  0AC9  3420               	retlw	32	;' '
  1026  0ACA  3420               	retlw	32	;' '
  1027  0ACB  3400               	retlw	0
  1028  0ACC                     STR_9:
  1029  0ACC  3420               	retlw	32	;' '
  1030  0ACD  3448               	retlw	72	;'H'
  1031  0ACE  346F               	retlw	111	;'o'
  1032  0ACF  3472               	retlw	114	;'r'
  1033  0AD0  3461               	retlw	97	;'a'
  1034  0AD1  3473               	retlw	115	;'s'
  1035  0AD2  3420               	retlw	32	;' '
  1036  0AD3  3400               	retlw	0
  1037  0AD4                     STR_10:
  1038  0AD4  3420               	retlw	32	;' '
  1039  0AD5  3463               	retlw	99	;'c'
  1040  0AD6  346F               	retlw	111	;'o'
  1041  0AD7  346E               	retlw	110	;'n'
  1042  0AD8  3420               	retlw	32	;' '
  1043  0AD9  3420               	retlw	32	;' '
  1044  0ADA  3400               	retlw	0
  1045  0ADB                     STR_85:
  1046  0ADB  3433               	retlw	51	;'3'
  1047  0ADC  3430               	retlw	48	;'0'
  1048  0ADD  3400               	retlw	0
  1049  0ADE                     STR_84:
  1050  0ADE  3431               	retlw	49	;'1'
  1051  0ADF  3435               	retlw	53	;'5'
  1052  0AE0  3400               	retlw	0
  1053  0AE1                     STR_86:
  1054  0AE1  3434               	retlw	52	;'4'
  1055  0AE2  3435               	retlw	53	;'5'
  1056  0AE3  3400               	retlw	0
  1057  0AE4                     STR_87:
  1058  0AE4  3435               	retlw	53	;'5'
  1059  0AE5  3435               	retlw	53	;'5'
  1060  0AE6  3400               	retlw	0
  1061  09D0                     
  1062                           	psect	cinit
  1063  000F                     start_initialization:	
  1064                           ; #config settings
  1065                           
  1066  000F                     __initialization:
  1067                           
  1068                           ; Clear objects allocated to COMMON
  1069  000F  01F6               	clrf	__pbssCOMMON& (0+127)
  1070  0010  01F7               	clrf	(__pbssCOMMON+1)& (0+127)
  1071  0011  01F8               	clrf	(__pbssCOMMON+2)& (0+127)
  1072  0012  01F9               	clrf	(__pbssCOMMON+3)& (0+127)
  1073  0013  01FA               	clrf	(__pbssCOMMON+4)& (0+127)
  1074                           
  1075                           ; Clear objects allocated to BANK0
  1076  0014  1383               	bcf	3,7	;select IRP bank0
  1077  0015  3020               	movlw	low __pbssBANK0
  1078  0016  0084               	movwf	4
  1079  0017  303A               	movlw	low (__pbssBANK0+26)
  1080  0018  120A  158A  2391  120A  118A  	fcall	clear_ram0
  1081  001D                     end_of_initialization:	
  1082                           ;End of C runtime variable initialization code
  1083                           
  1084  001D                     __end_of__initialization:
  1085  001D  0183               	clrf	3
  1086  001E  120A  158A  2D30   	ljmp	_main	;jump to C main() function
  1087                           
  1088                           	psect	bssCOMMON
  1089  0076                     __pbssCOMMON:
  1090  0076                     _hora_nueva:
  1091  0076                     	ds	1
  1092  0077                     _min_user1:
  1093  0077                     	ds	1
  1094  0078                     _escala:
  1095  0078                     	ds	1
  1096  0079                     _minuto:
  1097  0079                     	ds	1
  1098  007A                     _hora:
  1099  007A                     	ds	1
  1100                           
  1101                           	psect	bssBANK0
  1102  0020                     __pbssBANK0:
  1103  0020                     _cont:
  1104  0020                     	ds	1
  1105  0021                     _me_3_us3_m:
  1106  0021                     	ds	1
  1107  0022                     _me_2_us3_m:
  1108  0022                     	ds	1
  1109  0023                     _me_1_us3_m:
  1110  0023                     	ds	1
  1111  0024                     _me_3_us2_m:
  1112  0024                     	ds	1
  1113  0025                     _me_2_us2_m:
  1114  0025                     	ds	1
  1115  0026                     _me_1_us2_m:
  1116  0026                     	ds	1
  1117  0027                     _me_3_us1_m:
  1118  0027                     	ds	1
  1119  0028                     _me_2_us1_m:
  1120  0028                     	ds	1
  1121  0029                     _me_1_us1_m:
  1122  0029                     	ds	1
  1123  002A                     _me_3_us3_h:
  1124  002A                     	ds	1
  1125  002B                     _me_2_us3_h:
  1126  002B                     	ds	1
  1127  002C                     _me_1_us3_h:
  1128  002C                     	ds	1
  1129  002D                     _me_3_us2_h:
  1130  002D                     	ds	1
  1131  002E                     _me_2_us2_h:
  1132  002E                     	ds	1
  1133  002F                     _me_1_us2_h:
  1134  002F                     	ds	1
  1135  0030                     _me_3_us1_h:
  1136  0030                     	ds	1
  1137  0031                     _me_2_us1_h:
  1138  0031                     	ds	1
  1139  0032                     _me_1_us1_h:
  1140  0032                     	ds	1
  1141  0033                     _hora_user3:
  1142  0033                     	ds	1
  1143  0034                     _hora_user2:
  1144  0034                     	ds	1
  1145  0035                     _hora_user1:
  1146  0035                     	ds	1
  1147  0036                     _min_user3:
  1148  0036                     	ds	1
  1149  0037                     _min_user2:
  1150  0037                     	ds	1
  1151  0038                     _ventana:
  1152  0038                     	ds	1
  1153  0039                     _valor:
  1154  0039                     	ds	1
  1155                           
  1156                           	psect	clrtext
  1157  0B91                     clear_ram0:	
  1158                           ;	Called with FSR containing the base address, and
  1159                           ;	W with the last address+1
  1160                           
  1161  0B91  0064               	clrwdt	;clear the watchdog before getting into this loop
  1162  0B92                     clrloop0:
  1163  0B92  0180               	clrf	0	;clear RAM location pointed to by FSR
  1164  0B93  0A84               	incf	4,f	;increment pointer
  1165  0B94  0604               	xorwf	4,w	;XOR with final address
  1166  0B95  1903               	btfsc	3,2	;have we reached the end yet?
  1167  0B96  3400               	retlw	0	;all done for this memory range, return
  1168  0B97  0604               	xorwf	4,w	;XOR again to restore value
  1169  0B98  2B92               	goto	clrloop0	;do the next byte
  1170                           
  1171                           	psect	cstackCOMMON
  1172  0070                     __pcstackCOMMON:
  1173  0070                     ?_USART_Rx:
  1174  0070                     ?_SendCharH:	
  1175                           ; 1 bytes @ 0x0
  1176                           
  1177  0070                     ?_SendCharM:	
  1178                           ; 1 bytes @ 0x0
  1179                           
  1180  0070                     ?_isr:	
  1181                           ; 1 bytes @ 0x0
  1182                           
  1183  0070                     ??_isr:	
  1184                           ; 1 bytes @ 0x0
  1185                           
  1186  0070                     ?_main:	
  1187                           ; 1 bytes @ 0x0
  1188                           
  1189  0070                     ?_USART_Tx:	
  1190                           ; 1 bytes @ 0x0
  1191                           
  1192                           
  1193                           ; 1 bytes @ 0x0
  1194  0070                     	ds	3
  1195  0073                     ??_USART_Rx:
  1196  0073                     ??_SendCharH:	
  1197                           ; 1 bytes @ 0x3
  1198                           
  1199  0073                     ?_CharToNumH:	
  1200                           ; 1 bytes @ 0x3
  1201                           
  1202  0073                     ?_CharToNumM:	
  1203                           ; 1 bytes @ 0x3
  1204                           
  1205  0073                     ??_USART_Tx:	
  1206                           ; 1 bytes @ 0x3
  1207                           
  1208  0073                     USART_Tx@data:	
  1209                           ; 1 bytes @ 0x3
  1210                           
  1211  0073                     CharToNumH@hora_user:	
  1212                           ; 1 bytes @ 0x3
  1213                           
  1214  0073                     CharToNumM@her:	
  1215                           ; 1 bytes @ 0x3
  1216                           
  1217                           
  1218                           ; 1 bytes @ 0x3
  1219  0073                     	ds	1
  1220  0074                     ?_USART_Cadena:
  1221  0074                     ??_CharToNumH:	
  1222                           ; 1 bytes @ 0x4
  1223                           
  1224  0074                     ??_CharToNumM:	
  1225                           ; 1 bytes @ 0x4
  1226                           
  1227  0074                     USART_Cadena@str:	
  1228                           ; 1 bytes @ 0x4
  1229                           
  1230                           
  1231                           ; 2 bytes @ 0x4
  1232  0074                     	ds	1
  1233  0075                     SendCharH@in:
  1234  0075                     CharToNumM@in:	
  1235                           ; 1 bytes @ 0x5
  1236                           
  1237                           
  1238                           ; 1 bytes @ 0x5
  1239  0075                     	ds	1
  1240  0076                     ??_USART_Cadena:
  1241  0076                     ??_SendCharM:	
  1242                           ; 1 bytes @ 0x6
  1243                           
  1244                           
  1245                           	psect	cstackBANK0
  1246  003A                     __pcstackBANK0:	
  1247                           ; 1 bytes @ 0x6
  1248                           
  1249  003A                     SendCharM@in:
  1250  003A                     CharToNumH@in:	
  1251                           ; 1 bytes @ 0x0
  1252                           
  1253                           
  1254                           ; 1 bytes @ 0x0
  1255  003A                     	ds	1
  1256  003B                     ??_main:
  1257                           
  1258                           ; 1 bytes @ 0x1
  1259  003B                     	ds	2
  1260                           
  1261                           	psect	maintext
  1262  0D30                     __pmaintext:	
  1263 ;;
  1264 ;;Main: autosize = 0, tempsize = 2, incstack = 0, save=0
  1265 ;;
  1266 ;; *************** function _main *****************
  1267 ;; Defined at:
  1268 ;;		line 90 in file "PROYECTO.c"
  1269 ;; Parameters:    Size  Location     Type
  1270 ;;		None
  1271 ;; Auto vars:     Size  Location     Type
  1272 ;;		None
  1273 ;; Return value:  Size  Location     Type
  1274 ;;                  1    wreg      void 
  1275 ;; Registers used:
  1276 ;;		wreg, fsr0l, fsr0h, status,2, status,0, btemp+1, pclath, cstack
  1277 ;; Tracked objects:
  1278 ;;		On entry : B00/0
  1279 ;;		On exit  : 0/0
  1280 ;;		Unchanged: 0/0
  1281 ;; Data sizes:     COMMON   BANK0   BANK1   BANK3   BANK2
  1282 ;;      Params:         0       0       0       0       0
  1283 ;;      Locals:         0       0       0       0       0
  1284 ;;      Temps:          0       2       0       0       0
  1285 ;;      Totals:         0       2       0       0       0
  1286 ;;Total ram usage:        2 bytes
  1287 ;; Hardware stack levels required when called:    4
  1288 ;; This function calls:
  1289 ;;		_CharToNumH
  1290 ;;		_CharToNumM
  1291 ;;		_SendCharH
  1292 ;;		_SendCharM
  1293 ;;		_USART_Cadena
  1294 ;;		_USART_Rx
  1295 ;; This function is called by:
  1296 ;;		Startup code after reset
  1297 ;; This function uses a non-reentrant model
  1298 ;;
  1299                           
  1300                           
  1301                           ;psect for function _main
  1302  0D30                     _main:
  1303  0D30                     l3066:	
  1304                           ;incstack = 0
  1305                           ; Regs used in _main: [wreg-fsr0h+status,2+status,0+btemp+1+pclath+cstack]
  1306                           
  1307                           
  1308                           ;PROYECTO.c: 91:     ANSEL = 0x00;
  1309  0D30  1683               	bsf	3,5	;RP0=1, select bank3
  1310  0D31  1703               	bsf	3,6	;RP1=1, select bank3
  1311  0D32  0188               	clrf	8	;volatile
  1312                           
  1313                           ;PROYECTO.c: 92:     ANSELH = 0x00;
  1314  0D33  0189               	clrf	9	;volatile
  1315                           
  1316                           ;PROYECTO.c: 94:     TRISA = 0x00;
  1317  0D34  1683               	bsf	3,5	;RP0=1, select bank1
  1318  0D35  1303               	bcf	3,6	;RP1=0, select bank1
  1319  0D36  0185               	clrf	5	;volatile
  1320  0D37                     l3068:
  1321                           
  1322                           ;PROYECTO.c: 95:     TRISB = 0xff;
  1323  0D37  30FF               	movlw	255
  1324  0D38  0086               	movwf	6	;volatile
  1325  0D39                     l3070:
  1326                           
  1327                           ;PROYECTO.c: 96:     TRISD = 0x00;
  1328  0D39  0188               	clrf	8	;volatile
  1329                           
  1330                           ;PROYECTO.c: 97:     TRISE = 0b0011;
  1331  0D3A  3003               	movlw	3
  1332  0D3B  0089               	movwf	9	;volatile
  1333  0D3C                     l3072:
  1334                           
  1335                           ;PROYECTO.c: 100:     ADCON1bits.ADFM = 0;
  1336  0D3C  139F               	bcf	31,7	;volatile
  1337  0D3D                     l3074:
  1338                           
  1339                           ;PROYECTO.c: 101:     ADCON1bits.VCFG0 = 0;
  1340  0D3D  121F               	bcf	31,4	;volatile
  1341  0D3E                     l3076:
  1342                           
  1343                           ;PROYECTO.c: 102:     ADCON1bits.VCFG1 = 0;
  1344  0D3E  129F               	bcf	31,5	;volatile
  1345  0D3F                     l3078:
  1346                           
  1347                           ;PROYECTO.c: 103:     ADCON0bits.ADCS0 = 1;
  1348  0D3F  1283               	bcf	3,5	;RP0=0, select bank0
  1349  0D40  1303               	bcf	3,6	;RP1=0, select bank0
  1350  0D41  171F               	bsf	31,6	;volatile
  1351  0D42                     l3080:
  1352                           
  1353                           ;PROYECTO.c: 104:     ADCON0bits.ADCS1 = 0;
  1354  0D42  139F               	bcf	31,7	;volatile
  1355  0D43                     l3082:
  1356                           
  1357                           ;PROYECTO.c: 105:     ADCON0bits.CHS = 5;
  1358  0D43  081F               	movf	31,w	;volatile
  1359  0D44  39C3               	andlw	-61
  1360  0D45  3814               	iorlw	20
  1361  0D46  009F               	movwf	31	;volatile
  1362  0D47                     l3084:
  1363                           
  1364                           ;PROYECTO.c: 106:     _delay((unsigned long)((100)*(4000000/4000000.0)));
  1365  0D47  3020               	movlw	32
  1366  0D48  1283               	bcf	3,5	;RP0=0, select bank0
  1367  0D49  1303               	bcf	3,6	;RP1=0, select bank0
  1368  0D4A  00BB               	movwf	??_main
  1369  0D4B                     u4497:
  1370  0D4B  0BBB               	decfsz	??_main,f
  1371  0D4C  2D4B               	goto	u4497
  1372  0D4D  0000               	nop
  1373  0D4E                     l3086:
  1374                           
  1375                           ;PROYECTO.c: 107:     ADCON0bits.ADON = 1;
  1376  0D4E  1283               	bcf	3,5	;RP0=0, select bank0
  1377  0D4F  1303               	bcf	3,6	;RP1=0, select bank0
  1378  0D50  141F               	bsf	31,0	;volatile
  1379  0D51                     l3088:
  1380                           
  1381                           ;PROYECTO.c: 109:     OPTION_REGbits.nRBPU = 0;
  1382  0D51  1683               	bsf	3,5	;RP0=1, select bank1
  1383  0D52  1303               	bcf	3,6	;RP1=0, select bank1
  1384  0D53  1381               	bcf	1,7	;volatile
  1385  0D54                     l3090:
  1386                           
  1387                           ;PROYECTO.c: 110:     WPUBbits.WPUB0 = 1;
  1388  0D54  1415               	bsf	21,0	;volatile
  1389  0D55                     l3092:
  1390                           
  1391                           ;PROYECTO.c: 111:     WPUBbits.WPUB1 = 1;
  1392  0D55  1495               	bsf	21,1	;volatile
  1393  0D56                     l3094:
  1394                           
  1395                           ;PROYECTO.c: 112:     WPUBbits.WPUB2 = 1;
  1396  0D56  1515               	bsf	21,2	;volatile
  1397  0D57                     l3096:
  1398                           
  1399                           ;PROYECTO.c: 113:     WPUBbits.WPUB5 = 1;
  1400  0D57  1695               	bsf	21,5	;volatile
  1401  0D58                     l3098:
  1402                           
  1403                           ;PROYECTO.c: 114:     WPUBbits.WPUB6 = 1;
  1404  0D58  1715               	bsf	21,6	;volatile
  1405  0D59                     l3100:
  1406                           
  1407                           ;PROYECTO.c: 115:     WPUBbits.WPUB7 = 1;
  1408  0D59  1795               	bsf	21,7	;volatile
  1409                           
  1410                           ;PROYECTO.c: 118:     OSCCONbits.IRCF = 0b110;
  1411  0D5A  080F               	movf	15,w	;volatile
  1412  0D5B  398F               	andlw	-113
  1413  0D5C  3860               	iorlw	96
  1414  0D5D  008F               	movwf	15	;volatile
  1415  0D5E                     l3102:
  1416                           
  1417                           ;PROYECTO.c: 119:     OSCCONbits.SCS = 1;
  1418  0D5E  140F               	bsf	15,0	;volatile
  1419  0D5F                     l3104:
  1420                           
  1421                           ;PROYECTO.c: 122:     OPTION_REGbits.T0CS = 0;
  1422  0D5F  1281               	bcf	1,5	;volatile
  1423  0D60                     l3106:
  1424                           
  1425                           ;PROYECTO.c: 123:     OPTION_REGbits.PSA = 0;
  1426  0D60  1181               	bcf	1,3	;volatile
  1427                           
  1428                           ;PROYECTO.c: 124:     OPTION_REGbits.PS = 0b111;
  1429  0D61  3007               	movlw	7
  1430  0D62  0481               	iorwf	1,f	;volatile
  1431  0D63                     l3108:
  1432                           
  1433                           ;PROYECTO.c: 125:     TMR0 = 78;
  1434  0D63  304E               	movlw	78
  1435  0D64  1283               	bcf	3,5	;RP0=0, select bank0
  1436  0D65  1303               	bcf	3,6	;RP1=0, select bank0
  1437  0D66  0081               	movwf	1	;volatile
  1438  0D67                     l3110:
  1439                           
  1440                           ;PROYECTO.c: 128:     T1CONbits.T1CKPS1 = 1;
  1441  0D67  1690               	bsf	16,5	;volatile
  1442  0D68                     l3112:
  1443                           
  1444                           ;PROYECTO.c: 129:     T1CONbits.T1CKPS0 = 1;
  1445  0D68  1610               	bsf	16,4	;volatile
  1446  0D69                     l3114:
  1447                           
  1448                           ;PROYECTO.c: 130:     T1CONbits.T1OSCEN = 1;
  1449  0D69  1590               	bsf	16,3	;volatile
  1450  0D6A                     l3116:
  1451                           
  1452                           ;PROYECTO.c: 131:     T1CONbits.T1SYNC = 1;
  1453  0D6A  1510               	bsf	16,2	;volatile
  1454  0D6B                     l3118:
  1455                           
  1456                           ;PROYECTO.c: 132:     T1CONbits.TMR1CS = 0;
  1457  0D6B  1090               	bcf	16,1	;volatile
  1458  0D6C                     l3120:
  1459                           
  1460                           ;PROYECTO.c: 133:     T1CONbits.TMR1ON = 1;
  1461  0D6C  1410               	bsf	16,0	;volatile
  1462  0D6D                     l3122:
  1463                           
  1464                           ;PROYECTO.c: 134:     TMR1H = 0;
  1465  0D6D  018F               	clrf	15	;volatile
  1466  0D6E                     l3124:
  1467                           
  1468                           ;PROYECTO.c: 135:     TMR1L = 0;
  1469  0D6E  018E               	clrf	14	;volatile
  1470  0D6F                     l3126:
  1471                           
  1472                           ;PROYECTO.c: 139:     TXSTAbits.SYNC = 0;
  1473  0D6F  1683               	bsf	3,5	;RP0=1, select bank1
  1474  0D70  1303               	bcf	3,6	;RP1=0, select bank1
  1475  0D71  1218               	bcf	24,4	;volatile
  1476  0D72                     l3128:
  1477                           
  1478                           ;PROYECTO.c: 140:     TXSTAbits.BRGH = 1;
  1479  0D72  1518               	bsf	24,2	;volatile
  1480  0D73                     l3130:
  1481                           
  1482                           ;PROYECTO.c: 141:     BAUDCTLbits.BRG16 = 1;
  1483  0D73  1683               	bsf	3,5	;RP0=1, select bank3
  1484  0D74  1703               	bsf	3,6	;RP1=1, select bank3
  1485  0D75  1587               	bsf	7,3	;volatile
  1486  0D76                     l3132:
  1487                           
  1488                           ;PROYECTO.c: 143:     SPBRG = 103;
  1489  0D76  3067               	movlw	103
  1490  0D77  1683               	bsf	3,5	;RP0=1, select bank1
  1491  0D78  1303               	bcf	3,6	;RP1=0, select bank1
  1492  0D79  0099               	movwf	25	;volatile
  1493  0D7A                     l3134:
  1494                           
  1495                           ;PROYECTO.c: 144:     SPBRGH = 0;
  1496  0D7A  019A               	clrf	26	;volatile
  1497  0D7B                     l3136:
  1498                           
  1499                           ;PROYECTO.c: 146:     RCSTAbits.SPEN = 1;
  1500  0D7B  1283               	bcf	3,5	;RP0=0, select bank0
  1501  0D7C  1303               	bcf	3,6	;RP1=0, select bank0
  1502  0D7D  1798               	bsf	24,7	;volatile
  1503  0D7E                     l3138:
  1504                           
  1505                           ;PROYECTO.c: 147:     RCSTAbits.RX9 = 0;
  1506  0D7E  1318               	bcf	24,6	;volatile
  1507  0D7F                     l3140:
  1508                           
  1509                           ;PROYECTO.c: 148:     RCSTAbits.CREN = 1;
  1510  0D7F  1618               	bsf	24,4	;volatile
  1511  0D80                     l3142:
  1512                           
  1513                           ;PROYECTO.c: 149:     TXSTAbits.TXEN = 1;
  1514  0D80  1683               	bsf	3,5	;RP0=1, select bank1
  1515  0D81  1303               	bcf	3,6	;RP1=0, select bank1
  1516  0D82  1698               	bsf	24,5	;volatile
  1517  0D83                     l3144:
  1518                           
  1519                           ;PROYECTO.c: 151:     INTCONbits.GIE = 1;
  1520  0D83  178B               	bsf	11,7	;volatile
  1521  0D84                     l3146:
  1522                           
  1523                           ;PROYECTO.c: 152:     INTCONbits.T0IE = 0;
  1524  0D84  128B               	bcf	11,5	;volatile
  1525  0D85                     l3148:
  1526                           
  1527                           ;PROYECTO.c: 153:     INTCONbits.T0IF = 0;
  1528  0D85  110B               	bcf	11,2	;volatile
  1529  0D86                     l3150:
  1530                           
  1531                           ;PROYECTO.c: 154:     PIR1bits.TMR1IF = 0;
  1532  0D86  1283               	bcf	3,5	;RP0=0, select bank0
  1533  0D87  1303               	bcf	3,6	;RP1=0, select bank0
  1534  0D88  100C               	bcf	12,0	;volatile
  1535  0D89                     l3152:
  1536                           
  1537                           ;PROYECTO.c: 155:     PIE1bits.TMR1IE = 1;
  1538  0D89  1683               	bsf	3,5	;RP0=1, select bank1
  1539  0D8A  1303               	bcf	3,6	;RP1=0, select bank1
  1540  0D8B  140C               	bsf	12,0	;volatile
  1541  0D8C                     l3154:
  1542                           
  1543                           ;PROYECTO.c: 156:     INTCONbits.PEIE = 1;
  1544  0D8C  170B               	bsf	11,6	;volatile
  1545  0D8D                     l3156:
  1546                           
  1547                           ;PROYECTO.c: 161:     ADCON0bits.GO = 1;
  1548  0D8D  1283               	bcf	3,5	;RP0=0, select bank0
  1549  0D8E  1303               	bcf	3,6	;RP1=0, select bank0
  1550  0D8F  149F               	bsf	31,1	;volatile
  1551  0D90                     l3158:
  1552                           
  1553                           ;PROYECTO.c: 163:     PORTA = 0;
  1554  0D90  0185               	clrf	5	;volatile
  1555  0D91                     l3160:
  1556                           
  1557                           ;PROYECTO.c: 164:     PORTB = 0;
  1558  0D91  0186               	clrf	6	;volatile
  1559  0D92                     l3162:
  1560                           
  1561                           ;PROYECTO.c: 165:     PORTC = 0;
  1562  0D92  0187               	clrf	7	;volatile
  1563  0D93                     l3164:
  1564                           
  1565                           ;PROYECTO.c: 166:     PORTD = 0;
  1566  0D93  0188               	clrf	8	;volatile
  1567  0D94                     l3166:
  1568                           
  1569                           ;PROYECTO.c: 167:     PORTE = 0;
  1570  0D94  0189               	clrf	9	;volatile
  1571  0D95                     l3168:
  1572                           
  1573                           ;PROYECTO.c: 169:     ventana = 1;
  1574  0D95  01B8               	clrf	_ventana
  1575  0D96  0AB8               	incf	_ventana,f
  1576  0D97                     l3170:
  1577                           
  1578                           ;PROYECTO.c: 173:        if (T0IF == 1) {
  1579  0D97  1D0B               	btfss	11,2	;volatile
  1580  0D98  2D9A               	goto	u3391
  1581  0D99  2D9B               	goto	u3390
  1582  0D9A                     u3391:
  1583  0D9A  2DF0               	goto	l3208
  1584  0D9B                     u3390:
  1585  0D9B                     l3172:
  1586                           
  1587                           ;PROYECTO.c: 174:             if(!RB0){
  1588  0D9B  1806               	btfsc	6,0	;volatile
  1589  0D9C  2D9E               	goto	u3401
  1590  0D9D  2D9F               	goto	u3400
  1591  0D9E                     u3401:
  1592  0D9E  2DB1               	goto	l180
  1593  0D9F                     u3400:
  1594  0D9F                     l3174:
  1595                           
  1596                           ;PROYECTO.c: 175:                 RD0 = 1;
  1597  0D9F  1408               	bsf	8,0	;volatile
  1598  0DA0                     l3176:
  1599                           
  1600                           ;PROYECTO.c: 176:                 _delay((unsigned long)((2)*(4000000/4000.0)));
  1601  0DA0  3003               	movlw	3
  1602  0DA1  1283               	bcf	3,5	;RP0=0, select bank0
  1603  0DA2  1303               	bcf	3,6	;RP1=0, select bank0
  1604  0DA3  00BC               	movwf	??_main+1
  1605  0DA4  3097               	movlw	151
  1606  0DA5  00BB               	movwf	??_main
  1607  0DA6                     u4507:
  1608  0DA6  0BBB               	decfsz	??_main,f
  1609  0DA7  2DA6               	goto	u4507
  1610  0DA8  0BBC               	decfsz	??_main+1,f
  1611  0DA9  2DA6               	goto	u4507
  1612  0DAA                     l3178:
  1613                           
  1614                           ;PROYECTO.c: 177:                 RD0 = 0;
  1615  0DAA  1283               	bcf	3,5	;RP0=0, select bank0
  1616  0DAB  1303               	bcf	3,6	;RP1=0, select bank0
  1617  0DAC  1008               	bcf	8,0	;volatile
  1618                           
  1619                           ;PROYECTO.c: 178:                 TMR0 = 70;
  1620  0DAD  3046               	movlw	70
  1621  0DAE  0081               	movwf	1	;volatile
  1622  0DAF                     l3180:
  1623                           
  1624                           ;PROYECTO.c: 179:                 INTCONbits.T0IF = 0;
  1625  0DAF  110B               	bcf	11,2	;volatile
  1626                           
  1627                           ;PROYECTO.c: 180:             }
  1628  0DB0  2DF0               	goto	l3208
  1629  0DB1                     l180:	
  1630                           ;PROYECTO.c: 181:             else if(!RB1){
  1631                           
  1632  0DB1  1886               	btfsc	6,1	;volatile
  1633  0DB2  2DB4               	goto	u3411
  1634  0DB3  2DB5               	goto	u3410
  1635  0DB4                     u3411:
  1636  0DB4  2DC7               	goto	l182
  1637  0DB5                     u3410:
  1638  0DB5                     l3182:
  1639                           
  1640                           ;PROYECTO.c: 182:                 RD1 = 1;
  1641  0DB5  1488               	bsf	8,1	;volatile
  1642  0DB6                     l3184:
  1643                           
  1644                           ;PROYECTO.c: 183:                 _delay((unsigned long)((2)*(4000000/4000.0)));
  1645  0DB6  3003               	movlw	3
  1646  0DB7  1283               	bcf	3,5	;RP0=0, select bank0
  1647  0DB8  1303               	bcf	3,6	;RP1=0, select bank0
  1648  0DB9  00BC               	movwf	??_main+1
  1649  0DBA  3097               	movlw	151
  1650  0DBB  00BB               	movwf	??_main
  1651  0DBC                     u4517:
  1652  0DBC  0BBB               	decfsz	??_main,f
  1653  0DBD  2DBC               	goto	u4517
  1654  0DBE  0BBC               	decfsz	??_main+1,f
  1655  0DBF  2DBC               	goto	u4517
  1656  0DC0                     l3186:
  1657                           
  1658                           ;PROYECTO.c: 184:                 RD1 = 0;
  1659  0DC0  1283               	bcf	3,5	;RP0=0, select bank0
  1660  0DC1  1303               	bcf	3,6	;RP1=0, select bank0
  1661  0DC2  1088               	bcf	8,1	;volatile
  1662                           
  1663                           ;PROYECTO.c: 185:                 TMR0 = 70;
  1664  0DC3  3046               	movlw	70
  1665  0DC4  0081               	movwf	1	;volatile
  1666  0DC5                     l3188:
  1667                           
  1668                           ;PROYECTO.c: 186:                 INTCONbits.T0IF = 0;
  1669  0DC5  110B               	bcf	11,2	;volatile
  1670                           
  1671                           ;PROYECTO.c: 187:             }
  1672  0DC6  2DF0               	goto	l3208
  1673  0DC7                     l182:	
  1674                           ;PROYECTO.c: 188:             else if(!RB2){
  1675                           
  1676  0DC7  1906               	btfsc	6,2	;volatile
  1677  0DC8  2DCA               	goto	u3421
  1678  0DC9  2DCB               	goto	u3420
  1679  0DCA                     u3421:
  1680  0DCA  2DDD               	goto	l184
  1681  0DCB                     u3420:
  1682  0DCB                     l3190:
  1683                           
  1684                           ;PROYECTO.c: 189:                 RD2 = 1;
  1685  0DCB  1508               	bsf	8,2	;volatile
  1686  0DCC                     l3192:
  1687                           
  1688                           ;PROYECTO.c: 190:                 _delay((unsigned long)((2)*(4000000/4000.0)));
  1689  0DCC  3003               	movlw	3
  1690  0DCD  1283               	bcf	3,5	;RP0=0, select bank0
  1691  0DCE  1303               	bcf	3,6	;RP1=0, select bank0
  1692  0DCF  00BC               	movwf	??_main+1
  1693  0DD0  3097               	movlw	151
  1694  0DD1  00BB               	movwf	??_main
  1695  0DD2                     u4527:
  1696  0DD2  0BBB               	decfsz	??_main,f
  1697  0DD3  2DD2               	goto	u4527
  1698  0DD4  0BBC               	decfsz	??_main+1,f
  1699  0DD5  2DD2               	goto	u4527
  1700  0DD6                     l3194:
  1701                           
  1702                           ;PROYECTO.c: 191:                 RD2 = 0;
  1703  0DD6  1283               	bcf	3,5	;RP0=0, select bank0
  1704  0DD7  1303               	bcf	3,6	;RP1=0, select bank0
  1705  0DD8  1108               	bcf	8,2	;volatile
  1706                           
  1707                           ;PROYECTO.c: 192:                 TMR0 = 70;
  1708  0DD9  3046               	movlw	70
  1709  0DDA  0081               	movwf	1	;volatile
  1710  0DDB                     l3196:
  1711                           
  1712                           ;PROYECTO.c: 193:                 INTCONbits.T0IF = 0;
  1713  0DDB  110B               	bcf	11,2	;volatile
  1714                           
  1715                           ;PROYECTO.c: 194:             }
  1716  0DDC  2DF0               	goto	l3208
  1717  0DDD                     l184:	
  1718                           ;PROYECTO.c: 195:             else{
  1719                           
  1720                           
  1721                           ;PROYECTO.c: 196:                 RD0 = 1;
  1722  0DDD  1408               	bsf	8,0	;volatile
  1723                           
  1724                           ;PROYECTO.c: 197:                 RD1 = 1;
  1725  0DDE  1488               	bsf	8,1	;volatile
  1726                           
  1727                           ;PROYECTO.c: 198:                 RD2 = 1;
  1728  0DDF  1508               	bsf	8,2	;volatile
  1729  0DE0                     l3198:
  1730                           
  1731                           ;PROYECTO.c: 199:                 _delay((unsigned long)((1)*(4000000/4000.0)));
  1732  0DE0  30C7               	movlw	199
  1733  0DE1  1283               	bcf	3,5	;RP0=0, select bank0
  1734  0DE2  1303               	bcf	3,6	;RP1=0, select bank0
  1735  0DE3  00BB               	movwf	??_main
  1736  0DE4                     u4537:
  1737  0DE4  2DE5               	nop2
  1738  0DE5  0BBB               	decfsz	??_main,f
  1739  0DE6  2DE4               	goto	u4537
  1740  0DE7  2DE8               	nop2
  1741  0DE8                     l3200:
  1742                           
  1743                           ;PROYECTO.c: 200:                 RD1 = 0;
  1744  0DE8  1283               	bcf	3,5	;RP0=0, select bank0
  1745  0DE9  1303               	bcf	3,6	;RP1=0, select bank0
  1746  0DEA  1088               	bcf	8,1	;volatile
  1747  0DEB                     l3202:
  1748                           
  1749                           ;PROYECTO.c: 201:                 RD2 = 0;
  1750  0DEB  1108               	bcf	8,2	;volatile
  1751  0DEC                     l3204:
  1752                           
  1753                           ;PROYECTO.c: 202:                 RD0 = 0;
  1754  0DEC  1008               	bcf	8,0	;volatile
  1755                           
  1756                           ;PROYECTO.c: 203:                 TMR0 = 74;
  1757  0DED  304A               	movlw	74
  1758  0DEE  0081               	movwf	1	;volatile
  1759  0DEF                     l3206:
  1760                           
  1761                           ;PROYECTO.c: 204:                 INTCONbits.T0IF = 0;
  1762  0DEF  110B               	bcf	11,2	;volatile
  1763  0DF0                     l3208:
  1764                           
  1765                           ;PROYECTO.c: 208:        if(ADCON0bits.GO == 0){
  1766  0DF0  189F               	btfsc	31,1	;volatile
  1767  0DF1  2DF3               	goto	u3431
  1768  0DF2  2DF6               	goto	u3430
  1769  0DF3                     u3431:
  1770  0DF3  120A  118A  29EF   	goto	l186
  1771  0DF6                     u3430:
  1772  0DF6                     l3210:
  1773                           
  1774                           ;PROYECTO.c: 210:             if(ADCON0bits.CHS == 6){
  1775  0DF6  0C1F               	rrf	31,w	;volatile
  1776  0DF7  00BB               	movwf	??_main
  1777  0DF8  0C3B               	rrf	??_main,w
  1778  0DF9  390F               	andlw	15
  1779  0DFA  3A06               	xorlw	6
  1780  0DFB  1D03               	skipz
  1781  0DFC  2DFE               	goto	u3441
  1782  0DFD  2E01               	goto	u3440
  1783  0DFE                     u3441:
  1784  0DFE  120A  118A  283C   	goto	l3240
  1785  0E01                     u3440:
  1786  0E01                     l3212:
  1787                           
  1788                           ;PROYECTO.c: 211:                 escala = ADRESH;
  1789  0E01  081E               	movf	30,w	;volatile
  1790  0E02  00BB               	movwf	??_main
  1791  0E03  083B               	movf	??_main,w
  1792  0E04  00F8               	movwf	_escala
  1793                           
  1794                           ;PROYECTO.c: 212:                 if (escala >= 0 && escala <=42){
  1795  0E05  302B               	movlw	43
  1796  0E06  0278               	subwf	_escala,w
  1797  0E07  1803               	skipnc
  1798  0E08  2E0A               	goto	u3451
  1799  0E09  2E0B               	goto	u3450
  1800  0E0A                     u3451:
  1801  0E0A  2E0F               	goto	l3216
  1802  0E0B                     u3450:
  1803  0E0B                     l3214:
  1804                           
  1805                           ;PROYECTO.c: 213:                     minuto = 0;
  1806  0E0B  01F9               	clrf	_minuto
  1807  0E0C                     L1:
  1808                           
  1809                           ;PROYECTO.c: 214:                 }else if(escala >= 43 && escala <= 84 ){
  1810  0E0C  120A  118A  2837   	goto	l3238
  1811  0E0F                     l3216:
  1812  0E0F  302B               	movlw	43
  1813  0E10  0278               	subwf	_escala,w
  1814  0E11  1C03               	skipc
  1815  0E12  2E14               	goto	u3461
  1816  0E13  2E15               	goto	u3460
  1817  0E14                     u3461:
  1818  0E14  2E20               	goto	l3222
  1819  0E15                     u3460:
  1820  0E15                     l3218:
  1821  0E15  3055               	movlw	85
  1822  0E16  0278               	subwf	_escala,w
  1823  0E17  1803               	skipnc
  1824  0E18  2E1A               	goto	u3471
  1825  0E19  2E1B               	goto	u3470
  1826  0E1A                     u3471:
  1827  0E1A  2E20               	goto	l3222
  1828  0E1B                     u3470:
  1829  0E1B                     l3220:
  1830                           
  1831                           ;PROYECTO.c: 215:                     minuto = 15;
  1832  0E1B  300F               	movlw	15
  1833  0E1C  00BB               	movwf	??_main
  1834  0E1D  083B               	movf	??_main,w
  1835  0E1E  00F9               	movwf	_minuto
  1836                           
  1837                           ;PROYECTO.c: 216:                 }else if(escala >= 85 && escala <= 126 ){
  1838  0E1F  2E0C               	goto	L1
  1839  0E20                     l3222:
  1840  0E20  3055               	movlw	85
  1841  0E21  0278               	subwf	_escala,w
  1842  0E22  1C03               	skipc
  1843  0E23  2E25               	goto	u3481
  1844  0E24  2E26               	goto	u3480
  1845  0E25                     u3481:
  1846  0E25  2E31               	goto	l3228
  1847  0E26                     u3480:
  1848  0E26                     l3224:
  1849  0E26  307F               	movlw	127
  1850  0E27  0278               	subwf	_escala,w
  1851  0E28  1803               	skipnc
  1852  0E29  2E2B               	goto	u3491
  1853  0E2A  2E2C               	goto	u3490
  1854  0E2B                     u3491:
  1855  0E2B  2E31               	goto	l3228
  1856  0E2C                     u3490:
  1857  0E2C                     l3226:
  1858                           
  1859                           ;PROYECTO.c: 217:                     minuto = 30;
  1860  0E2C  301E               	movlw	30
  1861  0E2D  00BB               	movwf	??_main
  1862  0E2E  083B               	movf	??_main,w
  1863  0E2F  00F9               	movwf	_minuto
  1864                           
  1865                           ;PROYECTO.c: 218:                 }else if(escala >= 127 && escala <= 168 ){
  1866  0E30  2E0C               	goto	L1
  1867  0E31                     l3228:
  1868  0E31  307F               	movlw	127
  1869  0E32  0278               	subwf	_escala,w
  1870  0E33  1C03               	skipc
  1871  0E34  2E38               	goto	u3501
  1872  0E35  120A  118A  2821   	goto	u3500
  1873  0E38                     u3501:
  1874  0E38  120A  118A  282C   	goto	l3234
  1875                           
  1876                           	psect	text1
  1877  0B8D                     __ptext1:	
  1878 ;; *************** function _USART_Rx *****************
  1879 ;; Defined at:
  1880 ;;		line 562 in file "PROYECTO.c"
  1881 ;; Parameters:    Size  Location     Type
  1882 ;;		None
  1883 ;; Auto vars:     Size  Location     Type
  1884 ;;		None
  1885 ;; Return value:  Size  Location     Type
  1886 ;;                  1    wreg      unsigned char 
  1887 ;; Registers used:
  1888 ;;		wreg
  1889 ;; Tracked objects:
  1890 ;;		On entry : 0/0
  1891 ;;		On exit  : 0/0
  1892 ;;		Unchanged: 0/0
  1893 ;; Data sizes:     COMMON   BANK0   BANK1   BANK3   BANK2
  1894 ;;      Params:         0       0       0       0       0
  1895 ;;      Locals:         0       0       0       0       0
  1896 ;;      Temps:          0       0       0       0       0
  1897 ;;      Totals:         0       0       0       0       0
  1898 ;;Total ram usage:        0 bytes
  1899 ;; Hardware stack levels used:    1
  1900 ;; Hardware stack levels required when called:    1
  1901 ;; This function calls:
  1902 ;;		Nothing
  1903 ;; This function is called by:
  1904 ;;		_main
  1905 ;; This function uses a non-reentrant model
  1906 ;;
  1907                           
  1908                           
  1909                           ;psect for function _USART_Rx
  1910  0B8D                     _USART_Rx:
  1911  0B8D                     l2066:	
  1912                           ;incstack = 0
  1913                           ; Regs used in _USART_Rx: [wreg]
  1914                           
  1915                           
  1916                           ;PROYECTO.c: 563:     return RCREG;
  1917  0B8D  1283               	bcf	3,5	;RP0=0, select bank0
  1918  0B8E  1303               	bcf	3,6	;RP1=0, select bank0
  1919  0B8F  081A               	movf	26,w	;volatile
  1920  0B90                     l335:
  1921  0B90  0008               	return
  1922  0B91                     __end_of_USART_Rx:
  1923                           
  1924                           	psect	text2
  1925  0C02                     __ptext2:	
  1926 ;; *************** function _SendCharM *****************
  1927 ;; Defined at:
  1928 ;;		line 732 in file "PROYECTO.c"
  1929 ;; Parameters:    Size  Location     Type
  1930 ;;  in              1    wreg     unsigned char 
  1931 ;; Auto vars:     Size  Location     Type
  1932 ;;  in              1    0[BANK0 ] unsigned char 
  1933 ;; Return value:  Size  Location     Type
  1934 ;;                  1    wreg      void 
  1935 ;; Registers used:
  1936 ;;		wreg, fsr0l, fsr0h, status,2, status,0, btemp+1, pclath, cstack
  1937 ;; Tracked objects:
  1938 ;;		On entry : 0/0
  1939 ;;		On exit  : 0/0
  1940 ;;		Unchanged: 0/0
  1941 ;; Data sizes:     COMMON   BANK0   BANK1   BANK3   BANK2
  1942 ;;      Params:         0       0       0       0       0
  1943 ;;      Locals:         0       1       0       0       0
  1944 ;;      Temps:          0       0       0       0       0
  1945 ;;      Totals:         0       1       0       0       0
  1946 ;;Total ram usage:        1 bytes
  1947 ;; Hardware stack levels used:    1
  1948 ;; Hardware stack levels required when called:    3
  1949 ;; This function calls:
  1950 ;;		_USART_Cadena
  1951 ;; This function is called by:
  1952 ;;		_main
  1953 ;; This function uses a non-reentrant model
  1954 ;;
  1955                           
  1956                           
  1957                           ;psect for function _SendCharM
  1958  0C02                     _SendCharM:
  1959                           
  1960                           ;incstack = 0
  1961                           ; Regs used in _SendCharM: [wreg-fsr0h+status,2+status,0+btemp+1+pclath+cstack]
  1962                           ;SendCharM@in stored from wreg
  1963  0C02  1283               	bcf	3,5	;RP0=0, select bank0
  1964  0C03  1303               	bcf	3,6	;RP1=0, select bank0
  1965  0C04  00BA               	movwf	SendCharM@in
  1966  0C05                     l2980:
  1967  0C05                     l494:	
  1968                           ;PROYECTO.c: 733:     while(TXSTAbits.TRMT == 0);
  1969                           
  1970  0C05  1683               	bsf	3,5	;RP0=1, select bank1
  1971  0C06  1303               	bcf	3,6	;RP1=0, select bank1
  1972  0C07  1C98               	btfss	24,1	;volatile
  1973  0C08  2C0A               	goto	u3331
  1974  0C09  2C0B               	goto	u3330
  1975  0C0A                     u3331:
  1976  0C0A  2C05               	goto	l494
  1977  0C0B                     u3330:
  1978  0C0B                     l2982:
  1979                           
  1980                           ;PROYECTO.c: 734:         if(in == 0) {
  1981  0C0B  1283               	bcf	3,5	;RP0=0, select bank0
  1982  0C0C  1303               	bcf	3,6	;RP1=0, select bank0
  1983  0C0D  083A               	movf	SendCharM@in,w
  1984  0C0E  1D03               	btfss	3,2
  1985  0C0F  2C11               	goto	u3341
  1986  0C10  2C12               	goto	u3340
  1987  0C11                     u3341:
  1988  0C11  2C1C               	goto	l2986
  1989  0C12                     u3340:
  1990  0C12                     l2984:
  1991                           
  1992                           ;PROYECTO.c: 735:             USART_Cadena("0");
  1993  0C12  30DC               	movlw	low ((STR_85+1)| (0+32768))
  1994  0C13  00F4               	movwf	USART_Cadena@str
  1995  0C14  308A               	movlw	high ((STR_85+1)| (0+32768))
  1996  0C15  00F5               	movwf	USART_Cadena@str+1
  1997  0C16  120A  158A  23A5  120A  158A  	fcall	_USART_Cadena
  1998                           
  1999                           ;PROYECTO.c: 736:         }else if (in == 15){
  2000  0C1B  2C5C               	goto	l506
  2001  0C1C                     l2986:
  2002  0C1C  300F               	movlw	15
  2003  0C1D  063A               	xorwf	SendCharM@in,w
  2004  0C1E  1D03               	btfss	3,2
  2005  0C1F  2C21               	goto	u3351
  2006  0C20  2C22               	goto	u3350
  2007  0C21                     u3351:
  2008  0C21  2C2C               	goto	l2990
  2009  0C22                     u3350:
  2010  0C22                     l2988:
  2011                           
  2012                           ;PROYECTO.c: 737:             USART_Cadena("15");
  2013  0C22  30DE               	movlw	low (STR_84| (0+32768))
  2014  0C23  00F4               	movwf	USART_Cadena@str
  2015  0C24  308A               	movlw	high (STR_84| (0+32768))
  2016  0C25  00F5               	movwf	USART_Cadena@str+1
  2017  0C26  120A  158A  23A5  120A  158A  	fcall	_USART_Cadena
  2018                           
  2019                           ;PROYECTO.c: 738:         }else if (in == 30){
  2020  0C2B  2C5C               	goto	l506
  2021  0C2C                     l2990:
  2022  0C2C  301E               	movlw	30
  2023  0C2D  063A               	xorwf	SendCharM@in,w
  2024  0C2E  1D03               	btfss	3,2
  2025  0C2F  2C31               	goto	u3361
  2026  0C30  2C32               	goto	u3360
  2027  0C31                     u3361:
  2028  0C31  2C3C               	goto	l2994
  2029  0C32                     u3360:
  2030  0C32                     l2992:
  2031                           
  2032                           ;PROYECTO.c: 739:             USART_Cadena("30");
  2033  0C32  30DB               	movlw	low (STR_85| (0+32768))
  2034  0C33  00F4               	movwf	USART_Cadena@str
  2035  0C34  308A               	movlw	high (STR_85| (0+32768))
  2036  0C35  00F5               	movwf	USART_Cadena@str+1
  2037  0C36  120A  158A  23A5  120A  158A  	fcall	_USART_Cadena
  2038                           
  2039                           ;PROYECTO.c: 740:         }else if (in == 45){
  2040  0C3B  2C5C               	goto	l506
  2041  0C3C                     l2994:
  2042  0C3C  302D               	movlw	45
  2043  0C3D  063A               	xorwf	SendCharM@in,w
  2044  0C3E  1D03               	btfss	3,2
  2045  0C3F  2C41               	goto	u3371
  2046  0C40  2C42               	goto	u3370
  2047  0C41                     u3371:
  2048  0C41  2C4C               	goto	l2998
  2049  0C42                     u3370:
  2050  0C42                     l2996:
  2051                           
  2052                           ;PROYECTO.c: 741:             USART_Cadena("45");
  2053  0C42  30E1               	movlw	low (STR_86| (0+32768))
  2054  0C43  00F4               	movwf	USART_Cadena@str
  2055  0C44  308A               	movlw	high (STR_86| (0+32768))
  2056  0C45  00F5               	movwf	USART_Cadena@str+1
  2057  0C46  120A  158A  23A5  120A  158A  	fcall	_USART_Cadena
  2058                           
  2059                           ;PROYECTO.c: 742:         }else if (in == 55){
  2060  0C4B  2C5C               	goto	l506
  2061  0C4C                     l2998:
  2062  0C4C  3037               	movlw	55
  2063  0C4D  063A               	xorwf	SendCharM@in,w
  2064  0C4E  1D03               	btfss	3,2
  2065  0C4F  2C51               	goto	u3381
  2066  0C50  2C52               	goto	u3380
  2067  0C51                     u3381:
  2068  0C51  2C5C               	goto	l500
  2069  0C52                     u3380:
  2070  0C52                     l3000:
  2071                           
  2072                           ;PROYECTO.c: 743:             USART_Cadena("55");
  2073  0C52  30E4               	movlw	low (STR_87| (0+32768))
  2074  0C53  00F4               	movwf	USART_Cadena@str
  2075  0C54  308A               	movlw	high (STR_87| (0+32768))
  2076  0C55  00F5               	movwf	USART_Cadena@str+1
  2077  0C56  120A  158A  23A5  120A  158A  	fcall	_USART_Cadena
  2078  0C5B  2C5C               	goto	l506
  2079  0C5C                     l500:
  2080  0C5C                     l506:
  2081  0C5C  0008               	return
  2082  0C5D                     __end_of_SendCharM:
  2083                           
  2084                           	psect	text3
  2085  0BA5                     __ptext3:	
  2086 ;; *************** function _USART_Cadena *****************
  2087 ;; Defined at:
  2088 ;;		line 566 in file "PROYECTO.c"
  2089 ;; Parameters:    Size  Location     Type
  2090 ;;  str             2    4[COMMON] PTR unsigned char 
  2091 ;;		 -> STR_87(3), STR_86(3), STR_85(3), STR_84(3), 
  2092 ;;		 -> STR_83(2), STR_82(26), STR_81(48), STR_80(43), 
  2093 ;;		 -> STR_79(3), STR_78(3), STR_77(36), STR_76(44), 
  2094 ;;		 -> STR_75(3), STR_74(3), STR_73(48), STR_72(48), 
  2095 ;;		 -> STR_71(52), STR_70(39), STR_69(26), STR_68(48), 
  2096 ;;		 -> STR_67(43), STR_66(3), STR_65(3), STR_64(36), 
  2097 ;;		 -> STR_63(44), STR_62(3), STR_61(3), STR_60(48), 
  2098 ;;		 -> STR_59(48), STR_58(52), STR_57(39), STR_56(26), 
  2099 ;;		 -> STR_55(48), STR_54(43), STR_53(3), STR_52(3), 
  2100 ;;		 -> STR_51(36), STR_50(44), STR_49(3), STR_48(3), 
  2101 ;;		 -> STR_47(48), STR_46(48), STR_45(52), STR_44(39), 
  2102 ;;		 -> STR_43(32), STR_42(7), STR_41(8), STR_40(11), 
  2103 ;;		 -> STR_39(31), STR_38(7), STR_37(8), STR_36(11), 
  2104 ;;		 -> STR_35(31), STR_34(7), STR_33(8), STR_32(11), 
  2105 ;;		 -> STR_31(32), STR_30(7), STR_29(8), STR_28(11), 
  2106 ;;		 -> STR_27(31), STR_26(7), STR_25(8), STR_24(11), 
  2107 ;;		 -> STR_23(31), STR_22(7), STR_21(8), STR_20(11), 
  2108 ;;		 -> STR_19(32), STR_18(7), STR_17(8), STR_16(11), 
  2109 ;;		 -> STR_15(31), STR_14(7), STR_13(8), STR_12(11), 
  2110 ;;		 -> STR_11(31), STR_10(7), STR_9(8), STR_8(11), 
  2111 ;;		 -> STR_7(37), STR_6(34), STR_5(35), STR_4(31), 
  2112 ;;		 -> STR_3(29), STR_2(30), STR_1(31), 
  2113 ;; Auto vars:     Size  Location     Type
  2114 ;;		None
  2115 ;; Return value:  Size  Location     Type
  2116 ;;                  1    wreg      void 
  2117 ;; Registers used:
  2118 ;;		wreg, fsr0l, fsr0h, status,2, status,0, btemp+1, pclath, cstack
  2119 ;; Tracked objects:
  2120 ;;		On entry : 0/0
  2121 ;;		On exit  : 0/0
  2122 ;;		Unchanged: 0/0
  2123 ;; Data sizes:     COMMON   BANK0   BANK1   BANK3   BANK2
  2124 ;;      Params:         2       0       0       0       0
  2125 ;;      Locals:         0       0       0       0       0
  2126 ;;      Temps:          0       0       0       0       0
  2127 ;;      Totals:         2       0       0       0       0
  2128 ;;Total ram usage:        2 bytes
  2129 ;; Hardware stack levels used:    1
  2130 ;; Hardware stack levels required when called:    2
  2131 ;; This function calls:
  2132 ;;		_USART_Tx
  2133 ;; This function is called by:
  2134 ;;		_main
  2135 ;;		_SendCharM
  2136 ;; This function uses a non-reentrant model
  2137 ;;
  2138                           
  2139                           
  2140                           ;psect for function _USART_Cadena
  2141  0BA5                     _USART_Cadena:
  2142  0BA5                     l2972:	
  2143                           ;incstack = 0
  2144                           ; Regs used in _USART_Cadena: [wreg-fsr0h+status,2+status,0+btemp+1+pclath+cstack]
  2145                           
  2146                           
  2147                           ;PROYECTO.c: 567:     while(*str != '\0'){
  2148  0BA5  2BBA               	goto	l2978
  2149  0BA6                     l2974:
  2150                           
  2151                           ;PROYECTO.c: 568:         USART_Tx(*str);
  2152  0BA6  0875               	movf	USART_Cadena@str+1,w
  2153  0BA7  00FF               	movwf	btemp+1
  2154  0BA8  0874               	movf	USART_Cadena@str,w
  2155  0BA9  0084               	movwf	4
  2156  0BAA  120A  158A  22E7  120A  158A  	fcall	stringtab
  2157  0BAF  120A  158A  2399  120A  158A  	fcall	_USART_Tx
  2158  0BB4                     l2976:
  2159                           
  2160                           ;PROYECTO.c: 569:         str++;
  2161  0BB4  3001               	movlw	1
  2162  0BB5  07F4               	addwf	USART_Cadena@str,f
  2163  0BB6  1803               	skipnc
  2164  0BB7  0AF5               	incf	USART_Cadena@str+1,f
  2165  0BB8  3000               	movlw	0
  2166  0BB9  07F5               	addwf	USART_Cadena@str+1,f
  2167  0BBA                     l2978:
  2168                           
  2169                           ;PROYECTO.c: 567:     while(*str != '\0'){
  2170  0BBA  0875               	movf	USART_Cadena@str+1,w
  2171  0BBB  1283               	bcf	3,5	;RP0=0, select bank0
  2172  0BBC  1303               	bcf	3,6	;RP1=0, select bank0
  2173  0BBD  00FF               	movwf	btemp+1
  2174  0BBE  0874               	movf	USART_Cadena@str,w
  2175  0BBF  0084               	movwf	4
  2176  0BC0  120A  158A  22E7  120A  158A  	fcall	stringtab
  2177  0BC5  3A00               	xorlw	0
  2178  0BC6  1D03               	skipz
  2179  0BC7  2BC9               	goto	u3321
  2180  0BC8  2BCA               	goto	u3320
  2181  0BC9                     u3321:
  2182  0BC9  2BA6               	goto	l2974
  2183  0BCA                     u3320:
  2184  0BCA                     l341:
  2185  0BCA  0008               	return
  2186  0BCB                     __end_of_USART_Cadena:
  2187                           
  2188                           	psect	text4
  2189  0B99                     __ptext4:	
  2190 ;; *************** function _USART_Tx *****************
  2191 ;; Defined at:
  2192 ;;		line 557 in file "PROYECTO.c"
  2193 ;; Parameters:    Size  Location     Type
  2194 ;;  data            1    wreg     unsigned char 
  2195 ;; Auto vars:     Size  Location     Type
  2196 ;;  data            1    3[COMMON] unsigned char 
  2197 ;; Return value:  Size  Location     Type
  2198 ;;                  1    wreg      void 
  2199 ;; Registers used:
  2200 ;;		wreg
  2201 ;; Tracked objects:
  2202 ;;		On entry : 0/0
  2203 ;;		On exit  : 0/0
  2204 ;;		Unchanged: 0/0
  2205 ;; Data sizes:     COMMON   BANK0   BANK1   BANK3   BANK2
  2206 ;;      Params:         0       0       0       0       0
  2207 ;;      Locals:         1       0       0       0       0
  2208 ;;      Temps:          0       0       0       0       0
  2209 ;;      Totals:         1       0       0       0       0
  2210 ;;Total ram usage:        1 bytes
  2211 ;; Hardware stack levels used:    1
  2212 ;; Hardware stack levels required when called:    1
  2213 ;; This function calls:
  2214 ;;		Nothing
  2215 ;; This function is called by:
  2216 ;;		_USART_Cadena
  2217 ;; This function uses a non-reentrant model
  2218 ;;
  2219                           
  2220                           
  2221                           ;psect for function _USART_Tx
  2222  0B99                     _USART_Tx:
  2223                           
  2224                           ;incstack = 0
  2225                           ; Regs used in _USART_Tx: [wreg]
  2226                           ;USART_Tx@data stored from wreg
  2227  0B99  00F3               	movwf	USART_Tx@data
  2228  0B9A                     l2968:
  2229  0B9A                     l329:	
  2230                           ;PROYECTO.c: 558:     while(TXSTAbits.TRMT == 0);
  2231                           
  2232  0B9A  1683               	bsf	3,5	;RP0=1, select bank1
  2233  0B9B  1303               	bcf	3,6	;RP1=0, select bank1
  2234  0B9C  1C98               	btfss	24,1	;volatile
  2235  0B9D  2B9F               	goto	u3311
  2236  0B9E  2BA0               	goto	u3310
  2237  0B9F                     u3311:
  2238  0B9F  2B9A               	goto	l329
  2239  0BA0                     u3310:
  2240  0BA0                     l2970:
  2241                           
  2242                           ;PROYECTO.c: 559:     TXREG = data;
  2243  0BA0  0873               	movf	USART_Tx@data,w
  2244  0BA1  1283               	bcf	3,5	;RP0=0, select bank0
  2245  0BA2  1303               	bcf	3,6	;RP1=0, select bank0
  2246  0BA3  0099               	movwf	25	;volatile
  2247  0BA4                     l332:
  2248  0BA4  0008               	return
  2249  0BA5                     __end_of_USART_Tx:
  2250                           
  2251                           	psect	text5
  2252  0E3B                     __ptext5:	
  2253 ;; *************** function _SendCharH *****************
  2254 ;; Defined at:
  2255 ;;		line 573 in file "PROYECTO.c"
  2256 ;; Parameters:    Size  Location     Type
  2257 ;;  in              1    wreg     unsigned char 
  2258 ;; Auto vars:     Size  Location     Type
  2259 ;;  in              1    5[COMMON] unsigned char 
  2260 ;; Return value:  Size  Location     Type
  2261 ;;                  1    wreg      void 
  2262 ;; Registers used:
  2263 ;;		wreg, fsr0l, fsr0h, status,2, status,0
  2264 ;; Tracked objects:
  2265 ;;		On entry : 0/0
  2266 ;;		On exit  : 0/0
  2267 ;;		Unchanged: 0/0
  2268 ;; Data sizes:     COMMON   BANK0   BANK1   BANK3   BANK2
  2269 ;;      Params:         0       0       0       0       0
  2270 ;;      Locals:         1       0       0       0       0
  2271 ;;      Temps:          2       0       0       0       0
  2272 ;;      Totals:         3       0       0       0       0
  2273 ;;Total ram usage:        3 bytes
  2274 ;; Hardware stack levels used:    1
  2275 ;; Hardware stack levels required when called:    1
  2276 ;; This function calls:
  2277 ;;		Nothing
  2278 ;; This function is called by:
  2279 ;;		_main
  2280 ;; This function uses a non-reentrant model
  2281 ;;
  2282                           
  2283                           
  2284                           ;psect for function _SendCharH
  2285  0E3B                     _SendCharH:
  2286                           
  2287                           ;incstack = 0
  2288                           ; Regs used in _SendCharH: [wreg-fsr0h+status,2+status,0]
  2289                           ;SendCharH@in stored from wreg
  2290  0E3B  00F5               	movwf	SendCharH@in
  2291  0E3C                     l2070:
  2292                           
  2293                           ;PROYECTO.c: 574:     switch(in){
  2294  0E3C  2FAA               	goto	l2154
  2295  0E3D                     l346:
  2296  0E3D  1683               	bsf	3,5	;RP0=1, select bank1
  2297  0E3E  1303               	bcf	3,6	;RP1=0, select bank1
  2298  0E3F  1C98               	btfss	24,1	;volatile
  2299  0E40  2E42               	goto	u1681
  2300  0E41  2E43               	goto	u1680
  2301  0E42                     u1681:
  2302  0E42  2E3D               	goto	l346
  2303  0E43                     u1680:
  2304  0E43                     l2072:
  2305                           
  2306                           ;PROYECTO.c: 577:             TXREG = 48;
  2307  0E43  3030               	movlw	48
  2308  0E44  1283               	bcf	3,5	;RP0=0, select bank0
  2309  0E45  1303               	bcf	3,6	;RP1=0, select bank0
  2310  0E46  0099               	movwf	25	;volatile
  2311                           
  2312                           ;PROYECTO.c: 578:         break;
  2313  0E47  2FFF               	goto	l491
  2314  0E48                     l351:
  2315  0E48  1683               	bsf	3,5	;RP0=1, select bank1
  2316  0E49  1303               	bcf	3,6	;RP1=0, select bank1
  2317  0E4A  1C98               	btfss	24,1	;volatile
  2318  0E4B  2E4D               	goto	u1691
  2319  0E4C  2E4E               	goto	u1690
  2320  0E4D                     u1691:
  2321  0E4D  2E48               	goto	l351
  2322  0E4E                     u1690:
  2323  0E4E                     l2074:
  2324                           
  2325                           ;PROYECTO.c: 582:             TXREG = 49;
  2326  0E4E  3031               	movlw	49
  2327  0E4F  1283               	bcf	3,5	;RP0=0, select bank0
  2328  0E50  1303               	bcf	3,6	;RP1=0, select bank0
  2329  0E51  0099               	movwf	25	;volatile
  2330                           
  2331                           ;PROYECTO.c: 583:         break;
  2332  0E52  2FFF               	goto	l491
  2333  0E53                     l355:
  2334  0E53  1683               	bsf	3,5	;RP0=1, select bank1
  2335  0E54  1303               	bcf	3,6	;RP1=0, select bank1
  2336  0E55  1C98               	btfss	24,1	;volatile
  2337  0E56  2E58               	goto	u1701
  2338  0E57  2E59               	goto	u1700
  2339  0E58                     u1701:
  2340  0E58  2E53               	goto	l355
  2341  0E59                     u1700:
  2342  0E59                     l2076:
  2343                           
  2344                           ;PROYECTO.c: 587:             TXREG = 50;
  2345  0E59  3032               	movlw	50
  2346  0E5A  1283               	bcf	3,5	;RP0=0, select bank0
  2347  0E5B  1303               	bcf	3,6	;RP1=0, select bank0
  2348  0E5C  0099               	movwf	25	;volatile
  2349                           
  2350                           ;PROYECTO.c: 588:         break;
  2351  0E5D  2FFF               	goto	l491
  2352  0E5E                     l359:
  2353  0E5E  1683               	bsf	3,5	;RP0=1, select bank1
  2354  0E5F  1303               	bcf	3,6	;RP1=0, select bank1
  2355  0E60  1C98               	btfss	24,1	;volatile
  2356  0E61  2E63               	goto	u1711
  2357  0E62  2E64               	goto	u1710
  2358  0E63                     u1711:
  2359  0E63  2E5E               	goto	l359
  2360  0E64                     u1710:
  2361  0E64                     l2078:
  2362                           
  2363                           ;PROYECTO.c: 592:             TXREG = 51;
  2364  0E64  3033               	movlw	51
  2365  0E65  1283               	bcf	3,5	;RP0=0, select bank0
  2366  0E66  1303               	bcf	3,6	;RP1=0, select bank0
  2367  0E67  0099               	movwf	25	;volatile
  2368                           
  2369                           ;PROYECTO.c: 593:         break;
  2370  0E68  2FFF               	goto	l491
  2371  0E69                     l363:
  2372  0E69  1683               	bsf	3,5	;RP0=1, select bank1
  2373  0E6A  1303               	bcf	3,6	;RP1=0, select bank1
  2374  0E6B  1C98               	btfss	24,1	;volatile
  2375  0E6C  2E6E               	goto	u1721
  2376  0E6D  2E6F               	goto	u1720
  2377  0E6E                     u1721:
  2378  0E6E  2E69               	goto	l363
  2379  0E6F                     u1720:
  2380  0E6F                     l2080:
  2381                           
  2382                           ;PROYECTO.c: 597:             TXREG = 52;
  2383  0E6F  3034               	movlw	52
  2384  0E70  1283               	bcf	3,5	;RP0=0, select bank0
  2385  0E71  1303               	bcf	3,6	;RP1=0, select bank0
  2386  0E72  0099               	movwf	25	;volatile
  2387                           
  2388                           ;PROYECTO.c: 598:         break;
  2389  0E73  2FFF               	goto	l491
  2390  0E74                     l367:
  2391  0E74  1683               	bsf	3,5	;RP0=1, select bank1
  2392  0E75  1303               	bcf	3,6	;RP1=0, select bank1
  2393  0E76  1C98               	btfss	24,1	;volatile
  2394  0E77  2E79               	goto	u1731
  2395  0E78  2E7A               	goto	u1730
  2396  0E79                     u1731:
  2397  0E79  2E74               	goto	l367
  2398  0E7A                     u1730:
  2399  0E7A                     l2082:
  2400                           
  2401                           ;PROYECTO.c: 602:             TXREG = 53;
  2402  0E7A  3035               	movlw	53
  2403  0E7B  1283               	bcf	3,5	;RP0=0, select bank0
  2404  0E7C  1303               	bcf	3,6	;RP1=0, select bank0
  2405  0E7D  0099               	movwf	25	;volatile
  2406                           
  2407                           ;PROYECTO.c: 603:         break;
  2408  0E7E  2FFF               	goto	l491
  2409  0E7F                     l371:
  2410  0E7F  1683               	bsf	3,5	;RP0=1, select bank1
  2411  0E80  1303               	bcf	3,6	;RP1=0, select bank1
  2412  0E81  1C98               	btfss	24,1	;volatile
  2413  0E82  2E84               	goto	u1741
  2414  0E83  2E85               	goto	u1740
  2415  0E84                     u1741:
  2416  0E84  2E7F               	goto	l371
  2417  0E85                     u1740:
  2418  0E85                     l2084:
  2419                           
  2420                           ;PROYECTO.c: 607:             TXREG = 54;
  2421  0E85  3036               	movlw	54
  2422  0E86  1283               	bcf	3,5	;RP0=0, select bank0
  2423  0E87  1303               	bcf	3,6	;RP1=0, select bank0
  2424  0E88  0099               	movwf	25	;volatile
  2425                           
  2426                           ;PROYECTO.c: 608:         break;
  2427  0E89  2FFF               	goto	l491
  2428  0E8A                     l375:
  2429  0E8A  1683               	bsf	3,5	;RP0=1, select bank1
  2430  0E8B  1303               	bcf	3,6	;RP1=0, select bank1
  2431  0E8C  1C98               	btfss	24,1	;volatile
  2432  0E8D  2E8F               	goto	u1751
  2433  0E8E  2E90               	goto	u1750
  2434  0E8F                     u1751:
  2435  0E8F  2E8A               	goto	l375
  2436  0E90                     u1750:
  2437  0E90                     l2086:
  2438                           
  2439                           ;PROYECTO.c: 612:             TXREG = 55;
  2440  0E90  3037               	movlw	55
  2441  0E91  1283               	bcf	3,5	;RP0=0, select bank0
  2442  0E92  1303               	bcf	3,6	;RP1=0, select bank0
  2443  0E93  0099               	movwf	25	;volatile
  2444                           
  2445                           ;PROYECTO.c: 613:         break;
  2446  0E94  2FFF               	goto	l491
  2447  0E95                     l379:
  2448  0E95  1683               	bsf	3,5	;RP0=1, select bank1
  2449  0E96  1303               	bcf	3,6	;RP1=0, select bank1
  2450  0E97  1C98               	btfss	24,1	;volatile
  2451  0E98  2E9A               	goto	u1761
  2452  0E99  2E9B               	goto	u1760
  2453  0E9A                     u1761:
  2454  0E9A  2E95               	goto	l379
  2455  0E9B                     u1760:
  2456  0E9B                     l2088:
  2457                           
  2458                           ;PROYECTO.c: 617:             TXREG = 56;
  2459  0E9B  3038               	movlw	56
  2460  0E9C  1283               	bcf	3,5	;RP0=0, select bank0
  2461  0E9D  1303               	bcf	3,6	;RP1=0, select bank0
  2462  0E9E  0099               	movwf	25	;volatile
  2463                           
  2464                           ;PROYECTO.c: 618:         break;
  2465  0E9F  2FFF               	goto	l491
  2466  0EA0                     l383:
  2467  0EA0  1683               	bsf	3,5	;RP0=1, select bank1
  2468  0EA1  1303               	bcf	3,6	;RP1=0, select bank1
  2469  0EA2  1C98               	btfss	24,1	;volatile
  2470  0EA3  2EA5               	goto	u1771
  2471  0EA4  2EA6               	goto	u1770
  2472  0EA5                     u1771:
  2473  0EA5  2EA0               	goto	l383
  2474  0EA6                     u1770:
  2475  0EA6                     l2090:
  2476                           
  2477                           ;PROYECTO.c: 622:             TXREG = 57;
  2478  0EA6  3039               	movlw	57
  2479  0EA7  1283               	bcf	3,5	;RP0=0, select bank0
  2480  0EA8  1303               	bcf	3,6	;RP1=0, select bank0
  2481  0EA9  0099               	movwf	25	;volatile
  2482                           
  2483                           ;PROYECTO.c: 623:         break;
  2484  0EAA  2FFF               	goto	l491
  2485  0EAB                     l387:
  2486  0EAB  1683               	bsf	3,5	;RP0=1, select bank1
  2487  0EAC  1303               	bcf	3,6	;RP1=0, select bank1
  2488  0EAD  1C98               	btfss	24,1	;volatile
  2489  0EAE  2EB0               	goto	u1781
  2490  0EAF  2EB1               	goto	u1780
  2491  0EB0                     u1781:
  2492  0EB0  2EAB               	goto	l387
  2493  0EB1                     u1780:
  2494  0EB1                     l2092:
  2495                           
  2496                           ;PROYECTO.c: 627:             TXREG = 49;
  2497  0EB1  3031               	movlw	49
  2498  0EB2  1283               	bcf	3,5	;RP0=0, select bank0
  2499  0EB3  1303               	bcf	3,6	;RP1=0, select bank0
  2500  0EB4  0099               	movwf	25	;volatile
  2501  0EB5                     l390:	
  2502                           ;PROYECTO.c: 628:             while(TXSTAbits.TRMT == 0);
  2503                           
  2504  0EB5  1683               	bsf	3,5	;RP0=1, select bank1
  2505  0EB6  1303               	bcf	3,6	;RP1=0, select bank1
  2506  0EB7  1C98               	btfss	24,1	;volatile
  2507  0EB8  2EBA               	goto	u1791
  2508  0EB9  2EBB               	goto	u1790
  2509  0EBA                     u1791:
  2510  0EBA  2EB5               	goto	l390
  2511  0EBB                     u1790:
  2512  0EBB  2E43               	goto	l2072
  2513  0EBC                     l394:
  2514  0EBC  1683               	bsf	3,5	;RP0=1, select bank1
  2515  0EBD  1303               	bcf	3,6	;RP1=0, select bank1
  2516  0EBE  1C98               	btfss	24,1	;volatile
  2517  0EBF  2EC1               	goto	u1801
  2518  0EC0  2EC2               	goto	u1800
  2519  0EC1                     u1801:
  2520  0EC1  2EBC               	goto	l394
  2521  0EC2                     u1800:
  2522  0EC2                     l2096:
  2523                           
  2524                           ;PROYECTO.c: 634:             TXREG = 49;
  2525  0EC2  3031               	movlw	49
  2526  0EC3  1283               	bcf	3,5	;RP0=0, select bank0
  2527  0EC4  1303               	bcf	3,6	;RP1=0, select bank0
  2528  0EC5  0099               	movwf	25	;volatile
  2529  0EC6                     l397:	
  2530                           ;PROYECTO.c: 635:             while(TXSTAbits.TRMT == 0);
  2531                           
  2532  0EC6  1683               	bsf	3,5	;RP0=1, select bank1
  2533  0EC7  1303               	bcf	3,6	;RP1=0, select bank1
  2534  0EC8  1C98               	btfss	24,1	;volatile
  2535  0EC9  2ECB               	goto	u1811
  2536  0ECA  2ECC               	goto	u1810
  2537  0ECB                     u1811:
  2538  0ECB  2EC6               	goto	l397
  2539  0ECC                     u1810:
  2540  0ECC  2E4E               	goto	l2074
  2541  0ECD                     l401:
  2542  0ECD  1683               	bsf	3,5	;RP0=1, select bank1
  2543  0ECE  1303               	bcf	3,6	;RP1=0, select bank1
  2544  0ECF  1C98               	btfss	24,1	;volatile
  2545  0ED0  2ED2               	goto	u1821
  2546  0ED1  2ED3               	goto	u1820
  2547  0ED2                     u1821:
  2548  0ED2  2ECD               	goto	l401
  2549  0ED3                     u1820:
  2550  0ED3                     l2100:
  2551                           
  2552                           ;PROYECTO.c: 641:             TXREG = 49;
  2553  0ED3  3031               	movlw	49
  2554  0ED4  1283               	bcf	3,5	;RP0=0, select bank0
  2555  0ED5  1303               	bcf	3,6	;RP1=0, select bank0
  2556  0ED6  0099               	movwf	25	;volatile
  2557  0ED7                     l404:	
  2558                           ;PROYECTO.c: 642:             while(TXSTAbits.TRMT == 0);
  2559                           
  2560  0ED7  1683               	bsf	3,5	;RP0=1, select bank1
  2561  0ED8  1303               	bcf	3,6	;RP1=0, select bank1
  2562  0ED9  1C98               	btfss	24,1	;volatile
  2563  0EDA  2EDC               	goto	u1831
  2564  0EDB  2EDD               	goto	u1830
  2565  0EDC                     u1831:
  2566  0EDC  2ED7               	goto	l404
  2567  0EDD                     u1830:
  2568  0EDD  2E59               	goto	l2076
  2569  0EDE                     l408:
  2570  0EDE  1683               	bsf	3,5	;RP0=1, select bank1
  2571  0EDF  1303               	bcf	3,6	;RP1=0, select bank1
  2572  0EE0  1C98               	btfss	24,1	;volatile
  2573  0EE1  2EE3               	goto	u1841
  2574  0EE2  2EE4               	goto	u1840
  2575  0EE3                     u1841:
  2576  0EE3  2EDE               	goto	l408
  2577  0EE4                     u1840:
  2578  0EE4                     l2104:
  2579                           
  2580                           ;PROYECTO.c: 648:             TXREG = 49;
  2581  0EE4  3031               	movlw	49
  2582  0EE5  1283               	bcf	3,5	;RP0=0, select bank0
  2583  0EE6  1303               	bcf	3,6	;RP1=0, select bank0
  2584  0EE7  0099               	movwf	25	;volatile
  2585  0EE8                     l411:	
  2586                           ;PROYECTO.c: 649:             while(TXSTAbits.TRMT == 0);
  2587                           
  2588  0EE8  1683               	bsf	3,5	;RP0=1, select bank1
  2589  0EE9  1303               	bcf	3,6	;RP1=0, select bank1
  2590  0EEA  1C98               	btfss	24,1	;volatile
  2591  0EEB  2EED               	goto	u1851
  2592  0EEC  2EEE               	goto	u1850
  2593  0EED                     u1851:
  2594  0EED  2EE8               	goto	l411
  2595  0EEE                     u1850:
  2596  0EEE  2E64               	goto	l2078
  2597  0EEF                     l415:
  2598  0EEF  1683               	bsf	3,5	;RP0=1, select bank1
  2599  0EF0  1303               	bcf	3,6	;RP1=0, select bank1
  2600  0EF1  1C98               	btfss	24,1	;volatile
  2601  0EF2  2EF4               	goto	u1861
  2602  0EF3  2EF5               	goto	u1860
  2603  0EF4                     u1861:
  2604  0EF4  2EEF               	goto	l415
  2605  0EF5                     u1860:
  2606  0EF5                     l2108:
  2607                           
  2608                           ;PROYECTO.c: 655:             TXREG = 49;
  2609  0EF5  3031               	movlw	49
  2610  0EF6  1283               	bcf	3,5	;RP0=0, select bank0
  2611  0EF7  1303               	bcf	3,6	;RP1=0, select bank0
  2612  0EF8  0099               	movwf	25	;volatile
  2613  0EF9                     l418:	
  2614                           ;PROYECTO.c: 656:             while(TXSTAbits.TRMT == 0);
  2615                           
  2616  0EF9  1683               	bsf	3,5	;RP0=1, select bank1
  2617  0EFA  1303               	bcf	3,6	;RP1=0, select bank1
  2618  0EFB  1C98               	btfss	24,1	;volatile
  2619  0EFC  2EFE               	goto	u1871
  2620  0EFD  2EFF               	goto	u1870
  2621  0EFE                     u1871:
  2622  0EFE  2EF9               	goto	l418
  2623  0EFF                     u1870:
  2624  0EFF  2E6F               	goto	l2080
  2625  0F00                     l422:
  2626  0F00  1683               	bsf	3,5	;RP0=1, select bank1
  2627  0F01  1303               	bcf	3,6	;RP1=0, select bank1
  2628  0F02  1C98               	btfss	24,1	;volatile
  2629  0F03  2F05               	goto	u1881
  2630  0F04  2F06               	goto	u1880
  2631  0F05                     u1881:
  2632  0F05  2F00               	goto	l422
  2633  0F06                     u1880:
  2634  0F06                     l2112:
  2635                           
  2636                           ;PROYECTO.c: 662:             TXREG = 49;
  2637  0F06  3031               	movlw	49
  2638  0F07  1283               	bcf	3,5	;RP0=0, select bank0
  2639  0F08  1303               	bcf	3,6	;RP1=0, select bank0
  2640  0F09  0099               	movwf	25	;volatile
  2641  0F0A                     l425:	
  2642                           ;PROYECTO.c: 663:             while(TXSTAbits.TRMT == 0);
  2643                           
  2644  0F0A  1683               	bsf	3,5	;RP0=1, select bank1
  2645  0F0B  1303               	bcf	3,6	;RP1=0, select bank1
  2646  0F0C  1C98               	btfss	24,1	;volatile
  2647  0F0D  2F0F               	goto	u1891
  2648  0F0E  2F10               	goto	u1890
  2649  0F0F                     u1891:
  2650  0F0F  2F0A               	goto	l425
  2651  0F10                     u1890:
  2652  0F10  2E7A               	goto	l2082
  2653  0F11                     l429:
  2654  0F11  1683               	bsf	3,5	;RP0=1, select bank1
  2655  0F12  1303               	bcf	3,6	;RP1=0, select bank1
  2656  0F13  1C98               	btfss	24,1	;volatile
  2657  0F14  2F16               	goto	u1901
  2658  0F15  2F17               	goto	u1900
  2659  0F16                     u1901:
  2660  0F16  2F11               	goto	l429
  2661  0F17                     u1900:
  2662  0F17                     l2116:
  2663                           
  2664                           ;PROYECTO.c: 669:             TXREG = 49;
  2665  0F17  3031               	movlw	49
  2666  0F18  1283               	bcf	3,5	;RP0=0, select bank0
  2667  0F19  1303               	bcf	3,6	;RP1=0, select bank0
  2668  0F1A  0099               	movwf	25	;volatile
  2669  0F1B                     l432:	
  2670                           ;PROYECTO.c: 670:             while(TXSTAbits.TRMT == 0);
  2671                           
  2672  0F1B  1683               	bsf	3,5	;RP0=1, select bank1
  2673  0F1C  1303               	bcf	3,6	;RP1=0, select bank1
  2674  0F1D  1C98               	btfss	24,1	;volatile
  2675  0F1E  2F20               	goto	u1911
  2676  0F1F  2F21               	goto	u1910
  2677  0F20                     u1911:
  2678  0F20  2F1B               	goto	l432
  2679  0F21                     u1910:
  2680  0F21  2E85               	goto	l2084
  2681  0F22                     l436:
  2682  0F22  1683               	bsf	3,5	;RP0=1, select bank1
  2683  0F23  1303               	bcf	3,6	;RP1=0, select bank1
  2684  0F24  1C98               	btfss	24,1	;volatile
  2685  0F25  2F27               	goto	u1921
  2686  0F26  2F28               	goto	u1920
  2687  0F27                     u1921:
  2688  0F27  2F22               	goto	l436
  2689  0F28                     u1920:
  2690  0F28                     l2120:
  2691                           
  2692                           ;PROYECTO.c: 676:             TXREG = 49;
  2693  0F28  3031               	movlw	49
  2694  0F29  1283               	bcf	3,5	;RP0=0, select bank0
  2695  0F2A  1303               	bcf	3,6	;RP1=0, select bank0
  2696  0F2B  0099               	movwf	25	;volatile
  2697  0F2C                     l439:	
  2698                           ;PROYECTO.c: 677:             while(TXSTAbits.TRMT == 0);
  2699                           
  2700  0F2C  1683               	bsf	3,5	;RP0=1, select bank1
  2701  0F2D  1303               	bcf	3,6	;RP1=0, select bank1
  2702  0F2E  1C98               	btfss	24,1	;volatile
  2703  0F2F  2F31               	goto	u1931
  2704  0F30  2F32               	goto	u1930
  2705  0F31                     u1931:
  2706  0F31  2F2C               	goto	l439
  2707  0F32                     u1930:
  2708  0F32  2E90               	goto	l2086
  2709  0F33                     l443:
  2710  0F33  1683               	bsf	3,5	;RP0=1, select bank1
  2711  0F34  1303               	bcf	3,6	;RP1=0, select bank1
  2712  0F35  1C98               	btfss	24,1	;volatile
  2713  0F36  2F38               	goto	u1941
  2714  0F37  2F39               	goto	u1940
  2715  0F38                     u1941:
  2716  0F38  2F33               	goto	l443
  2717  0F39                     u1940:
  2718  0F39                     l2124:
  2719                           
  2720                           ;PROYECTO.c: 683:             TXREG = 49;
  2721  0F39  3031               	movlw	49
  2722  0F3A  1283               	bcf	3,5	;RP0=0, select bank0
  2723  0F3B  1303               	bcf	3,6	;RP1=0, select bank0
  2724  0F3C  0099               	movwf	25	;volatile
  2725  0F3D                     l446:	
  2726                           ;PROYECTO.c: 684:             while(TXSTAbits.TRMT == 0);
  2727                           
  2728  0F3D  1683               	bsf	3,5	;RP0=1, select bank1
  2729  0F3E  1303               	bcf	3,6	;RP1=0, select bank1
  2730  0F3F  1C98               	btfss	24,1	;volatile
  2731  0F40  2F42               	goto	u1951
  2732  0F41  2F43               	goto	u1950
  2733  0F42                     u1951:
  2734  0F42  2F3D               	goto	l446
  2735  0F43                     u1950:
  2736  0F43  2E9B               	goto	l2088
  2737  0F44                     l450:
  2738  0F44  1683               	bsf	3,5	;RP0=1, select bank1
  2739  0F45  1303               	bcf	3,6	;RP1=0, select bank1
  2740  0F46  1C98               	btfss	24,1	;volatile
  2741  0F47  2F49               	goto	u1961
  2742  0F48  2F4A               	goto	u1960
  2743  0F49                     u1961:
  2744  0F49  2F44               	goto	l450
  2745  0F4A                     u1960:
  2746  0F4A                     l2128:
  2747                           
  2748                           ;PROYECTO.c: 690:             TXREG = 49;
  2749  0F4A  3031               	movlw	49
  2750  0F4B  1283               	bcf	3,5	;RP0=0, select bank0
  2751  0F4C  1303               	bcf	3,6	;RP1=0, select bank0
  2752  0F4D  0099               	movwf	25	;volatile
  2753  0F4E                     l453:	
  2754                           ;PROYECTO.c: 691:             while(TXSTAbits.TRMT == 0);
  2755                           
  2756  0F4E  1683               	bsf	3,5	;RP0=1, select bank1
  2757  0F4F  1303               	bcf	3,6	;RP1=0, select bank1
  2758  0F50  1C98               	btfss	24,1	;volatile
  2759  0F51  2F53               	goto	u1971
  2760  0F52  2F54               	goto	u1970
  2761  0F53                     u1971:
  2762  0F53  2F4E               	goto	l453
  2763  0F54                     u1970:
  2764  0F54  2EA6               	goto	l2090
  2765  0F55                     l457:
  2766  0F55  1683               	bsf	3,5	;RP0=1, select bank1
  2767  0F56  1303               	bcf	3,6	;RP1=0, select bank1
  2768  0F57  1C98               	btfss	24,1	;volatile
  2769  0F58  2F5A               	goto	u1981
  2770  0F59  2F5B               	goto	u1980
  2771  0F5A                     u1981:
  2772  0F5A  2F55               	goto	l457
  2773  0F5B                     u1980:
  2774  0F5B                     l2132:
  2775                           
  2776                           ;PROYECTO.c: 697:             TXREG = 50;
  2777  0F5B  3032               	movlw	50
  2778  0F5C  1283               	bcf	3,5	;RP0=0, select bank0
  2779  0F5D  1303               	bcf	3,6	;RP1=0, select bank0
  2780  0F5E  0099               	movwf	25	;volatile
  2781  0F5F                     l460:	
  2782                           ;PROYECTO.c: 698:             while(TXSTAbits.TRMT == 0);
  2783                           
  2784  0F5F  1683               	bsf	3,5	;RP0=1, select bank1
  2785  0F60  1303               	bcf	3,6	;RP1=0, select bank1
  2786  0F61  1C98               	btfss	24,1	;volatile
  2787  0F62  2F64               	goto	u1991
  2788  0F63  2F65               	goto	u1990
  2789  0F64                     u1991:
  2790  0F64  2F5F               	goto	l460
  2791  0F65                     u1990:
  2792  0F65  2E43               	goto	l2072
  2793  0F66                     l464:
  2794  0F66  1683               	bsf	3,5	;RP0=1, select bank1
  2795  0F67  1303               	bcf	3,6	;RP1=0, select bank1
  2796  0F68  1C98               	btfss	24,1	;volatile
  2797  0F69  2F6B               	goto	u2001
  2798  0F6A  2F6C               	goto	u2000
  2799  0F6B                     u2001:
  2800  0F6B  2F66               	goto	l464
  2801  0F6C                     u2000:
  2802  0F6C                     l2136:
  2803                           
  2804                           ;PROYECTO.c: 704:             TXREG = 50;
  2805  0F6C  3032               	movlw	50
  2806  0F6D  1283               	bcf	3,5	;RP0=0, select bank0
  2807  0F6E  1303               	bcf	3,6	;RP1=0, select bank0
  2808  0F6F  0099               	movwf	25	;volatile
  2809  0F70                     l467:	
  2810                           ;PROYECTO.c: 705:             while(TXSTAbits.TRMT == 0);
  2811                           
  2812  0F70  1683               	bsf	3,5	;RP0=1, select bank1
  2813  0F71  1303               	bcf	3,6	;RP1=0, select bank1
  2814  0F72  1C98               	btfss	24,1	;volatile
  2815  0F73  2F75               	goto	u2011
  2816  0F74  2F76               	goto	u2010
  2817  0F75                     u2011:
  2818  0F75  2F70               	goto	l467
  2819  0F76                     u2010:
  2820  0F76  2E4E               	goto	l2074
  2821  0F77                     l471:
  2822  0F77  1683               	bsf	3,5	;RP0=1, select bank1
  2823  0F78  1303               	bcf	3,6	;RP1=0, select bank1
  2824  0F79  1C98               	btfss	24,1	;volatile
  2825  0F7A  2F7C               	goto	u2021
  2826  0F7B  2F7D               	goto	u2020
  2827  0F7C                     u2021:
  2828  0F7C  2F77               	goto	l471
  2829  0F7D                     u2020:
  2830  0F7D                     l2140:
  2831                           
  2832                           ;PROYECTO.c: 711:             TXREG = 50;
  2833  0F7D  3032               	movlw	50
  2834  0F7E  1283               	bcf	3,5	;RP0=0, select bank0
  2835  0F7F  1303               	bcf	3,6	;RP1=0, select bank0
  2836  0F80  0099               	movwf	25	;volatile
  2837  0F81                     l474:	
  2838                           ;PROYECTO.c: 712:             while(TXSTAbits.TRMT == 0);
  2839                           
  2840  0F81  1683               	bsf	3,5	;RP0=1, select bank1
  2841  0F82  1303               	bcf	3,6	;RP1=0, select bank1
  2842  0F83  1C98               	btfss	24,1	;volatile
  2843  0F84  2F86               	goto	u2031
  2844  0F85  2F87               	goto	u2030
  2845  0F86                     u2031:
  2846  0F86  2F81               	goto	l474
  2847  0F87                     u2030:
  2848  0F87  2E59               	goto	l2076
  2849  0F88                     l478:
  2850  0F88  1683               	bsf	3,5	;RP0=1, select bank1
  2851  0F89  1303               	bcf	3,6	;RP1=0, select bank1
  2852  0F8A  1C98               	btfss	24,1	;volatile
  2853  0F8B  2F8D               	goto	u2041
  2854  0F8C  2F8E               	goto	u2040
  2855  0F8D                     u2041:
  2856  0F8D  2F88               	goto	l478
  2857  0F8E                     u2040:
  2858  0F8E                     l2144:
  2859                           
  2860                           ;PROYECTO.c: 718:             TXREG = 50;
  2861  0F8E  3032               	movlw	50
  2862  0F8F  1283               	bcf	3,5	;RP0=0, select bank0
  2863  0F90  1303               	bcf	3,6	;RP1=0, select bank0
  2864  0F91  0099               	movwf	25	;volatile
  2865  0F92                     l481:	
  2866                           ;PROYECTO.c: 719:             while(TXSTAbits.TRMT == 0);
  2867                           
  2868  0F92  1683               	bsf	3,5	;RP0=1, select bank1
  2869  0F93  1303               	bcf	3,6	;RP1=0, select bank1
  2870  0F94  1C98               	btfss	24,1	;volatile
  2871  0F95  2F97               	goto	u2051
  2872  0F96  2F98               	goto	u2050
  2873  0F97                     u2051:
  2874  0F97  2F92               	goto	l481
  2875  0F98                     u2050:
  2876  0F98  2E64               	goto	l2078
  2877  0F99                     l485:
  2878  0F99  1683               	bsf	3,5	;RP0=1, select bank1
  2879  0F9A  1303               	bcf	3,6	;RP1=0, select bank1
  2880  0F9B  1C98               	btfss	24,1	;volatile
  2881  0F9C  2F9E               	goto	u2061
  2882  0F9D  2F9F               	goto	u2060
  2883  0F9E                     u2061:
  2884  0F9E  2F99               	goto	l485
  2885  0F9F                     u2060:
  2886  0F9F                     l2148:
  2887                           
  2888                           ;PROYECTO.c: 725:             TXREG = 50;
  2889  0F9F  3032               	movlw	50
  2890  0FA0  1283               	bcf	3,5	;RP0=0, select bank0
  2891  0FA1  1303               	bcf	3,6	;RP1=0, select bank0
  2892  0FA2  0099               	movwf	25	;volatile
  2893  0FA3                     l488:	
  2894                           ;PROYECTO.c: 726:             while(TXSTAbits.TRMT == 0);
  2895                           
  2896  0FA3  1683               	bsf	3,5	;RP0=1, select bank1
  2897  0FA4  1303               	bcf	3,6	;RP1=0, select bank1
  2898  0FA5  1C98               	btfss	24,1	;volatile
  2899  0FA6  2FA8               	goto	u2071
  2900  0FA7  2FA9               	goto	u2070
  2901  0FA8                     u2071:
  2902  0FA8  2FA3               	goto	l488
  2903  0FA9                     u2070:
  2904  0FA9  2E6F               	goto	l2080
  2905  0FAA                     l2154:
  2906  0FAA  0875               	movf	SendCharH@in,w
  2907  0FAB  00F3               	movwf	??_SendCharH
  2908  0FAC  01F4               	clrf	??_SendCharH+1
  2909                           
  2910                           ; Switch on 2 bytes has been partitioned into a top level switch of size 1, and 1 sub-sw
      +                          itches
  2911                           ; Switch size 1, requested type "simple"
  2912                           ; Number of cases is 1, Range of values is 0 to 0
  2913                           ; switch strategies available:
  2914                           ; Name         Instructions Cycles
  2915                           ; simple_byte            4     3 (average)
  2916                           ; direct_byte           11     8 (fixed)
  2917                           ; jumptable            260     6 (fixed)
  2918                           ;	Chosen strategy is simple_byte
  2919  0FAD  0874               	movf	??_SendCharH+1,w
  2920  0FAE  3A00               	xorlw	0	; case 0
  2921  0FAF  1903               	skipnz
  2922  0FB0  2FB2               	goto	l3768
  2923  0FB1  2FFF               	goto	l491
  2924  0FB2                     l3768:
  2925                           
  2926                           ; Switch size 1, requested type "simple"
  2927                           ; Number of cases is 25, Range of values is 0 to 24
  2928                           ; switch strategies available:
  2929                           ; Name         Instructions Cycles
  2930                           ; simple_byte           76    39 (average)
  2931                           ; direct_byte           83     8 (fixed)
  2932                           ; jumptable            260     6 (fixed)
  2933                           ;	Chosen strategy is simple_byte
  2934  0FB2  0873               	movf	??_SendCharH,w
  2935  0FB3  3A00               	xorlw	0	; case 0
  2936  0FB4  1903               	skipnz
  2937  0FB5  2E3D               	goto	l346
  2938  0FB6  3A01               	xorlw	1	; case 1
  2939  0FB7  1903               	skipnz
  2940  0FB8  2E48               	goto	l351
  2941  0FB9  3A03               	xorlw	3	; case 2
  2942  0FBA  1903               	skipnz
  2943  0FBB  2E53               	goto	l355
  2944  0FBC  3A01               	xorlw	1	; case 3
  2945  0FBD  1903               	skipnz
  2946  0FBE  2E5E               	goto	l359
  2947  0FBF  3A07               	xorlw	7	; case 4
  2948  0FC0  1903               	skipnz
  2949  0FC1  2E69               	goto	l363
  2950  0FC2  3A01               	xorlw	1	; case 5
  2951  0FC3  1903               	skipnz
  2952  0FC4  2E74               	goto	l367
  2953  0FC5  3A03               	xorlw	3	; case 6
  2954  0FC6  1903               	skipnz
  2955  0FC7  2E7F               	goto	l371
  2956  0FC8  3A01               	xorlw	1	; case 7
  2957  0FC9  1903               	skipnz
  2958  0FCA  2E8A               	goto	l375
  2959  0FCB  3A0F               	xorlw	15	; case 8
  2960  0FCC  1903               	skipnz
  2961  0FCD  2E95               	goto	l379
  2962  0FCE  3A01               	xorlw	1	; case 9
  2963  0FCF  1903               	skipnz
  2964  0FD0  2EA0               	goto	l383
  2965  0FD1  3A03               	xorlw	3	; case 10
  2966  0FD2  1903               	skipnz
  2967  0FD3  2EAB               	goto	l387
  2968  0FD4  3A01               	xorlw	1	; case 11
  2969  0FD5  1903               	skipnz
  2970  0FD6  2EBC               	goto	l394
  2971  0FD7  3A07               	xorlw	7	; case 12
  2972  0FD8  1903               	skipnz
  2973  0FD9  2ECD               	goto	l401
  2974  0FDA  3A01               	xorlw	1	; case 13
  2975  0FDB  1903               	skipnz
  2976  0FDC  2EDE               	goto	l408
  2977  0FDD  3A03               	xorlw	3	; case 14
  2978  0FDE  1903               	skipnz
  2979  0FDF  2EEF               	goto	l415
  2980  0FE0  3A01               	xorlw	1	; case 15
  2981  0FE1  1903               	skipnz
  2982  0FE2  2F00               	goto	l422
  2983  0FE3  3A1F               	xorlw	31	; case 16
  2984  0FE4  1903               	skipnz
  2985  0FE5  2F11               	goto	l429
  2986  0FE6  3A01               	xorlw	1	; case 17
  2987  0FE7  1903               	skipnz
  2988  0FE8  2F22               	goto	l436
  2989  0FE9  3A03               	xorlw	3	; case 18
  2990  0FEA  1903               	skipnz
  2991  0FEB  2F33               	goto	l443
  2992  0FEC  3A01               	xorlw	1	; case 19
  2993  0FED  1903               	skipnz
  2994  0FEE  2F44               	goto	l450
  2995  0FEF  3A07               	xorlw	7	; case 20
  2996  0FF0  1903               	skipnz
  2997  0FF1  2F55               	goto	l457
  2998  0FF2  3A01               	xorlw	1	; case 21
  2999  0FF3  1903               	skipnz
  3000  0FF4  2F66               	goto	l464
  3001  0FF5  3A03               	xorlw	3	; case 22
  3002  0FF6  1903               	skipnz
  3003  0FF7  2F77               	goto	l471
  3004  0FF8  3A01               	xorlw	1	; case 23
  3005  0FF9  1903               	skipnz
  3006  0FFA  2F88               	goto	l478
  3007  0FFB  3A0F               	xorlw	15	; case 24
  3008  0FFC  1903               	skipnz
  3009  0FFD  2F99               	goto	l485
  3010  0FFE  2FFF               	goto	l491
  3011  0FFF                     l491:
  3012  0FFF  0008               	return
  3013  1000                     __end_of_SendCharH:
  3014                           
  3015                           	psect	text6
  3016  0BCB                     __ptext6:	
  3017 ;; *************** function _CharToNumM *****************
  3018 ;; Defined at:
  3019 ;;		line 827 in file "PROYECTO.c"
  3020 ;; Parameters:    Size  Location     Type
  3021 ;;  in              1    wreg     unsigned char 
  3022 ;;  her             1    3[COMMON] unsigned char 
  3023 ;; Auto vars:     Size  Location     Type
  3024 ;;  in              1    5[COMMON] unsigned char 
  3025 ;; Return value:  Size  Location     Type
  3026 ;;                  1    wreg      unsigned char 
  3027 ;; Registers used:
  3028 ;;		wreg, status,2, status,0
  3029 ;; Tracked objects:
  3030 ;;		On entry : 0/0
  3031 ;;		On exit  : 0/0
  3032 ;;		Unchanged: 0/0
  3033 ;; Data sizes:     COMMON   BANK0   BANK1   BANK3   BANK2
  3034 ;;      Params:         1       0       0       0       0
  3035 ;;      Locals:         1       0       0       0       0
  3036 ;;      Temps:          1       0       0       0       0
  3037 ;;      Totals:         3       0       0       0       0
  3038 ;;Total ram usage:        3 bytes
  3039 ;; Hardware stack levels used:    1
  3040 ;; Hardware stack levels required when called:    1
  3041 ;; This function calls:
  3042 ;;		Nothing
  3043 ;; This function is called by:
  3044 ;;		_main
  3045 ;; This function uses a non-reentrant model
  3046 ;;
  3047                           
  3048                           
  3049                           ;psect for function _CharToNumM
  3050  0BCB                     _CharToNumM:
  3051                           
  3052                           ;incstack = 0
  3053                           ; Regs used in _CharToNumM: [wreg+status,2+status,0]
  3054                           ;CharToNumM@in stored from wreg
  3055  0BCB  00F5               	movwf	CharToNumM@in
  3056  0BCC                     l2244:
  3057                           
  3058                           ;PROYECTO.c: 828:     if(in == 'a'){
  3059  0BCC  3061               	movlw	97
  3060  0BCD  0675               	xorwf	CharToNumM@in,w
  3061  0BCE  1D03               	btfss	3,2
  3062  0BCF  2BD1               	goto	u2141
  3063  0BD0  2BD2               	goto	u2140
  3064  0BD1                     u2141:
  3065  0BD1  2BD4               	goto	l2248
  3066  0BD2                     u2140:
  3067  0BD2                     l2246:
  3068                           
  3069                           ;PROYECTO.c: 829:         her = 0;
  3070  0BD2  01F3               	clrf	CharToNumM@her
  3071                           
  3072                           ;PROYECTO.c: 830:     }else if(in == 'b'){
  3073  0BD3  2C00               	goto	l540
  3074  0BD4                     l2248:
  3075  0BD4  3062               	movlw	98
  3076  0BD5  0675               	xorwf	CharToNumM@in,w
  3077  0BD6  1D03               	btfss	3,2
  3078  0BD7  2BD9               	goto	u2151
  3079  0BD8  2BDA               	goto	u2150
  3080  0BD9                     u2151:
  3081  0BD9  2BDF               	goto	l2252
  3082  0BDA                     u2150:
  3083  0BDA                     l2250:
  3084                           
  3085                           ;PROYECTO.c: 831:         her = 15;
  3086  0BDA  300F               	movlw	15
  3087  0BDB  00F4               	movwf	??_CharToNumM
  3088  0BDC  0874               	movf	??_CharToNumM,w
  3089  0BDD  00F3               	movwf	CharToNumM@her
  3090                           
  3091                           ;PROYECTO.c: 832:     }else if(in == 'c'){
  3092  0BDE  2C00               	goto	l540
  3093  0BDF                     l2252:
  3094  0BDF  3063               	movlw	99
  3095  0BE0  0675               	xorwf	CharToNumM@in,w
  3096  0BE1  1D03               	btfss	3,2
  3097  0BE2  2BE4               	goto	u2161
  3098  0BE3  2BE5               	goto	u2160
  3099  0BE4                     u2161:
  3100  0BE4  2BEA               	goto	l2256
  3101  0BE5                     u2160:
  3102  0BE5                     l2254:
  3103                           
  3104                           ;PROYECTO.c: 833:         her = 30;
  3105  0BE5  301E               	movlw	30
  3106  0BE6  00F4               	movwf	??_CharToNumM
  3107  0BE7  0874               	movf	??_CharToNumM,w
  3108  0BE8  00F3               	movwf	CharToNumM@her
  3109                           
  3110                           ;PROYECTO.c: 834:     }else if(in == 'd'){
  3111  0BE9  2C00               	goto	l540
  3112  0BEA                     l2256:
  3113  0BEA  3064               	movlw	100
  3114  0BEB  0675               	xorwf	CharToNumM@in,w
  3115  0BEC  1D03               	btfss	3,2
  3116  0BED  2BEF               	goto	u2171
  3117  0BEE  2BF0               	goto	u2170
  3118  0BEF                     u2171:
  3119  0BEF  2BF5               	goto	l2260
  3120  0BF0                     u2170:
  3121  0BF0                     l2258:
  3122                           
  3123                           ;PROYECTO.c: 835:         her = 45;
  3124  0BF0  302D               	movlw	45
  3125  0BF1  00F4               	movwf	??_CharToNumM
  3126  0BF2  0874               	movf	??_CharToNumM,w
  3127  0BF3  00F3               	movwf	CharToNumM@her
  3128                           
  3129                           ;PROYECTO.c: 836:     }else if(in == 'e'){
  3130  0BF4  2C00               	goto	l540
  3131  0BF5                     l2260:
  3132  0BF5  3065               	movlw	101
  3133  0BF6  0675               	xorwf	CharToNumM@in,w
  3134  0BF7  1D03               	btfss	3,2
  3135  0BF8  2BFA               	goto	u2181
  3136  0BF9  2BFB               	goto	u2180
  3137  0BFA                     u2181:
  3138  0BFA  2C00               	goto	l544
  3139  0BFB                     u2180:
  3140  0BFB                     l2262:
  3141                           
  3142                           ;PROYECTO.c: 837:         her = 55;
  3143  0BFB  3037               	movlw	55
  3144  0BFC  00F4               	movwf	??_CharToNumM
  3145  0BFD  0874               	movf	??_CharToNumM,w
  3146  0BFE  00F3               	movwf	CharToNumM@her
  3147  0BFF  2C00               	goto	l540
  3148  0C00                     l544:
  3149  0C00                     l540:
  3150                           
  3151                           ;PROYECTO.c: 839:     return her;
  3152  0C00  0873               	movf	CharToNumM@her,w
  3153  0C01                     l548:
  3154  0C01  0008               	return
  3155  0C02                     __end_of_CharToNumM:
  3156                           
  3157                           	psect	text7
  3158  0C5D                     __ptext7:	
  3159 ;; *************** function _CharToNumH *****************
  3160 ;; Defined at:
  3161 ;;		line 747 in file "PROYECTO.c"
  3162 ;; Parameters:    Size  Location     Type
  3163 ;;  in              1    wreg     unsigned char 
  3164 ;;  hora_user       1    3[COMMON] unsigned char 
  3165 ;; Auto vars:     Size  Location     Type
  3166 ;;  in              1    0[BANK0 ] unsigned char 
  3167 ;; Return value:  Size  Location     Type
  3168 ;;                  1    wreg      unsigned char 
  3169 ;; Registers used:
  3170 ;;		wreg, fsr0l, fsr0h, status,2, status,0
  3171 ;; Tracked objects:
  3172 ;;		On entry : 0/0
  3173 ;;		On exit  : 0/0
  3174 ;;		Unchanged: 0/0
  3175 ;; Data sizes:     COMMON   BANK0   BANK1   BANK3   BANK2
  3176 ;;      Params:         1       0       0       0       0
  3177 ;;      Locals:         0       1       0       0       0
  3178 ;;      Temps:          2       0       0       0       0
  3179 ;;      Totals:         3       1       0       0       0
  3180 ;;Total ram usage:        4 bytes
  3181 ;; Hardware stack levels used:    1
  3182 ;; Hardware stack levels required when called:    1
  3183 ;; This function calls:
  3184 ;;		Nothing
  3185 ;; This function is called by:
  3186 ;;		_main
  3187 ;; This function uses a non-reentrant model
  3188 ;;
  3189                           
  3190                           
  3191                           ;psect for function _CharToNumH
  3192  0C5D                     _CharToNumH:
  3193                           
  3194                           ;incstack = 0
  3195                           ; Regs used in _CharToNumH: [wreg-fsr0h+status,2+status,0]
  3196                           ;CharToNumH@in stored from wreg
  3197  0C5D  1283               	bcf	3,5	;RP0=0, select bank0
  3198  0C5E  1303               	bcf	3,6	;RP1=0, select bank0
  3199  0C5F  00BA               	movwf	CharToNumH@in
  3200  0C60                     l3002:
  3201                           
  3202                           ;PROYECTO.c: 748:     switch(in){
  3203  0C60  2CD9               	goto	l3054
  3204  0C61                     l3004:
  3205                           
  3206                           ;PROYECTO.c: 750:             hora_user = 0;
  3207  0C61  01F3               	clrf	CharToNumH@hora_user
  3208                           
  3209                           ;PROYECTO.c: 751:             break;
  3210  0C62  2D2E               	goto	l3056
  3211  0C63                     l512:	
  3212                           ;PROYECTO.c: 752:         case('b'):
  3213                           
  3214                           
  3215                           ;PROYECTO.c: 753:             hora_user = 1;
  3216  0C63  01F3               	clrf	CharToNumH@hora_user
  3217  0C64  0AF3               	incf	CharToNumH@hora_user,f
  3218                           
  3219                           ;PROYECTO.c: 754:             break;
  3220  0C65  2D2E               	goto	l3056
  3221  0C66                     l3006:
  3222                           
  3223                           ;PROYECTO.c: 756:             hora_user = 2;
  3224  0C66  3002               	movlw	2
  3225  0C67  00F4               	movwf	??_CharToNumH
  3226  0C68  0874               	movf	??_CharToNumH,w
  3227  0C69  00F3               	movwf	CharToNumH@hora_user
  3228                           
  3229                           ;PROYECTO.c: 757:             break;
  3230  0C6A  2D2E               	goto	l3056
  3231  0C6B                     l3008:
  3232                           
  3233                           ;PROYECTO.c: 759:             hora_user = 3;
  3234  0C6B  3003               	movlw	3
  3235  0C6C  00F4               	movwf	??_CharToNumH
  3236  0C6D  0874               	movf	??_CharToNumH,w
  3237  0C6E  00F3               	movwf	CharToNumH@hora_user
  3238                           
  3239                           ;PROYECTO.c: 760:             break;
  3240  0C6F  2D2E               	goto	l3056
  3241  0C70                     l3010:
  3242                           
  3243                           ;PROYECTO.c: 762:             hora_user = 4;
  3244  0C70  3004               	movlw	4
  3245  0C71  00F4               	movwf	??_CharToNumH
  3246  0C72  0874               	movf	??_CharToNumH,w
  3247  0C73  00F3               	movwf	CharToNumH@hora_user
  3248                           
  3249                           ;PROYECTO.c: 763:             break;
  3250  0C74  2D2E               	goto	l3056
  3251  0C75                     l3012:
  3252                           
  3253                           ;PROYECTO.c: 765:             hora_user = 5;
  3254  0C75  3005               	movlw	5
  3255  0C76  00F4               	movwf	??_CharToNumH
  3256  0C77  0874               	movf	??_CharToNumH,w
  3257  0C78  00F3               	movwf	CharToNumH@hora_user
  3258                           
  3259                           ;PROYECTO.c: 766:             break;
  3260  0C79  2D2E               	goto	l3056
  3261  0C7A                     l3014:
  3262                           
  3263                           ;PROYECTO.c: 768:             hora_user = 6;
  3264  0C7A  3006               	movlw	6
  3265  0C7B  00F4               	movwf	??_CharToNumH
  3266  0C7C  0874               	movf	??_CharToNumH,w
  3267  0C7D  00F3               	movwf	CharToNumH@hora_user
  3268                           
  3269                           ;PROYECTO.c: 769:             break;
  3270  0C7E  2D2E               	goto	l3056
  3271  0C7F                     l3016:
  3272                           
  3273                           ;PROYECTO.c: 771:             hora_user = 7;
  3274  0C7F  3007               	movlw	7
  3275  0C80  00F4               	movwf	??_CharToNumH
  3276  0C81  0874               	movf	??_CharToNumH,w
  3277  0C82  00F3               	movwf	CharToNumH@hora_user
  3278                           
  3279                           ;PROYECTO.c: 772:             break;
  3280  0C83  2D2E               	goto	l3056
  3281  0C84                     l3018:
  3282                           
  3283                           ;PROYECTO.c: 774:             hora_user = 8;
  3284  0C84  3008               	movlw	8
  3285  0C85  00F4               	movwf	??_CharToNumH
  3286  0C86  0874               	movf	??_CharToNumH,w
  3287  0C87  00F3               	movwf	CharToNumH@hora_user
  3288                           
  3289                           ;PROYECTO.c: 775:             break;
  3290  0C88  2D2E               	goto	l3056
  3291  0C89                     l3020:
  3292                           
  3293                           ;PROYECTO.c: 777:             hora_user = 9;
  3294  0C89  3009               	movlw	9
  3295  0C8A  00F4               	movwf	??_CharToNumH
  3296  0C8B  0874               	movf	??_CharToNumH,w
  3297  0C8C  00F3               	movwf	CharToNumH@hora_user
  3298                           
  3299                           ;PROYECTO.c: 778:             break;
  3300  0C8D  2D2E               	goto	l3056
  3301  0C8E                     l3022:
  3302                           
  3303                           ;PROYECTO.c: 780:             hora_user = 10;
  3304  0C8E  300A               	movlw	10
  3305  0C8F  00F4               	movwf	??_CharToNumH
  3306  0C90  0874               	movf	??_CharToNumH,w
  3307  0C91  00F3               	movwf	CharToNumH@hora_user
  3308                           
  3309                           ;PROYECTO.c: 781:             break;
  3310  0C92  2D2E               	goto	l3056
  3311  0C93                     l3024:
  3312                           
  3313                           ;PROYECTO.c: 783:             hora_user = 11;
  3314  0C93  300B               	movlw	11
  3315  0C94  00F4               	movwf	??_CharToNumH
  3316  0C95  0874               	movf	??_CharToNumH,w
  3317  0C96  00F3               	movwf	CharToNumH@hora_user
  3318                           
  3319                           ;PROYECTO.c: 784:             break;
  3320  0C97  2D2E               	goto	l3056
  3321  0C98                     l3026:
  3322                           
  3323                           ;PROYECTO.c: 786:             hora_user = 12;
  3324  0C98  300C               	movlw	12
  3325  0C99  00F4               	movwf	??_CharToNumH
  3326  0C9A  0874               	movf	??_CharToNumH,w
  3327  0C9B  00F3               	movwf	CharToNumH@hora_user
  3328                           
  3329                           ;PROYECTO.c: 787:             break;
  3330  0C9C  2D2E               	goto	l3056
  3331  0C9D                     l3028:
  3332                           
  3333                           ;PROYECTO.c: 789:             hora_user = 13;
  3334  0C9D  300D               	movlw	13
  3335  0C9E  00F4               	movwf	??_CharToNumH
  3336  0C9F  0874               	movf	??_CharToNumH,w
  3337  0CA0  00F3               	movwf	CharToNumH@hora_user
  3338                           
  3339                           ;PROYECTO.c: 790:             break;
  3340  0CA1  2D2E               	goto	l3056
  3341  0CA2                     l3030:
  3342                           
  3343                           ;PROYECTO.c: 792:             hora_user = 14;
  3344  0CA2  300E               	movlw	14
  3345  0CA3  00F4               	movwf	??_CharToNumH
  3346  0CA4  0874               	movf	??_CharToNumH,w
  3347  0CA5  00F3               	movwf	CharToNumH@hora_user
  3348                           
  3349                           ;PROYECTO.c: 793:             break;
  3350  0CA6  2D2E               	goto	l3056
  3351  0CA7                     l3032:
  3352                           
  3353                           ;PROYECTO.c: 795:             hora_user = 15;
  3354  0CA7  300F               	movlw	15
  3355  0CA8  00F4               	movwf	??_CharToNumH
  3356  0CA9  0874               	movf	??_CharToNumH,w
  3357  0CAA  00F3               	movwf	CharToNumH@hora_user
  3358                           
  3359                           ;PROYECTO.c: 796:             break;
  3360  0CAB  2D2E               	goto	l3056
  3361  0CAC                     l3034:
  3362                           
  3363                           ;PROYECTO.c: 798:             hora_user = 16;
  3364  0CAC  3010               	movlw	16
  3365  0CAD  00F4               	movwf	??_CharToNumH
  3366  0CAE  0874               	movf	??_CharToNumH,w
  3367  0CAF  00F3               	movwf	CharToNumH@hora_user
  3368                           
  3369                           ;PROYECTO.c: 799:             break;
  3370  0CB0  2D2E               	goto	l3056
  3371  0CB1                     l3036:
  3372                           
  3373                           ;PROYECTO.c: 801:             hora_user = 17;
  3374  0CB1  3011               	movlw	17
  3375  0CB2  00F4               	movwf	??_CharToNumH
  3376  0CB3  0874               	movf	??_CharToNumH,w
  3377  0CB4  00F3               	movwf	CharToNumH@hora_user
  3378                           
  3379                           ;PROYECTO.c: 802:             break;
  3380  0CB5  2D2E               	goto	l3056
  3381  0CB6                     l3038:
  3382                           
  3383                           ;PROYECTO.c: 804:             hora_user = 18;
  3384  0CB6  3012               	movlw	18
  3385  0CB7  00F4               	movwf	??_CharToNumH
  3386  0CB8  0874               	movf	??_CharToNumH,w
  3387  0CB9  00F3               	movwf	CharToNumH@hora_user
  3388                           
  3389                           ;PROYECTO.c: 805:             break;
  3390  0CBA  2D2E               	goto	l3056
  3391  0CBB                     l3040:
  3392                           
  3393                           ;PROYECTO.c: 807:             hora_user = 19;
  3394  0CBB  3013               	movlw	19
  3395  0CBC  00F4               	movwf	??_CharToNumH
  3396  0CBD  0874               	movf	??_CharToNumH,w
  3397  0CBE  00F3               	movwf	CharToNumH@hora_user
  3398                           
  3399                           ;PROYECTO.c: 808:             break;
  3400  0CBF  2D2E               	goto	l3056
  3401  0CC0                     l3042:
  3402                           
  3403                           ;PROYECTO.c: 810:             hora_user = 20;
  3404  0CC0  3014               	movlw	20
  3405  0CC1  00F4               	movwf	??_CharToNumH
  3406  0CC2  0874               	movf	??_CharToNumH,w
  3407  0CC3  00F3               	movwf	CharToNumH@hora_user
  3408                           
  3409                           ;PROYECTO.c: 811:             break;
  3410  0CC4  2D2E               	goto	l3056
  3411  0CC5                     l3044:
  3412                           
  3413                           ;PROYECTO.c: 813:             hora_user = 21;
  3414  0CC5  3015               	movlw	21
  3415  0CC6  00F4               	movwf	??_CharToNumH
  3416  0CC7  0874               	movf	??_CharToNumH,w
  3417  0CC8  00F3               	movwf	CharToNumH@hora_user
  3418                           
  3419                           ;PROYECTO.c: 814:             break;
  3420  0CC9  2D2E               	goto	l3056
  3421  0CCA                     l3046:
  3422                           
  3423                           ;PROYECTO.c: 816:             hora_user = 22;
  3424  0CCA  3016               	movlw	22
  3425  0CCB  00F4               	movwf	??_CharToNumH
  3426  0CCC  0874               	movf	??_CharToNumH,w
  3427  0CCD  00F3               	movwf	CharToNumH@hora_user
  3428                           
  3429                           ;PROYECTO.c: 817:             break;
  3430  0CCE  2D2E               	goto	l3056
  3431  0CCF                     l3048:
  3432                           
  3433                           ;PROYECTO.c: 819:             hora_user = 23;
  3434  0CCF  3017               	movlw	23
  3435  0CD0  00F4               	movwf	??_CharToNumH
  3436  0CD1  0874               	movf	??_CharToNumH,w
  3437  0CD2  00F3               	movwf	CharToNumH@hora_user
  3438                           
  3439                           ;PROYECTO.c: 820:             break;
  3440  0CD3  2D2E               	goto	l3056
  3441  0CD4                     l3050:
  3442                           
  3443                           ;PROYECTO.c: 822:             hora_user = 24;
  3444  0CD4  3018               	movlw	24
  3445  0CD5  00F4               	movwf	??_CharToNumH
  3446  0CD6  0874               	movf	??_CharToNumH,w
  3447  0CD7  00F3               	movwf	CharToNumH@hora_user
  3448                           
  3449                           ;PROYECTO.c: 823:             break;
  3450  0CD8  2D2E               	goto	l3056
  3451  0CD9                     l3054:
  3452  0CD9  083A               	movf	CharToNumH@in,w
  3453  0CDA  00F4               	movwf	??_CharToNumH
  3454  0CDB  01F5               	clrf	??_CharToNumH+1
  3455                           
  3456                           ; Switch on 2 bytes has been partitioned into a top level switch of size 1, and 1 sub-sw
      +                          itches
  3457                           ; Switch size 1, requested type "simple"
  3458                           ; Number of cases is 1, Range of values is 0 to 0
  3459                           ; switch strategies available:
  3460                           ; Name         Instructions Cycles
  3461                           ; simple_byte            4     3 (average)
  3462                           ; direct_byte           11     8 (fixed)
  3463                           ; jumptable            260     6 (fixed)
  3464                           ;	Chosen strategy is simple_byte
  3465  0CDC  0875               	movf	??_CharToNumH+1,w
  3466  0CDD  3A00               	xorlw	0	; case 0
  3467  0CDE  1903               	skipnz
  3468  0CDF  2CE1               	goto	l3770
  3469  0CE0  2D2E               	goto	l3056
  3470  0CE1                     l3770:
  3471                           
  3472                           ; Switch size 1, requested type "simple"
  3473                           ; Number of cases is 25, Range of values is 97 to 121
  3474                           ; switch strategies available:
  3475                           ; Name         Instructions Cycles
  3476                           ; simple_byte           76    39 (average)
  3477                           ; direct_byte           86    11 (fixed)
  3478                           ; jumptable            263     9 (fixed)
  3479                           ;	Chosen strategy is simple_byte
  3480  0CE1  0874               	movf	??_CharToNumH,w
  3481  0CE2  3A61               	xorlw	97	; case 97
  3482  0CE3  1903               	skipnz
  3483  0CE4  2C61               	goto	l3004
  3484  0CE5  3A03               	xorlw	3	; case 98
  3485  0CE6  1903               	skipnz
  3486  0CE7  2C63               	goto	l512
  3487  0CE8  3A01               	xorlw	1	; case 99
  3488  0CE9  1903               	skipnz
  3489  0CEA  2C66               	goto	l3006
  3490  0CEB  3A07               	xorlw	7	; case 100
  3491  0CEC  1903               	skipnz
  3492  0CED  2C6B               	goto	l3008
  3493  0CEE  3A01               	xorlw	1	; case 101
  3494  0CEF  1903               	skipnz
  3495  0CF0  2C70               	goto	l3010
  3496  0CF1  3A03               	xorlw	3	; case 102
  3497  0CF2  1903               	skipnz
  3498  0CF3  2C75               	goto	l3012
  3499  0CF4  3A01               	xorlw	1	; case 103
  3500  0CF5  1903               	skipnz
  3501  0CF6  2C7A               	goto	l3014
  3502  0CF7  3A0F               	xorlw	15	; case 104
  3503  0CF8  1903               	skipnz
  3504  0CF9  2C7F               	goto	l3016
  3505  0CFA  3A01               	xorlw	1	; case 105
  3506  0CFB  1903               	skipnz
  3507  0CFC  2C84               	goto	l3018
  3508  0CFD  3A03               	xorlw	3	; case 106
  3509  0CFE  1903               	skipnz
  3510  0CFF  2C89               	goto	l3020
  3511  0D00  3A01               	xorlw	1	; case 107
  3512  0D01  1903               	skipnz
  3513  0D02  2C8E               	goto	l3022
  3514  0D03  3A07               	xorlw	7	; case 108
  3515  0D04  1903               	skipnz
  3516  0D05  2C93               	goto	l3024
  3517  0D06  3A01               	xorlw	1	; case 109
  3518  0D07  1903               	skipnz
  3519  0D08  2C98               	goto	l3026
  3520  0D09  3A03               	xorlw	3	; case 110
  3521  0D0A  1903               	skipnz
  3522  0D0B  2C9D               	goto	l3028
  3523  0D0C  3A01               	xorlw	1	; case 111
  3524  0D0D  1903               	skipnz
  3525  0D0E  2CA2               	goto	l3030
  3526  0D0F  3A1F               	xorlw	31	; case 112
  3527  0D10  1903               	skipnz
  3528  0D11  2CA7               	goto	l3032
  3529  0D12  3A01               	xorlw	1	; case 113
  3530  0D13  1903               	skipnz
  3531  0D14  2CAC               	goto	l3034
  3532  0D15  3A03               	xorlw	3	; case 114
  3533  0D16  1903               	skipnz
  3534  0D17  2CB1               	goto	l3036
  3535  0D18  3A01               	xorlw	1	; case 115
  3536  0D19  1903               	skipnz
  3537  0D1A  2CB6               	goto	l3038
  3538  0D1B  3A07               	xorlw	7	; case 116
  3539  0D1C  1903               	skipnz
  3540  0D1D  2CBB               	goto	l3040
  3541  0D1E  3A01               	xorlw	1	; case 117
  3542  0D1F  1903               	skipnz
  3543  0D20  2CC0               	goto	l3042
  3544  0D21  3A03               	xorlw	3	; case 118
  3545  0D22  1903               	skipnz
  3546  0D23  2CC5               	goto	l3044
  3547  0D24  3A01               	xorlw	1	; case 119
  3548  0D25  1903               	skipnz
  3549  0D26  2CCA               	goto	l3046
  3550  0D27  3A0F               	xorlw	15	; case 120
  3551  0D28  1903               	skipnz
  3552  0D29  2CCF               	goto	l3048
  3553  0D2A  3A01               	xorlw	1	; case 121
  3554  0D2B  1903               	skipnz
  3555  0D2C  2CD4               	goto	l3050
  3556  0D2D  2D2E               	goto	l3056
  3557  0D2E                     l3056:
  3558                           
  3559                           ;PROYECTO.c: 825:     return hora_user;
  3560  0D2E  0873               	movf	CharToNumH@hora_user,w
  3561  0D2F                     l536:
  3562  0D2F  0008               	return
  3563  0D30                     __end_of_CharToNumH:
  3564                           
  3565                           	psect	text8
  3566  07DF                     __ptext8:	
  3567 ;; *************** function _isr *****************
  3568 ;; Defined at:
  3569 ;;		line 71 in file "PROYECTO.c"
  3570 ;; Parameters:    Size  Location     Type
  3571 ;;		None
  3572 ;; Auto vars:     Size  Location     Type
  3573 ;;		None
  3574 ;; Return value:  Size  Location     Type
  3575 ;;                  1    wreg      void 
  3576 ;; Registers used:
  3577 ;;		wreg, status,2, status,0
  3578 ;; Tracked objects:
  3579 ;;		On entry : 0/0
  3580 ;;		On exit  : 0/0
  3581 ;;		Unchanged: 0/0
  3582 ;; Data sizes:     COMMON   BANK0   BANK1   BANK3   BANK2
  3583 ;;      Params:         0       0       0       0       0
  3584 ;;      Locals:         0       0       0       0       0
  3585 ;;      Temps:          3       0       0       0       0
  3586 ;;      Totals:         3       0       0       0       0
  3587 ;;Total ram usage:        3 bytes
  3588 ;; Hardware stack levels used:    1
  3589 ;; This function calls:
  3590 ;;		Nothing
  3591 ;; This function is called by:
  3592 ;;		Interrupt level 1
  3593 ;; This function uses a non-reentrant model
  3594 ;;
  3595                           
  3596                           
  3597                           ;psect for function _isr
  3598  07DF                     _isr:
  3599  07DF                     i1l2266:
  3600                           
  3601                           ;PROYECTO.c: 73:     if (TMR1IF == 1){
  3602  07DF  1283               	bcf	3,5	;RP0=0, select bank0
  3603  07E0  1303               	bcf	3,6	;RP1=0, select bank0
  3604  07E1  1C0C               	btfss	12,0	;volatile
  3605  07E2  2FE4               	goto	u219_21
  3606  07E3  2FE5               	goto	u219_20
  3607  07E4                     u219_21:
  3608  07E4  2FF9               	goto	i1l173
  3609  07E5                     u219_20:
  3610  07E5                     i1l2268:
  3611                           
  3612                           ;PROYECTO.c: 75:         cont++;
  3613  07E5  3001               	movlw	1
  3614  07E6  00F0               	movwf	??_isr
  3615  07E7  0870               	movf	??_isr,w
  3616  07E8  07A0               	addwf	_cont,f
  3617                           
  3618                           ;PROYECTO.c: 76:         if(cont == 2){
  3619  07E9  3002               	movlw	2
  3620  07EA  0620               	xorwf	_cont,w
  3621  07EB  1D03               	btfss	3,2
  3622  07EC  2FEE               	goto	u220_21
  3623  07ED  2FEF               	goto	u220_20
  3624  07EE                     u220_21:
  3625  07EE  2FF1               	goto	i1l2274
  3626  07EF                     u220_20:
  3627  07EF                     i1l2270:
  3628                           
  3629                           ;PROYECTO.c: 77:             PORTA = ~PORTA;
  3630  07EF  0985               	comf	5,f	;volatile
  3631  07F0                     i1l2272:
  3632                           
  3633                           ;PROYECTO.c: 78:             cont = 0;
  3634  07F0  01A0               	clrf	_cont
  3635  07F1                     i1l2274:
  3636                           
  3637                           ;PROYECTO.c: 81:         TMR1IF = 0;
  3638  07F1  100C               	bcf	12,0	;volatile
  3639  07F2                     i1l2276:
  3640                           
  3641                           ;PROYECTO.c: 82:         TMR1IE =1;
  3642  07F2  1683               	bsf	3,5	;RP0=1, select bank1
  3643  07F3  1303               	bcf	3,6	;RP1=0, select bank1
  3644  07F4  140C               	bsf	12,0	;volatile
  3645                           
  3646                           ;PROYECTO.c: 83:         TMR1H = 0;
  3647  07F5  1283               	bcf	3,5	;RP0=0, select bank0
  3648  07F6  1303               	bcf	3,6	;RP1=0, select bank0
  3649  07F7  018F               	clrf	15	;volatile
  3650                           
  3651                           ;PROYECTO.c: 84:         TMR1L = 0;
  3652  07F8  018E               	clrf	14	;volatile
  3653  07F9                     i1l173:
  3654  07F9  0872               	movf	??_isr+2,w
  3655  07FA  008A               	movwf	10
  3656  07FB  0E71               	swapf	??_isr+1,w
  3657  07FC  0083               	movwf	3
  3658  07FD  0EFE               	swapf	btemp,f
  3659  07FE  0E7E               	swapf	btemp,w
  3660  07FF  0009               	retfie
  3661  0800                     __end_of_isr:
  3662  007E                     btemp	set	126	;btemp
  3663  007E                     wtemp0	set	126
  3664                           
  3665                           	psect	intentry
  3666  0004                     __pintentry:	
  3667                           ;incstack = 0
  3668                           ; Regs used in _isr: [wreg+status,2+status,0]
  3669                           
  3670  0004                     interrupt_function:
  3671  007E                     saved_w	set	btemp
  3672  0004  00FE               	movwf	btemp
  3673  0005  0E03               	swapf	3,w
  3674  0006  00F1               	movwf	??_isr+1
  3675  0007  080A               	movf	10,w
  3676  0008  00F2               	movwf	??_isr+2
  3677  0009  120A  118A  2FDF   	ljmp	_isr
  3678                           
  3679                           	psect	config
  3680                           
  3681                           ;Config register CONFIG1 @ 0x2007
  3682                           ;	Oscillator Selection bits
  3683                           ;	FOSC = INTRC_NOCLKOUT, INTOSCIO oscillator: I/O function on RA6/OSC2/CLKOUT pin, I/O f
      +                          unction on RA7/OSC1/CLKIN
  3684                           ;	Watchdog Timer Enable bit
  3685                           ;	WDTE = OFF, WDT disabled and can be enabled by SWDTEN bit of the WDTCON register
  3686                           ;	Power-up Timer Enable bit
  3687                           ;	PWRTE = OFF, PWRT disabled
  3688                           ;	RE3/MCLR pin function select bit
  3689                           ;	MCLRE = OFF, RE3/MCLR pin function is digital input, MCLR internally tied to VDD
  3690                           ;	Code Protection bit
  3691                           ;	CP = OFF, Program memory code protection is disabled
  3692                           ;	Data Code Protection bit
  3693                           ;	CPD = OFF, Data memory code protection is disabled
  3694                           ;	Brown Out Reset Selection bits
  3695                           ;	BOREN = OFF, BOR disabled
  3696                           ;	Internal External Switchover bit
  3697                           ;	IESO = OFF, Internal/External Switchover mode is disabled
  3698                           ;	Fail-Safe Clock Monitor Enabled bit
  3699                           ;	FCMEN = OFF, Fail-Safe Clock Monitor is disabled
  3700                           ;	Low Voltage Programming Enable bit
  3701                           ;	LVP = ON, RB3/PGM pin has PGM function, low voltage programming enabled
  3702                           ;	In-Circuit Debugger Mode bit
  3703                           ;	DEBUG = 0x1, unprogrammed default
  3704  2007                     	org	8199
  3705  2007  30D4               	dw	12500
  3706                           
  3707                           ;Config register CONFIG2 @ 0x2008
  3708                           ;	Brown-out Reset Selection bit
  3709                           ;	BOR4V = BOR40V, Brown-out Reset set to 4.0V
  3710                           ;	Flash Program Memory Self Write Enable bits
  3711                           ;	WRT = OFF, Write protection off
  3712  2008                     	org	8200
  3713  2008  3FFF               	dw	16383
  3714                           
  3715                           	psect	maintext_split_1
  3716  0021                     u3500:
  3717  0021                     l3230:
  3718  0021  30A9               	movlw	169
  3719  0022  0278               	subwf	_escala,w
  3720  0023  1803               	skipnc
  3721  0024  2826               	goto	u3511
  3722  0025  2827               	goto	u3510
  3723  0026                     u3511:
  3724  0026  282C               	goto	l3234
  3725  0027                     u3510:
  3726  0027                     l3232:
  3727                           
  3728                           ;PROYECTO.c: 219:                     minuto = 45;
  3729  0027  302D               	movlw	45
  3730  0028  00BB               	movwf	??_main
  3731  0029  083B               	movf	??_main,w
  3732  002A  00F9               	movwf	_minuto
  3733                           
  3734                           ;PROYECTO.c: 220:                 }else if(escala >= 210 && escala <= 255 ){
  3735  002B  2837               	goto	l3238
  3736  002C                     l3234:
  3737  002C  30D2               	movlw	210
  3738  002D  0278               	subwf	_escala,w
  3739  002E  1C03               	skipc
  3740  002F  2831               	goto	u3521
  3741  0030  2832               	goto	u3520
  3742  0031                     u3521:
  3743  0031  2837               	goto	l191
  3744  0032                     u3520:
  3745  0032                     l3236:
  3746                           
  3747                           ;PROYECTO.c: 221:                     minuto = 55;
  3748  0032  3037               	movlw	55
  3749  0033  00BB               	movwf	??_main
  3750  0034  083B               	movf	??_main,w
  3751  0035  00F9               	movwf	_minuto
  3752  0036  2837               	goto	l3238
  3753  0037                     l191:
  3754  0037                     l3238:
  3755                           
  3756                           ;PROYECTO.c: 224:                 ADCON0bits.CHS = 5;
  3757  0037  081F               	movf	31,w	;volatile
  3758  0038  39C3               	andlw	-61
  3759  0039  3814               	iorlw	20
  3760  003A  009F               	movwf	31	;volatile
  3761                           
  3762                           ;PROYECTO.c: 225:             }
  3763  003B  29E5               	goto	l3390
  3764  003C                     l3240:
  3765  003C  0C1F               	rrf	31,w	;volatile
  3766  003D  00BB               	movwf	??_main
  3767  003E  0C3B               	rrf	??_main,w
  3768  003F  390F               	andlw	15
  3769  0040  3A05               	xorlw	5
  3770  0041  1D03               	skipz
  3771  0042  2844               	goto	u3531
  3772  0043  2845               	goto	u3530
  3773  0044                     u3531:
  3774  0044  29E5               	goto	l3390
  3775  0045                     u3530:
  3776  0045                     l3242:
  3777                           
  3778                           ;PROYECTO.c: 227:                 escala = ADRESH;
  3779  0045  081E               	movf	30,w	;volatile
  3780  0046  00BB               	movwf	??_main
  3781  0047  083B               	movf	??_main,w
  3782  0048  00F8               	movwf	_escala
  3783                           
  3784                           ;PROYECTO.c: 228:                 if (escala >= 0 && escala <=10 ){
  3785  0049  300B               	movlw	11
  3786  004A  0278               	subwf	_escala,w
  3787  004B  1803               	skipnc
  3788  004C  284E               	goto	u3541
  3789  004D  284F               	goto	u3540
  3790  004E                     u3541:
  3791  004E  2851               	goto	l3246
  3792  004F                     u3540:
  3793  004F                     l3244:
  3794                           
  3795                           ;PROYECTO.c: 229:                     hora = 0;
  3796  004F  01FA               	clrf	_hora
  3797                           
  3798                           ;PROYECTO.c: 230:                 }else if(escala >= 11 && escala <=20 ){
  3799  0050  29E1               	goto	l3388
  3800  0051                     l3246:
  3801  0051  300B               	movlw	11
  3802  0052  0278               	subwf	_escala,w
  3803  0053  1C03               	skipc
  3804  0054  2856               	goto	u3551
  3805  0055  2857               	goto	u3550
  3806  0056                     u3551:
  3807  0056  2860               	goto	l3252
  3808  0057                     u3550:
  3809  0057                     l3248:
  3810  0057  3015               	movlw	21
  3811  0058  0278               	subwf	_escala,w
  3812  0059  1803               	skipnc
  3813  005A  285C               	goto	u3561
  3814  005B  285D               	goto	u3560
  3815  005C                     u3561:
  3816  005C  2860               	goto	l3252
  3817  005D                     u3560:
  3818  005D                     l3250:
  3819                           
  3820                           ;PROYECTO.c: 231:                     hora = 1;
  3821  005D  01FA               	clrf	_hora
  3822  005E  0AFA               	incf	_hora,f
  3823                           
  3824                           ;PROYECTO.c: 232:                 }else if(escala >= 21 && escala <=30 ){
  3825  005F  29E1               	goto	l3388
  3826  0060                     l3252:
  3827  0060  3015               	movlw	21
  3828  0061  0278               	subwf	_escala,w
  3829  0062  1C03               	skipc
  3830  0063  2865               	goto	u3571
  3831  0064  2866               	goto	u3570
  3832  0065                     u3571:
  3833  0065  2871               	goto	l3258
  3834  0066                     u3570:
  3835  0066                     l3254:
  3836  0066  301F               	movlw	31
  3837  0067  0278               	subwf	_escala,w
  3838  0068  1803               	skipnc
  3839  0069  286B               	goto	u3581
  3840  006A  286C               	goto	u3580
  3841  006B                     u3581:
  3842  006B  2871               	goto	l3258
  3843  006C                     u3580:
  3844  006C                     l3256:
  3845                           
  3846                           ;PROYECTO.c: 233:                     hora = 2;
  3847  006C  3002               	movlw	2
  3848  006D  00BB               	movwf	??_main
  3849  006E  083B               	movf	??_main,w
  3850  006F  00FA               	movwf	_hora
  3851                           
  3852                           ;PROYECTO.c: 234:                 }else if(escala >= 31 && escala <=40 ){
  3853  0070  29E1               	goto	l3388
  3854  0071                     l3258:
  3855  0071  301F               	movlw	31
  3856  0072  0278               	subwf	_escala,w
  3857  0073  1C03               	skipc
  3858  0074  2876               	goto	u3591
  3859  0075  2877               	goto	u3590
  3860  0076                     u3591:
  3861  0076  2882               	goto	l3264
  3862  0077                     u3590:
  3863  0077                     l3260:
  3864  0077  3029               	movlw	41
  3865  0078  0278               	subwf	_escala,w
  3866  0079  1803               	skipnc
  3867  007A  287C               	goto	u3601
  3868  007B  287D               	goto	u3600
  3869  007C                     u3601:
  3870  007C  2882               	goto	l3264
  3871  007D                     u3600:
  3872  007D                     l3262:
  3873                           
  3874                           ;PROYECTO.c: 235:                     hora = 3;
  3875  007D  3003               	movlw	3
  3876  007E  00BB               	movwf	??_main
  3877  007F  083B               	movf	??_main,w
  3878  0080  00FA               	movwf	_hora
  3879                           
  3880                           ;PROYECTO.c: 236:                 }else if(escala >= 41 && escala <=50 ){
  3881  0081  29E1               	goto	l3388
  3882  0082                     l3264:
  3883  0082  3029               	movlw	41
  3884  0083  0278               	subwf	_escala,w
  3885  0084  1C03               	skipc
  3886  0085  2887               	goto	u3611
  3887  0086  2888               	goto	u3610
  3888  0087                     u3611:
  3889  0087  2893               	goto	l3270
  3890  0088                     u3610:
  3891  0088                     l3266:
  3892  0088  3033               	movlw	51
  3893  0089  0278               	subwf	_escala,w
  3894  008A  1803               	skipnc
  3895  008B  288D               	goto	u3621
  3896  008C  288E               	goto	u3620
  3897  008D                     u3621:
  3898  008D  2893               	goto	l3270
  3899  008E                     u3620:
  3900  008E                     l3268:
  3901                           
  3902                           ;PROYECTO.c: 237:                     hora = 4;
  3903  008E  3004               	movlw	4
  3904  008F  00BB               	movwf	??_main
  3905  0090  083B               	movf	??_main,w
  3906  0091  00FA               	movwf	_hora
  3907                           
  3908                           ;PROYECTO.c: 238:                 }else if(escala >= 51 && escala <=60 ){
  3909  0092  29E1               	goto	l3388
  3910  0093                     l3270:
  3911  0093  3033               	movlw	51
  3912  0094  0278               	subwf	_escala,w
  3913  0095  1C03               	skipc
  3914  0096  2898               	goto	u3631
  3915  0097  2899               	goto	u3630
  3916  0098                     u3631:
  3917  0098  28A4               	goto	l3276
  3918  0099                     u3630:
  3919  0099                     l3272:
  3920  0099  303D               	movlw	61
  3921  009A  0278               	subwf	_escala,w
  3922  009B  1803               	skipnc
  3923  009C  289E               	goto	u3641
  3924  009D  289F               	goto	u3640
  3925  009E                     u3641:
  3926  009E  28A4               	goto	l3276
  3927  009F                     u3640:
  3928  009F                     l3274:
  3929                           
  3930                           ;PROYECTO.c: 239:                     hora = 5;
  3931  009F  3005               	movlw	5
  3932  00A0  00BB               	movwf	??_main
  3933  00A1  083B               	movf	??_main,w
  3934  00A2  00FA               	movwf	_hora
  3935                           
  3936                           ;PROYECTO.c: 240:                 }else if(escala >= 61 && escala <=70 ){
  3937  00A3  29E1               	goto	l3388
  3938  00A4                     l3276:
  3939  00A4  303D               	movlw	61
  3940  00A5  0278               	subwf	_escala,w
  3941  00A6  1C03               	skipc
  3942  00A7  28A9               	goto	u3651
  3943  00A8  28AA               	goto	u3650
  3944  00A9                     u3651:
  3945  00A9  28B5               	goto	l3282
  3946  00AA                     u3650:
  3947  00AA                     l3278:
  3948  00AA  3047               	movlw	71
  3949  00AB  0278               	subwf	_escala,w
  3950  00AC  1803               	skipnc
  3951  00AD  28AF               	goto	u3661
  3952  00AE  28B0               	goto	u3660
  3953  00AF                     u3661:
  3954  00AF  28B5               	goto	l3282
  3955  00B0                     u3660:
  3956  00B0                     l3280:
  3957                           
  3958                           ;PROYECTO.c: 241:                     hora = 6;
  3959  00B0  3006               	movlw	6
  3960  00B1  00BB               	movwf	??_main
  3961  00B2  083B               	movf	??_main,w
  3962  00B3  00FA               	movwf	_hora
  3963                           
  3964                           ;PROYECTO.c: 242:                 }else if(escala >= 71 && escala <=80 ){
  3965  00B4  29E1               	goto	l3388
  3966  00B5                     l3282:
  3967  00B5  3047               	movlw	71
  3968  00B6  0278               	subwf	_escala,w
  3969  00B7  1C03               	skipc
  3970  00B8  28BA               	goto	u3671
  3971  00B9  28BB               	goto	u3670
  3972  00BA                     u3671:
  3973  00BA  28C6               	goto	l3288
  3974  00BB                     u3670:
  3975  00BB                     l3284:
  3976  00BB  3051               	movlw	81
  3977  00BC  0278               	subwf	_escala,w
  3978  00BD  1803               	skipnc
  3979  00BE  28C0               	goto	u3681
  3980  00BF  28C1               	goto	u3680
  3981  00C0                     u3681:
  3982  00C0  28C6               	goto	l3288
  3983  00C1                     u3680:
  3984  00C1                     l3286:
  3985                           
  3986                           ;PROYECTO.c: 243:                     hora = 7;
  3987  00C1  3007               	movlw	7
  3988  00C2  00BB               	movwf	??_main
  3989  00C3  083B               	movf	??_main,w
  3990  00C4  00FA               	movwf	_hora
  3991                           
  3992                           ;PROYECTO.c: 244:                 }else if(escala >= 81 && escala <=90 ){
  3993  00C5  29E1               	goto	l3388
  3994  00C6                     l3288:
  3995  00C6  3051               	movlw	81
  3996  00C7  0278               	subwf	_escala,w
  3997  00C8  1C03               	skipc
  3998  00C9  28CB               	goto	u3691
  3999  00CA  28CC               	goto	u3690
  4000  00CB                     u3691:
  4001  00CB  28D7               	goto	l3294
  4002  00CC                     u3690:
  4003  00CC                     l3290:
  4004  00CC  305B               	movlw	91
  4005  00CD  0278               	subwf	_escala,w
  4006  00CE  1803               	skipnc
  4007  00CF  28D1               	goto	u3701
  4008  00D0  28D2               	goto	u3700
  4009  00D1                     u3701:
  4010  00D1  28D7               	goto	l3294
  4011  00D2                     u3700:
  4012  00D2                     l3292:
  4013                           
  4014                           ;PROYECTO.c: 245:                     hora = 8;
  4015  00D2  3008               	movlw	8
  4016  00D3  00BB               	movwf	??_main
  4017  00D4  083B               	movf	??_main,w
  4018  00D5  00FA               	movwf	_hora
  4019                           
  4020                           ;PROYECTO.c: 246:                 }else if(escala >= 91 && escala <=100 ){
  4021  00D6  29E1               	goto	l3388
  4022  00D7                     l3294:
  4023  00D7  305B               	movlw	91
  4024  00D8  0278               	subwf	_escala,w
  4025  00D9  1C03               	skipc
  4026  00DA  28DC               	goto	u3711
  4027  00DB  28DD               	goto	u3710
  4028  00DC                     u3711:
  4029  00DC  28E8               	goto	l3300
  4030  00DD                     u3710:
  4031  00DD                     l3296:
  4032  00DD  3065               	movlw	101
  4033  00DE  0278               	subwf	_escala,w
  4034  00DF  1803               	skipnc
  4035  00E0  28E2               	goto	u3721
  4036  00E1  28E3               	goto	u3720
  4037  00E2                     u3721:
  4038  00E2  28E8               	goto	l3300
  4039  00E3                     u3720:
  4040  00E3                     l3298:
  4041                           
  4042                           ;PROYECTO.c: 247:                     hora = 9;
  4043  00E3  3009               	movlw	9
  4044  00E4  00BB               	movwf	??_main
  4045  00E5  083B               	movf	??_main,w
  4046  00E6  00FA               	movwf	_hora
  4047                           
  4048                           ;PROYECTO.c: 248:                 }else if(escala >= 101&& escala <=110 ){
  4049  00E7  29E1               	goto	l3388
  4050  00E8                     l3300:
  4051  00E8  3065               	movlw	101
  4052  00E9  0278               	subwf	_escala,w
  4053  00EA  1C03               	skipc
  4054  00EB  28ED               	goto	u3731
  4055  00EC  28EE               	goto	u3730
  4056  00ED                     u3731:
  4057  00ED  28F9               	goto	l3306
  4058  00EE                     u3730:
  4059  00EE                     l3302:
  4060  00EE  306F               	movlw	111
  4061  00EF  0278               	subwf	_escala,w
  4062  00F0  1803               	skipnc
  4063  00F1  28F3               	goto	u3741
  4064  00F2  28F4               	goto	u3740
  4065  00F3                     u3741:
  4066  00F3  28F9               	goto	l3306
  4067  00F4                     u3740:
  4068  00F4                     l3304:
  4069                           
  4070                           ;PROYECTO.c: 249:                     hora = 10;
  4071  00F4  300A               	movlw	10
  4072  00F5  00BB               	movwf	??_main
  4073  00F6  083B               	movf	??_main,w
  4074  00F7  00FA               	movwf	_hora
  4075                           
  4076                           ;PROYECTO.c: 250:                 }else if(escala >= 111 && escala <=120 ){
  4077  00F8  29E1               	goto	l3388
  4078  00F9                     l3306:
  4079  00F9  306F               	movlw	111
  4080  00FA  0278               	subwf	_escala,w
  4081  00FB  1C03               	skipc
  4082  00FC  28FE               	goto	u3751
  4083  00FD  28FF               	goto	u3750
  4084  00FE                     u3751:
  4085  00FE  290A               	goto	l3312
  4086  00FF                     u3750:
  4087  00FF                     l3308:
  4088  00FF  3079               	movlw	121
  4089  0100  0278               	subwf	_escala,w
  4090  0101  1803               	skipnc
  4091  0102  2904               	goto	u3761
  4092  0103  2905               	goto	u3760
  4093  0104                     u3761:
  4094  0104  290A               	goto	l3312
  4095  0105                     u3760:
  4096  0105                     l3310:
  4097                           
  4098                           ;PROYECTO.c: 251:                     hora = 11;
  4099  0105  300B               	movlw	11
  4100  0106  00BB               	movwf	??_main
  4101  0107  083B               	movf	??_main,w
  4102  0108  00FA               	movwf	_hora
  4103                           
  4104                           ;PROYECTO.c: 252:                 }else if(escala >= 121 && escala <=130 ){
  4105  0109  29E1               	goto	l3388
  4106  010A                     l3312:
  4107  010A  3079               	movlw	121
  4108  010B  0278               	subwf	_escala,w
  4109  010C  1C03               	skipc
  4110  010D  290F               	goto	u3771
  4111  010E  2910               	goto	u3770
  4112  010F                     u3771:
  4113  010F  291B               	goto	l3318
  4114  0110                     u3770:
  4115  0110                     l3314:
  4116  0110  3083               	movlw	131
  4117  0111  0278               	subwf	_escala,w
  4118  0112  1803               	skipnc
  4119  0113  2915               	goto	u3781
  4120  0114  2916               	goto	u3780
  4121  0115                     u3781:
  4122  0115  291B               	goto	l3318
  4123  0116                     u3780:
  4124  0116                     l3316:
  4125                           
  4126                           ;PROYECTO.c: 253:                     hora = 12;
  4127  0116  300C               	movlw	12
  4128  0117  00BB               	movwf	??_main
  4129  0118  083B               	movf	??_main,w
  4130  0119  00FA               	movwf	_hora
  4131                           
  4132                           ;PROYECTO.c: 254:                 }else if(escala >= 131 && escala <=140 ){
  4133  011A  29E1               	goto	l3388
  4134  011B                     l3318:
  4135  011B  3083               	movlw	131
  4136  011C  0278               	subwf	_escala,w
  4137  011D  1C03               	skipc
  4138  011E  2920               	goto	u3791
  4139  011F  2921               	goto	u3790
  4140  0120                     u3791:
  4141  0120  292C               	goto	l3324
  4142  0121                     u3790:
  4143  0121                     l3320:
  4144  0121  308D               	movlw	141
  4145  0122  0278               	subwf	_escala,w
  4146  0123  1803               	skipnc
  4147  0124  2926               	goto	u3801
  4148  0125  2927               	goto	u3800
  4149  0126                     u3801:
  4150  0126  292C               	goto	l3324
  4151  0127                     u3800:
  4152  0127                     l3322:
  4153                           
  4154                           ;PROYECTO.c: 255:                     hora = 13;
  4155  0127  300D               	movlw	13
  4156  0128  00BB               	movwf	??_main
  4157  0129  083B               	movf	??_main,w
  4158  012A  00FA               	movwf	_hora
  4159                           
  4160                           ;PROYECTO.c: 256:                 }else if(escala >= 141 && escala <=150 ){
  4161  012B  29E1               	goto	l3388
  4162  012C                     l3324:
  4163  012C  308D               	movlw	141
  4164  012D  0278               	subwf	_escala,w
  4165  012E  1C03               	skipc
  4166  012F  2931               	goto	u3811
  4167  0130  2932               	goto	u3810
  4168  0131                     u3811:
  4169  0131  293D               	goto	l3330
  4170  0132                     u3810:
  4171  0132                     l3326:
  4172  0132  3097               	movlw	151
  4173  0133  0278               	subwf	_escala,w
  4174  0134  1803               	skipnc
  4175  0135  2937               	goto	u3821
  4176  0136  2938               	goto	u3820
  4177  0137                     u3821:
  4178  0137  293D               	goto	l3330
  4179  0138                     u3820:
  4180  0138                     l3328:
  4181                           
  4182                           ;PROYECTO.c: 257:                     hora = 14;
  4183  0138  300E               	movlw	14
  4184  0139  00BB               	movwf	??_main
  4185  013A  083B               	movf	??_main,w
  4186  013B  00FA               	movwf	_hora
  4187                           
  4188                           ;PROYECTO.c: 258:                 }else if(escala >= 151 && escala <=160 ){
  4189  013C  29E1               	goto	l3388
  4190  013D                     l3330:
  4191  013D  3097               	movlw	151
  4192  013E  0278               	subwf	_escala,w
  4193  013F  1C03               	skipc
  4194  0140  2942               	goto	u3831
  4195  0141  2943               	goto	u3830
  4196  0142                     u3831:
  4197  0142  294E               	goto	l3336
  4198  0143                     u3830:
  4199  0143                     l3332:
  4200  0143  30A1               	movlw	161
  4201  0144  0278               	subwf	_escala,w
  4202  0145  1803               	skipnc
  4203  0146  2948               	goto	u3841
  4204  0147  2949               	goto	u3840
  4205  0148                     u3841:
  4206  0148  294E               	goto	l3336
  4207  0149                     u3840:
  4208  0149                     l3334:
  4209                           
  4210                           ;PROYECTO.c: 259:                     hora = 15;
  4211  0149  300F               	movlw	15
  4212  014A  00BB               	movwf	??_main
  4213  014B  083B               	movf	??_main,w
  4214  014C  00FA               	movwf	_hora
  4215                           
  4216                           ;PROYECTO.c: 260:                 }else if(escala >= 161 && escala <=170 ){
  4217  014D  29E1               	goto	l3388
  4218  014E                     l3336:
  4219  014E  30A1               	movlw	161
  4220  014F  0278               	subwf	_escala,w
  4221  0150  1C03               	skipc
  4222  0151  2953               	goto	u3851
  4223  0152  2954               	goto	u3850
  4224  0153                     u3851:
  4225  0153  295F               	goto	l3342
  4226  0154                     u3850:
  4227  0154                     l3338:
  4228  0154  30AB               	movlw	171
  4229  0155  0278               	subwf	_escala,w
  4230  0156  1803               	skipnc
  4231  0157  2959               	goto	u3861
  4232  0158  295A               	goto	u3860
  4233  0159                     u3861:
  4234  0159  295F               	goto	l3342
  4235  015A                     u3860:
  4236  015A                     l3340:
  4237                           
  4238                           ;PROYECTO.c: 261:                     hora = 16;
  4239  015A  3010               	movlw	16
  4240  015B  00BB               	movwf	??_main
  4241  015C  083B               	movf	??_main,w
  4242  015D  00FA               	movwf	_hora
  4243                           
  4244                           ;PROYECTO.c: 262:                 }else if(escala >= 171 && escala <=180 ){
  4245  015E  29E1               	goto	l3388
  4246  015F                     l3342:
  4247  015F  30AB               	movlw	171
  4248  0160  0278               	subwf	_escala,w
  4249  0161  1C03               	skipc
  4250  0162  2964               	goto	u3871
  4251  0163  2965               	goto	u3870
  4252  0164                     u3871:
  4253  0164  2970               	goto	l3348
  4254  0165                     u3870:
  4255  0165                     l3344:
  4256  0165  30B5               	movlw	181
  4257  0166  0278               	subwf	_escala,w
  4258  0167  1803               	skipnc
  4259  0168  296A               	goto	u3881
  4260  0169  296B               	goto	u3880
  4261  016A                     u3881:
  4262  016A  2970               	goto	l3348
  4263  016B                     u3880:
  4264  016B                     l3346:
  4265                           
  4266                           ;PROYECTO.c: 263:                     hora = 17;
  4267  016B  3011               	movlw	17
  4268  016C  00BB               	movwf	??_main
  4269  016D  083B               	movf	??_main,w
  4270  016E  00FA               	movwf	_hora
  4271                           
  4272                           ;PROYECTO.c: 264:                 }else if(escala >= 181 && escala <=190 ){
  4273  016F  29E1               	goto	l3388
  4274  0170                     l3348:
  4275  0170  30B5               	movlw	181
  4276  0171  0278               	subwf	_escala,w
  4277  0172  1C03               	skipc
  4278  0173  2975               	goto	u3891
  4279  0174  2976               	goto	u3890
  4280  0175                     u3891:
  4281  0175  2981               	goto	l3354
  4282  0176                     u3890:
  4283  0176                     l3350:
  4284  0176  30BF               	movlw	191
  4285  0177  0278               	subwf	_escala,w
  4286  0178  1803               	skipnc
  4287  0179  297B               	goto	u3901
  4288  017A  297C               	goto	u3900
  4289  017B                     u3901:
  4290  017B  2981               	goto	l3354
  4291  017C                     u3900:
  4292  017C                     l3352:
  4293                           
  4294                           ;PROYECTO.c: 265:                     hora = 18;
  4295  017C  3012               	movlw	18
  4296  017D  00BB               	movwf	??_main
  4297  017E  083B               	movf	??_main,w
  4298  017F  00FA               	movwf	_hora
  4299                           
  4300                           ;PROYECTO.c: 266:                 }else if(escala >= 191 && escala <=200 ){
  4301  0180  29E1               	goto	l3388
  4302  0181                     l3354:
  4303  0181  30BF               	movlw	191
  4304  0182  0278               	subwf	_escala,w
  4305  0183  1C03               	skipc
  4306  0184  2986               	goto	u3911
  4307  0185  2987               	goto	u3910
  4308  0186                     u3911:
  4309  0186  2992               	goto	l3360
  4310  0187                     u3910:
  4311  0187                     l3356:
  4312  0187  30C9               	movlw	201
  4313  0188  0278               	subwf	_escala,w
  4314  0189  1803               	skipnc
  4315  018A  298C               	goto	u3921
  4316  018B  298D               	goto	u3920
  4317  018C                     u3921:
  4318  018C  2992               	goto	l3360
  4319  018D                     u3920:
  4320  018D                     l3358:
  4321                           
  4322                           ;PROYECTO.c: 267:                     hora = 19;
  4323  018D  3013               	movlw	19
  4324  018E  00BB               	movwf	??_main
  4325  018F  083B               	movf	??_main,w
  4326  0190  00FA               	movwf	_hora
  4327                           
  4328                           ;PROYECTO.c: 268:                 }else if(escala >= 201&& escala <=210 ){
  4329  0191  29E1               	goto	l3388
  4330  0192                     l3360:
  4331  0192  30C9               	movlw	201
  4332  0193  0278               	subwf	_escala,w
  4333  0194  1C03               	skipc
  4334  0195  2997               	goto	u3931
  4335  0196  2998               	goto	u3930
  4336  0197                     u3931:
  4337  0197  29A3               	goto	l3366
  4338  0198                     u3930:
  4339  0198                     l3362:
  4340  0198  30D3               	movlw	211
  4341  0199  0278               	subwf	_escala,w
  4342  019A  1803               	skipnc
  4343  019B  299D               	goto	u3941
  4344  019C  299E               	goto	u3940
  4345  019D                     u3941:
  4346  019D  29A3               	goto	l3366
  4347  019E                     u3940:
  4348  019E                     l3364:
  4349                           
  4350                           ;PROYECTO.c: 269:                     hora = 20;
  4351  019E  3014               	movlw	20
  4352  019F  00BB               	movwf	??_main
  4353  01A0  083B               	movf	??_main,w
  4354  01A1  00FA               	movwf	_hora
  4355                           
  4356                           ;PROYECTO.c: 270:                 }else if(escala >= 211 && escala <=220 ){
  4357  01A2  29E1               	goto	l3388
  4358  01A3                     l3366:
  4359  01A3  30D3               	movlw	211
  4360  01A4  0278               	subwf	_escala,w
  4361  01A5  1C03               	skipc
  4362  01A6  29A8               	goto	u3951
  4363  01A7  29A9               	goto	u3950
  4364  01A8                     u3951:
  4365  01A8  29B4               	goto	l3372
  4366  01A9                     u3950:
  4367  01A9                     l3368:
  4368  01A9  30DD               	movlw	221
  4369  01AA  0278               	subwf	_escala,w
  4370  01AB  1803               	skipnc
  4371  01AC  29AE               	goto	u3961
  4372  01AD  29AF               	goto	u3960
  4373  01AE                     u3961:
  4374  01AE  29B4               	goto	l3372
  4375  01AF                     u3960:
  4376  01AF                     l3370:
  4377                           
  4378                           ;PROYECTO.c: 271:                     hora = 21;
  4379  01AF  3015               	movlw	21
  4380  01B0  00BB               	movwf	??_main
  4381  01B1  083B               	movf	??_main,w
  4382  01B2  00FA               	movwf	_hora
  4383                           
  4384                           ;PROYECTO.c: 272:                 }else if(escala >= 221 && escala <=230 ){
  4385  01B3  29E1               	goto	l3388
  4386  01B4                     l3372:
  4387  01B4  30DD               	movlw	221
  4388  01B5  0278               	subwf	_escala,w
  4389  01B6  1C03               	skipc
  4390  01B7  29B9               	goto	u3971
  4391  01B8  29BA               	goto	u3970
  4392  01B9                     u3971:
  4393  01B9  29C5               	goto	l3378
  4394  01BA                     u3970:
  4395  01BA                     l3374:
  4396  01BA  30E7               	movlw	231
  4397  01BB  0278               	subwf	_escala,w
  4398  01BC  1803               	skipnc
  4399  01BD  29BF               	goto	u3981
  4400  01BE  29C0               	goto	u3980
  4401  01BF                     u3981:
  4402  01BF  29C5               	goto	l3378
  4403  01C0                     u3980:
  4404  01C0                     l3376:
  4405                           
  4406                           ;PROYECTO.c: 273:                     hora = 22;
  4407  01C0  3016               	movlw	22
  4408  01C1  00BB               	movwf	??_main
  4409  01C2  083B               	movf	??_main,w
  4410  01C3  00FA               	movwf	_hora
  4411                           
  4412                           ;PROYECTO.c: 274:                 }else if(escala >= 231 && escala <=240 ){
  4413  01C4  29E1               	goto	l3388
  4414  01C5                     l3378:
  4415  01C5  30E7               	movlw	231
  4416  01C6  0278               	subwf	_escala,w
  4417  01C7  1C03               	skipc
  4418  01C8  29CA               	goto	u3991
  4419  01C9  29CB               	goto	u3990
  4420  01CA                     u3991:
  4421  01CA  29D6               	goto	l3384
  4422  01CB                     u3990:
  4423  01CB                     l3380:
  4424  01CB  30F1               	movlw	241
  4425  01CC  0278               	subwf	_escala,w
  4426  01CD  1803               	skipnc
  4427  01CE  29D0               	goto	u4001
  4428  01CF  29D1               	goto	u4000
  4429  01D0                     u4001:
  4430  01D0  29D6               	goto	l3384
  4431  01D1                     u4000:
  4432  01D1                     l3382:
  4433                           
  4434                           ;PROYECTO.c: 275:                     hora = 23;
  4435  01D1  3017               	movlw	23
  4436  01D2  00BB               	movwf	??_main
  4437  01D3  083B               	movf	??_main,w
  4438  01D4  00FA               	movwf	_hora
  4439                           
  4440                           ;PROYECTO.c: 276:                 }else if(escala >= 241 && escala <=255 ){
  4441  01D5  29E1               	goto	l3388
  4442  01D6                     l3384:
  4443  01D6  30F1               	movlw	241
  4444  01D7  0278               	subwf	_escala,w
  4445  01D8  1C03               	skipc
  4446  01D9  29DB               	goto	u4011
  4447  01DA  29DC               	goto	u4010
  4448  01DB                     u4011:
  4449  01DB  29E1               	goto	l242
  4450  01DC                     u4010:
  4451  01DC                     l3386:
  4452                           
  4453                           ;PROYECTO.c: 277:                     hora = 24;
  4454  01DC  3018               	movlw	24
  4455  01DD  00BB               	movwf	??_main
  4456  01DE  083B               	movf	??_main,w
  4457  01DF  00FA               	movwf	_hora
  4458  01E0  29E1               	goto	l3388
  4459  01E1                     l242:
  4460  01E1                     l3388:
  4461                           
  4462                           ;PROYECTO.c: 279:                 ADCON0bits.CHS = 6;
  4463  01E1  081F               	movf	31,w	;volatile
  4464  01E2  39C3               	andlw	-61
  4465  01E3  3818               	iorlw	24
  4466  01E4  009F               	movwf	31	;volatile
  4467  01E5                     l3390:
  4468                           
  4469                           ;PROYECTO.c: 281:             _delay((unsigned long)((50)*(4000000/4000000.0)));
  4470  01E5  300F               	movlw	15
  4471  01E6  1283               	bcf	3,5	;RP0=0, select bank0
  4472  01E7  1303               	bcf	3,6	;RP1=0, select bank0
  4473  01E8  00BB               	movwf	??_main
  4474  01E9                     u4547:
  4475  01E9  0BBB               	decfsz	??_main,f
  4476  01EA  29E9               	goto	u4547
  4477  01EB  29EC               	nop2
  4478  01EC                     l3392:
  4479                           
  4480                           ;PROYECTO.c: 283:             ADCON0bits.GO = 1;
  4481  01EC  1283               	bcf	3,5	;RP0=0, select bank0
  4482  01ED  1303               	bcf	3,6	;RP1=0, select bank0
  4483  01EE  149F               	bsf	31,1	;volatile
  4484  01EF                     l186:	
  4485                           ;PROYECTO.c: 284:         }
  4486                           
  4487                           
  4488                           ;PROYECTO.c: 286:        if(ventana == 1){
  4489  01EF  0338               	decf	_ventana,w
  4490  01F0  1D03               	btfss	3,2
  4491  01F1  29F3               	goto	u4021
  4492  01F2  29F4               	goto	u4020
  4493  01F3                     u4021:
  4494  01F3  2A36               	goto	l3398
  4495  01F4                     u4020:
  4496  01F4                     l3394:
  4497                           
  4498                           ;PROYECTO.c: 288:            USART_Cadena("\r Que accion desea ejecutar? \r");
  4499  01F4  302E               	movlw	low (STR_1| (0+32768))
  4500  01F5  00F4               	movwf	USART_Cadena@str
  4501  01F6  308A               	movlw	high (STR_1| (0+32768))
  4502  01F7  00F5               	movwf	USART_Cadena@str+1
  4503  01F8  120A  158A  23A5  120A  118A  	fcall	_USART_Cadena
  4504                           
  4505                           ;PROYECTO.c: 289:            USART_Cadena("1) ver datos de usuario uno \r");
  4506  01FD  306C               	movlw	low (STR_2| (0+32768))
  4507  01FE  00F4               	movwf	USART_Cadena@str
  4508  01FF  308A               	movlw	high (STR_2| (0+32768))
  4509  0200  00F5               	movwf	USART_Cadena@str+1
  4510  0201  120A  158A  23A5  120A  118A  	fcall	_USART_Cadena
  4511                           
  4512                           ;PROYECTO.c: 290:            USART_Cadena("2) ver datos de usuario dos\r");
  4513  0206  308A               	movlw	low (STR_3| (0+32768))
  4514  0207  00F4               	movwf	USART_Cadena@str
  4515  0208  308A               	movlw	high (STR_3| (0+32768))
  4516  0209  00F5               	movwf	USART_Cadena@str+1
  4517  020A  120A  158A  23A5  120A  118A  	fcall	_USART_Cadena
  4518                           
  4519                           ;PROYECTO.c: 291:            USART_Cadena("3) ver datos de usuario tres \r");
  4520  020F  304D               	movlw	low (STR_4| (0+32768))
  4521  0210  00F4               	movwf	USART_Cadena@str
  4522  0211  308A               	movlw	high (STR_4| (0+32768))
  4523  0212  00F5               	movwf	USART_Cadena@str+1
  4524  0213  120A  158A  23A5  120A  118A  	fcall	_USART_Cadena
  4525                           
  4526                           ;PROYECTO.c: 292:            USART_Cadena("4) Modificar horario usuario uno \r");
  4527  0218  308B               	movlw	low (STR_5| (0+32768))
  4528  0219  00F4               	movwf	USART_Cadena@str
  4529  021A  3089               	movlw	high (STR_5| (0+32768))
  4530  021B  00F5               	movwf	USART_Cadena@str+1
  4531  021C  120A  158A  23A5  120A  118A  	fcall	_USART_Cadena
  4532                           
  4533                           ;PROYECTO.c: 293:            USART_Cadena("5) Modificar horario usuario dos\r");
  4534  0221  30AE               	movlw	low (STR_6| (0+32768))
  4535  0222  00F4               	movwf	USART_Cadena@str
  4536  0223  3089               	movlw	high (STR_6| (0+32768))
  4537  0224  00F5               	movwf	USART_Cadena@str+1
  4538  0225  120A  158A  23A5  120A  118A  	fcall	_USART_Cadena
  4539                           
  4540                           ;PROYECTO.c: 294:            USART_Cadena("6) Modificar horario usuario tres \r\r");
  4541  022A  3042               	movlw	low (STR_7| (0+32768))
  4542  022B  00F4               	movwf	USART_Cadena@str
  4543  022C  3089               	movlw	high (STR_7| (0+32768))
  4544  022D  00F5               	movwf	USART_Cadena@str+1
  4545  022E  120A  158A  23A5  120A  118A  	fcall	_USART_Cadena
  4546  0233                     l3396:
  4547                           
  4548                           ;PROYECTO.c: 295:            ventana = 0;
  4549  0233  1283               	bcf	3,5	;RP0=0, select bank0
  4550  0234  1303               	bcf	3,6	;RP1=0, select bank0
  4551  0235  01B8               	clrf	_ventana
  4552  0236                     l3398:
  4553                           
  4554                           ;PROYECTO.c: 298:        if (PIR1bits.RCIF == 1){
  4555  0236  1E8C               	btfss	12,5	;volatile
  4556  0237  2A39               	goto	u4031
  4557  0238  2A3A               	goto	u4030
  4558  0239                     u4031:
  4559  0239  2EFE               	goto	l3616
  4560  023A                     u4030:
  4561  023A                     l3400:
  4562                           
  4563                           ;PROYECTO.c: 299:            valor = USART_Rx();
  4564  023A  120A  158A  238D  120A  118A  	fcall	_USART_Rx
  4565  023F  1283               	bcf	3,5	;RP0=0, select bank0
  4566  0240  1303               	bcf	3,6	;RP1=0, select bank0
  4567  0241  00BB               	movwf	??_main
  4568  0242  083B               	movf	??_main,w
  4569  0243  00B9               	movwf	_valor
  4570  0244                     l3402:
  4571                           
  4572                           ;PROYECTO.c: 300:            ventana = 1;
  4573  0244  01B8               	clrf	_ventana
  4574  0245  0AB8               	incf	_ventana,f
  4575  0246  2EFE               	goto	l3616
  4576  0247                     l3404:
  4577                           
  4578                           ;PROYECTO.c: 305:                 USART_Cadena(" Esperar  ");
  4579  0247  30C1               	movlw	low (STR_8| (0+32768))
  4580  0248  00F4               	movwf	USART_Cadena@str
  4581  0249  308A               	movlw	high (STR_8| (0+32768))
  4582  024A  00F5               	movwf	USART_Cadena@str+1
  4583  024B  120A  158A  23A5  120A  118A  	fcall	_USART_Cadena
  4584  0250                     l3406:
  4585                           
  4586                           ;PROYECTO.c: 306:                 SendCharH(me_1_us1_h);
  4587  0250  1283               	bcf	3,5	;RP0=0, select bank0
  4588  0251  1303               	bcf	3,6	;RP1=0, select bank0
  4589  0252  0832               	movf	_me_1_us1_h,w
  4590  0253  120A  158A  263B  120A  118A  	fcall	_SendCharH
  4591  0258                     l3408:
  4592                           
  4593                           ;PROYECTO.c: 307:                 USART_Cadena(" Horas ");
  4594  0258  30CC               	movlw	low (STR_9| (0+32768))
  4595  0259  00F4               	movwf	USART_Cadena@str
  4596  025A  308A               	movlw	high (STR_9| (0+32768))
  4597  025B  00F5               	movwf	USART_Cadena@str+1
  4598  025C  120A  158A  23A5  120A  118A  	fcall	_USART_Cadena
  4599  0261                     l3410:
  4600                           
  4601                           ;PROYECTO.c: 308:                 USART_Cadena(" con  ");
  4602  0261  30D4               	movlw	low (STR_10| (0+32768))
  4603  0262  00F4               	movwf	USART_Cadena@str
  4604  0263  308A               	movlw	high (STR_10| (0+32768))
  4605  0264  00F5               	movwf	USART_Cadena@str+1
  4606  0265  120A  158A  23A5  120A  118A  	fcall	_USART_Cadena
  4607  026A                     l3412:
  4608                           
  4609                           ;PROYECTO.c: 309:                 SendCharM(me_1_us1_m);
  4610  026A  1283               	bcf	3,5	;RP0=0, select bank0
  4611  026B  1303               	bcf	3,6	;RP1=0, select bank0
  4612  026C  0829               	movf	_me_1_us1_m,w
  4613  026D  120A  158A  2402  120A  118A  	fcall	_SendCharM
  4614  0272                     l3414:
  4615                           
  4616                           ;PROYECTO.c: 310:                 USART_Cadena(" mins. para el medicamento 1 \r");
  4617  0272  30F0               	movlw	low (STR_11| (0+32768))
  4618  0273  00F4               	movwf	USART_Cadena@str
  4619  0274  3089               	movlw	high (STR_11| (0+32768))
  4620  0275  00F5               	movwf	USART_Cadena@str+1
  4621  0276  120A  158A  23A5  120A  118A  	fcall	_USART_Cadena
  4622  027B                     l3416:
  4623                           
  4624                           ;PROYECTO.c: 312:                 USART_Cadena(" Esperar  ");
  4625  027B  30C1               	movlw	low (STR_8| (0+32768))
  4626  027C  00F4               	movwf	USART_Cadena@str
  4627  027D  308A               	movlw	high (STR_8| (0+32768))
  4628  027E  00F5               	movwf	USART_Cadena@str+1
  4629  027F  120A  158A  23A5  120A  118A  	fcall	_USART_Cadena
  4630                           
  4631                           ;PROYECTO.c: 313:                 SendCharH(me_2_us1_h);
  4632  0284  1283               	bcf	3,5	;RP0=0, select bank0
  4633  0285  1303               	bcf	3,6	;RP1=0, select bank0
  4634  0286  0831               	movf	_me_2_us1_h,w
  4635  0287  120A  158A  263B  120A  118A  	fcall	_SendCharH
  4636  028C                     l3418:
  4637                           
  4638                           ;PROYECTO.c: 314:                 USART_Cadena(" Horas ");
  4639  028C  30CC               	movlw	low (STR_9| (0+32768))
  4640  028D  00F4               	movwf	USART_Cadena@str
  4641  028E  308A               	movlw	high (STR_9| (0+32768))
  4642  028F  00F5               	movwf	USART_Cadena@str+1
  4643  0290  120A  158A  23A5  120A  118A  	fcall	_USART_Cadena
  4644  0295                     l3420:
  4645                           
  4646                           ;PROYECTO.c: 315:                 USART_Cadena(" con  ");
  4647  0295  30D4               	movlw	low (STR_10| (0+32768))
  4648  0296  00F4               	movwf	USART_Cadena@str
  4649  0297  308A               	movlw	high (STR_10| (0+32768))
  4650  0298  00F5               	movwf	USART_Cadena@str+1
  4651  0299  120A  158A  23A5  120A  118A  	fcall	_USART_Cadena
  4652  029E                     l3422:
  4653                           
  4654                           ;PROYECTO.c: 316:                 SendCharM(me_2_us1_m);
  4655  029E  1283               	bcf	3,5	;RP0=0, select bank0
  4656  029F  1303               	bcf	3,6	;RP1=0, select bank0
  4657  02A0  0828               	movf	_me_2_us1_m,w
  4658  02A1  120A  158A  2402  120A  118A  	fcall	_SendCharM
  4659  02A6                     l3424:
  4660                           
  4661                           ;PROYECTO.c: 317:                 USART_Cadena(" mins. para el medicamento 2 \r");
  4662  02A6  300F               	movlw	low (STR_15| (0+32768))
  4663  02A7  00F4               	movwf	USART_Cadena@str
  4664  02A8  308A               	movlw	high (STR_15| (0+32768))
  4665  02A9  00F5               	movwf	USART_Cadena@str+1
  4666  02AA  120A  158A  23A5  120A  118A  	fcall	_USART_Cadena
  4667  02AF                     l3426:
  4668                           
  4669                           ;PROYECTO.c: 319:                 USART_Cadena(" Esperar  ");
  4670  02AF  30C1               	movlw	low (STR_8| (0+32768))
  4671  02B0  00F4               	movwf	USART_Cadena@str
  4672  02B1  308A               	movlw	high (STR_8| (0+32768))
  4673  02B2  00F5               	movwf	USART_Cadena@str+1
  4674  02B3  120A  158A  23A5  120A  118A  	fcall	_USART_Cadena
  4675  02B8                     l3428:
  4676                           
  4677                           ;PROYECTO.c: 320:                 SendCharH(me_3_us1_h);
  4678  02B8  1283               	bcf	3,5	;RP0=0, select bank0
  4679  02B9  1303               	bcf	3,6	;RP1=0, select bank0
  4680  02BA  0830               	movf	_me_3_us1_h,w
  4681  02BB  120A  158A  263B  120A  118A  	fcall	_SendCharH
  4682                           
  4683                           ;PROYECTO.c: 321:                 USART_Cadena(" Horas ");
  4684  02C0  30CC               	movlw	low (STR_9| (0+32768))
  4685  02C1  00F4               	movwf	USART_Cadena@str
  4686  02C2  308A               	movlw	high (STR_9| (0+32768))
  4687  02C3  00F5               	movwf	USART_Cadena@str+1
  4688  02C4  120A  158A  23A5  120A  118A  	fcall	_USART_Cadena
  4689                           
  4690                           ;PROYECTO.c: 322:                 USART_Cadena(" con  ");
  4691  02C9  30D4               	movlw	low (STR_10| (0+32768))
  4692  02CA  00F4               	movwf	USART_Cadena@str
  4693  02CB  308A               	movlw	high (STR_10| (0+32768))
  4694  02CC  00F5               	movwf	USART_Cadena@str+1
  4695  02CD  120A  158A  23A5  120A  118A  	fcall	_USART_Cadena
  4696                           
  4697                           ;PROYECTO.c: 323:                 SendCharM(me_3_us1_m);
  4698  02D2  1283               	bcf	3,5	;RP0=0, select bank0
  4699  02D3  1303               	bcf	3,6	;RP1=0, select bank0
  4700  02D4  0827               	movf	_me_3_us1_m,w
  4701  02D5  120A  158A  2402  120A  118A  	fcall	_SendCharM
  4702                           
  4703                           ;PROYECTO.c: 324:                 USART_Cadena(" mins. para el medicamento 3 \r\r");
  4704  02DA  30D0               	movlw	low (STR_19| (0+32768))
  4705  02DB  00F4               	movwf	USART_Cadena@str
  4706  02DC  3089               	movlw	high (STR_19| (0+32768))
  4707  02DD  00F5               	movwf	USART_Cadena@str+1
  4708  02DE  120A  158A  23A5  120A  118A  	fcall	_USART_Cadena
  4709  02E3                     l3430:
  4710                           
  4711                           ;PROYECTO.c: 325:                 ventana = 1;
  4712  02E3  1283               	bcf	3,5	;RP0=0, select bank0
  4713  02E4  1303               	bcf	3,6	;RP1=0, select bank0
  4714  02E5  01B8               	clrf	_ventana
  4715  02E6  0AB8               	incf	_ventana,f
  4716                           
  4717                           ;PROYECTO.c: 326:                 break;
  4718  02E7  2F1A               	goto	l3618
  4719  02E8                     l3432:
  4720                           
  4721                           ;PROYECTO.c: 329:                 USART_Cadena(" Esperar  ");
  4722  02E8  30C1               	movlw	low (STR_8| (0+32768))
  4723  02E9  00F4               	movwf	USART_Cadena@str
  4724  02EA  308A               	movlw	high (STR_8| (0+32768))
  4725  02EB  00F5               	movwf	USART_Cadena@str+1
  4726  02EC  120A  158A  23A5  120A  118A  	fcall	_USART_Cadena
  4727  02F1                     l3434:
  4728                           
  4729                           ;PROYECTO.c: 330:                 SendCharH(me_1_us2_h);
  4730  02F1  1283               	bcf	3,5	;RP0=0, select bank0
  4731  02F2  1303               	bcf	3,6	;RP1=0, select bank0
  4732  02F3  082F               	movf	_me_1_us2_h,w
  4733  02F4  120A  158A  263B  120A  118A  	fcall	_SendCharH
  4734  02F9                     l3436:
  4735                           
  4736                           ;PROYECTO.c: 331:                 USART_Cadena(" Horas ");
  4737  02F9  30CC               	movlw	low (STR_9| (0+32768))
  4738  02FA  00F4               	movwf	USART_Cadena@str
  4739  02FB  308A               	movlw	high (STR_9| (0+32768))
  4740  02FC  00F5               	movwf	USART_Cadena@str+1
  4741  02FD  120A  158A  23A5  120A  118A  	fcall	_USART_Cadena
  4742  0302                     l3438:
  4743                           
  4744                           ;PROYECTO.c: 332:                 USART_Cadena(" con  ");
  4745  0302  30D4               	movlw	low (STR_10| (0+32768))
  4746  0303  00F4               	movwf	USART_Cadena@str
  4747  0304  308A               	movlw	high (STR_10| (0+32768))
  4748  0305  00F5               	movwf	USART_Cadena@str+1
  4749  0306  120A  158A  23A5  120A  118A  	fcall	_USART_Cadena
  4750  030B                     l3440:
  4751                           
  4752                           ;PROYECTO.c: 333:                 SendCharM(me_1_us2_m);
  4753  030B  1283               	bcf	3,5	;RP0=0, select bank0
  4754  030C  1303               	bcf	3,6	;RP1=0, select bank0
  4755  030D  0826               	movf	_me_1_us2_m,w
  4756  030E  120A  158A  2402  120A  118A  	fcall	_SendCharM
  4757  0313                     l3442:
  4758                           
  4759                           ;PROYECTO.c: 334:                 USART_Cadena(" mins. para el medicamento 1 \r");
  4760  0313  30F0               	movlw	low (STR_11| (0+32768))
  4761  0314  00F4               	movwf	USART_Cadena@str
  4762  0315  3089               	movlw	high (STR_11| (0+32768))
  4763  0316  00F5               	movwf	USART_Cadena@str+1
  4764  0317  120A  158A  23A5  120A  118A  	fcall	_USART_Cadena
  4765  031C                     l3444:
  4766                           
  4767                           ;PROYECTO.c: 336:                 USART_Cadena(" Esperar  ");
  4768  031C  30C1               	movlw	low (STR_8| (0+32768))
  4769  031D  00F4               	movwf	USART_Cadena@str
  4770  031E  308A               	movlw	high (STR_8| (0+32768))
  4771  031F  00F5               	movwf	USART_Cadena@str+1
  4772  0320  120A  158A  23A5  120A  118A  	fcall	_USART_Cadena
  4773                           
  4774                           ;PROYECTO.c: 337:                 SendCharH(me_2_us2_h);
  4775  0325  1283               	bcf	3,5	;RP0=0, select bank0
  4776  0326  1303               	bcf	3,6	;RP1=0, select bank0
  4777  0327  082E               	movf	_me_2_us2_h,w
  4778  0328  120A  158A  263B  120A  118A  	fcall	_SendCharH
  4779  032D                     l3446:
  4780                           
  4781                           ;PROYECTO.c: 338:                 USART_Cadena(" Horas ");
  4782  032D  30CC               	movlw	low (STR_9| (0+32768))
  4783  032E  00F4               	movwf	USART_Cadena@str
  4784  032F  308A               	movlw	high (STR_9| (0+32768))
  4785  0330  00F5               	movwf	USART_Cadena@str+1
  4786  0331  120A  158A  23A5  120A  118A  	fcall	_USART_Cadena
  4787  0336                     l3448:
  4788                           
  4789                           ;PROYECTO.c: 339:                 USART_Cadena(" con  ");
  4790  0336  30D4               	movlw	low (STR_10| (0+32768))
  4791  0337  00F4               	movwf	USART_Cadena@str
  4792  0338  308A               	movlw	high (STR_10| (0+32768))
  4793  0339  00F5               	movwf	USART_Cadena@str+1
  4794  033A  120A  158A  23A5  120A  118A  	fcall	_USART_Cadena
  4795  033F                     l3450:
  4796                           
  4797                           ;PROYECTO.c: 340:                 SendCharM(me_2_us2_m);
  4798  033F  1283               	bcf	3,5	;RP0=0, select bank0
  4799  0340  1303               	bcf	3,6	;RP1=0, select bank0
  4800  0341  0825               	movf	_me_2_us2_m,w
  4801  0342  120A  158A  2402  120A  118A  	fcall	_SendCharM
  4802  0347                     l3452:
  4803                           
  4804                           ;PROYECTO.c: 341:                 USART_Cadena(" mins. para el medicamento 2 \r");
  4805  0347  300F               	movlw	low (STR_15| (0+32768))
  4806  0348  00F4               	movwf	USART_Cadena@str
  4807  0349  308A               	movlw	high (STR_15| (0+32768))
  4808  034A  00F5               	movwf	USART_Cadena@str+1
  4809  034B  120A  158A  23A5  120A  118A  	fcall	_USART_Cadena
  4810  0350                     l3454:
  4811                           
  4812                           ;PROYECTO.c: 343:                 USART_Cadena(" Esperar  ");
  4813  0350  30C1               	movlw	low (STR_8| (0+32768))
  4814  0351  00F4               	movwf	USART_Cadena@str
  4815  0352  308A               	movlw	high (STR_8| (0+32768))
  4816  0353  00F5               	movwf	USART_Cadena@str+1
  4817  0354  120A  158A  23A5  120A  118A  	fcall	_USART_Cadena
  4818  0359                     l3456:
  4819                           
  4820                           ;PROYECTO.c: 344:                 SendCharH(me_3_us2_h);
  4821  0359  1283               	bcf	3,5	;RP0=0, select bank0
  4822  035A  1303               	bcf	3,6	;RP1=0, select bank0
  4823  035B  082D               	movf	_me_3_us2_h,w
  4824  035C  120A  158A  263B  120A  118A  	fcall	_SendCharH
  4825                           
  4826                           ;PROYECTO.c: 345:                 USART_Cadena(" Horas ");
  4827  0361  30CC               	movlw	low (STR_9| (0+32768))
  4828  0362  00F4               	movwf	USART_Cadena@str
  4829  0363  308A               	movlw	high (STR_9| (0+32768))
  4830  0364  00F5               	movwf	USART_Cadena@str+1
  4831  0365  120A  158A  23A5  120A  118A  	fcall	_USART_Cadena
  4832                           
  4833                           ;PROYECTO.c: 346:                 USART_Cadena(" con  ");
  4834  036A  30D4               	movlw	low (STR_10| (0+32768))
  4835  036B  00F4               	movwf	USART_Cadena@str
  4836  036C  308A               	movlw	high (STR_10| (0+32768))
  4837  036D  00F5               	movwf	USART_Cadena@str+1
  4838  036E  120A  158A  23A5  120A  118A  	fcall	_USART_Cadena
  4839                           
  4840                           ;PROYECTO.c: 347:                 SendCharM(me_3_us2_m);
  4841  0373  1283               	bcf	3,5	;RP0=0, select bank0
  4842  0374  1303               	bcf	3,6	;RP1=0, select bank0
  4843  0375  0824               	movf	_me_3_us2_m,w
  4844  0376  120A  158A  2402  120A  118A  	fcall	_SendCharM
  4845                           
  4846                           ;PROYECTO.c: 348:                 USART_Cadena(" mins. para el medicamento 3 \r\r");
  4847  037B  30D0               	movlw	low (STR_19| (0+32768))
  4848  037C  00F4               	movwf	USART_Cadena@str
  4849  037D  3089               	movlw	high (STR_19| (0+32768))
  4850  037E  00F5               	movwf	USART_Cadena@str+1
  4851  037F  120A  158A  23A5  120A  118A  	fcall	_USART_Cadena
  4852  0384  2AE3               	goto	l3430
  4853  0385                     l3460:
  4854                           
  4855                           ;PROYECTO.c: 353:                 USART_Cadena(" Esperar  ");
  4856  0385  30C1               	movlw	low (STR_8| (0+32768))
  4857  0386  00F4               	movwf	USART_Cadena@str
  4858  0387  308A               	movlw	high (STR_8| (0+32768))
  4859  0388  00F5               	movwf	USART_Cadena@str+1
  4860  0389  120A  158A  23A5  120A  118A  	fcall	_USART_Cadena
  4861  038E                     l3462:
  4862                           
  4863                           ;PROYECTO.c: 354:                 SendCharH(me_1_us3_h);
  4864  038E  1283               	bcf	3,5	;RP0=0, select bank0
  4865  038F  1303               	bcf	3,6	;RP1=0, select bank0
  4866  0390  082C               	movf	_me_1_us3_h,w
  4867  0391  120A  158A  263B  120A  118A  	fcall	_SendCharH
  4868  0396                     l3464:
  4869                           
  4870                           ;PROYECTO.c: 355:                 USART_Cadena(" Horas ");
  4871  0396  30CC               	movlw	low (STR_9| (0+32768))
  4872  0397  00F4               	movwf	USART_Cadena@str
  4873  0398  308A               	movlw	high (STR_9| (0+32768))
  4874  0399  00F5               	movwf	USART_Cadena@str+1
  4875  039A  120A  158A  23A5  120A  118A  	fcall	_USART_Cadena
  4876  039F                     l3466:
  4877                           
  4878                           ;PROYECTO.c: 356:                 USART_Cadena(" con  ");
  4879  039F  30D4               	movlw	low (STR_10| (0+32768))
  4880  03A0  00F4               	movwf	USART_Cadena@str
  4881  03A1  308A               	movlw	high (STR_10| (0+32768))
  4882  03A2  00F5               	movwf	USART_Cadena@str+1
  4883  03A3  120A  158A  23A5  120A  118A  	fcall	_USART_Cadena
  4884  03A8                     l3468:
  4885                           
  4886                           ;PROYECTO.c: 357:                 SendCharM(me_1_us3_m);
  4887  03A8  1283               	bcf	3,5	;RP0=0, select bank0
  4888  03A9  1303               	bcf	3,6	;RP1=0, select bank0
  4889  03AA  0823               	movf	_me_1_us3_m,w
  4890  03AB  120A  158A  2402  120A  118A  	fcall	_SendCharM
  4891  03B0                     l3470:
  4892                           
  4893                           ;PROYECTO.c: 358:                 USART_Cadena(" mins. para el medicamento 1 \r");
  4894  03B0  30F0               	movlw	low (STR_11| (0+32768))
  4895  03B1  00F4               	movwf	USART_Cadena@str
  4896  03B2  3089               	movlw	high (STR_11| (0+32768))
  4897  03B3  00F5               	movwf	USART_Cadena@str+1
  4898  03B4  120A  158A  23A5  120A  118A  	fcall	_USART_Cadena
  4899  03B9                     l3472:
  4900                           
  4901                           ;PROYECTO.c: 360:                 USART_Cadena(" Esperar  ");
  4902  03B9  30C1               	movlw	low (STR_8| (0+32768))
  4903  03BA  00F4               	movwf	USART_Cadena@str
  4904  03BB  308A               	movlw	high (STR_8| (0+32768))
  4905  03BC  00F5               	movwf	USART_Cadena@str+1
  4906  03BD  120A  158A  23A5  120A  118A  	fcall	_USART_Cadena
  4907                           
  4908                           ;PROYECTO.c: 361:                 SendCharH(me_2_us3_h);
  4909  03C2  1283               	bcf	3,5	;RP0=0, select bank0
  4910  03C3  1303               	bcf	3,6	;RP1=0, select bank0
  4911  03C4  082B               	movf	_me_2_us3_h,w
  4912  03C5  120A  158A  263B  120A  118A  	fcall	_SendCharH
  4913  03CA                     l3474:
  4914                           
  4915                           ;PROYECTO.c: 362:                 USART_Cadena(" Horas ");
  4916  03CA  30CC               	movlw	low (STR_9| (0+32768))
  4917  03CB  00F4               	movwf	USART_Cadena@str
  4918  03CC  308A               	movlw	high (STR_9| (0+32768))
  4919  03CD  00F5               	movwf	USART_Cadena@str+1
  4920  03CE  120A  158A  23A5  120A  118A  	fcall	_USART_Cadena
  4921  03D3                     l3476:
  4922                           
  4923                           ;PROYECTO.c: 363:                 USART_Cadena(" con  ");
  4924  03D3  30D4               	movlw	low (STR_10| (0+32768))
  4925  03D4  00F4               	movwf	USART_Cadena@str
  4926  03D5  308A               	movlw	high (STR_10| (0+32768))
  4927  03D6  00F5               	movwf	USART_Cadena@str+1
  4928  03D7  120A  158A  23A5  120A  118A  	fcall	_USART_Cadena
  4929  03DC                     l3478:
  4930                           
  4931                           ;PROYECTO.c: 364:                 SendCharM(me_2_us3_m);
  4932  03DC  1283               	bcf	3,5	;RP0=0, select bank0
  4933  03DD  1303               	bcf	3,6	;RP1=0, select bank0
  4934  03DE  0822               	movf	_me_2_us3_m,w
  4935  03DF  120A  158A  2402  120A  118A  	fcall	_SendCharM
  4936  03E4                     l3480:
  4937                           
  4938                           ;PROYECTO.c: 365:                 USART_Cadena(" mins. para el medicamento 2 \r");
  4939  03E4  300F               	movlw	low (STR_15| (0+32768))
  4940  03E5  00F4               	movwf	USART_Cadena@str
  4941  03E6  308A               	movlw	high (STR_15| (0+32768))
  4942  03E7  00F5               	movwf	USART_Cadena@str+1
  4943  03E8  120A  158A  23A5  120A  118A  	fcall	_USART_Cadena
  4944  03ED                     l3482:
  4945                           
  4946                           ;PROYECTO.c: 367:                 USART_Cadena(" Esperar  ");
  4947  03ED  30C1               	movlw	low (STR_8| (0+32768))
  4948  03EE  00F4               	movwf	USART_Cadena@str
  4949  03EF  308A               	movlw	high (STR_8| (0+32768))
  4950  03F0  00F5               	movwf	USART_Cadena@str+1
  4951  03F1  120A  158A  23A5  120A  118A  	fcall	_USART_Cadena
  4952  03F6                     l3484:
  4953                           
  4954                           ;PROYECTO.c: 368:                 SendCharH(me_3_us3_h);
  4955  03F6  1283               	bcf	3,5	;RP0=0, select bank0
  4956  03F7  1303               	bcf	3,6	;RP1=0, select bank0
  4957  03F8  082A               	movf	_me_3_us3_h,w
  4958  03F9  120A  158A  263B  120A  118A  	fcall	_SendCharH
  4959                           
  4960                           ;PROYECTO.c: 369:                 USART_Cadena(" Horas ");
  4961  03FE  30CC               	movlw	low (STR_9| (0+32768))
  4962  03FF  00F4               	movwf	USART_Cadena@str
  4963  0400  308A               	movlw	high (STR_9| (0+32768))
  4964  0401  00F5               	movwf	USART_Cadena@str+1
  4965  0402  120A  158A  23A5  120A  118A  	fcall	_USART_Cadena
  4966                           
  4967                           ;PROYECTO.c: 370:                 USART_Cadena(" con  ");
  4968  0407  30D4               	movlw	low (STR_10| (0+32768))
  4969  0408  00F4               	movwf	USART_Cadena@str
  4970  0409  308A               	movlw	high (STR_10| (0+32768))
  4971  040A  00F5               	movwf	USART_Cadena@str+1
  4972  040B  120A  158A  23A5  120A  118A  	fcall	_USART_Cadena
  4973                           
  4974                           ;PROYECTO.c: 371:                 SendCharM(me_3_us3_m);
  4975  0410  1283               	bcf	3,5	;RP0=0, select bank0
  4976  0411  1303               	bcf	3,6	;RP1=0, select bank0
  4977  0412  0821               	movf	_me_3_us3_m,w
  4978  0413  120A  158A  2402  120A  118A  	fcall	_SendCharM
  4979                           
  4980                           ;PROYECTO.c: 372:                 USART_Cadena(" mins. para el medicamento 3 \r\r");
  4981  0418  30D0               	movlw	low (STR_19| (0+32768))
  4982  0419  00F4               	movwf	USART_Cadena@str
  4983  041A  3089               	movlw	high (STR_19| (0+32768))
  4984  041B  00F5               	movwf	USART_Cadena@str+1
  4985  041C  120A  158A  23A5  120A  118A  	fcall	_USART_Cadena
  4986  0421  2AE3               	goto	l3430
  4987  0422                     l3488:
  4988                           
  4989                           ;PROYECTO.c: 377:                 USART_Cadena(" Ingresá la letra de la nueva hora  \r"
      +                          );
  4990  0422  301B               	movlw	low (STR_44| (0+32768))
  4991  0423  00F4               	movwf	USART_Cadena@str
  4992  0424  3089               	movlw	high (STR_44| (0+32768))
  4993  0425  00F5               	movwf	USART_Cadena@str+1
  4994  0426  120A  158A  23A5  120A  118A  	fcall	_USART_Cadena
  4995                           
  4996                           ;PROYECTO.c: 378:                 USART_Cadena(" a.0  b.1   c.2   d.3   e.4   f.5   g.6 
      +                            h.7  i.8\r");
  4997  042B  3000               	movlw	low (STR_45| (0+32768))
  4998  042C  00F4               	movwf	USART_Cadena@str
  4999  042D  3088               	movlw	high (STR_45| (0+32768))
  5000  042E  00F5               	movwf	USART_Cadena@str+1
  5001  042F  120A  158A  23A5  120A  118A  	fcall	_USART_Cadena
  5002                           
  5003                           ;PROYECTO.c: 379:                 USART_Cadena(" j.9  k.10  l.11  m.12  n.13  o.14  p.15
      +                            q.16\r");
  5004  0434  3094               	movlw	low (STR_46| (0+32768))
  5005  0435  00F4               	movwf	USART_Cadena@str
  5006  0436  3088               	movlw	high (STR_46| (0+32768))
  5007  0437  00F5               	movwf	USART_Cadena@str+1
  5008  0438  120A  158A  23A5  120A  118A  	fcall	_USART_Cadena
  5009                           
  5010                           ;PROYECTO.c: 380:                 USART_Cadena("r.17  s.18  t.19  u.20  v.21  w.22  x.23
      +                            y.24\r");
  5011  043D  3064               	movlw	low (STR_47| (0+32768))
  5012  043E  00F4               	movwf	USART_Cadena@str
  5013  043F  3088               	movlw	high (STR_47| (0+32768))
  5014  0440  00F5               	movwf	USART_Cadena@str+1
  5015  0441  120A  158A  23A5  120A  118A  	fcall	_USART_Cadena
  5016  0446                     l3490:
  5017                           
  5018                           ;PROYECTO.c: 382:                     if (PIR1bits.RCIF == 1){
  5019  0446  1283               	bcf	3,5	;RP0=0, select bank0
  5020  0447  1303               	bcf	3,6	;RP1=0, select bank0
  5021  0448  1E8C               	btfss	12,5	;volatile
  5022  0449  2C4B               	goto	u4041
  5023  044A  2C4C               	goto	u4040
  5024  044B                     u4041:
  5025  044B  2C46               	goto	l3490
  5026  044C                     u4040:
  5027  044C                     l3492:
  5028                           
  5029                           ;PROYECTO.c: 383:                         USART_Cadena(" \r");
  5030  044C  3088               	movlw	low ((STR_51+33)| (0+32768))
  5031  044D  00F4               	movwf	USART_Cadena@str
  5032  044E  3089               	movlw	high ((STR_51+33)| (0+32768))
  5033  044F  00F5               	movwf	USART_Cadena@str+1
  5034  0450  120A  158A  23A5  120A  118A  	fcall	_USART_Cadena
  5035  0455                     l3494:
  5036                           
  5037                           ;PROYECTO.c: 384:                         hora_nueva = USART_Rx();
  5038  0455  120A  158A  238D  120A  118A  	fcall	_USART_Rx
  5039  045A  1283               	bcf	3,5	;RP0=0, select bank0
  5040  045B  1303               	bcf	3,6	;RP1=0, select bank0
  5041  045C  00BB               	movwf	??_main
  5042  045D  083B               	movf	??_main,w
  5043  045E  00F6               	movwf	_hora_nueva
  5044  045F                     l3496:
  5045                           
  5046                           ;PROYECTO.c: 385:                         USART_Cadena(" \r");
  5047  045F  3088               	movlw	low ((STR_51+33)| (0+32768))
  5048  0460  00F4               	movwf	USART_Cadena@str
  5049  0461  3089               	movlw	high ((STR_51+33)| (0+32768))
  5050  0462  00F5               	movwf	USART_Cadena@str+1
  5051  0463  120A  158A  23A5  120A  118A  	fcall	_USART_Cadena
  5052  0468                     l3498:
  5053                           
  5054                           ;PROYECTO.c: 386:                         hora_user1 = CharToNumH(hora_nueva, hora_user1
      +                          );
  5055  0468  1283               	bcf	3,5	;RP0=0, select bank0
  5056  0469  1303               	bcf	3,6	;RP1=0, select bank0
  5057  046A  0835               	movf	_hora_user1,w
  5058  046B  00BB               	movwf	??_main
  5059  046C  083B               	movf	??_main,w
  5060  046D  00F3               	movwf	CharToNumH@hora_user
  5061  046E  0876               	movf	_hora_nueva,w
  5062  046F  120A  158A  245D  120A  118A  	fcall	_CharToNumH
  5063  0474  1283               	bcf	3,5	;RP0=0, select bank0
  5064  0475  1303               	bcf	3,6	;RP1=0, select bank0
  5065  0476  00BC               	movwf	??_main+1
  5066  0477  083C               	movf	??_main+1,w
  5067  0478  00B5               	movwf	_hora_user1
  5068  0479                     l3500:	
  5069                           ;PROYECTO.c: 387:                         break;
  5070                           
  5071                           
  5072                           ;PROYECTO.c: 390:                 USART_Cadena(" Ingresá la letra de los minutos nuevos
      +                            \r");
  5073  0479  30C4               	movlw	low (STR_50| (0+32768))
  5074  047A  00F4               	movwf	USART_Cadena@str
  5075  047B  3088               	movlw	high (STR_50| (0+32768))
  5076  047C  00F5               	movwf	USART_Cadena@str+1
  5077  047D  120A  158A  23A5  120A  118A  	fcall	_USART_Cadena
  5078                           
  5079                           ;PROYECTO.c: 391:                 USART_Cadena(" a.0  b.15   c.30   d.45   e.55   \r");
  5080  0482  3067               	movlw	low (STR_51| (0+32768))
  5081  0483  00F4               	movwf	USART_Cadena@str
  5082  0484  3089               	movlw	high (STR_51| (0+32768))
  5083  0485  00F5               	movwf	USART_Cadena@str+1
  5084  0486  120A  158A  23A5  120A  118A  	fcall	_USART_Cadena
  5085  048B                     l3502:
  5086                           
  5087                           ;PROYECTO.c: 393:                     if (PIR1bits.RCIF == 1){
  5088  048B  1283               	bcf	3,5	;RP0=0, select bank0
  5089  048C  1303               	bcf	3,6	;RP1=0, select bank0
  5090  048D  1E8C               	btfss	12,5	;volatile
  5091  048E  2C90               	goto	u4051
  5092  048F  2C91               	goto	u4050
  5093  0490                     u4051:
  5094  0490  2C8B               	goto	l3502
  5095  0491                     u4050:
  5096  0491                     l3504:
  5097                           
  5098                           ;PROYECTO.c: 394:                         USART_Cadena(" \r");
  5099  0491  3088               	movlw	low ((STR_51+33)| (0+32768))
  5100  0492  00F4               	movwf	USART_Cadena@str
  5101  0493  3089               	movlw	high ((STR_51+33)| (0+32768))
  5102  0494  00F5               	movwf	USART_Cadena@str+1
  5103  0495  120A  158A  23A5  120A  118A  	fcall	_USART_Cadena
  5104  049A                     l3506:
  5105                           
  5106                           ;PROYECTO.c: 395:                         hora_nueva = USART_Rx();
  5107  049A  120A  158A  238D  120A  118A  	fcall	_USART_Rx
  5108  049F  1283               	bcf	3,5	;RP0=0, select bank0
  5109  04A0  1303               	bcf	3,6	;RP1=0, select bank0
  5110  04A1  00BB               	movwf	??_main
  5111  04A2  083B               	movf	??_main,w
  5112  04A3  00F6               	movwf	_hora_nueva
  5113  04A4                     l3508:
  5114                           
  5115                           ;PROYECTO.c: 396:                         USART_Cadena(" \r");
  5116  04A4  3088               	movlw	low ((STR_51+33)| (0+32768))
  5117  04A5  00F4               	movwf	USART_Cadena@str
  5118  04A6  3089               	movlw	high ((STR_51+33)| (0+32768))
  5119  04A7  00F5               	movwf	USART_Cadena@str+1
  5120  04A8  120A  158A  23A5  120A  118A  	fcall	_USART_Cadena
  5121  04AD                     l3510:
  5122                           
  5123                           ;PROYECTO.c: 397:                         min_user1 = CharToNumM(hora_nueva, min_user1);
  5124  04AD  0877               	movf	_min_user1,w
  5125  04AE  1283               	bcf	3,5	;RP0=0, select bank0
  5126  04AF  1303               	bcf	3,6	;RP1=0, select bank0
  5127  04B0  00BB               	movwf	??_main
  5128  04B1  083B               	movf	??_main,w
  5129  04B2  00F3               	movwf	CharToNumM@her
  5130  04B3  0876               	movf	_hora_nueva,w
  5131  04B4  120A  158A  23CB  120A  118A  	fcall	_CharToNumM
  5132  04B9  1283               	bcf	3,5	;RP0=0, select bank0
  5133  04BA  1303               	bcf	3,6	;RP1=0, select bank0
  5134  04BB  00BC               	movwf	??_main+1
  5135  04BC  083C               	movf	??_main+1,w
  5136  04BD  00F7               	movwf	_min_user1
  5137  04BE                     l3512:	
  5138                           ;PROYECTO.c: 398:                         break;
  5139                           
  5140                           
  5141                           ;PROYECTO.c: 401:                 USART_Cadena(" Actualmente se cuenta con 3 medicamento
      +                          s\r");
  5142  04BE  30F0               	movlw	low (STR_54| (0+32768))
  5143  04BF  00F4               	movwf	USART_Cadena@str
  5144  04C0  3088               	movlw	high (STR_54| (0+32768))
  5145  04C1  00F5               	movwf	USART_Cadena@str+1
  5146  04C2  120A  158A  23A5  120A  118A  	fcall	_USART_Cadena
  5147                           
  5148                           ;PROYECTO.c: 402:                 USART_Cadena(" presione el número de medicamento a gu
      +                          ardar \r");
  5149  04C7  3034               	movlw	low (STR_55| (0+32768))
  5150  04C8  00F4               	movwf	USART_Cadena@str
  5151  04C9  3088               	movlw	high (STR_55| (0+32768))
  5152  04CA  00F5               	movwf	USART_Cadena@str+1
  5153  04CB  120A  158A  23A5  120A  118A  	fcall	_USART_Cadena
  5154                           
  5155                           ;PROYECTO.c: 403:                 USART_Cadena(" 1.AFC    2.FFT   3.DHL \r");
  5156  04D0  30A7               	movlw	low (STR_56| (0+32768))
  5157  04D1  00F4               	movwf	USART_Cadena@str
  5158  04D2  308A               	movlw	high (STR_56| (0+32768))
  5159  04D3  00F5               	movwf	USART_Cadena@str+1
  5160  04D4  120A  158A  23A5  120A  118A  	fcall	_USART_Cadena
  5161  04D9                     l3514:
  5162                           
  5163                           ;PROYECTO.c: 405:                     if (PIR1bits.RCIF == 1){
  5164  04D9  1283               	bcf	3,5	;RP0=0, select bank0
  5165  04DA  1303               	bcf	3,6	;RP1=0, select bank0
  5166  04DB  1E8C               	btfss	12,5	;volatile
  5167  04DC  2CDE               	goto	u4061
  5168  04DD  2CDF               	goto	u4060
  5169  04DE                     u4061:
  5170  04DE  2CD9               	goto	l3514
  5171  04DF                     u4060:
  5172  04DF                     l3516:
  5173                           
  5174                           ;PROYECTO.c: 406:                         hora_nueva = USART_Rx();
  5175  04DF  120A  158A  238D  120A  118A  	fcall	_USART_Rx
  5176  04E4  1283               	bcf	3,5	;RP0=0, select bank0
  5177  04E5  1303               	bcf	3,6	;RP1=0, select bank0
  5178  04E6  00BB               	movwf	??_main
  5179  04E7  083B               	movf	??_main,w
  5180  04E8  00F6               	movwf	_hora_nueva
  5181  04E9                     l3518:
  5182                           
  5183                           ;PROYECTO.c: 407:                         if(hora_nueva == '1'){
  5184  04E9  3031               	movlw	49
  5185  04EA  0676               	xorwf	_hora_nueva,w
  5186  04EB  1D03               	btfss	3,2
  5187  04EC  2CEE               	goto	u4071
  5188  04ED  2CEF               	goto	u4070
  5189  04EE                     u4071:
  5190  04EE  2CF8               	goto	l3522
  5191  04EF                     u4070:
  5192  04EF                     l3520:
  5193                           
  5194                           ;PROYECTO.c: 408:                             me_1_us1_h = hora_user1;
  5195  04EF  0835               	movf	_hora_user1,w
  5196  04F0  00BB               	movwf	??_main
  5197  04F1  083B               	movf	??_main,w
  5198  04F2  00B2               	movwf	_me_1_us1_h
  5199                           
  5200                           ;PROYECTO.c: 409:                             me_1_us1_m = min_user1;
  5201  04F3  0877               	movf	_min_user1,w
  5202  04F4  00BB               	movwf	??_main
  5203  04F5  083B               	movf	??_main,w
  5204  04F6  00A9               	movwf	_me_1_us1_m
  5205                           
  5206                           ;PROYECTO.c: 410:                         }else if(hora_nueva == '2'){
  5207  04F7  2AE3               	goto	l3430
  5208  04F8                     l3522:
  5209  04F8  3032               	movlw	50
  5210  04F9  0676               	xorwf	_hora_nueva,w
  5211  04FA  1D03               	btfss	3,2
  5212  04FB  2CFD               	goto	u4081
  5213  04FC  2CFE               	goto	u4080
  5214  04FD                     u4081:
  5215  04FD  2D07               	goto	l3526
  5216  04FE                     u4080:
  5217  04FE                     l3524:
  5218                           
  5219                           ;PROYECTO.c: 411:                             me_2_us1_h = hora_user1;
  5220  04FE  0835               	movf	_hora_user1,w
  5221  04FF  00BB               	movwf	??_main
  5222  0500  083B               	movf	??_main,w
  5223  0501  00B1               	movwf	_me_2_us1_h
  5224                           
  5225                           ;PROYECTO.c: 412:                             me_2_us1_m = min_user1;
  5226  0502  0877               	movf	_min_user1,w
  5227  0503  00BB               	movwf	??_main
  5228  0504  083B               	movf	??_main,w
  5229  0505  00A8               	movwf	_me_2_us1_m
  5230                           
  5231                           ;PROYECTO.c: 413:                         }else if(hora_nueva == '3'){
  5232  0506  2AE3               	goto	l3430
  5233  0507                     l3526:
  5234  0507  3033               	movlw	51
  5235  0508  0676               	xorwf	_hora_nueva,w
  5236  0509  1D03               	btfss	3,2
  5237  050A  2D0C               	goto	u4091
  5238  050B  2D0D               	goto	u4090
  5239  050C                     u4091:
  5240  050C  2AE3               	goto	l3430
  5241  050D                     u4090:
  5242  050D                     l3528:
  5243                           
  5244                           ;PROYECTO.c: 414:                             me_3_us1_h = hora_user1;
  5245  050D  0835               	movf	_hora_user1,w
  5246  050E  00BB               	movwf	??_main
  5247  050F  083B               	movf	??_main,w
  5248  0510  00B0               	movwf	_me_3_us1_h
  5249                           
  5250                           ;PROYECTO.c: 415:                             me_3_us1_m = min_user1;
  5251  0511  0877               	movf	_min_user1,w
  5252  0512  00BB               	movwf	??_main
  5253  0513  083B               	movf	??_main,w
  5254  0514  00A7               	movwf	_me_3_us1_m
  5255  0515  2AE3               	goto	l3430
  5256  0516                     l3530:
  5257                           
  5258                           ;PROYECTO.c: 424:                 USART_Cadena(" Ingresá la letra de la nueva hora  \r"
      +                          );
  5259  0516  301B               	movlw	low (STR_44| (0+32768))
  5260  0517  00F4               	movwf	USART_Cadena@str
  5261  0518  3089               	movlw	high (STR_44| (0+32768))
  5262  0519  00F5               	movwf	USART_Cadena@str+1
  5263  051A  120A  158A  23A5  120A  118A  	fcall	_USART_Cadena
  5264                           
  5265                           ;PROYECTO.c: 425:                 USART_Cadena(" a.0  b.1   c.2   d.3   e.4   f.5   g.6 
      +                            h.7  i.8\r");
  5266  051F  3000               	movlw	low (STR_45| (0+32768))
  5267  0520  00F4               	movwf	USART_Cadena@str
  5268  0521  3088               	movlw	high (STR_45| (0+32768))
  5269  0522  00F5               	movwf	USART_Cadena@str+1
  5270  0523  120A  158A  23A5  120A  118A  	fcall	_USART_Cadena
  5271                           
  5272                           ;PROYECTO.c: 426:                 USART_Cadena(" j.9  k.10  l.11  m.12  n.13  o.14  p.15
      +                            q.16\r");
  5273  0528  3094               	movlw	low (STR_46| (0+32768))
  5274  0529  00F4               	movwf	USART_Cadena@str
  5275  052A  3088               	movlw	high (STR_46| (0+32768))
  5276  052B  00F5               	movwf	USART_Cadena@str+1
  5277  052C  120A  158A  23A5  120A  118A  	fcall	_USART_Cadena
  5278                           
  5279                           ;PROYECTO.c: 427:                 USART_Cadena("r.17  s.18  t.19  u.20  v.21  w.22  x.23
      +                            y.24\r");
  5280  0531  3064               	movlw	low (STR_47| (0+32768))
  5281  0532  00F4               	movwf	USART_Cadena@str
  5282  0533  3088               	movlw	high (STR_47| (0+32768))
  5283  0534  00F5               	movwf	USART_Cadena@str+1
  5284  0535  120A  158A  23A5  120A  118A  	fcall	_USART_Cadena
  5285  053A                     l3532:
  5286                           
  5287                           ;PROYECTO.c: 429:                     if (PIR1bits.RCIF == 1){
  5288  053A  1283               	bcf	3,5	;RP0=0, select bank0
  5289  053B  1303               	bcf	3,6	;RP1=0, select bank0
  5290  053C  1E8C               	btfss	12,5	;volatile
  5291  053D  2D3F               	goto	u4101
  5292  053E  2D40               	goto	u4100
  5293  053F                     u4101:
  5294  053F  2D3A               	goto	l3532
  5295  0540                     u4100:
  5296  0540                     l3534:
  5297                           
  5298                           ;PROYECTO.c: 430:                         USART_Cadena(" \r");
  5299  0540  3088               	movlw	low ((STR_51+33)| (0+32768))
  5300  0541  00F4               	movwf	USART_Cadena@str
  5301  0542  3089               	movlw	high ((STR_51+33)| (0+32768))
  5302  0543  00F5               	movwf	USART_Cadena@str+1
  5303  0544  120A  158A  23A5  120A  118A  	fcall	_USART_Cadena
  5304  0549                     l3536:
  5305                           
  5306                           ;PROYECTO.c: 431:                         hora_nueva = USART_Rx();
  5307  0549  120A  158A  238D  120A  118A  	fcall	_USART_Rx
  5308  054E  1283               	bcf	3,5	;RP0=0, select bank0
  5309  054F  1303               	bcf	3,6	;RP1=0, select bank0
  5310  0550  00BB               	movwf	??_main
  5311  0551  083B               	movf	??_main,w
  5312  0552  00F6               	movwf	_hora_nueva
  5313  0553                     l3538:
  5314                           
  5315                           ;PROYECTO.c: 432:                         USART_Cadena(" \r");
  5316  0553  3088               	movlw	low ((STR_51+33)| (0+32768))
  5317  0554  00F4               	movwf	USART_Cadena@str
  5318  0555  3089               	movlw	high ((STR_51+33)| (0+32768))
  5319  0556  00F5               	movwf	USART_Cadena@str+1
  5320  0557  120A  158A  23A5  120A  118A  	fcall	_USART_Cadena
  5321  055C                     l3540:
  5322                           
  5323                           ;PROYECTO.c: 433:                         hora_user2 = CharToNumH(hora_nueva, hora_user2
      +                          );
  5324  055C  1283               	bcf	3,5	;RP0=0, select bank0
  5325  055D  1303               	bcf	3,6	;RP1=0, select bank0
  5326  055E  0834               	movf	_hora_user2,w
  5327  055F  00BB               	movwf	??_main
  5328  0560  083B               	movf	??_main,w
  5329  0561  00F3               	movwf	CharToNumH@hora_user
  5330  0562  0876               	movf	_hora_nueva,w
  5331  0563  120A  158A  245D  120A  118A  	fcall	_CharToNumH
  5332  0568  1283               	bcf	3,5	;RP0=0, select bank0
  5333  0569  1303               	bcf	3,6	;RP1=0, select bank0
  5334  056A  00BC               	movwf	??_main+1
  5335  056B  083C               	movf	??_main+1,w
  5336  056C  00B4               	movwf	_hora_user2
  5337  056D                     l3542:	
  5338                           ;PROYECTO.c: 434:                         break;
  5339                           
  5340                           
  5341                           ;PROYECTO.c: 437:                 USART_Cadena(" Ingresá la letra de los minutos nuevos
      +                            \r");
  5342  056D  30C4               	movlw	low (STR_50| (0+32768))
  5343  056E  00F4               	movwf	USART_Cadena@str
  5344  056F  3088               	movlw	high (STR_50| (0+32768))
  5345  0570  00F5               	movwf	USART_Cadena@str+1
  5346  0571  120A  158A  23A5  120A  118A  	fcall	_USART_Cadena
  5347                           
  5348                           ;PROYECTO.c: 438:                 USART_Cadena(" a.0  b.15   c.30   d.45   e.55   \r");
  5349  0576  3067               	movlw	low (STR_51| (0+32768))
  5350  0577  00F4               	movwf	USART_Cadena@str
  5351  0578  3089               	movlw	high (STR_51| (0+32768))
  5352  0579  00F5               	movwf	USART_Cadena@str+1
  5353  057A  120A  158A  23A5  120A  118A  	fcall	_USART_Cadena
  5354  057F                     l3544:
  5355                           
  5356                           ;PROYECTO.c: 440:                     if (PIR1bits.RCIF == 1){
  5357  057F  1283               	bcf	3,5	;RP0=0, select bank0
  5358  0580  1303               	bcf	3,6	;RP1=0, select bank0
  5359  0581  1E8C               	btfss	12,5	;volatile
  5360  0582  2D84               	goto	u4111
  5361  0583  2D85               	goto	u4110
  5362  0584                     u4111:
  5363  0584  2D7F               	goto	l3544
  5364  0585                     u4110:
  5365  0585                     l3546:
  5366                           
  5367                           ;PROYECTO.c: 441:                         USART_Cadena(" \r");
  5368  0585  3088               	movlw	low ((STR_51+33)| (0+32768))
  5369  0586  00F4               	movwf	USART_Cadena@str
  5370  0587  3089               	movlw	high ((STR_51+33)| (0+32768))
  5371  0588  00F5               	movwf	USART_Cadena@str+1
  5372  0589  120A  158A  23A5  120A  118A  	fcall	_USART_Cadena
  5373  058E                     l3548:
  5374                           
  5375                           ;PROYECTO.c: 442:                         hora_nueva = USART_Rx();
  5376  058E  120A  158A  238D  120A  118A  	fcall	_USART_Rx
  5377  0593  1283               	bcf	3,5	;RP0=0, select bank0
  5378  0594  1303               	bcf	3,6	;RP1=0, select bank0
  5379  0595  00BB               	movwf	??_main
  5380  0596  083B               	movf	??_main,w
  5381  0597  00F6               	movwf	_hora_nueva
  5382  0598                     l3550:
  5383                           
  5384                           ;PROYECTO.c: 443:                         USART_Cadena(" \r");
  5385  0598  3088               	movlw	low ((STR_51+33)| (0+32768))
  5386  0599  00F4               	movwf	USART_Cadena@str
  5387  059A  3089               	movlw	high ((STR_51+33)| (0+32768))
  5388  059B  00F5               	movwf	USART_Cadena@str+1
  5389  059C  120A  158A  23A5  120A  118A  	fcall	_USART_Cadena
  5390  05A1                     l3552:
  5391                           
  5392                           ;PROYECTO.c: 444:                         min_user2 = CharToNumM(hora_nueva, min_user2);
  5393  05A1  1283               	bcf	3,5	;RP0=0, select bank0
  5394  05A2  1303               	bcf	3,6	;RP1=0, select bank0
  5395  05A3  0837               	movf	_min_user2,w
  5396  05A4  00BB               	movwf	??_main
  5397  05A5  083B               	movf	??_main,w
  5398  05A6  00F3               	movwf	CharToNumM@her
  5399  05A7  0876               	movf	_hora_nueva,w
  5400  05A8  120A  158A  23CB  120A  118A  	fcall	_CharToNumM
  5401  05AD  1283               	bcf	3,5	;RP0=0, select bank0
  5402  05AE  1303               	bcf	3,6	;RP1=0, select bank0
  5403  05AF  00BC               	movwf	??_main+1
  5404  05B0  083C               	movf	??_main+1,w
  5405  05B1  00B7               	movwf	_min_user2
  5406  05B2                     l3554:	
  5407                           ;PROYECTO.c: 445:                         break;
  5408                           
  5409                           
  5410                           ;PROYECTO.c: 448:                 USART_Cadena(" Actualmente se cuenta con 3 medicamento
      +                          s\r");
  5411  05B2  30F0               	movlw	low (STR_54| (0+32768))
  5412  05B3  00F4               	movwf	USART_Cadena@str
  5413  05B4  3088               	movlw	high (STR_54| (0+32768))
  5414  05B5  00F5               	movwf	USART_Cadena@str+1
  5415  05B6  120A  158A  23A5  120A  118A  	fcall	_USART_Cadena
  5416                           
  5417                           ;PROYECTO.c: 449:                 USART_Cadena(" presione el número de medicamento a gu
      +                          ardar \r");
  5418  05BB  3034               	movlw	low (STR_55| (0+32768))
  5419  05BC  00F4               	movwf	USART_Cadena@str
  5420  05BD  3088               	movlw	high (STR_55| (0+32768))
  5421  05BE  00F5               	movwf	USART_Cadena@str+1
  5422  05BF  120A  158A  23A5  120A  118A  	fcall	_USART_Cadena
  5423                           
  5424                           ;PROYECTO.c: 450:                 USART_Cadena(" 1.AFC    2.FFT   3.DHL \r");
  5425  05C4  30A7               	movlw	low (STR_56| (0+32768))
  5426  05C5  00F4               	movwf	USART_Cadena@str
  5427  05C6  308A               	movlw	high (STR_56| (0+32768))
  5428  05C7  00F5               	movwf	USART_Cadena@str+1
  5429  05C8  120A  158A  23A5  120A  118A  	fcall	_USART_Cadena
  5430  05CD                     l3556:
  5431                           
  5432                           ;PROYECTO.c: 452:                     if (PIR1bits.RCIF == 1){
  5433  05CD  1283               	bcf	3,5	;RP0=0, select bank0
  5434  05CE  1303               	bcf	3,6	;RP1=0, select bank0
  5435  05CF  1E8C               	btfss	12,5	;volatile
  5436  05D0  2DD2               	goto	u4121
  5437  05D1  2DD3               	goto	u4120
  5438  05D2                     u4121:
  5439  05D2  2DCD               	goto	l3556
  5440  05D3                     u4120:
  5441  05D3                     l3558:
  5442                           
  5443                           ;PROYECTO.c: 453:                         hora_nueva = USART_Rx();
  5444  05D3  120A  158A  238D  120A  118A  	fcall	_USART_Rx
  5445  05D8  1283               	bcf	3,5	;RP0=0, select bank0
  5446  05D9  1303               	bcf	3,6	;RP1=0, select bank0
  5447  05DA  00BB               	movwf	??_main
  5448  05DB  083B               	movf	??_main,w
  5449  05DC  00F6               	movwf	_hora_nueva
  5450  05DD                     l3560:
  5451                           
  5452                           ;PROYECTO.c: 454:                         if(hora_nueva == '1'){
  5453  05DD  3031               	movlw	49
  5454  05DE  0676               	xorwf	_hora_nueva,w
  5455  05DF  1D03               	btfss	3,2
  5456  05E0  2DE2               	goto	u4131
  5457  05E1  2DE3               	goto	u4130
  5458  05E2                     u4131:
  5459  05E2  2DEC               	goto	l3564
  5460  05E3                     u4130:
  5461  05E3                     l3562:
  5462                           
  5463                           ;PROYECTO.c: 455:                             me_1_us2_h = hora_user2;
  5464  05E3  0834               	movf	_hora_user2,w
  5465  05E4  00BB               	movwf	??_main
  5466  05E5  083B               	movf	??_main,w
  5467  05E6  00AF               	movwf	_me_1_us2_h
  5468                           
  5469                           ;PROYECTO.c: 456:                             me_1_us2_m = min_user2;
  5470  05E7  0837               	movf	_min_user2,w
  5471  05E8  00BB               	movwf	??_main
  5472  05E9  083B               	movf	??_main,w
  5473  05EA  00A6               	movwf	_me_1_us2_m
  5474                           
  5475                           ;PROYECTO.c: 457:                         }else if(hora_nueva == '2'){
  5476  05EB  2AE3               	goto	l3430
  5477  05EC                     l3564:
  5478  05EC  3032               	movlw	50
  5479  05ED  0676               	xorwf	_hora_nueva,w
  5480  05EE  1D03               	btfss	3,2
  5481  05EF  2DF1               	goto	u4141
  5482  05F0  2DF2               	goto	u4140
  5483  05F1                     u4141:
  5484  05F1  2DFB               	goto	l3568
  5485  05F2                     u4140:
  5486  05F2                     l3566:
  5487                           
  5488                           ;PROYECTO.c: 458:                             me_2_us2_h = hora_user2;
  5489  05F2  0834               	movf	_hora_user2,w
  5490  05F3  00BB               	movwf	??_main
  5491  05F4  083B               	movf	??_main,w
  5492  05F5  00AE               	movwf	_me_2_us2_h
  5493                           
  5494                           ;PROYECTO.c: 459:                             me_2_us2_m = min_user2;
  5495  05F6  0837               	movf	_min_user2,w
  5496  05F7  00BB               	movwf	??_main
  5497  05F8  083B               	movf	??_main,w
  5498  05F9  00A5               	movwf	_me_2_us2_m
  5499                           
  5500                           ;PROYECTO.c: 460:                         }else if(hora_nueva == '3'){
  5501  05FA  2AE3               	goto	l3430
  5502  05FB                     l3568:
  5503  05FB  3033               	movlw	51
  5504  05FC  0676               	xorwf	_hora_nueva,w
  5505  05FD  1D03               	btfss	3,2
  5506  05FE  2E00               	goto	u4151
  5507  05FF  2E01               	goto	u4150
  5508  0600                     u4151:
  5509  0600  2AE3               	goto	l3430
  5510  0601                     u4150:
  5511  0601                     l3570:
  5512                           
  5513                           ;PROYECTO.c: 461:                             me_3_us2_h = hora_user2;
  5514  0601  0834               	movf	_hora_user2,w
  5515  0602  00BB               	movwf	??_main
  5516  0603  083B               	movf	??_main,w
  5517  0604  00AD               	movwf	_me_3_us2_h
  5518                           
  5519                           ;PROYECTO.c: 462:                             me_3_us2_m = min_user2;
  5520  0605  0837               	movf	_min_user2,w
  5521  0606  00BB               	movwf	??_main
  5522  0607  083B               	movf	??_main,w
  5523  0608  00A4               	movwf	_me_3_us2_m
  5524  0609  2AE3               	goto	l3430
  5525  060A                     l3572:
  5526                           
  5527                           ;PROYECTO.c: 470:                 USART_Cadena(" Ingresá la letra de la nueva hora  \r"
      +                          );
  5528  060A  301B               	movlw	low (STR_44| (0+32768))
  5529  060B  00F4               	movwf	USART_Cadena@str
  5530  060C  3089               	movlw	high (STR_44| (0+32768))
  5531  060D  00F5               	movwf	USART_Cadena@str+1
  5532  060E  120A  158A  23A5  120A  118A  	fcall	_USART_Cadena
  5533                           
  5534                           ;PROYECTO.c: 471:                 USART_Cadena(" a.0  b.1   c.2   d.3   e.4   f.5   g.6 
      +                            h.7  i.8\r");
  5535  0613  3000               	movlw	low (STR_45| (0+32768))
  5536  0614  00F4               	movwf	USART_Cadena@str
  5537  0615  3088               	movlw	high (STR_45| (0+32768))
  5538  0616  00F5               	movwf	USART_Cadena@str+1
  5539  0617  120A  158A  23A5  120A  118A  	fcall	_USART_Cadena
  5540                           
  5541                           ;PROYECTO.c: 472:                 USART_Cadena(" j.9  k.10  l.11  m.12  n.13  o.14  p.15
      +                            q.16\r");
  5542  061C  3094               	movlw	low (STR_46| (0+32768))
  5543  061D  00F4               	movwf	USART_Cadena@str
  5544  061E  3088               	movlw	high (STR_46| (0+32768))
  5545  061F  00F5               	movwf	USART_Cadena@str+1
  5546  0620  120A  158A  23A5  120A  118A  	fcall	_USART_Cadena
  5547                           
  5548                           ;PROYECTO.c: 473:                 USART_Cadena("r.17  s.18  t.19  u.20  v.21  w.22  x.23
      +                            y.24\r");
  5549  0625  3064               	movlw	low (STR_47| (0+32768))
  5550  0626  00F4               	movwf	USART_Cadena@str
  5551  0627  3088               	movlw	high (STR_47| (0+32768))
  5552  0628  00F5               	movwf	USART_Cadena@str+1
  5553  0629  120A  158A  23A5  120A  118A  	fcall	_USART_Cadena
  5554  062E                     l3574:
  5555                           
  5556                           ;PROYECTO.c: 475:                     if (PIR1bits.RCIF == 1){
  5557  062E  1283               	bcf	3,5	;RP0=0, select bank0
  5558  062F  1303               	bcf	3,6	;RP1=0, select bank0
  5559  0630  1E8C               	btfss	12,5	;volatile
  5560  0631  2E33               	goto	u4161
  5561  0632  2E34               	goto	u4160
  5562  0633                     u4161:
  5563  0633  2E2E               	goto	l3574
  5564  0634                     u4160:
  5565  0634                     l3576:
  5566                           
  5567                           ;PROYECTO.c: 476:                         USART_Cadena(" \r");
  5568  0634  3088               	movlw	low ((STR_51+33)| (0+32768))
  5569  0635  00F4               	movwf	USART_Cadena@str
  5570  0636  3089               	movlw	high ((STR_51+33)| (0+32768))
  5571  0637  00F5               	movwf	USART_Cadena@str+1
  5572  0638  120A  158A  23A5  120A  118A  	fcall	_USART_Cadena
  5573  063D                     l3578:
  5574                           
  5575                           ;PROYECTO.c: 477:                         hora_nueva = USART_Rx();
  5576  063D  120A  158A  238D  120A  118A  	fcall	_USART_Rx
  5577  0642  1283               	bcf	3,5	;RP0=0, select bank0
  5578  0643  1303               	bcf	3,6	;RP1=0, select bank0
  5579  0644  00BB               	movwf	??_main
  5580  0645  083B               	movf	??_main,w
  5581  0646  00F6               	movwf	_hora_nueva
  5582  0647                     l3580:
  5583                           
  5584                           ;PROYECTO.c: 478:                         USART_Cadena(" \r");
  5585  0647  3088               	movlw	low ((STR_51+33)| (0+32768))
  5586  0648  00F4               	movwf	USART_Cadena@str
  5587  0649  3089               	movlw	high ((STR_51+33)| (0+32768))
  5588  064A  00F5               	movwf	USART_Cadena@str+1
  5589  064B  120A  158A  23A5  120A  118A  	fcall	_USART_Cadena
  5590  0650                     l3582:
  5591                           
  5592                           ;PROYECTO.c: 479:                         hora_user3 = CharToNumH(hora_nueva, hora_user3
      +                          );
  5593  0650  1283               	bcf	3,5	;RP0=0, select bank0
  5594  0651  1303               	bcf	3,6	;RP1=0, select bank0
  5595  0652  0833               	movf	_hora_user3,w
  5596  0653  00BB               	movwf	??_main
  5597  0654  083B               	movf	??_main,w
  5598  0655  00F3               	movwf	CharToNumH@hora_user
  5599  0656  0876               	movf	_hora_nueva,w
  5600  0657  120A  158A  245D  120A  118A  	fcall	_CharToNumH
  5601  065C  1283               	bcf	3,5	;RP0=0, select bank0
  5602  065D  1303               	bcf	3,6	;RP1=0, select bank0
  5603  065E  00BC               	movwf	??_main+1
  5604  065F  083C               	movf	??_main+1,w
  5605  0660  00B3               	movwf	_hora_user3
  5606  0661                     l3584:	
  5607                           ;PROYECTO.c: 480:                         break;
  5608                           
  5609                           
  5610                           ;PROYECTO.c: 483:                 USART_Cadena(" Ingresá la letra de los minutos nuevos
      +                            \r");
  5611  0661  30C4               	movlw	low (STR_50| (0+32768))
  5612  0662  00F4               	movwf	USART_Cadena@str
  5613  0663  3088               	movlw	high (STR_50| (0+32768))
  5614  0664  00F5               	movwf	USART_Cadena@str+1
  5615  0665  120A  158A  23A5  120A  118A  	fcall	_USART_Cadena
  5616                           
  5617                           ;PROYECTO.c: 484:                 USART_Cadena(" a.0  b.15   c.30   d.45   e.55   \r");
  5618  066A  3067               	movlw	low (STR_51| (0+32768))
  5619  066B  00F4               	movwf	USART_Cadena@str
  5620  066C  3089               	movlw	high (STR_51| (0+32768))
  5621  066D  00F5               	movwf	USART_Cadena@str+1
  5622  066E  120A  158A  23A5  120A  118A  	fcall	_USART_Cadena
  5623  0673                     l3586:
  5624                           
  5625                           ;PROYECTO.c: 486:                     if (PIR1bits.RCIF == 1){
  5626  0673  1283               	bcf	3,5	;RP0=0, select bank0
  5627  0674  1303               	bcf	3,6	;RP1=0, select bank0
  5628  0675  1E8C               	btfss	12,5	;volatile
  5629  0676  2E78               	goto	u4171
  5630  0677  2E79               	goto	u4170
  5631  0678                     u4171:
  5632  0678  2E73               	goto	l3586
  5633  0679                     u4170:
  5634  0679                     l3588:
  5635                           
  5636                           ;PROYECTO.c: 487:                         USART_Cadena(" \r");
  5637  0679  3088               	movlw	low ((STR_51+33)| (0+32768))
  5638  067A  00F4               	movwf	USART_Cadena@str
  5639  067B  3089               	movlw	high ((STR_51+33)| (0+32768))
  5640  067C  00F5               	movwf	USART_Cadena@str+1
  5641  067D  120A  158A  23A5  120A  118A  	fcall	_USART_Cadena
  5642  0682                     l3590:
  5643                           
  5644                           ;PROYECTO.c: 488:                         hora_nueva = USART_Rx();
  5645  0682  120A  158A  238D  120A  118A  	fcall	_USART_Rx
  5646  0687  1283               	bcf	3,5	;RP0=0, select bank0
  5647  0688  1303               	bcf	3,6	;RP1=0, select bank0
  5648  0689  00BB               	movwf	??_main
  5649  068A  083B               	movf	??_main,w
  5650  068B  00F6               	movwf	_hora_nueva
  5651  068C                     l3592:
  5652                           
  5653                           ;PROYECTO.c: 489:                         USART_Cadena(" \r");
  5654  068C  3088               	movlw	low ((STR_51+33)| (0+32768))
  5655  068D  00F4               	movwf	USART_Cadena@str
  5656  068E  3089               	movlw	high ((STR_51+33)| (0+32768))
  5657  068F  00F5               	movwf	USART_Cadena@str+1
  5658  0690  120A  158A  23A5  120A  118A  	fcall	_USART_Cadena
  5659  0695                     l3594:
  5660                           
  5661                           ;PROYECTO.c: 490:                         min_user3 = CharToNumM(hora_nueva, min_user3);
  5662  0695  1283               	bcf	3,5	;RP0=0, select bank0
  5663  0696  1303               	bcf	3,6	;RP1=0, select bank0
  5664  0697  0836               	movf	_min_user3,w
  5665  0698  00BB               	movwf	??_main
  5666  0699  083B               	movf	??_main,w
  5667  069A  00F3               	movwf	CharToNumM@her
  5668  069B  0876               	movf	_hora_nueva,w
  5669  069C  120A  158A  23CB  120A  118A  	fcall	_CharToNumM
  5670  06A1  1283               	bcf	3,5	;RP0=0, select bank0
  5671  06A2  1303               	bcf	3,6	;RP1=0, select bank0
  5672  06A3  00BC               	movwf	??_main+1
  5673  06A4  083C               	movf	??_main+1,w
  5674  06A5  00B6               	movwf	_min_user3
  5675  06A6                     l3596:	
  5676                           ;PROYECTO.c: 491:                         break;
  5677                           
  5678                           
  5679                           ;PROYECTO.c: 494:                 USART_Cadena(" Actualmente se cuenta con 3 medicamento
      +                          s\r");
  5680  06A6  30F0               	movlw	low (STR_54| (0+32768))
  5681  06A7  00F4               	movwf	USART_Cadena@str
  5682  06A8  3088               	movlw	high (STR_54| (0+32768))
  5683  06A9  00F5               	movwf	USART_Cadena@str+1
  5684  06AA  120A  158A  23A5  120A  118A  	fcall	_USART_Cadena
  5685                           
  5686                           ;PROYECTO.c: 495:                 USART_Cadena(" presione el número de medicamento a gu
      +                          ardar \r");
  5687  06AF  3034               	movlw	low (STR_55| (0+32768))
  5688  06B0  00F4               	movwf	USART_Cadena@str
  5689  06B1  3088               	movlw	high (STR_55| (0+32768))
  5690  06B2  00F5               	movwf	USART_Cadena@str+1
  5691  06B3  120A  158A  23A5  120A  118A  	fcall	_USART_Cadena
  5692                           
  5693                           ;PROYECTO.c: 496:                 USART_Cadena(" 1.AFC    2.FFT   3.DHL \r");
  5694  06B8  30A7               	movlw	low (STR_56| (0+32768))
  5695  06B9  00F4               	movwf	USART_Cadena@str
  5696  06BA  308A               	movlw	high (STR_56| (0+32768))
  5697  06BB  00F5               	movwf	USART_Cadena@str+1
  5698  06BC  120A  158A  23A5  120A  118A  	fcall	_USART_Cadena
  5699  06C1                     l3598:
  5700                           
  5701                           ;PROYECTO.c: 498:                     if (PIR1bits.RCIF == 1){
  5702  06C1  1283               	bcf	3,5	;RP0=0, select bank0
  5703  06C2  1303               	bcf	3,6	;RP1=0, select bank0
  5704  06C3  1E8C               	btfss	12,5	;volatile
  5705  06C4  2EC6               	goto	u4181
  5706  06C5  2EC7               	goto	u4180
  5707  06C6                     u4181:
  5708  06C6  2EC1               	goto	l3598
  5709  06C7                     u4180:
  5710  06C7                     l3600:
  5711                           
  5712                           ;PROYECTO.c: 499:                         hora_nueva = USART_Rx();
  5713  06C7  120A  158A  238D  120A  118A  	fcall	_USART_Rx
  5714  06CC  1283               	bcf	3,5	;RP0=0, select bank0
  5715  06CD  1303               	bcf	3,6	;RP1=0, select bank0
  5716  06CE  00BB               	movwf	??_main
  5717  06CF  083B               	movf	??_main,w
  5718  06D0  00F6               	movwf	_hora_nueva
  5719  06D1                     l3602:
  5720                           
  5721                           ;PROYECTO.c: 500:                         if(hora_nueva == '1'){
  5722  06D1  3031               	movlw	49
  5723  06D2  0676               	xorwf	_hora_nueva,w
  5724  06D3  1D03               	btfss	3,2
  5725  06D4  2ED6               	goto	u4191
  5726  06D5  2ED7               	goto	u4190
  5727  06D6                     u4191:
  5728  06D6  2EE0               	goto	l3606
  5729  06D7                     u4190:
  5730  06D7                     l3604:
  5731                           
  5732                           ;PROYECTO.c: 501:                             me_1_us3_h = hora_user3;
  5733  06D7  0833               	movf	_hora_user3,w
  5734  06D8  00BB               	movwf	??_main
  5735  06D9  083B               	movf	??_main,w
  5736  06DA  00AC               	movwf	_me_1_us3_h
  5737                           
  5738                           ;PROYECTO.c: 502:                             me_1_us3_m = min_user3;
  5739  06DB  0836               	movf	_min_user3,w
  5740  06DC  00BB               	movwf	??_main
  5741  06DD  083B               	movf	??_main,w
  5742  06DE  00A3               	movwf	_me_1_us3_m
  5743                           
  5744                           ;PROYECTO.c: 503:                         }else if(hora_nueva == '2'){
  5745  06DF  2AE3               	goto	l3430
  5746  06E0                     l3606:
  5747  06E0  3032               	movlw	50
  5748  06E1  0676               	xorwf	_hora_nueva,w
  5749  06E2  1D03               	btfss	3,2
  5750  06E3  2EE5               	goto	u4201
  5751  06E4  2EE6               	goto	u4200
  5752  06E5                     u4201:
  5753  06E5  2EEF               	goto	l3610
  5754  06E6                     u4200:
  5755  06E6                     l3608:
  5756                           
  5757                           ;PROYECTO.c: 504:                             me_2_us3_h = hora_user3;
  5758  06E6  0833               	movf	_hora_user3,w
  5759  06E7  00BB               	movwf	??_main
  5760  06E8  083B               	movf	??_main,w
  5761  06E9  00AB               	movwf	_me_2_us3_h
  5762                           
  5763                           ;PROYECTO.c: 505:                             me_2_us3_m = min_user3;
  5764  06EA  0836               	movf	_min_user3,w
  5765  06EB  00BB               	movwf	??_main
  5766  06EC  083B               	movf	??_main,w
  5767  06ED  00A2               	movwf	_me_2_us3_m
  5768                           
  5769                           ;PROYECTO.c: 506:                         }else if(hora_nueva == '3'){
  5770  06EE  2AE3               	goto	l3430
  5771  06EF                     l3610:
  5772  06EF  3033               	movlw	51
  5773  06F0  0676               	xorwf	_hora_nueva,w
  5774  06F1  1D03               	btfss	3,2
  5775  06F2  2EF4               	goto	u4211
  5776  06F3  2EF5               	goto	u4210
  5777  06F4                     u4211:
  5778  06F4  2AE3               	goto	l3430
  5779  06F5                     u4210:
  5780  06F5                     l3612:
  5781                           
  5782                           ;PROYECTO.c: 507:                             me_3_us3_h = hora_user3;
  5783  06F5  0833               	movf	_hora_user3,w
  5784  06F6  00BB               	movwf	??_main
  5785  06F7  083B               	movf	??_main,w
  5786  06F8  00AA               	movwf	_me_3_us3_h
  5787                           
  5788                           ;PROYECTO.c: 508:                             me_3_us3_m = min_user3;
  5789  06F9  0836               	movf	_min_user3,w
  5790  06FA  00BB               	movwf	??_main
  5791  06FB  083B               	movf	??_main,w
  5792  06FC  00A1               	movwf	_me_3_us3_m
  5793  06FD  2AE3               	goto	l3430
  5794  06FE                     l3616:
  5795  06FE  0839               	movf	_valor,w
  5796  06FF  00BB               	movwf	??_main
  5797  0700  01BC               	clrf	??_main+1
  5798                           
  5799                           ; Switch on 2 bytes has been partitioned into a top level switch of size 1, and 1 sub-sw
      +                          itches
  5800                           ; Switch size 1, requested type "simple"
  5801                           ; Number of cases is 1, Range of values is 0 to 0
  5802                           ; switch strategies available:
  5803                           ; Name         Instructions Cycles
  5804                           ; simple_byte            4     3 (average)
  5805                           ; direct_byte           11     8 (fixed)
  5806                           ; jumptable            260     6 (fixed)
  5807                           ;	Chosen strategy is simple_byte
  5808  0701  083C               	movf	??_main+1,w
  5809  0702  3A00               	xorlw	0	; case 0
  5810  0703  1903               	skipnz
  5811  0704  2F06               	goto	l3766
  5812  0705  2F1A               	goto	l3618
  5813  0706                     l3766:
  5814                           
  5815                           ; Switch size 1, requested type "simple"
  5816                           ; Number of cases is 6, Range of values is 49 to 54
  5817                           ; switch strategies available:
  5818                           ; Name         Instructions Cycles
  5819                           ; simple_byte           19    10 (average)
  5820                           ; direct_byte           29    11 (fixed)
  5821                           ; jumptable            263     9 (fixed)
  5822                           ;	Chosen strategy is simple_byte
  5823  0706  083B               	movf	??_main,w
  5824  0707  3A31               	xorlw	49	; case 49
  5825  0708  1903               	skipnz
  5826  0709  2A47               	goto	l3404
  5827  070A  3A03               	xorlw	3	; case 50
  5828  070B  1903               	skipnz
  5829  070C  2AE8               	goto	l3432
  5830  070D  3A01               	xorlw	1	; case 51
  5831  070E  1903               	skipnz
  5832  070F  2B85               	goto	l3460
  5833  0710  3A07               	xorlw	7	; case 52
  5834  0711  1903               	skipnz
  5835  0712  2C22               	goto	l3488
  5836  0713  3A01               	xorlw	1	; case 53
  5837  0714  1903               	skipnz
  5838  0715  2D16               	goto	l3530
  5839  0716  3A03               	xorlw	3	; case 54
  5840  0717  1903               	skipnz
  5841  0718  2E0A               	goto	l3572
  5842  0719  2F1A               	goto	l3618
  5843  071A                     l3618:
  5844                           
  5845                           ;PROYECTO.c: 517:        valor = '0';
  5846  071A  3030               	movlw	48
  5847  071B  00BB               	movwf	??_main
  5848  071C  083B               	movf	??_main,w
  5849  071D  00B9               	movwf	_valor
  5850  071E                     l3620:
  5851                           
  5852                           ;PROYECTO.c: 519:        if (RB7==0 && RB3==1 && RB4==0){
  5853  071E  1B86               	btfsc	6,7	;volatile
  5854  071F  2F21               	goto	u4221
  5855  0720  2F22               	goto	u4220
  5856  0721                     u4221:
  5857  0721  2F33               	goto	l309
  5858  0722                     u4220:
  5859  0722                     l3622:
  5860  0722  1D86               	btfss	6,3	;volatile
  5861  0723  2F25               	goto	u4231
  5862  0724  2F26               	goto	u4230
  5863  0725                     u4231:
  5864  0725  2F33               	goto	l309
  5865  0726                     u4230:
  5866  0726                     l3624:
  5867  0726  1A06               	btfsc	6,4	;volatile
  5868  0727  2F29               	goto	u4241
  5869  0728  2F2A               	goto	u4240
  5870  0729                     u4241:
  5871  0729  2F33               	goto	l309
  5872  072A                     u4240:
  5873  072A                     l3626:
  5874                           
  5875                           ;PROYECTO.c: 520:            me_3_us3_m = minuto;
  5876  072A  0879               	movf	_minuto,w
  5877  072B  00BB               	movwf	??_main
  5878  072C  083B               	movf	??_main,w
  5879  072D  00A1               	movwf	_me_3_us3_m
  5880                           
  5881                           ;PROYECTO.c: 521:            me_3_us3_h = hora;
  5882  072E  087A               	movf	_hora,w
  5883  072F  00BB               	movwf	??_main
  5884  0730  083B               	movf	??_main,w
  5885  0731  00AA               	movwf	_me_3_us3_h
  5886                           
  5887                           ;PROYECTO.c: 522:        }else if (RB7==0 && RB3==0 && RB4==1){
  5888  0732  2F5C               	goto	l3640
  5889  0733                     l309:
  5890  0733  1B86               	btfsc	6,7	;volatile
  5891  0734  2F36               	goto	u4251
  5892  0735  2F37               	goto	u4250
  5893  0736                     u4251:
  5894  0736  2F48               	goto	l311
  5895  0737                     u4250:
  5896  0737                     l3628:
  5897  0737  1986               	btfsc	6,3	;volatile
  5898  0738  2F3A               	goto	u4261
  5899  0739  2F3B               	goto	u4260
  5900  073A                     u4261:
  5901  073A  2F48               	goto	l311
  5902  073B                     u4260:
  5903  073B                     l3630:
  5904  073B  1E06               	btfss	6,4	;volatile
  5905  073C  2F3E               	goto	u4271
  5906  073D  2F3F               	goto	u4270
  5907  073E                     u4271:
  5908  073E  2F48               	goto	l311
  5909  073F                     u4270:
  5910  073F                     l3632:
  5911                           
  5912                           ;PROYECTO.c: 523:            me_2_us3_m = minuto;
  5913  073F  0879               	movf	_minuto,w
  5914  0740  00BB               	movwf	??_main
  5915  0741  083B               	movf	??_main,w
  5916  0742  00A2               	movwf	_me_2_us3_m
  5917                           
  5918                           ;PROYECTO.c: 524:            me_2_us3_h = hora;
  5919  0743  087A               	movf	_hora,w
  5920  0744  00BB               	movwf	??_main
  5921  0745  083B               	movf	??_main,w
  5922  0746  00AB               	movwf	_me_2_us3_h
  5923                           
  5924                           ;PROYECTO.c: 525:        }else if (RB7==0 && RB3==0 && RB4==0){
  5925  0747  2F5C               	goto	l3640
  5926  0748                     l311:
  5927  0748  1B86               	btfsc	6,7	;volatile
  5928  0749  2F4B               	goto	u4281
  5929  074A  2F4C               	goto	u4280
  5930  074B                     u4281:
  5931  074B  2F5C               	goto	l3640
  5932  074C                     u4280:
  5933  074C                     l3634:
  5934  074C  1986               	btfsc	6,3	;volatile
  5935  074D  2F4F               	goto	u4291
  5936  074E  2F50               	goto	u4290
  5937  074F                     u4291:
  5938  074F  2F5C               	goto	l3640
  5939  0750                     u4290:
  5940  0750                     l3636:
  5941  0750  1A06               	btfsc	6,4	;volatile
  5942  0751  2F53               	goto	u4301
  5943  0752  2F54               	goto	u4300
  5944  0753                     u4301:
  5945  0753  2F5C               	goto	l3640
  5946  0754                     u4300:
  5947  0754                     l3638:
  5948                           
  5949                           ;PROYECTO.c: 526:            me_1_us3_m = minuto;
  5950  0754  0879               	movf	_minuto,w
  5951  0755  00BB               	movwf	??_main
  5952  0756  083B               	movf	??_main,w
  5953  0757  00A3               	movwf	_me_1_us3_m
  5954                           
  5955                           ;PROYECTO.c: 527:            me_1_us3_h = hora;
  5956  0758  087A               	movf	_hora,w
  5957  0759  00BB               	movwf	??_main
  5958  075A  083B               	movf	??_main,w
  5959  075B  00AC               	movwf	_me_1_us3_h
  5960  075C                     l3640:
  5961                           
  5962                           ;PROYECTO.c: 530:        if (RB6==0 && RB3==1 && RB4==0){
  5963  075C  1B06               	btfsc	6,6	;volatile
  5964  075D  2F5F               	goto	u4311
  5965  075E  2F60               	goto	u4310
  5966  075F                     u4311:
  5967  075F  2F71               	goto	l314
  5968  0760                     u4310:
  5969  0760                     l3642:
  5970  0760  1D86               	btfss	6,3	;volatile
  5971  0761  2F63               	goto	u4321
  5972  0762  2F64               	goto	u4320
  5973  0763                     u4321:
  5974  0763  2F71               	goto	l314
  5975  0764                     u4320:
  5976  0764                     l3644:
  5977  0764  1A06               	btfsc	6,4	;volatile
  5978  0765  2F67               	goto	u4331
  5979  0766  2F68               	goto	u4330
  5980  0767                     u4331:
  5981  0767  2F71               	goto	l314
  5982  0768                     u4330:
  5983  0768                     l3646:
  5984                           
  5985                           ;PROYECTO.c: 531:            me_3_us2_m = minuto;
  5986  0768  0879               	movf	_minuto,w
  5987  0769  00BB               	movwf	??_main
  5988  076A  083B               	movf	??_main,w
  5989  076B  00A4               	movwf	_me_3_us2_m
  5990                           
  5991                           ;PROYECTO.c: 532:            me_3_us2_h = hora;
  5992  076C  087A               	movf	_hora,w
  5993  076D  00BB               	movwf	??_main
  5994  076E  083B               	movf	??_main,w
  5995  076F  00AD               	movwf	_me_3_us2_h
  5996                           
  5997                           ;PROYECTO.c: 533:        }else if (RB6==0 && RB3==0 && RB4==1){
  5998  0770  2F9A               	goto	l3660
  5999  0771                     l314:
  6000  0771  1B06               	btfsc	6,6	;volatile
  6001  0772  2F74               	goto	u4341
  6002  0773  2F75               	goto	u4340
  6003  0774                     u4341:
  6004  0774  2F86               	goto	l316
  6005  0775                     u4340:
  6006  0775                     l3648:
  6007  0775  1986               	btfsc	6,3	;volatile
  6008  0776  2F78               	goto	u4351
  6009  0777  2F79               	goto	u4350
  6010  0778                     u4351:
  6011  0778  2F86               	goto	l316
  6012  0779                     u4350:
  6013  0779                     l3650:
  6014  0779  1E06               	btfss	6,4	;volatile
  6015  077A  2F7C               	goto	u4361
  6016  077B  2F7D               	goto	u4360
  6017  077C                     u4361:
  6018  077C  2F86               	goto	l316
  6019  077D                     u4360:
  6020  077D                     l3652:
  6021                           
  6022                           ;PROYECTO.c: 534:            me_2_us2_m = minuto;
  6023  077D  0879               	movf	_minuto,w
  6024  077E  00BB               	movwf	??_main
  6025  077F  083B               	movf	??_main,w
  6026  0780  00A5               	movwf	_me_2_us2_m
  6027                           
  6028                           ;PROYECTO.c: 535:            me_2_us2_h = hora;
  6029  0781  087A               	movf	_hora,w
  6030  0782  00BB               	movwf	??_main
  6031  0783  083B               	movf	??_main,w
  6032  0784  00AE               	movwf	_me_2_us2_h
  6033                           
  6034                           ;PROYECTO.c: 536:        }else if (RB6==0 && RB3==0 && RB4==0){
  6035  0785  2F9A               	goto	l3660
  6036  0786                     l316:
  6037  0786  1B06               	btfsc	6,6	;volatile
  6038  0787  2F89               	goto	u4371
  6039  0788  2F8A               	goto	u4370
  6040  0789                     u4371:
  6041  0789  2F9A               	goto	l3660
  6042  078A                     u4370:
  6043  078A                     l3654:
  6044  078A  1986               	btfsc	6,3	;volatile
  6045  078B  2F8D               	goto	u4381
  6046  078C  2F8E               	goto	u4380
  6047  078D                     u4381:
  6048  078D  2F9A               	goto	l3660
  6049  078E                     u4380:
  6050  078E                     l3656:
  6051  078E  1A06               	btfsc	6,4	;volatile
  6052  078F  2F91               	goto	u4391
  6053  0790  2F92               	goto	u4390
  6054  0791                     u4391:
  6055  0791  2F9A               	goto	l3660
  6056  0792                     u4390:
  6057  0792                     l3658:
  6058                           
  6059                           ;PROYECTO.c: 537:            me_1_us2_m = minuto;
  6060  0792  0879               	movf	_minuto,w
  6061  0793  00BB               	movwf	??_main
  6062  0794  083B               	movf	??_main,w
  6063  0795  00A6               	movwf	_me_1_us2_m
  6064                           
  6065                           ;PROYECTO.c: 538:            me_1_us2_h = hora;
  6066  0796  087A               	movf	_hora,w
  6067  0797  00BB               	movwf	??_main
  6068  0798  083B               	movf	??_main,w
  6069  0799  00AF               	movwf	_me_1_us2_h
  6070  079A                     l3660:
  6071                           
  6072                           ;PROYECTO.c: 541:        if (RB5==0 && RB3==0 && RB4==1){
  6073  079A  1A86               	btfsc	6,5	;volatile
  6074  079B  2F9D               	goto	u4401
  6075  079C  2F9E               	goto	u4400
  6076  079D                     u4401:
  6077  079D  2FAF               	goto	l319
  6078  079E                     u4400:
  6079  079E                     l3662:
  6080  079E  1986               	btfsc	6,3	;volatile
  6081  079F  2FA1               	goto	u4411
  6082  07A0  2FA2               	goto	u4410
  6083  07A1                     u4411:
  6084  07A1  2FAF               	goto	l319
  6085  07A2                     u4410:
  6086  07A2                     l3664:
  6087  07A2  1E06               	btfss	6,4	;volatile
  6088  07A3  2FA5               	goto	u4421
  6089  07A4  2FA6               	goto	u4420
  6090  07A5                     u4421:
  6091  07A5  2FAF               	goto	l319
  6092  07A6                     u4420:
  6093  07A6                     l3666:
  6094                           
  6095                           ;PROYECTO.c: 542:            me_3_us1_m = minuto;
  6096  07A6  0879               	movf	_minuto,w
  6097  07A7  00BB               	movwf	??_main
  6098  07A8  083B               	movf	??_main,w
  6099  07A9  00A7               	movwf	_me_3_us1_m
  6100                           
  6101                           ;PROYECTO.c: 543:            me_3_us1_h = hora;
  6102  07AA  087A               	movf	_hora,w
  6103  07AB  00BB               	movwf	??_main
  6104  07AC  083B               	movf	??_main,w
  6105  07AD  00B0               	movwf	_me_3_us1_h
  6106                           
  6107                           ;PROYECTO.c: 544:        }else if (RB5==0 && RB3==1 && RB4==0){
  6108  07AE  2FD9               	goto	l320
  6109  07AF                     l319:
  6110  07AF  1A86               	btfsc	6,5	;volatile
  6111  07B0  2FB2               	goto	u4431
  6112  07B1  2FB3               	goto	u4430
  6113  07B2                     u4431:
  6114  07B2  2FC4               	goto	l321
  6115  07B3                     u4430:
  6116  07B3                     l3668:
  6117  07B3  1D86               	btfss	6,3	;volatile
  6118  07B4  2FB6               	goto	u4441
  6119  07B5  2FB7               	goto	u4440
  6120  07B6                     u4441:
  6121  07B6  2FC4               	goto	l321
  6122  07B7                     u4440:
  6123  07B7                     l3670:
  6124  07B7  1A06               	btfsc	6,4	;volatile
  6125  07B8  2FBA               	goto	u4451
  6126  07B9  2FBB               	goto	u4450
  6127  07BA                     u4451:
  6128  07BA  2FC4               	goto	l321
  6129  07BB                     u4450:
  6130  07BB                     l3672:
  6131                           
  6132                           ;PROYECTO.c: 545:            me_2_us1_m = minuto;
  6133  07BB  0879               	movf	_minuto,w
  6134  07BC  00BB               	movwf	??_main
  6135  07BD  083B               	movf	??_main,w
  6136  07BE  00A8               	movwf	_me_2_us1_m
  6137                           
  6138                           ;PROYECTO.c: 546:            me_2_us1_h = hora;
  6139  07BF  087A               	movf	_hora,w
  6140  07C0  00BB               	movwf	??_main
  6141  07C1  083B               	movf	??_main,w
  6142  07C2  00B1               	movwf	_me_2_us1_h
  6143                           
  6144                           ;PROYECTO.c: 547:        }else if (RB5==0 && RB3==0 && RB4==0){
  6145  07C3  2FD9               	goto	l320
  6146  07C4                     l321:
  6147  07C4  1A86               	btfsc	6,5	;volatile
  6148  07C5  2FC7               	goto	u4461
  6149  07C6  2FC8               	goto	u4460
  6150  07C7                     u4461:
  6151  07C7  2FD9               	goto	l320
  6152  07C8                     u4460:
  6153  07C8                     l3674:
  6154  07C8  1986               	btfsc	6,3	;volatile
  6155  07C9  2FCB               	goto	u4471
  6156  07CA  2FCC               	goto	u4470
  6157  07CB                     u4471:
  6158  07CB  2FD9               	goto	l320
  6159  07CC                     u4470:
  6160  07CC                     l3676:
  6161  07CC  1A06               	btfsc	6,4	;volatile
  6162  07CD  2FCF               	goto	u4481
  6163  07CE  2FD0               	goto	u4480
  6164  07CF                     u4481:
  6165  07CF  2FD9               	goto	l320
  6166  07D0                     u4480:
  6167  07D0                     l3678:
  6168                           
  6169                           ;PROYECTO.c: 548:            me_1_us1_m = minuto;
  6170  07D0  0879               	movf	_minuto,w
  6171  07D1  00BB               	movwf	??_main
  6172  07D2  083B               	movf	??_main,w
  6173  07D3  00A9               	movwf	_me_1_us1_m
  6174                           
  6175                           ;PROYECTO.c: 549:            me_1_us1_h = hora;
  6176  07D4  087A               	movf	_hora,w
  6177  07D5  00BB               	movwf	??_main
  6178  07D6  083B               	movf	??_main,w
  6179  07D7  00B2               	movwf	_me_1_us1_h
  6180  07D8  2FD9               	goto	l320
  6181  07D9                     l320:
  6182  07D9  120A  158A  2D97   	goto	l3170
  6183  07DC  120A  118A  280C   	ljmp	start
  6184  07DF                     __end_of_main:

Data Sizes:
    Strings     743
    Constant    0
    Data        0
    BSS         31
    Persistent  0
    Stack       0

Auto Spaces:
    Space          Size  Autos    Used
    COMMON           14      6      11
    BANK0            80      3      29
    BANK1            80      0       0
    BANK3            96      0       0
    BANK2            96      0       0

Pointer List with Targets:

    USART_Cadena@str	PTR unsigned char  size(2) Largest target is 52
		 -> STR_87(CODE[3]), STR_86(CODE[3]), STR_85(CODE[3]), STR_84(CODE[3]), 
		 -> STR_83(CODE[2]), STR_82(CODE[26]), STR_81(CODE[48]), STR_80(CODE[43]), 
		 -> STR_79(CODE[3]), STR_78(CODE[3]), STR_77(CODE[36]), STR_76(CODE[44]), 
		 -> STR_75(CODE[3]), STR_74(CODE[3]), STR_73(CODE[48]), STR_72(CODE[48]), 
		 -> STR_71(CODE[52]), STR_70(CODE[39]), STR_69(CODE[26]), STR_68(CODE[48]), 
		 -> STR_67(CODE[43]), STR_66(CODE[3]), STR_65(CODE[3]), STR_64(CODE[36]), 
		 -> STR_63(CODE[44]), STR_62(CODE[3]), STR_61(CODE[3]), STR_60(CODE[48]), 
		 -> STR_59(CODE[48]), STR_58(CODE[52]), STR_57(CODE[39]), STR_56(CODE[26]), 
		 -> STR_55(CODE[48]), STR_54(CODE[43]), STR_53(CODE[3]), STR_52(CODE[3]), 
		 -> STR_51(CODE[36]), STR_50(CODE[44]), STR_49(CODE[3]), STR_48(CODE[3]), 
		 -> STR_47(CODE[48]), STR_46(CODE[48]), STR_45(CODE[52]), STR_44(CODE[39]), 
		 -> STR_43(CODE[32]), STR_42(CODE[7]), STR_41(CODE[8]), STR_40(CODE[11]), 
		 -> STR_39(CODE[31]), STR_38(CODE[7]), STR_37(CODE[8]), STR_36(CODE[11]), 
		 -> STR_35(CODE[31]), STR_34(CODE[7]), STR_33(CODE[8]), STR_32(CODE[11]), 
		 -> STR_31(CODE[32]), STR_30(CODE[7]), STR_29(CODE[8]), STR_28(CODE[11]), 
		 -> STR_27(CODE[31]), STR_26(CODE[7]), STR_25(CODE[8]), STR_24(CODE[11]), 
		 -> STR_23(CODE[31]), STR_22(CODE[7]), STR_21(CODE[8]), STR_20(CODE[11]), 
		 -> STR_19(CODE[32]), STR_18(CODE[7]), STR_17(CODE[8]), STR_16(CODE[11]), 
		 -> STR_15(CODE[31]), STR_14(CODE[7]), STR_13(CODE[8]), STR_12(CODE[11]), 
		 -> STR_11(CODE[31]), STR_10(CODE[7]), STR_9(CODE[8]), STR_8(CODE[11]), 
		 -> STR_7(CODE[37]), STR_6(CODE[34]), STR_5(CODE[35]), STR_4(CODE[31]), 
		 -> STR_3(CODE[29]), STR_2(CODE[30]), STR_1(CODE[31]), 


Critical Paths under _main in COMMON

    _main->_CharToNumH
    _main->_CharToNumM
    _main->_SendCharH
    _main->_USART_Cadena
    _SendCharM->_USART_Cadena
    _USART_Cadena->_USART_Tx

Critical Paths under _isr in COMMON

    None.

Critical Paths under _main in BANK0

    _main->_CharToNumH
    _main->_SendCharM

Critical Paths under _isr in BANK0

    None.

Critical Paths under _main in BANK1

    None.

Critical Paths under _isr in BANK1

    None.

Critical Paths under _main in BANK3

    None.

Critical Paths under _isr in BANK3

    None.

Critical Paths under _main in BANK2

    None.

Critical Paths under _isr in BANK2

    None.

Call Graph Tables:

 ---------------------------------------------------------------------------------
 (Depth) Function   	        Calls       Base Space   Used Autos Params    Refs
 ---------------------------------------------------------------------------------
 (0) _main                                                 2     2      0   16801
                                              1 BANK0      2     2      0
                         _CharToNumH
                         _CharToNumM
                          _SendCharH
                          _SendCharM
                       _USART_Cadena
                           _USART_Rx
 ---------------------------------------------------------------------------------
 (1) _USART_Rx                                             0     0      0       0
 ---------------------------------------------------------------------------------
 (1) _SendCharM                                            1     1      0    8081
                                              0 BANK0      1     1      0
                       _USART_Cadena
 ---------------------------------------------------------------------------------
 (1) _USART_Cadena                                         2     0      2    7926
                                              4 COMMON     2     0      2
                           _USART_Tx
 ---------------------------------------------------------------------------------
 (2) _USART_Tx                                             1     1      0      31
                                              3 COMMON     1     1      0
 ---------------------------------------------------------------------------------
 (1) _SendCharH                                            3     3      0      22
                                              3 COMMON     3     3      0
 ---------------------------------------------------------------------------------
 (1) _CharToNumM                                           3     2      1     365
                                              3 COMMON     3     2      1
 ---------------------------------------------------------------------------------
 (1) _CharToNumH                                           4     3      1     407
                                              3 COMMON     3     2      1
                                              0 BANK0      1     1      0
 ---------------------------------------------------------------------------------
 Estimated maximum stack depth 2
 ---------------------------------------------------------------------------------
 (Depth) Function   	        Calls       Base Space   Used Autos Params    Refs
 ---------------------------------------------------------------------------------
 (4) _isr                                                  3     3      0       0
                                              0 COMMON     3     3      0
 ---------------------------------------------------------------------------------
 Estimated maximum stack depth 4
 ---------------------------------------------------------------------------------

 Call Graph Graphs:

 _main (ROOT)
   _CharToNumH
   _CharToNumM
   _SendCharH
   _SendCharM
     _USART_Cadena
       _USART_Tx
   _USART_Cadena
     _USART_Tx
   _USART_Rx

 _isr (ROOT)

 Address spaces:
Name               Size   Autos  Total    Cost      Usage
BITCOMMON            E      0       0       0        0.0%
EEDATA             100      0       0       0        0.0%
NULL                 0      0       0       0        0.0%
CODE                 0      0       0       0        0.0%
COMMON               E      6       B       1       78.6%
BITSFR0              0      0       0       1        0.0%
SFR0                 0      0       0       1        0.0%
BITSFR1              0      0       0       2        0.0%
SFR1                 0      0       0       2        0.0%
STACK                0      0       0       2        0.0%
ABS                  0      0      28       3        0.0%
BITBANK0            50      0       0       4        0.0%
BITSFR3              0      0       0       4        0.0%
SFR3                 0      0       0       4        0.0%
BANK0               50      3      1D       5       36.2%
BITSFR2              0      0       0       5        0.0%
SFR2                 0      0       0       5        0.0%
BITBANK1            50      0       0       6        0.0%
BANK1               50      0       0       7        0.0%
BITBANK3            60      0       0       8        0.0%
BANK3               60      0       0       9        0.0%
BITBANK2            60      0       0      10        0.0%
BANK2               60      0       0      11        0.0%
DATA                 0      0      28      12        0.0%


Microchip Technology PIC Macro Assembler V2.31 build 20201012212115 
Symbol Table                                                                                   Fri May 28 19:01:27 2021

                      pc 0002                       fsr 0004                      l311 0748  
                    l320 07D9                      l401 0ECD                      l321 07C4  
                    l314 0771                      l242 01E1                      l411 0EE8  
                    l404 0ED7                      l332 0BA4                      l500 0C5C  
                    l316 0786                      l180 0DB1                      l341 0BCA  
                    l309 0733                      l422 0F00                      l182 0DC7  
                    l415 0EEF                      l351 0E48                      l335 0B90  
                    l319 07AF                      l191 0037                      l512 0C63  
                    l432 0F1B                      l408 0EDE                      l184 0DDD  
                    l425 0F0A                      l329 0B9A                      l450 0F44  
                    l418 0EF9                      l346 0E3D                      l506 0C5C  
                    l186 01EF                      l443 0F33                      l371 0E7F  
                    l363 0E69                      l355 0E53                      l540 0C00  
                    l460 0F5F                      l436 0F22                      l453 0F4E  
                    l429 0F11                      l446 0F3D                      l390 0EB5  
                    l471 0F77                      l439 0F2C                      l383 0EA0  
                    l375 0E8A                      l367 0E74                      l359 0E5E  
                    l536 0D2F                      l544 0C00                      l464 0F66  
                    l481 0F92                      l457 0F55                      l474 0F81  
                    l394 0EBC                      l467 0F70                      l387 0EAB  
                    l379 0E95                      l491 0FFF                      l548 0C01  
                    l485 0F99                      l397 0EC6                      l478 0F88  
                    l494 0C05                      l488 0FA3                      _RB0 0030  
                    _RB1 0031                      _RB2 0032                      _RB3 0033  
                    _RD0 0040                      _RB4 0034                      _RD1 0041  
                    _RB5 0035                      _RD2 0042                      _RB6 0036  
                    _RB7 0037                      _isr 07DF                      fsr0 0004  
                    indf 0000               _CharToNumH 0C5D               _CharToNumM 0BCB  
                   l2100 0ED3                     l2120 0F28                     l2112 0F06  
                   l2104 0EE4                     l3000 0C52                     l3010 0C70  
                   l3002 0C60                     l3020 0C89                     l3012 0C75  
                   l3004 0C61                     l2140 0F7D                     l2132 0F5B  
                   l2124 0F39                     l2116 0F17                     l2108 0EF5  
                   l3100 0D59                     l3030 0CA2                     l3022 0C8E  
                   l3014 0C7A                     l3006 0C66                     l2070 0E3C  
                   l3110 0D67                     l3102 0D5E                     l3040 0CBB  
                   l3032 0CA7                     l3024 0C93                     l3016 0C7F  
                   l3008 0C6B                     l2144 0F8E                     l2136 0F6C  
                   l2128 0F4A                     l2080 0E6F                     l2072 0E43  
                   l3200 0DE8                     l3120 0D6C                     l3112 0D68  
                   l3104 0D5F                     l3050 0CD4                     l3042 0CC0  
                   l3034 0CAC                     l3026 0C98                     l3018 0C84  
                   l2250 0BDA                     l2090 0EA6                     l2082 0E7A  
                   l2074 0E4E                     l2154 0FAA                     l2066 0B8D  
                   l3210 0DF6                     l3202 0DEB                     l3130 0D73  
                   l3122 0D6D                     l3114 0D69                     l3106 0D60  
                   l3044 0CC5                     l3036 0CB1                     l3028 0C9D  
                   l2260 0BF5                     l2252 0BDF                     l2244 0BCC  
                   l2148 0F9F                     l2092 0EB1                     l2084 0E85  
                   l2076 0E59                     l3300 00E8                     l3220 0E1B  
                   l3212 0E01                     l3204 0DEC                     l3140 0D7F  
                   l3132 0D76                     l3124 0D6E                     l3116 0D6A  
                   l3108 0D63                     l3046 0CCA                     l3038 0CB6  
                   l3054 0CD9                     l2262 0BFB                     l2254 0BE5  
                   l2246 0BD2                     l2086 0E90                     l2078 0E64  
                   l3310 0105                     l3302 00EE                     l3230 0021  
                   l3222 0E20                     l3214 0E0B                     l3206 0DEF  
                   l3150 0D86                     l3142 0D80                     l3134 0D7A  
                   l3126 0D6F                     l3118 0D6B                     l3070 0D39  
                   l3048 0CCF                     l3056 0D2E                     l2256 0BEA  
                   l2248 0BD4                     l2096 0EC2                     l2088 0E9B  
                   l3400 023A                     l3320 0121                     l3312 010A  
                   l3304 00F4                     l3232 0027                     l3224 0E26  
                   l3216 0E0F                     l3240 003C                     l3208 0DF0  
                   l3160 0D91                     l3152 0D89                     l3144 0D83  
                   l3136 0D7B                     l3128 0D72                     l3080 0D42  
                   l3072 0D3C                     l2258 0BF0                     l3410 0261  
                   l3402 0244                     l3330 013D                     l3322 0127  
                   l3314 0110                     l3306 00F9                     l3250 005D  
                   l3242 0045                     l3234 002C                     l3226 0E2C  
                   l3218 0E15                     l3170 0D97                     l3162 0D92  
                   l3154 0D8C                     l3146 0D84                     l3138 0D7E  
                   l3090 0D54                     l3082 0D43                     l3074 0D3D  
                   l3066 0D30                     l3500 0479                     l3420 0295  
                   l3412 026A                     l3404 0247                     l3340 015A  
                   l3332 0143                     l3324 012C                     l3316 0116  
                   l3308 00FF                     l3260 0077                     l3252 0060  
                   l3244 004F                     l3236 0032                     l3228 0E31  
                   l3180 0DAF                     l3172 0D9B                     l3164 0D93  
                   l3156 0D8D                     l3148 0D85                     l3092 0D55  
                   l3084 0D47                     l3076 0D3E                     l3068 0D37  
                   l3510 04AD                     l3502 048B                     l3430 02E3  
                   l3422 029E                     l3414 0272                     l3406 0250  
                   l3350 0176                     l3342 015F                     l3334 0149  
                   l3326 0132                     l3318 011B                     l3270 0093  
                   l3262 007D                     l3254 0066                     l3246 0051  
                   l3238 0037                     l3190 0DCB                     l3182 0DB5  
                   l3174 0D9F                     l3166 0D94                     l3158 0D90  
                   l3094 0D56                     l3086 0D4E                     l3078 0D3F  
                   l3600 06C7                     l3520 04EF                     l3512 04BE  
                   l3504 0491                     l3440 030B                     l3432 02E8  
                   l3424 02A6                     l3416 027B                     l3408 0258  
                   l3360 0192                     l3352 017C                     l3344 0165  
                   l3336 014E                     l3328 0138                     l3280 00B0  
                   l3272 0099                     l3264 0082                     l3256 006C  
                   l3248 0057                     l3192 0DCC                     l3184 0DB6  
                   l3176 0DA0                     l3168 0D95                     l3096 0D57  
                   l3088 0D51                     l3610 06EF                     l3602 06D1  
                   l3530 0516                     l3522 04F8                     l3514 04D9  
                   l3506 049A                     l3450 033F                     l3442 0313  
                   l3434 02F1                     l3426 02AF                     l3418 028C  
                   l3370 01AF                     l3362 0198                     l3354 0181  
                   l3346 016B                     l3338 0154                     l3290 00CC  
                   l3282 00B5                     l3274 009F                     l3266 0088  
                   l3258 0071                     l3194 0DD6                     l3186 0DC0  
                   l3178 0DAA                     l3098 0D58                     l3620 071E  
                   l3612 06F5                     l3604 06D7                     l3540 055C  
                   l3532 053A                     l3524 04FE                     l3516 04DF  
                   l3508 04A4                     l3460 0385                     l3452 0347  
                   l3444 031C                     l3436 02F9                     l3428 02B8  
                   l3380 01CB                     l3372 01B4                     l3364 019E  
                   l3356 0187                     l3348 0170                     l3292 00D2  
                   l3284 00BB                     l3276 00A4                     l3268 008E  
                   l3196 0DDB                     l3188 0DC5                     l3630 073B  
                   l3622 0722                     l3606 06E0                     l3550 0598  
                   l3542 056D                     l3534 0540                     l3526 0507  
                   l3518 04E9                     l3470 03B0                     l3462 038E  
                   l3454 0350                     l3446 032D                     l3438 0302  
                   l3382 01D1                     l3374 01BA                     l3366 01A3  
                   l3358 018D                     l3294 00D7                     l3286 00C1  
                   l3278 00AA                     l3390 01E5                     l3198 0DE0  
                   l3632 073F                     l3640 075C                     l3624 0726  
                   l3608 06E6                     l3560 05DD                     l3552 05A1  
                   l3544 057F                     l3536 0549                     l3528 050D  
                   l3480 03E4                     l3472 03B9                     l3464 0396  
                   l3456 0359                     l3448 0336                     l3616 06FE  
                   l3392 01EC                     l3384 01D6                     l3376 01C0  
                   l3368 01A9                     l3296 00DD                     l3288 00C6  
                   l3650 0779                     l3642 0760                     l3634 074C  
                   l3626 072A                     l3570 0601                     l3562 05E3  
                   l3554 05B2                     l3546 0585                     l3538 0553  
                   l3490 0446                     l3482 03ED                     l3474 03CA  
                   l3466 039F                     l3618 071A                     l3394 01F4  
                   l3386 01DC                     l3378 01C5                     l3298 00E3  
                   l3652 077D                     l3660 079A                     l3644 0764  
                   l3636 0750                     l3628 0737                     l3580 0647  
                   l3572 060A                     l3564 05EC                     l3556 05CD  
                   l3548 058E                     l3492 044C                     l3484 03F6  
                   l3476 03D3                     l3468 03A8                     l3396 0233  
                   l3388 01E1                     l3670 07B7                     l3662 079E  
                   l3654 078A                     l3646 0768                     l3638 0754  
                   l3590 0682                     l3582 0650                     l3574 062E  
                   l3566 05F2                     l3558 05D3                     l3494 0455  
                   l3478 03DC                     l3398 0236                     l3672 07BB  
                   l3664 07A2                     l3656 078E                     l3648 0775  
                   l3592 068C                     l3584 0661                     l3576 0634  
                   l3568 05FB                     l3496 045F                     l3488 0422  
                   l3770 0CE1                     l2970 0BA0                     l3674 07C8  
                   l3666 07A6                     l3658 0792                     l3594 0695  
                   l3586 0673                     l3578 063D                     l3498 0468  
                   l2972 0BA5                     l2980 0C05                     l3676 07CC  
                   l3668 07B3                     l3596 06A6                     l3588 0679  
                   l2974 0BA6                     l2990 0C2C                     l2982 0C0B  
                   l3678 07D0                     l3766 0706                     l3598 06C1  
                   l3768 0FB2                     l2968 0B9A                     l2976 0BB4  
                   l2992 0C32                     l2984 0C12                     l2978 0BBA  
                   l2994 0C3C                     l2986 0C1C                     l2996 0C42  
                   l2988 0C22                     l2998 0C4C                     ?_isr 0070  
                   STR_1 0A2E                     STR_2 0A6C                     STR_3 0A8A  
                   STR_4 0A4D                     STR_5 098B                     STR_6 09AE  
                   STR_7 0942                     STR_8 0AC1                     STR_9 0ACC  
                   _T0IF 005A                     u2000 0F6C                     u2001 0F6B  
                   u2010 0F76                     u2011 0F75                     u2020 0F7D  
                   u2021 0F7C                     u2030 0F87                     u2031 0F86  
                   u2040 0F8E                     u2041 0F8D                     u2050 0F98  
                   u2051 0F97                     u2140 0BD2                     u2060 0F9F  
                   u2141 0BD1                     u2061 0F9E                     u2150 0BDA  
                   u2070 0FA9                     u2151 0BD9                     u2071 0FA8  
                   u2160 0BE5                     u4000 01D1                     u2161 0BE4  
                   u4001 01D0                     u2170 0BF0                     u4010 01DC  
                   u2171 0BEF                     u4011 01DB                     u2180 0BFB  
                   u1700 0E59                     u4100 0540                     u4020 01F4  
                   u2181 0BFA                     u1701 0E58                     u4101 053F  
                   u4021 01F3                     u1710 0E64                     u3310 0BA0  
                   u4110 0585                     u4030 023A                     u1711 0E63  
                   u3311 0B9F                     u4111 0584                     u4031 0239  
                   u1800 0EC2                     u1720 0E6F                     u3320 0BCA  
                   u4200 06E6                     u4120 05D3                     u4040 044C  
                   u3400 0D9F                     u1801 0EC1                     u1721 0E6E  
                   u3321 0BC9                     u4201 06E5                     u4121 05D2  
                   u4041 044B                     u3401 0D9E                     u1810 0ECC  
                   u1730 0E7A                     u3330 0C0B                     u4210 06F5  
                   u4130 05E3                     u4050 0491                     u3410 0DB5  
                   u1811 0ECB                     u1731 0E79                     u3331 0C0A  
                   u4211 06F4                     u4131 05E2                     u4051 0490  
                   u3411 0DB4                     u1900 0F17                     u1820 0ED3  
                   u1740 0E85                     u3340 0C12                     u4300 0754  
                   u4220 0722                     u4140 05F2                     u4060 04DF  
                   u3500 0021                     u3420 0DCB                     u1901 0F16  
                   u1821 0ED2                     u1741 0E84                     u3341 0C11  
                   u4301 0753                     u4221 0721                     u4141 05F1  
                   u4061 04DE                     u3501 0E38                     u3421 0DCA  
                   u1910 0F21                     u1830 0EDD                     u1750 0E90  
                   u3350 0C22                     u4310 0760                     u4230 0726  
                   u4150 0601                     u4070 04EF                     u3510 0027  
                   u3430 0DF6                     u1911 0F20                     u1831 0EDC  
                   u1751 0E8F                     u3351 0C21                     u4311 075F  
                   u4231 0725                     u4151 0600                     u4071 04EE  
                   u3511 0026                     u3431 0DF3                     u1920 0F28  
                   u1840 0EE4                     u1760 0E9B                     u1680 0E43  
                   u3360 0C32                     u4400 079E                     u4320 0764  
                   u4240 072A                     u4160 0634                     u4080 04FE  
                   u3600 007D                     u3520 0032                     u3440 0E01  
                   u1921 0F27                     u1841 0EE3                     u1761 0E9A  
                   u1681 0E42                     u3361 0C31                     u4401 079D  
                   u4321 0763                     u4241 0729                     u4161 0633  
                   u4081 04FD                     u3601 007C                     u3521 0031  
                   u3441 0DFE                     u1930 0F32                     u1850 0EEE  
                   u1770 0EA6                     u1690 0E4E                     u3370 0C42  
                   u4410 07A2                     u4330 0768                     u4250 0737  
                   u4170 0679                     u4090 050D                     u3610 0088  
                   u3530 0045                     u3450 0E0B                     u1931 0F31  
                   u1851 0EED                     u1771 0EA5                     u1691 0E4D  
                   u3371 0C41                     u4411 07A1                     u4331 0767  
                   u4251 0736                     u4171 0678                     u4091 050C  
                   u3611 0087                     u3531 0044                     u3451 0E0A  
                   u1940 0F39                     u1860 0EF5                     u1780 0EB1  
                   u3380 0C52                     u4420 07A6                     u4340 0775  
                   u4260 073B                     u4180 06C7                     u3700 00D2  
                   u3620 008E                     u3540 004F                     u3460 0E15  
                   u1941 0F38                     u1861 0EF4                     u1781 0EB0  
                   u3381 0C51                     u4421 07A5                     u4341 0774  
                   u4261 073A                     u4181 06C6                     u3701 00D1  
                   u3621 008D                     u3541 004E                     u3461 0E14  
                   u1950 0F43                     u1870 0EFF                     u1790 0EBB  
                   u4430 07B3                     u4350 0779                     u4270 073F  
                   u4190 06D7                     u3710 00DD                     u3630 0099  
                   u3550 0057                     u3470 0E1B                     u3390 0D9B  
                   u1951 0F42                     u1871 0EFE                     u1791 0EBA  
                   u4431 07B2                     u4351 0778                     u4271 073E  
                   u4191 06D6                     u3711 00DC                     u3631 0098  
                   u3551 0056                     u3471 0E1A                     u3391 0D9A  
                   u1960 0F4A                     u1880 0F06                     u4440 07B7  
                   u4360 077D                     u4280 074C                     u3800 0127  
                   u3720 00E3                     u3640 009F                     u3560 005D  
                   u3480 0E26                     u1961 0F49                     u1881 0F05  
                   u4441 07B6                     u4361 077C                     u4281 074B  
                   u3801 0126                     u3721 00E2                     u3641 009E  
                   u3561 005C                     u3481 0E25                     u1970 0F54  
                   u1890 0F10                     u4450 07BB                     u4370 078A  
                   u4290 0750                     u3810 0132                     u3730 00EE  
                   u3650 00AA                     u3570 0066                     u3490 0E2C  
                   u1971 0F53                     u1891 0F0F                     u4451 07BA  
                   u4371 0789                     u4291 074F                     u3811 0131  
                   u3731 00ED                     u3651 00A9                     u3571 0065  
                   u3491 0E2B                     u4507 0DA6                     u1980 0F5B  
                   u4460 07C8                     u4380 078E                     u3900 017C  
                   u3820 0138                     u3740 00F4                     u3660 00B0  
                   u3580 006C                     u1981 0F5A                     u4461 07C7  
                   u4381 078D                     u3901 017B                     u3821 0137  
                   u3741 00F3                     u3661 00AF                     u3581 006B  
                   u4517 0DBC                     u1990 0F65                     u4470 07CC  
                   u4390 0792                     u3910 0187                     u3830 0143  
                   u3750 00FF                     u3670 00BB                     u3590 0077  
                   u1991 0F64                     u4471 07CB                     u4391 0791  
                   u3911 0186                     u3831 0142                     u3751 00FE  
                   u3671 00BA                     u3591 0076                     u4527 0DD2  
                   u4480 07D0                     u3920 018D                     u3840 0149  
                   u3760 0105                     u3680 00C1                     u4481 07CF  
                   u3921 018C                     u3841 0148                     u3761 0104  
                   u3681 00C0                     u4537 0DE4                     u3930 0198  
                   u3850 0154                     u3770 0110                     u3690 00CC  
                   u4547 01E9                     u3931 0197                     u3851 0153  
                   u3771 010F                     u3691 00CB                     u3940 019E  
                   u3860 015A                     u3780 0116                     u3941 019D  
                   u3861 0159                     u3781 0115                     u3950 01A9  
                   u3870 0165                     u3790 0121                     u3951 01A8  
                   u3871 0164                     u3791 0120                     u3960 01AF  
                   u3880 016B                     u3961 01AE                     u3881 016A  
                   u4497 0D4B                     u3970 01BA                     u3890 0176  
                   u3971 01B9                     u3891 0175                     u3980 01C0  
                   u3981 01BF                     u3990 01CB                     u3991 01CA  
                   _TMR0 0001                     _cont 0020                     _main 0D30  
                   _hora 007A                     btemp 007E                     start 000C  
                  ??_isr 0070                    ?_main 0070                    STR_10 0AD4  
                  STR_11 09F0                    STR_20 0AC1                    STR_12 0AC1  
                  STR_21 0ACC                    STR_13 0ACC                    STR_30 0AD4  
                  STR_22 0AD4                    STR_14 0AD4                    STR_31 09D0  
                  STR_23 09F0                    STR_15 0A0F                    STR_40 0AC1  
                  STR_32 0AC1                    STR_24 0AC1                    STR_16 0AC1  
                  STR_41 0ACC                    STR_33 0ACC                    STR_25 0ACC  
                  STR_17 0ACC                    STR_42 0AD4                    STR_34 0AD4  
                  STR_26 0AD4                    STR_18 0AD4                    STR_50 08C4  
                  STR_43 09D0                    STR_35 09F0                    STR_27 0A0F  
                  STR_19 09D0                    STR_51 0967                    STR_52 0988  
                  STR_60 0864                    STR_36 0AC1                    STR_28 0AC1  
                  STR_44 091B                    STR_61 0988                    STR_53 0988  
                  STR_37 0ACC                    STR_29 0ACC                    STR_45 0800  
                  STR_62 0988                    STR_70 091B                    STR_38 0AD4  
                  STR_54 08F0                    STR_46 0894                    STR_63 08C4  
                  STR_39 0A0F                    STR_71 0800                    STR_47 0864  
                  STR_55 0834                    STR_48 0988                    STR_64 0967  
                  STR_72 0894                    STR_80 08F0                    STR_56 0AA7  
                  STR_65 0988                    STR_49 0988                    STR_57 091B  
                  STR_81 0834                    STR_73 0864                    STR_74 0988  
                  STR_66 0988                    STR_82 0AA7                    STR_58 0800  
                  STR_75 0988                    STR_59 0894                    STR_67 08F0  
                  STR_83 0ADC                    STR_76 08C4                    STR_68 0834  
                  STR_84 0ADE                    STR_77 0967                    STR_69 0AA7  
                  STR_85 0ADB                    STR_78 0988                    STR_86 0AE1  
                  STR_79 0988                    STR_87 0AE4                    _ANSEL 0188  
                  i1l173 07F9                    _RCREG 001A                    _TMR1H 000F  
                  _TMR1L 000E                    _SPBRG 0099                    _PORTA 0005  
                  _PORTB 0006                    _PORTC 0007                    _PORTD 0008  
                  _PORTE 0009                    _TRISA 0085                    _TRISB 0086  
                  _TRISD 0088                    _TRISE 0089                    _TXREG 0019  
                  _valor 0039         __end_of_USART_Rx 0B91         __end_of_USART_Tx 0BA5  
           USART_Tx@data 0073                    pclath 000A                    status 0003  
                  wtemp0 007E          __initialization 000F             __end_of_main 07DF  
                 ??_main 003B              ?_CharToNumH 0073              ?_CharToNumM 0073  
                 _ADRESH 001E                   _ANSELH 0189                   i1l2270 07EF  
                 i1l2272 07F0                   i1l2274 07F1                   i1l2266 07DF  
                 i1l2276 07F2                   i1l2268 07E5                   u220_20 07EF  
                 u220_21 07EE                   u219_20 07E5                   u219_21 07E4  
                 _TMR1IE 0460                   _TMR1IF 0060                   _SPBRGH 009A  
     __size_of_SendCharH 01C5       __size_of_SendCharM 005B                   _escala 0078  
                 _minuto 0079              SendCharH@in 0075              SendCharM@in 003A  
                 saved_w 007E  __end_of__initialization 001D           __pcstackCOMMON 0070  
    __size_of_CharToNumH 00D3      __size_of_CharToNumM 0037                ?_USART_Rx 0070  
              ?_USART_Tx 0070           _OPTION_REGbits 0081        __end_of_SendCharH 1000  
      __end_of_SendCharM 0C5D               __pbssBANK0 0020               _me_1_us1_h 0032  
             _me_1_us2_h 002F               _me_1_us1_m 0029               _me_1_us3_h 002C  
             _me_1_us2_m 0026               _me_1_us3_m 0023               _me_2_us1_h 0031  
             _me_2_us2_h 002E               _me_2_us1_m 0028               _me_2_us3_h 002B  
             _me_2_us2_m 0025               _me_2_us3_m 0022               _me_3_us1_h 0030  
             _me_3_us2_h 002D               _me_3_us1_m 0027               _me_3_us3_h 002A  
             _me_3_us2_m 0024               _me_3_us3_m 0021               __pmaintext 0D30  
             __pintentry 0004               ??_USART_Rx 0073               ??_USART_Tx 0073  
             __stringtab 0AE7               _hora_nueva 0076               _hora_user1 0035  
             _hora_user2 0034               _hora_user3 0033                  __ptext1 0B8D  
                __ptext2 0C02                  __ptext3 0BA5                  __ptext4 0B99  
                __ptext5 0E3B                  __ptext6 0BCB                  __ptext7 0C5D  
                __ptext8 07DF                _T1CONbits 0010             __size_of_isr 0021  
                _ventana 0038             ??_CharToNumH 0074             ??_CharToNumM 0074  
                clrloop0 0B92      CharToNumH@hora_user 0073     end_of_initialization 001D  
           CharToNumH@in 003A             CharToNumM@in 0075                _RCSTAbits 0018  
                psplit$0 A0015             __pstringtext 0800       __end_of_CharToNumH 0D30  
     __end_of_CharToNumM 0C02     pnum$maintext_split_1 0015            ?_USART_Cadena 0074  
              _TXSTAbits 0098              _BAUDCTLbits 0187        __size_of_USART_Rx 0004  
      __size_of_USART_Tx 000C      start_initialization 000F              __end_of_isr 0800  
         ??_USART_Cadena 0076                _SendCharH 0E3B                _SendCharM 0C02  
            __pbssCOMMON 0076                ___latbits 0002            __pcstackBANK0 003A  
             ?_SendCharH 0070               ?_SendCharM 0070                __pstrings 0AE7  
              _min_user1 0077                _min_user2 0037                _min_user3 0036  
      interrupt_function 0004                clear_ram0 0B91                 _PIE1bits 008C  
               _PIR1bits 000C          USART_Cadena@str 0074     __end_of_USART_Cadena 0BCB  
               _USART_Rx 0B8D                 _USART_Tx 0B99               _ADCON0bits 001F  
            __stringbase 0AF9               _ADCON1bits 009F                 _WPUBbits 0095  
            ??_SendCharH 0073              ??_SendCharM 0076             pnum$maintext 000A  
     __end_of__stringtab 0AF9            __size_of_main FAAF               _INTCONbits 000B  
          CharToNumM@her 0073                 intlevel1 0000                stringcode 0AF1  
  __size_of_USART_Cadena 0026               _OSCCONbits 008F                 stringtab 0AE7  
           _USART_Cadena 0BA5  
