

Microchip MPLAB XC8 Assembler V2.31 build 20201012212115 
                                                                                               Mon Jun 28 19:33:53 2021

Microchip MPLAB XC8 C Compiler v2.31 (Free license) build 20201012212115 Og1 
     1                           	processor	16F887
     2                           	pagewidth 120
     3                           	opt	flic
     4                           	psect	strings,global,class=STRING,delta=2,noexec
     5                           	psect	stringtext,global,reloc=256,class=STRCODE,delta=2,noexec
     6                           	psect	cinit,global,class=CODE,merge=1,delta=2
     7                           	psect	bssCOMMON,global,class=COMMON,space=1,delta=1,noexec
     8                           	psect	bssBANK0,global,class=BANK0,space=1,delta=1,noexec
     9                           	psect	clrtext,global,class=CODE,delta=2
    10                           	psect	cstackCOMMON,global,class=COMMON,space=1,delta=1,noexec
    11                           	psect	cstackBANK0,global,class=BANK0,space=1,delta=1,noexec
    12                           	psect	maintext,global,class=CODE,split=1,delta=2
    13                           	psect	text1,local,class=CODE,merge=1,delta=2
    14                           	psect	text2,local,class=CODE,merge=1,delta=2
    15                           	psect	text3,local,class=CODE,merge=1,delta=2
    16                           	psect	text4,local,class=CODE,merge=1,delta=2
    17                           	psect	text5,local,class=CODE,merge=1,delta=2
    18                           	psect	text6,local,class=CODE,merge=1,delta=2
    19                           	psect	text7,local,class=CODE,merge=1,delta=2
    20                           	psect	text8,local,class=CODE,merge=1,delta=2
    21                           	psect	text9,local,class=CODE,merge=1,delta=2
    22                           	psect	text10,local,class=CODE,merge=1,delta=2
    23                           	psect	intentry,global,class=CODE,delta=2
    24                           	psect	config,global,abs,ovrld,class=CONFIG,space=4,delta=2,noexec
    25                           	psect	maintext_split_1,global,class=CODE,split=1,delta=2
    26                           	psect	maintext_split_2,global,class=CODE,split=1,delta=2
    27                           	psect	maintext_split_3,global,class=CODE,split=1,delta=2
    28                           	psect	maintext_split_4,global,class=CODE,split=1,delta=2
    29                           	dabs	1,0x7E,2
    30  0000                     
    31                           ; Version 2.20
    32                           ; Generated 12/02/2020 GMT
    33                           ; 
    34                           ; Copyright © 2020, Microchip Technology Inc. and its subsidiaries ("Microchip")
    35                           ; All rights reserved.
    36                           ; 
    37                           ; This software is developed by Microchip Technology Inc. and its subsidiaries ("Microch
      +                          ip").
    38                           ; 
    39                           ; Redistribution and use in source and binary forms, with or without modification, are
    40                           ; permitted provided that the following conditions are met:
    41                           ; 
    42                           ;     1. Redistributions of source code must retain the above copyright notice, this lis
      +                          t of
    43                           ;        conditions and the following disclaimer.
    44                           ; 
    45                           ;     2. Redistributions in binary form must reproduce the above copyright notice, this 
      +                          list
    46                           ;        of conditions and the following disclaimer in the documentation and/or other
    47                           ;        materials provided with the distribution.
    48                           ; 
    49                           ;     3. Microchip's name may not be used to endorse or promote products derived from th
      +                          is
    50                           ;        software without specific prior written permission.
    51                           ; 
    52                           ; THIS SOFTWARE IS PROVIDED BY MICROCHIP "AS IS" AND ANY EXPRESS OR IMPLIED WARRANTIES,
    53                           ; INCLUDING, BUT NOT LIMITED TO, THE IMPLIED WARRANTIES OF MERCHANTABILITY AND FITNESS F
      +                          OR
    54                           ; PURPOSE ARE DISCLAIMED.  IN NO EVENT SHALL MICROCHIP BE LIABLE FOR ANY DIRECT, INDIREC
      +                          T,
    55                           ; INCIDENTAL, SPECIAL, EXEMPLARY, OR CONSEQUENTIAL DAMAGES (INCLUDING BUT NOT LIMITED TO
    56                           ; PROCUREMENT OF SUBSTITUTE GOODS OR SERVICES; LOSS OF USE, DATA OR PROFITS; OR BUSINESS
    57                           ; INTERRUPTION) HOWSOEVER CAUSED AND ON ANY THEORY OF LIABILITY, WHETHER IN CONTRACT, ST
      +                          RICT
    58                           ; LIABILITY, OR TORT (INCLUDING NEGLIGENCE OR OTHERWISE) ARISING IN ANY WAY OUT OF THE U
      +                          SE OF
    59                           ; THIS SOFTWARE, EVEN IF ADVISED OF THE POSSIBILITY OF SUCH DAMAGE.
    60                           ; 
    61                           ; 
    62                           ; Code-generator required, PIC16F887 Definitions
    63                           ; 
    64                           ; SFR Addresses
    65  0000                     	;# 
    66  0001                     	;# 
    67  0002                     	;# 
    68  0003                     	;# 
    69  0004                     	;# 
    70  0005                     	;# 
    71  0006                     	;# 
    72  0007                     	;# 
    73  0008                     	;# 
    74  0009                     	;# 
    75  000A                     	;# 
    76  000B                     	;# 
    77  000C                     	;# 
    78  000D                     	;# 
    79  000E                     	;# 
    80  000E                     	;# 
    81  000F                     	;# 
    82  0010                     	;# 
    83  0011                     	;# 
    84  0012                     	;# 
    85  0013                     	;# 
    86  0014                     	;# 
    87  0015                     	;# 
    88  0015                     	;# 
    89  0016                     	;# 
    90  0017                     	;# 
    91  0018                     	;# 
    92  0019                     	;# 
    93  001A                     	;# 
    94  001B                     	;# 
    95  001B                     	;# 
    96  001C                     	;# 
    97  001D                     	;# 
    98  001E                     	;# 
    99  001F                     	;# 
   100  0081                     	;# 
   101  0085                     	;# 
   102  0086                     	;# 
   103  0087                     	;# 
   104  0088                     	;# 
   105  0089                     	;# 
   106  008C                     	;# 
   107  008D                     	;# 
   108  008E                     	;# 
   109  008F                     	;# 
   110  0090                     	;# 
   111  0091                     	;# 
   112  0092                     	;# 
   113  0093                     	;# 
   114  0093                     	;# 
   115  0093                     	;# 
   116  0094                     	;# 
   117  0095                     	;# 
   118  0096                     	;# 
   119  0097                     	;# 
   120  0098                     	;# 
   121  0099                     	;# 
   122  009A                     	;# 
   123  009B                     	;# 
   124  009C                     	;# 
   125  009D                     	;# 
   126  009E                     	;# 
   127  009F                     	;# 
   128  0105                     	;# 
   129  0107                     	;# 
   130  0108                     	;# 
   131  0109                     	;# 
   132  010C                     	;# 
   133  010C                     	;# 
   134  010D                     	;# 
   135  010E                     	;# 
   136  010F                     	;# 
   137  0185                     	;# 
   138  0187                     	;# 
   139  0188                     	;# 
   140  0189                     	;# 
   141  018C                     	;# 
   142  018D                     	;# 
   143  0000                     	;# 
   144  0001                     	;# 
   145  0002                     	;# 
   146  0003                     	;# 
   147  0004                     	;# 
   148  0005                     	;# 
   149  0006                     	;# 
   150  0007                     	;# 
   151  0008                     	;# 
   152  0009                     	;# 
   153  000A                     	;# 
   154  000B                     	;# 
   155  000C                     	;# 
   156  000D                     	;# 
   157  000E                     	;# 
   158  000E                     	;# 
   159  000F                     	;# 
   160  0010                     	;# 
   161  0011                     	;# 
   162  0012                     	;# 
   163  0013                     	;# 
   164  0014                     	;# 
   165  0015                     	;# 
   166  0015                     	;# 
   167  0016                     	;# 
   168  0017                     	;# 
   169  0018                     	;# 
   170  0019                     	;# 
   171  001A                     	;# 
   172  001B                     	;# 
   173  001B                     	;# 
   174  001C                     	;# 
   175  001D                     	;# 
   176  001E                     	;# 
   177  001F                     	;# 
   178  0081                     	;# 
   179  0085                     	;# 
   180  0086                     	;# 
   181  0087                     	;# 
   182  0088                     	;# 
   183  0089                     	;# 
   184  008C                     	;# 
   185  008D                     	;# 
   186  008E                     	;# 
   187  008F                     	;# 
   188  0090                     	;# 
   189  0091                     	;# 
   190  0092                     	;# 
   191  0093                     	;# 
   192  0093                     	;# 
   193  0093                     	;# 
   194  0094                     	;# 
   195  0095                     	;# 
   196  0096                     	;# 
   197  0097                     	;# 
   198  0098                     	;# 
   199  0099                     	;# 
   200  009A                     	;# 
   201  009B                     	;# 
   202  009C                     	;# 
   203  009D                     	;# 
   204  009E                     	;# 
   205  009F                     	;# 
   206  0105                     	;# 
   207  0107                     	;# 
   208  0108                     	;# 
   209  0109                     	;# 
   210  010C                     	;# 
   211  010C                     	;# 
   212  010D                     	;# 
   213  010E                     	;# 
   214  010F                     	;# 
   215  0185                     	;# 
   216  0187                     	;# 
   217  0188                     	;# 
   218  0189                     	;# 
   219  018C                     	;# 
   220  018D                     	;# 
   221  000D                     _PIR2bits	set	13
   222  001A                     _RCREG	set	26
   223  0019                     _TXREG	set	25
   224  001E                     _ADRESH	set	30
   225  0009                     _PORTE	set	9
   226  0008                     _PORTD	set	8
   227  0007                     _PORTC	set	7
   228  0006                     _PORTB	set	6
   229  0005                     _PORTA	set	5
   230  000C                     _PIR1bits	set	12
   231  000B                     _INTCONbits	set	11
   232  0018                     _RCSTAbits	set	24
   233  0010                     _T1CONbits	set	16
   234  0001                     _TMR0	set	1
   235  001F                     _ADCON0bits	set	31
   236  000E                     _TMR1L	set	14
   237  000F                     _TMR1H	set	15
   238  0035                     _RB5	set	53
   239  0036                     _RB6	set	54
   240  0034                     _RB4	set	52
   241  0033                     _RB3	set	51
   242  0037                     _RB7	set	55
   243  002F                     _RA7	set	47
   244  0042                     _RD2	set	66
   245  0032                     _RB2	set	50
   246  0041                     _RD1	set	65
   247  0031                     _RB1	set	49
   248  0028                     _RA0	set	40
   249  0040                     _RD0	set	64
   250  0030                     _RB0	set	48
   251  005A                     _T0IF	set	90
   252  0060                     _TMR1IF	set	96
   253  008C                     _PIE1bits	set	140
   254  009A                     _SPBRGH	set	154
   255  0099                     _SPBRG	set	153
   256  0098                     _TXSTAbits	set	152
   257  008F                     _OSCCONbits	set	143
   258  0095                     _WPUBbits	set	149
   259  0081                     _OPTION_REGbits	set	129
   260  009F                     _ADCON1bits	set	159
   261  0089                     _TRISE	set	137
   262  0088                     _TRISD	set	136
   263  0086                     _TRISB	set	134
   264  0085                     _TRISA	set	133
   265  0460                     _TMR1IE	set	1120
   266  010C                     _EEDAT	set	268
   267  010D                     _EEADR	set	269
   268  018D                     _EECON2	set	397
   269  018C                     _EECON1bits	set	396
   270  0187                     _BAUDCTLbits	set	391
   271  0189                     _ANSELH	set	393
   272  0188                     _ANSEL	set	392
   273                           
   274                           	psect	strings
   275  07EB                     __pstrings:
   276  07EB                     stringtab:
   277  07EB                     __stringtab:
   278                           
   279                           ;	String table - string pointers are 2 bytes each
   280  07EB  1BFF               	btfsc	btemp+1,7
   281  07EC  2FF5               	ljmp	stringcode
   282  07ED  1383               	bcf	3,7
   283  07EE  187F               	btfsc	btemp+1,0
   284  07EF  1783               	bsf	3,7
   285  07F0  0800               	movf	0,w
   286  07F1  0A84               	incf	4,f
   287  07F2  1903               	skipnz
   288  07F3  0AFF               	incf	btemp+1,f
   289  07F4  0008               	return
   290  07F5                     stringcode:
   291  07F5  087F               	movf	btemp+1,w
   292  07F6  397F               	andlw	127
   293  07F7  008A               	movwf	10
   294  07F8  0804               	movf	4,w
   295  07F9  0A84               	incf	4,f
   296  07FA  1903               	skipnz
   297  07FB  0AFF               	incf	btemp+1,f
   298  07FC  0082               	movwf	2
   299  07FD                     __stringbase:
   300  07FD                     __end_of__stringtab:
   301                           
   302                           	psect	stringtext
   303  0800                     __pstringtext:
   304  0800                     STR_46:
   305  0800  3420               	retlw	32	;' '
   306  0801  3461               	retlw	97	;'a'
   307  0802  342E               	retlw	46	;'.'
   308  0803  3430               	retlw	48	;'0'
   309  0804  3420               	retlw	32	;' '
   310  0805  3420               	retlw	32	;' '
   311  0806  3462               	retlw	98	;'b'
   312  0807  342E               	retlw	46	;'.'
   313  0808  3431               	retlw	49	;'1'
   314  0809  3420               	retlw	32	;' '
   315  080A  3420               	retlw	32	;' '
   316  080B  3420               	retlw	32	;' '
   317  080C  3463               	retlw	99	;'c'
   318  080D  342E               	retlw	46	;'.'
   319  080E  3432               	retlw	50	;'2'
   320  080F  3420               	retlw	32	;' '
   321  0810  3420               	retlw	32	;' '
   322  0811  3420               	retlw	32	;' '
   323  0812  3464               	retlw	100	;'d'
   324  0813  342E               	retlw	46	;'.'
   325  0814  3433               	retlw	51	;'3'
   326  0815  3420               	retlw	32	;' '
   327  0816  3420               	retlw	32	;' '
   328  0817  3420               	retlw	32	;' '
   329  0818  3465               	retlw	101	;'e'
   330  0819  342E               	retlw	46	;'.'
   331  081A  3434               	retlw	52	;'4'
   332  081B  3420               	retlw	32	;' '
   333  081C  3420               	retlw	32	;' '
   334  081D  3420               	retlw	32	;' '
   335  081E  3466               	retlw	102	;'f'
   336  081F  342E               	retlw	46	;'.'
   337  0820  3435               	retlw	53	;'5'
   338  0821  3420               	retlw	32	;' '
   339  0822  3420               	retlw	32	;' '
   340  0823  3420               	retlw	32	;' '
   341  0824  3467               	retlw	103	;'g'
   342  0825  342E               	retlw	46	;'.'
   343  0826  3436               	retlw	54	;'6'
   344  0827  3420               	retlw	32	;' '
   345  0828  3420               	retlw	32	;' '
   346  0829  3420               	retlw	32	;' '
   347  082A  3468               	retlw	104	;'h'
   348  082B  342E               	retlw	46	;'.'
   349  082C  3437               	retlw	55	;'7'
   350  082D  3420               	retlw	32	;' '
   351  082E  3420               	retlw	32	;' '
   352  082F  3469               	retlw	105	;'i'
   353  0830  342E               	retlw	46	;'.'
   354  0831  3438               	retlw	56	;'8'
   355  0832  340D               	retlw	13
   356  0833  340A               	retlw	10
   357  0834  3400               	retlw	0
   358  0835                     STR_72:
   359  0835  3420               	retlw	32	;' '
   360  0836  3461               	retlw	97	;'a'
   361  0837  342E               	retlw	46	;'.'
   362  0838  3430               	retlw	48	;'0'
   363  0839  3420               	retlw	32	;' '
   364  083A  3420               	retlw	32	;' '
   365  083B  3462               	retlw	98	;'b'
   366  083C  342E               	retlw	46	;'.'
   367  083D  3431               	retlw	49	;'1'
   368  083E  3420               	retlw	32	;' '
   369  083F  3420               	retlw	32	;' '
   370  0840  3420               	retlw	32	;' '
   371  0841  3463               	retlw	99	;'c'
   372  0842  342E               	retlw	46	;'.'
   373  0843  3432               	retlw	50	;'2'
   374  0844  3420               	retlw	32	;' '
   375  0845  3420               	retlw	32	;' '
   376  0846  3420               	retlw	32	;' '
   377  0847  3464               	retlw	100	;'d'
   378  0848  342E               	retlw	46	;'.'
   379  0849  3433               	retlw	51	;'3'
   380  084A  3420               	retlw	32	;' '
   381  084B  3420               	retlw	32	;' '
   382  084C  3420               	retlw	32	;' '
   383  084D  3465               	retlw	101	;'e'
   384  084E  342E               	retlw	46	;'.'
   385  084F  3434               	retlw	52	;'4'
   386  0850  3420               	retlw	32	;' '
   387  0851  3420               	retlw	32	;' '
   388  0852  3420               	retlw	32	;' '
   389  0853  3466               	retlw	102	;'f'
   390  0854  342E               	retlw	46	;'.'
   391  0855  3435               	retlw	53	;'5'
   392  0856  3420               	retlw	32	;' '
   393  0857  3420               	retlw	32	;' '
   394  0858  3420               	retlw	32	;' '
   395  0859  3467               	retlw	103	;'g'
   396  085A  342E               	retlw	46	;'.'
   397  085B  3436               	retlw	54	;'6'
   398  085C  3420               	retlw	32	;' '
   399  085D  3420               	retlw	32	;' '
   400  085E  3468               	retlw	104	;'h'
   401  085F  342E               	retlw	46	;'.'
   402  0860  3437               	retlw	55	;'7'
   403  0861  3420               	retlw	32	;' '
   404  0862  3420               	retlw	32	;' '
   405  0863  3469               	retlw	105	;'i'
   406  0864  342E               	retlw	46	;'.'
   407  0865  3438               	retlw	56	;'8'
   408  0866  340D               	retlw	13
   409  0867  340A               	retlw	10
   410  0868  3400               	retlw	0
   411  0869                     STR_8:
   412  0869  3437               	retlw	55	;'7'
   413  086A  3429               	retlw	41	;')'
   414  086B  3420               	retlw	32	;' '
   415  086C  344D               	retlw	77	;'M'
   416  086D  346F               	retlw	111	;'o'
   417  086E  3473               	retlw	115	;'s'
   418  086F  3474               	retlw	116	;'t'
   419  0870  3472               	retlw	114	;'r'
   420  0871  3461               	retlw	97	;'a'
   421  0872  3472               	retlw	114	;'r'
   422  0873  3420               	retlw	32	;' '
   423  0874  3463               	retlw	99	;'c'
   424  0875  3461               	retlw	97	;'a'
   425  0876  346E               	retlw	110	;'n'
   426  0877  3474               	retlw	116	;'t'
   427  0878  3469               	retlw	105	;'i'
   428  0879  3464               	retlw	100	;'d'
   429  087A  3461               	retlw	97	;'a'
   430  087B  3464               	retlw	100	;'d'
   431  087C  3420               	retlw	32	;' '
   432  087D  3464               	retlw	100	;'d'
   433  087E  3465               	retlw	101	;'e'
   434  087F  3420               	retlw	32	;' '
   435  0880  346D               	retlw	109	;'m'
   436  0881  3465               	retlw	101	;'e'
   437  0882  3464               	retlw	100	;'d'
   438  0883  3469               	retlw	105	;'i'
   439  0884  3463               	retlw	99	;'c'
   440  0885  3461               	retlw	97	;'a'
   441  0886  346D               	retlw	109	;'m'
   442  0887  3465               	retlw	101	;'e'
   443  0888  346E               	retlw	110	;'n'
   444  0889  3474               	retlw	116	;'t'
   445  088A  346F               	retlw	111	;'o'
   446  088B  3420               	retlw	32	;' '
   447  088C  3464               	retlw	100	;'d'
   448  088D  3469               	retlw	105	;'i'
   449  088E  3473               	retlw	115	;'s'
   450  088F  3470               	retlw	112	;'p'
   451  0890  3465               	retlw	101	;'e'
   452  0891  346E               	retlw	110	;'n'
   453  0892  3473               	retlw	115	;'s'
   454  0893  3461               	retlw	97	;'a'
   455  0894  3464               	retlw	100	;'d'
   456  0895  346F               	retlw	111	;'o'
   457  0896  3420               	retlw	32	;' '
   458  0897  340D               	retlw	13
   459  0898  340D               	retlw	13
   460  0899  340A               	retlw	10
   461  089A  340A               	retlw	10
   462  089B  3400               	retlw	0
   463  089C                     STR_56:
   464  089C  3420               	retlw	32	;' '
   465  089D  3470               	retlw	112	;'p'
   466  089E  3472               	retlw	114	;'r'
   467  089F  3465               	retlw	101	;'e'
   468  08A0  3473               	retlw	115	;'s'
   469  08A1  3469               	retlw	105	;'i'
   470  08A2  346F               	retlw	111	;'o'
   471  08A3  346E               	retlw	110	;'n'
   472  08A4  3465               	retlw	101	;'e'
   473  08A5  3420               	retlw	32	;' '
   474  08A6  3465               	retlw	101	;'e'
   475  08A7  346C               	retlw	108	;'l'
   476  08A8  3420               	retlw	32	;' '
   477  08A9  346E               	retlw	110	;'n'
   478  08AA  34C3               	retlw	-61
   479  08AB  34BA               	retlw	-70
   480  08AC  346D               	retlw	109	;'m'
   481  08AD  3465               	retlw	101	;'e'
   482  08AE  3472               	retlw	114	;'r'
   483  08AF  346F               	retlw	111	;'o'
   484  08B0  3420               	retlw	32	;' '
   485  08B1  3464               	retlw	100	;'d'
   486  08B2  3465               	retlw	101	;'e'
   487  08B3  3420               	retlw	32	;' '
   488  08B4  346D               	retlw	109	;'m'
   489  08B5  3465               	retlw	101	;'e'
   490  08B6  3464               	retlw	100	;'d'
   491  08B7  3469               	retlw	105	;'i'
   492  08B8  3463               	retlw	99	;'c'
   493  08B9  3461               	retlw	97	;'a'
   494  08BA  346D               	retlw	109	;'m'
   495  08BB  3465               	retlw	101	;'e'
   496  08BC  346E               	retlw	110	;'n'
   497  08BD  3474               	retlw	116	;'t'
   498  08BE  346F               	retlw	111	;'o'
   499  08BF  3420               	retlw	32	;' '
   500  08C0  3461               	retlw	97	;'a'
   501  08C1  3420               	retlw	32	;' '
   502  08C2  3467               	retlw	103	;'g'
   503  08C3  3475               	retlw	117	;'u'
   504  08C4  3461               	retlw	97	;'a'
   505  08C5  3472               	retlw	114	;'r'
   506  08C6  3464               	retlw	100	;'d'
   507  08C7  3461               	retlw	97	;'a'
   508  08C8  3472               	retlw	114	;'r'
   509  08C9  3420               	retlw	32	;' '
   510  08CA  340D               	retlw	13
   511  08CB  340A               	retlw	10
   512  08CC  3400               	retlw	0
   513  08CD                     STR_48:
   514  08CD  3472               	retlw	114	;'r'
   515  08CE  342E               	retlw	46	;'.'
   516  08CF  3431               	retlw	49	;'1'
   517  08D0  3437               	retlw	55	;'7'
   518  08D1  3420               	retlw	32	;' '
   519  08D2  3420               	retlw	32	;' '
   520  08D3  3473               	retlw	115	;'s'
   521  08D4  342E               	retlw	46	;'.'
   522  08D5  3431               	retlw	49	;'1'
   523  08D6  3438               	retlw	56	;'8'
   524  08D7  3420               	retlw	32	;' '
   525  08D8  3420               	retlw	32	;' '
   526  08D9  3474               	retlw	116	;'t'
   527  08DA  342E               	retlw	46	;'.'
   528  08DB  3431               	retlw	49	;'1'
   529  08DC  3439               	retlw	57	;'9'
   530  08DD  3420               	retlw	32	;' '
   531  08DE  3420               	retlw	32	;' '
   532  08DF  3475               	retlw	117	;'u'
   533  08E0  342E               	retlw	46	;'.'
   534  08E1  3432               	retlw	50	;'2'
   535  08E2  3430               	retlw	48	;'0'
   536  08E3  3420               	retlw	32	;' '
   537  08E4  3420               	retlw	32	;' '
   538  08E5  3476               	retlw	118	;'v'
   539  08E6  342E               	retlw	46	;'.'
   540  08E7  3432               	retlw	50	;'2'
   541  08E8  3431               	retlw	49	;'1'
   542  08E9  3420               	retlw	32	;' '
   543  08EA  3420               	retlw	32	;' '
   544  08EB  3477               	retlw	119	;'w'
   545  08EC  342E               	retlw	46	;'.'
   546  08ED  3432               	retlw	50	;'2'
   547  08EE  3432               	retlw	50	;'2'
   548  08EF  3420               	retlw	32	;' '
   549  08F0  3420               	retlw	32	;' '
   550  08F1  3478               	retlw	120	;'x'
   551  08F2  342E               	retlw	46	;'.'
   552  08F3  3432               	retlw	50	;'2'
   553  08F4  3433               	retlw	51	;'3'
   554  08F5  3420               	retlw	32	;' '
   555  08F6  3420               	retlw	32	;' '
   556  08F7  3479               	retlw	121	;'y'
   557  08F8  342E               	retlw	46	;'.'
   558  08F9  3432               	retlw	50	;'2'
   559  08FA  3434               	retlw	52	;'4'
   560  08FB  340D               	retlw	13
   561  08FC  340A               	retlw	10
   562  08FD  3400               	retlw	0
   563  08FE                     STR_47:
   564  08FE  3420               	retlw	32	;' '
   565  08FF  346A               	retlw	106	;'j'
   566  0900  342E               	retlw	46	;'.'
   567  0901  3439               	retlw	57	;'9'
   568  0902  3420               	retlw	32	;' '
   569  0903  3420               	retlw	32	;' '
   570  0904  346B               	retlw	107	;'k'
   571  0905  342E               	retlw	46	;'.'
   572  0906  3431               	retlw	49	;'1'
   573  0907  3430               	retlw	48	;'0'
   574  0908  3420               	retlw	32	;' '
   575  0909  3420               	retlw	32	;' '
   576  090A  346C               	retlw	108	;'l'
   577  090B  342E               	retlw	46	;'.'
   578  090C  3431               	retlw	49	;'1'
   579  090D  3431               	retlw	49	;'1'
   580  090E  3420               	retlw	32	;' '
   581  090F  3420               	retlw	32	;' '
   582  0910  346D               	retlw	109	;'m'
   583  0911  342E               	retlw	46	;'.'
   584  0912  3431               	retlw	49	;'1'
   585  0913  3432               	retlw	50	;'2'
   586  0914  3420               	retlw	32	;' '
   587  0915  3420               	retlw	32	;' '
   588  0916  346E               	retlw	110	;'n'
   589  0917  342E               	retlw	46	;'.'
   590  0918  3431               	retlw	49	;'1'
   591  0919  3433               	retlw	51	;'3'
   592  091A  3420               	retlw	32	;' '
   593  091B  3420               	retlw	32	;' '
   594  091C  346F               	retlw	111	;'o'
   595  091D  342E               	retlw	46	;'.'
   596  091E  3431               	retlw	49	;'1'
   597  091F  3434               	retlw	52	;'4'
   598  0920  3420               	retlw	32	;' '
   599  0921  3420               	retlw	32	;' '
   600  0922  3470               	retlw	112	;'p'
   601  0923  342E               	retlw	46	;'.'
   602  0924  3431               	retlw	49	;'1'
   603  0925  3435               	retlw	53	;'5'
   604  0926  3420               	retlw	32	;' '
   605  0927  3420               	retlw	32	;' '
   606  0928  3471               	retlw	113	;'q'
   607  0929  342E               	retlw	46	;'.'
   608  092A  3431               	retlw	49	;'1'
   609  092B  3436               	retlw	54	;'6'
   610  092C  340D               	retlw	13
   611  092D  340A               	retlw	10
   612  092E  3400               	retlw	0
   613  092F                     STR_51:
   614  092F  3420               	retlw	32	;' '
   615  0930  3449               	retlw	73	;'I'
   616  0931  346E               	retlw	110	;'n'
   617  0932  3467               	retlw	103	;'g'
   618  0933  3472               	retlw	114	;'r'
   619  0934  3465               	retlw	101	;'e'
   620  0935  3473               	retlw	115	;'s'
   621  0936  34C3               	retlw	-61
   622  0937  34A1               	retlw	-95
   623  0938  3420               	retlw	32	;' '
   624  0939  346C               	retlw	108	;'l'
   625  093A  3461               	retlw	97	;'a'
   626  093B  3420               	retlw	32	;' '
   627  093C  346C               	retlw	108	;'l'
   628  093D  3465               	retlw	101	;'e'
   629  093E  3474               	retlw	116	;'t'
   630  093F  3472               	retlw	114	;'r'
   631  0940  3461               	retlw	97	;'a'
   632  0941  3420               	retlw	32	;' '
   633  0942  3464               	retlw	100	;'d'
   634  0943  3465               	retlw	101	;'e'
   635  0944  3420               	retlw	32	;' '
   636  0945  346C               	retlw	108	;'l'
   637  0946  346F               	retlw	111	;'o'
   638  0947  3473               	retlw	115	;'s'
   639  0948  3420               	retlw	32	;' '
   640  0949  346D               	retlw	109	;'m'
   641  094A  3469               	retlw	105	;'i'
   642  094B  346E               	retlw	110	;'n'
   643  094C  3475               	retlw	117	;'u'
   644  094D  3474               	retlw	116	;'t'
   645  094E  346F               	retlw	111	;'o'
   646  094F  3473               	retlw	115	;'s'
   647  0950  3420               	retlw	32	;' '
   648  0951  346E               	retlw	110	;'n'
   649  0952  3475               	retlw	117	;'u'
   650  0953  3465               	retlw	101	;'e'
   651  0954  3476               	retlw	118	;'v'
   652  0955  346F               	retlw	111	;'o'
   653  0956  3473               	retlw	115	;'s'
   654  0957  3420               	retlw	32	;' '
   655  0958  3420               	retlw	32	;' '
   656  0959  340D               	retlw	13
   657  095A  340A               	retlw	10
   658  095B  3400               	retlw	0
   659  095C                     STR_55:
   660  095C  3420               	retlw	32	;' '
   661  095D  3441               	retlw	65	;'A'
   662  095E  3463               	retlw	99	;'c'
   663  095F  3474               	retlw	116	;'t'
   664  0960  3475               	retlw	117	;'u'
   665  0961  3461               	retlw	97	;'a'
   666  0962  346C               	retlw	108	;'l'
   667  0963  346D               	retlw	109	;'m'
   668  0964  3465               	retlw	101	;'e'
   669  0965  346E               	retlw	110	;'n'
   670  0966  3474               	retlw	116	;'t'
   671  0967  3465               	retlw	101	;'e'
   672  0968  3420               	retlw	32	;' '
   673  0969  3473               	retlw	115	;'s'
   674  096A  3465               	retlw	101	;'e'
   675  096B  3420               	retlw	32	;' '
   676  096C  3463               	retlw	99	;'c'
   677  096D  3475               	retlw	117	;'u'
   678  096E  3465               	retlw	101	;'e'
   679  096F  346E               	retlw	110	;'n'
   680  0970  3474               	retlw	116	;'t'
   681  0971  3461               	retlw	97	;'a'
   682  0972  3420               	retlw	32	;' '
   683  0973  3463               	retlw	99	;'c'
   684  0974  346F               	retlw	111	;'o'
   685  0975  346E               	retlw	110	;'n'
   686  0976  3420               	retlw	32	;' '
   687  0977  3433               	retlw	51	;'3'
   688  0978  3420               	retlw	32	;' '
   689  0979  346D               	retlw	109	;'m'
   690  097A  3465               	retlw	101	;'e'
   691  097B  3464               	retlw	100	;'d'
   692  097C  3469               	retlw	105	;'i'
   693  097D  3463               	retlw	99	;'c'
   694  097E  3461               	retlw	97	;'a'
   695  097F  346D               	retlw	109	;'m'
   696  0980  3465               	retlw	101	;'e'
   697  0981  346E               	retlw	110	;'n'
   698  0982  3474               	retlw	116	;'t'
   699  0983  346F               	retlw	111	;'o'
   700  0984  3473               	retlw	115	;'s'
   701  0985  340D               	retlw	13
   702  0986  340A               	retlw	10
   703  0987  3400               	retlw	0
   704  0988                     STR_58:
   705  0988  3420               	retlw	32	;' '
   706  0989  3449               	retlw	73	;'I'
   707  098A  346E               	retlw	110	;'n'
   708  098B  3467               	retlw	103	;'g'
   709  098C  3472               	retlw	114	;'r'
   710  098D  3465               	retlw	101	;'e'
   711  098E  3473               	retlw	115	;'s'
   712  098F  34C3               	retlw	-61
   713  0990  34A1               	retlw	-95
   714  0991  3420               	retlw	32	;' '
   715  0992  346C               	retlw	108	;'l'
   716  0993  3461               	retlw	97	;'a'
   717  0994  3420               	retlw	32	;' '
   718  0995  346C               	retlw	108	;'l'
   719  0996  3465               	retlw	101	;'e'
   720  0997  3474               	retlw	116	;'t'
   721  0998  3472               	retlw	114	;'r'
   722  0999  3461               	retlw	97	;'a'
   723  099A  3420               	retlw	32	;' '
   724  099B  3464               	retlw	100	;'d'
   725  099C  3465               	retlw	101	;'e'
   726  099D  3420               	retlw	32	;' '
   727  099E  346C               	retlw	108	;'l'
   728  099F  3461               	retlw	97	;'a'
   729  09A0  3420               	retlw	32	;' '
   730  09A1  346E               	retlw	110	;'n'
   731  09A2  3475               	retlw	117	;'u'
   732  09A3  3465               	retlw	101	;'e'
   733  09A4  3476               	retlw	118	;'v'
   734  09A5  3461               	retlw	97	;'a'
   735  09A6  3420               	retlw	32	;' '
   736  09A7  3468               	retlw	104	;'h'
   737  09A8  346F               	retlw	111	;'o'
   738  09A9  3472               	retlw	114	;'r'
   739  09AA  3461               	retlw	97	;'a'
   740  09AB  3420               	retlw	32	;' '
   741  09AC  3420               	retlw	32	;' '
   742  09AD  340D               	retlw	13
   743  09AE  340A               	retlw	10
   744  09AF  3400               	retlw	0
   745  09B0                     STR_45:
   746  09B0  3420               	retlw	32	;' '
   747  09B1  3449               	retlw	73	;'I'
   748  09B2  346E               	retlw	110	;'n'
   749  09B3  3467               	retlw	103	;'g'
   750  09B4  3472               	retlw	114	;'r'
   751  09B5  3465               	retlw	101	;'e'
   752  09B6  3473               	retlw	115	;'s'
   753  09B7  34C3               	retlw	-61
   754  09B8  34A1               	retlw	-95
   755  09B9  3420               	retlw	32	;' '
   756  09BA  346C               	retlw	108	;'l'
   757  09BB  3461               	retlw	97	;'a'
   758  09BC  3420               	retlw	32	;' '
   759  09BD  346C               	retlw	108	;'l'
   760  09BE  3465               	retlw	101	;'e'
   761  09BF  3474               	retlw	116	;'t'
   762  09C0  3472               	retlw	114	;'r'
   763  09C1  3461               	retlw	97	;'a'
   764  09C2  3420               	retlw	32	;' '
   765  09C3  3464               	retlw	100	;'d'
   766  09C4  3465               	retlw	101	;'e'
   767  09C5  3420               	retlw	32	;' '
   768  09C6  346C               	retlw	108	;'l'
   769  09C7  3461               	retlw	97	;'a'
   770  09C8  3420               	retlw	32	;' '
   771  09C9  346E               	retlw	110	;'n'
   772  09CA  3475               	retlw	117	;'u'
   773  09CB  3465               	retlw	101	;'e'
   774  09CC  3476               	retlw	118	;'v'
   775  09CD  3461               	retlw	97	;'a'
   776  09CE  3420               	retlw	32	;' '
   777  09CF  3468               	retlw	104	;'h'
   778  09D0  346F               	retlw	111	;'o'
   779  09D1  3472               	retlw	114	;'r'
   780  09D2  3461               	retlw	97	;'a'
   781  09D3  3420               	retlw	32	;' '
   782  09D4  3420               	retlw	32	;' '
   783  09D5  340A               	retlw	10
   784  09D6  340D               	retlw	13
   785  09D7  3400               	retlw	0
   786  09D8                     STR_7:
   787  09D8  3436               	retlw	54	;'6'
   788  09D9  3429               	retlw	41	;')'
   789  09DA  3420               	retlw	32	;' '
   790  09DB  344D               	retlw	77	;'M'
   791  09DC  346F               	retlw	111	;'o'
   792  09DD  3464               	retlw	100	;'d'
   793  09DE  3469               	retlw	105	;'i'
   794  09DF  3466               	retlw	102	;'f'
   795  09E0  3469               	retlw	105	;'i'
   796  09E1  3463               	retlw	99	;'c'
   797  09E2  3461               	retlw	97	;'a'
   798  09E3  3472               	retlw	114	;'r'
   799  09E4  3420               	retlw	32	;' '
   800  09E5  3468               	retlw	104	;'h'
   801  09E6  346F               	retlw	111	;'o'
   802  09E7  3472               	retlw	114	;'r'
   803  09E8  3461               	retlw	97	;'a'
   804  09E9  3472               	retlw	114	;'r'
   805  09EA  3469               	retlw	105	;'i'
   806  09EB  346F               	retlw	111	;'o'
   807  09EC  3420               	retlw	32	;' '
   808  09ED  3475               	retlw	117	;'u'
   809  09EE  3473               	retlw	115	;'s'
   810  09EF  3475               	retlw	117	;'u'
   811  09F0  3461               	retlw	97	;'a'
   812  09F1  3472               	retlw	114	;'r'
   813  09F2  3469               	retlw	105	;'i'
   814  09F3  346F               	retlw	111	;'o'
   815  09F4  3420               	retlw	32	;' '
   816  09F5  3474               	retlw	116	;'t'
   817  09F6  3472               	retlw	114	;'r'
   818  09F7  3465               	retlw	101	;'e'
   819  09F8  3473               	retlw	115	;'s'
   820  09F9  3420               	retlw	32	;' '
   821  09FA  340D               	retlw	13
   822  09FB  3420               	retlw	32	;' '
   823  09FC  340A               	retlw	10
   824  09FD  3400               	retlw	0
   825  09FE                     STR_52:
   826  09FE  3420               	retlw	32	;' '
   827  09FF  3461               	retlw	97	;'a'
   828  0A00  342E               	retlw	46	;'.'
   829  0A01  3430               	retlw	48	;'0'
   830  0A02  3420               	retlw	32	;' '
   831  0A03  3420               	retlw	32	;' '
   832  0A04  3462               	retlw	98	;'b'
   833  0A05  342E               	retlw	46	;'.'
   834  0A06  3431               	retlw	49	;'1'
   835  0A07  3435               	retlw	53	;'5'
   836  0A08  3420               	retlw	32	;' '
   837  0A09  3420               	retlw	32	;' '
   838  0A0A  3420               	retlw	32	;' '
   839  0A0B  3463               	retlw	99	;'c'
   840  0A0C  342E               	retlw	46	;'.'
   841  0A0D  3433               	retlw	51	;'3'
   842  0A0E  3430               	retlw	48	;'0'
   843  0A0F  3420               	retlw	32	;' '
   844  0A10  3420               	retlw	32	;' '
   845  0A11  3420               	retlw	32	;' '
   846  0A12  3464               	retlw	100	;'d'
   847  0A13  342E               	retlw	46	;'.'
   848  0A14  3434               	retlw	52	;'4'
   849  0A15  3435               	retlw	53	;'5'
   850  0A16  3420               	retlw	32	;' '
   851  0A17  3420               	retlw	32	;' '
   852  0A18  3420               	retlw	32	;' '
   853  0A19  3465               	retlw	101	;'e'
   854  0A1A  342E               	retlw	46	;'.'
   855  0A1B  3435               	retlw	53	;'5'
   856  0A1C  3435               	retlw	53	;'5'
   857  0A1D  3420               	retlw	32	;' '
   858  0A1E  3420               	retlw	32	;' '
   859  0A1F  3420               	retlw	32	;' '
   860  0A20  340D               	retlw	13
   861  0A21  340A               	retlw	10
   862  0A22  3400               	retlw	0
   863  0A23                     STR_5:
   864  0A23  3434               	retlw	52	;'4'
   865  0A24  3429               	retlw	41	;')'
   866  0A25  3420               	retlw	32	;' '
   867  0A26  344D               	retlw	77	;'M'
   868  0A27  346F               	retlw	111	;'o'
   869  0A28  3464               	retlw	100	;'d'
   870  0A29  3469               	retlw	105	;'i'
   871  0A2A  3466               	retlw	102	;'f'
   872  0A2B  3469               	retlw	105	;'i'
   873  0A2C  3463               	retlw	99	;'c'
   874  0A2D  3461               	retlw	97	;'a'
   875  0A2E  3472               	retlw	114	;'r'
   876  0A2F  3420               	retlw	32	;' '
   877  0A30  3468               	retlw	104	;'h'
   878  0A31  346F               	retlw	111	;'o'
   879  0A32  3472               	retlw	114	;'r'
   880  0A33  3461               	retlw	97	;'a'
   881  0A34  3472               	retlw	114	;'r'
   882  0A35  3469               	retlw	105	;'i'
   883  0A36  346F               	retlw	111	;'o'
   884  0A37  3420               	retlw	32	;' '
   885  0A38  3475               	retlw	117	;'u'
   886  0A39  3473               	retlw	115	;'s'
   887  0A3A  3475               	retlw	117	;'u'
   888  0A3B  3461               	retlw	97	;'a'
   889  0A3C  3472               	retlw	114	;'r'
   890  0A3D  3469               	retlw	105	;'i'
   891  0A3E  346F               	retlw	111	;'o'
   892  0A3F  3420               	retlw	32	;' '
   893  0A40  3475               	retlw	117	;'u'
   894  0A41  346E               	retlw	110	;'n'
   895  0A42  346F               	retlw	111	;'o'
   896  0A43  3420               	retlw	32	;' '
   897  0A44  340D               	retlw	13
   898  0A45  3420               	retlw	32	;' '
   899  0A46  340A               	retlw	10
   900  0A47  3400               	retlw	0
   901  0A48                     STR_6:
   902  0A48  3435               	retlw	53	;'5'
   903  0A49  3429               	retlw	41	;')'
   904  0A4A  3420               	retlw	32	;' '
   905  0A4B  344D               	retlw	77	;'M'
   906  0A4C  346F               	retlw	111	;'o'
   907  0A4D  3464               	retlw	100	;'d'
   908  0A4E  3469               	retlw	105	;'i'
   909  0A4F  3466               	retlw	102	;'f'
   910  0A50  3469               	retlw	105	;'i'
   911  0A51  3463               	retlw	99	;'c'
   912  0A52  3461               	retlw	97	;'a'
   913  0A53  3472               	retlw	114	;'r'
   914  0A54  3420               	retlw	32	;' '
   915  0A55  3468               	retlw	104	;'h'
   916  0A56  346F               	retlw	111	;'o'
   917  0A57  3472               	retlw	114	;'r'
   918  0A58  3461               	retlw	97	;'a'
   919  0A59  3472               	retlw	114	;'r'
   920  0A5A  3469               	retlw	105	;'i'
   921  0A5B  346F               	retlw	111	;'o'
   922  0A5C  3420               	retlw	32	;' '
   923  0A5D  3475               	retlw	117	;'u'
   924  0A5E  3473               	retlw	115	;'s'
   925  0A5F  3475               	retlw	117	;'u'
   926  0A60  3461               	retlw	97	;'a'
   927  0A61  3472               	retlw	114	;'r'
   928  0A62  3469               	retlw	105	;'i'
   929  0A63  346F               	retlw	111	;'o'
   930  0A64  3420               	retlw	32	;' '
   931  0A65  3464               	retlw	100	;'d'
   932  0A66  346F               	retlw	111	;'o'
   933  0A67  3473               	retlw	115	;'s'
   934  0A68  340D               	retlw	13
   935  0A69  3420               	retlw	32	;' '
   936  0A6A  340A               	retlw	10
   937  0A6B  3400               	retlw	0
   938  0A6C                     STR_84:
   939  0A6C  3445               	retlw	69	;'E'
   940  0A6D  346C               	retlw	108	;'l'
   941  0A6E  3420               	retlw	32	;' '
   942  0A6F  346D               	retlw	109	;'m'
   943  0A70  3465               	retlw	101	;'e'
   944  0A71  3464               	retlw	100	;'d'
   945  0A72  3469               	retlw	105	;'i'
   946  0A73  3463               	retlw	99	;'c'
   947  0A74  3461               	retlw	97	;'a'
   948  0A75  346D               	retlw	109	;'m'
   949  0A76  3465               	retlw	101	;'e'
   950  0A77  346E               	retlw	110	;'n'
   951  0A78  3474               	retlw	116	;'t'
   952  0A79  346F               	retlw	111	;'o'
   953  0A7A  3420               	retlw	32	;' '
   954  0A7B  3431               	retlw	49	;'1'
   955  0A7C  3420               	retlw	32	;' '
   956  0A7D  3473               	retlw	115	;'s'
   957  0A7E  3465               	retlw	101	;'e'
   958  0A7F  3420               	retlw	32	;' '
   959  0A80  3468               	retlw	104	;'h'
   960  0A81  3461               	retlw	97	;'a'
   961  0A82  3420               	retlw	32	;' '
   962  0A83  3464               	retlw	100	;'d'
   963  0A84  3469               	retlw	105	;'i'
   964  0A85  3473               	retlw	115	;'s'
   965  0A86  3470               	retlw	112	;'p'
   966  0A87  3465               	retlw	101	;'e'
   967  0A88  346E               	retlw	110	;'n'
   968  0A89  3473               	retlw	115	;'s'
   969  0A8A  3461               	retlw	97	;'a'
   970  0A8B  3464               	retlw	100	;'d'
   971  0A8C  346F               	retlw	111	;'o'
   972  0A8D  3420               	retlw	32	;' '
   973  0A8E  3400               	retlw	0
   974  0A8F                     STR_86:
   975  0A8F  3445               	retlw	69	;'E'
   976  0A90  346C               	retlw	108	;'l'
   977  0A91  3420               	retlw	32	;' '
   978  0A92  346D               	retlw	109	;'m'
   979  0A93  3465               	retlw	101	;'e'
   980  0A94  3464               	retlw	100	;'d'
   981  0A95  3469               	retlw	105	;'i'
   982  0A96  3463               	retlw	99	;'c'
   983  0A97  3461               	retlw	97	;'a'
   984  0A98  346D               	retlw	109	;'m'
   985  0A99  3465               	retlw	101	;'e'
   986  0A9A  346E               	retlw	110	;'n'
   987  0A9B  3474               	retlw	116	;'t'
   988  0A9C  346F               	retlw	111	;'o'
   989  0A9D  3420               	retlw	32	;' '
   990  0A9E  3432               	retlw	50	;'2'
   991  0A9F  3420               	retlw	32	;' '
   992  0AA0  3473               	retlw	115	;'s'
   993  0AA1  3465               	retlw	101	;'e'
   994  0AA2  3420               	retlw	32	;' '
   995  0AA3  3468               	retlw	104	;'h'
   996  0AA4  3461               	retlw	97	;'a'
   997  0AA5  3420               	retlw	32	;' '
   998  0AA6  3464               	retlw	100	;'d'
   999  0AA7  3469               	retlw	105	;'i'
  1000  0AA8  3473               	retlw	115	;'s'
  1001  0AA9  3470               	retlw	112	;'p'
  1002  0AAA  3465               	retlw	101	;'e'
  1003  0AAB  346E               	retlw	110	;'n'
  1004  0AAC  3473               	retlw	115	;'s'
  1005  0AAD  3461               	retlw	97	;'a'
  1006  0AAE  3464               	retlw	100	;'d'
  1007  0AAF  346F               	retlw	111	;'o'
  1008  0AB0  3420               	retlw	32	;' '
  1009  0AB1  3400               	retlw	0
  1010  0AB2                     STR_88:
  1011  0AB2  3445               	retlw	69	;'E'
  1012  0AB3  346C               	retlw	108	;'l'
  1013  0AB4  3420               	retlw	32	;' '
  1014  0AB5  346D               	retlw	109	;'m'
  1015  0AB6  3465               	retlw	101	;'e'
  1016  0AB7  3464               	retlw	100	;'d'
  1017  0AB8  3469               	retlw	105	;'i'
  1018  0AB9  3463               	retlw	99	;'c'
  1019  0ABA  3461               	retlw	97	;'a'
  1020  0ABB  346D               	retlw	109	;'m'
  1021  0ABC  3465               	retlw	101	;'e'
  1022  0ABD  346E               	retlw	110	;'n'
  1023  0ABE  3474               	retlw	116	;'t'
  1024  0ABF  346F               	retlw	111	;'o'
  1025  0AC0  3420               	retlw	32	;' '
  1026  0AC1  3433               	retlw	51	;'3'
  1027  0AC2  3420               	retlw	32	;' '
  1028  0AC3  3473               	retlw	115	;'s'
  1029  0AC4  3465               	retlw	101	;'e'
  1030  0AC5  3420               	retlw	32	;' '
  1031  0AC6  3468               	retlw	104	;'h'
  1032  0AC7  3461               	retlw	97	;'a'
  1033  0AC8  3420               	retlw	32	;' '
  1034  0AC9  3464               	retlw	100	;'d'
  1035  0ACA  3469               	retlw	105	;'i'
  1036  0ACB  3473               	retlw	115	;'s'
  1037  0ACC  3470               	retlw	112	;'p'
  1038  0ACD  3465               	retlw	101	;'e'
  1039  0ACE  346E               	retlw	110	;'n'
  1040  0ACF  3473               	retlw	115	;'s'
  1041  0AD0  3461               	retlw	97	;'a'
  1042  0AD1  3464               	retlw	100	;'d'
  1043  0AD2  346F               	retlw	111	;'o'
  1044  0AD3  3420               	retlw	32	;' '
  1045  0AD4  3400               	retlw	0
  1046  0AD5                     STR_20:
  1047  0AD5  3420               	retlw	32	;' '
  1048  0AD6  346D               	retlw	109	;'m'
  1049  0AD7  3469               	retlw	105	;'i'
  1050  0AD8  346E               	retlw	110	;'n'
  1051  0AD9  3473               	retlw	115	;'s'
  1052  0ADA  342E               	retlw	46	;'.'
  1053  0ADB  3420               	retlw	32	;' '
  1054  0ADC  3470               	retlw	112	;'p'
  1055  0ADD  3461               	retlw	97	;'a'
  1056  0ADE  3472               	retlw	114	;'r'
  1057  0ADF  3461               	retlw	97	;'a'
  1058  0AE0  3420               	retlw	32	;' '
  1059  0AE1  3465               	retlw	101	;'e'
  1060  0AE2  346C               	retlw	108	;'l'
  1061  0AE3  3420               	retlw	32	;' '
  1062  0AE4  346D               	retlw	109	;'m'
  1063  0AE5  3465               	retlw	101	;'e'
  1064  0AE6  3464               	retlw	100	;'d'
  1065  0AE7  3469               	retlw	105	;'i'
  1066  0AE8  3463               	retlw	99	;'c'
  1067  0AE9  3461               	retlw	97	;'a'
  1068  0AEA  346D               	retlw	109	;'m'
  1069  0AEB  3465               	retlw	101	;'e'
  1070  0AEC  346E               	retlw	110	;'n'
  1071  0AED  3474               	retlw	116	;'t'
  1072  0AEE  346F               	retlw	111	;'o'
  1073  0AEF  3420               	retlw	32	;' '
  1074  0AF0  3433               	retlw	51	;'3'
  1075  0AF1  3420               	retlw	32	;' '
  1076  0AF2  340D               	retlw	13
  1077  0AF3  340D               	retlw	13
  1078  0AF4  340A               	retlw	10
  1079  0AF5  340A               	retlw	10
  1080  0AF6  3400               	retlw	0
  1081  0AF7                     STR_1:
  1082  0AF7  340D               	retlw	13
  1083  0AF8  3420               	retlw	32	;' '
  1084  0AF9  3451               	retlw	81	;'Q'
  1085  0AFA  3475               	retlw	117	;'u'
  1086  0AFB  3465               	retlw	101	;'e'
  1087  0AFC  3420               	retlw	32	;' '
  1088  0AFD  3461               	retlw	97	;'a'
  1089  0AFE  3463               	retlw	99	;'c'
  1090  0AFF  3463               	retlw	99	;'c'
  1091  0B00  3469               	retlw	105	;'i'
  1092  0B01  346F               	retlw	111	;'o'
  1093  0B02  346E               	retlw	110	;'n'
  1094  0B03  3420               	retlw	32	;' '
  1095  0B04  3464               	retlw	100	;'d'
  1096  0B05  3465               	retlw	101	;'e'
  1097  0B06  3473               	retlw	115	;'s'
  1098  0B07  3465               	retlw	101	;'e'
  1099  0B08  3461               	retlw	97	;'a'
  1100  0B09  3420               	retlw	32	;' '
  1101  0B0A  3465               	retlw	101	;'e'
  1102  0B0B  346A               	retlw	106	;'j'
  1103  0B0C  3465               	retlw	101	;'e'
  1104  0B0D  3463               	retlw	99	;'c'
  1105  0B0E  3475               	retlw	117	;'u'
  1106  0B0F  3474               	retlw	116	;'t'
  1107  0B10  3461               	retlw	97	;'a'
  1108  0B11  3472               	retlw	114	;'r'
  1109  0B12  343F               	retlw	63	;'?'
  1110  0B13  3420               	retlw	32	;' '
  1111  0B14  340D               	retlw	13
  1112  0B15  3420               	retlw	32	;' '
  1113  0B16  340A               	retlw	10
  1114  0B17  3400               	retlw	0
  1115  0B18                     STR_4:
  1116  0B18  3433               	retlw	51	;'3'
  1117  0B19  3429               	retlw	41	;')'
  1118  0B1A  3420               	retlw	32	;' '
  1119  0B1B  3476               	retlw	118	;'v'
  1120  0B1C  3465               	retlw	101	;'e'
  1121  0B1D  3472               	retlw	114	;'r'
  1122  0B1E  3420               	retlw	32	;' '
  1123  0B1F  3464               	retlw	100	;'d'
  1124  0B20  3461               	retlw	97	;'a'
  1125  0B21  3474               	retlw	116	;'t'
  1126  0B22  346F               	retlw	111	;'o'
  1127  0B23  3473               	retlw	115	;'s'
  1128  0B24  3420               	retlw	32	;' '
  1129  0B25  3464               	retlw	100	;'d'
  1130  0B26  3465               	retlw	101	;'e'
  1131  0B27  3420               	retlw	32	;' '
  1132  0B28  3475               	retlw	117	;'u'
  1133  0B29  3473               	retlw	115	;'s'
  1134  0B2A  3475               	retlw	117	;'u'
  1135  0B2B  3461               	retlw	97	;'a'
  1136  0B2C  3472               	retlw	114	;'r'
  1137  0B2D  3469               	retlw	105	;'i'
  1138  0B2E  346F               	retlw	111	;'o'
  1139  0B2F  3420               	retlw	32	;' '
  1140  0B30  3474               	retlw	116	;'t'
  1141  0B31  3472               	retlw	114	;'r'
  1142  0B32  3465               	retlw	101	;'e'
  1143  0B33  3473               	retlw	115	;'s'
  1144  0B34  3420               	retlw	32	;' '
  1145  0B35  340D               	retlw	13
  1146  0B36  3420               	retlw	32	;' '
  1147  0B37  340A               	retlw	10
  1148  0B38  3400               	retlw	0
  1149  0B39                     STR_12:
  1150  0B39  3420               	retlw	32	;' '
  1151  0B3A  346D               	retlw	109	;'m'
  1152  0B3B  3469               	retlw	105	;'i'
  1153  0B3C  346E               	retlw	110	;'n'
  1154  0B3D  3473               	retlw	115	;'s'
  1155  0B3E  342E               	retlw	46	;'.'
  1156  0B3F  3420               	retlw	32	;' '
  1157  0B40  3470               	retlw	112	;'p'
  1158  0B41  3461               	retlw	97	;'a'
  1159  0B42  3472               	retlw	114	;'r'
  1160  0B43  3461               	retlw	97	;'a'
  1161  0B44  3420               	retlw	32	;' '
  1162  0B45  3465               	retlw	101	;'e'
  1163  0B46  346C               	retlw	108	;'l'
  1164  0B47  3420               	retlw	32	;' '
  1165  0B48  346D               	retlw	109	;'m'
  1166  0B49  3465               	retlw	101	;'e'
  1167  0B4A  3464               	retlw	100	;'d'
  1168  0B4B  3469               	retlw	105	;'i'
  1169  0B4C  3463               	retlw	99	;'c'
  1170  0B4D  3461               	retlw	97	;'a'
  1171  0B4E  346D               	retlw	109	;'m'
  1172  0B4F  3465               	retlw	101	;'e'
  1173  0B50  346E               	retlw	110	;'n'
  1174  0B51  3474               	retlw	116	;'t'
  1175  0B52  346F               	retlw	111	;'o'
  1176  0B53  3420               	retlw	32	;' '
  1177  0B54  3431               	retlw	49	;'1'
  1178  0B55  3420               	retlw	32	;' '
  1179  0B56  340D               	retlw	13
  1180  0B57  340A               	retlw	10
  1181  0B58  3400               	retlw	0
  1182  0B59                     STR_16:
  1183  0B59  3420               	retlw	32	;' '
  1184  0B5A  346D               	retlw	109	;'m'
  1185  0B5B  3469               	retlw	105	;'i'
  1186  0B5C  346E               	retlw	110	;'n'
  1187  0B5D  3473               	retlw	115	;'s'
  1188  0B5E  342E               	retlw	46	;'.'
  1189  0B5F  3420               	retlw	32	;' '
  1190  0B60  3470               	retlw	112	;'p'
  1191  0B61  3461               	retlw	97	;'a'
  1192  0B62  3472               	retlw	114	;'r'
  1193  0B63  3461               	retlw	97	;'a'
  1194  0B64  3420               	retlw	32	;' '
  1195  0B65  3465               	retlw	101	;'e'
  1196  0B66  346C               	retlw	108	;'l'
  1197  0B67  3420               	retlw	32	;' '
  1198  0B68  346D               	retlw	109	;'m'
  1199  0B69  3465               	retlw	101	;'e'
  1200  0B6A  3464               	retlw	100	;'d'
  1201  0B6B  3469               	retlw	105	;'i'
  1202  0B6C  3463               	retlw	99	;'c'
  1203  0B6D  3461               	retlw	97	;'a'
  1204  0B6E  346D               	retlw	109	;'m'
  1205  0B6F  3465               	retlw	101	;'e'
  1206  0B70  346E               	retlw	110	;'n'
  1207  0B71  3474               	retlw	116	;'t'
  1208  0B72  346F               	retlw	111	;'o'
  1209  0B73  3420               	retlw	32	;' '
  1210  0B74  3432               	retlw	50	;'2'
  1211  0B75  3420               	retlw	32	;' '
  1212  0B76  340D               	retlw	13
  1213  0B77  340A               	retlw	10
  1214  0B78  3400               	retlw	0
  1215  0B79                     STR_2:
  1216  0B79  3431               	retlw	49	;'1'
  1217  0B7A  3429               	retlw	41	;')'
  1218  0B7B  3420               	retlw	32	;' '
  1219  0B7C  3476               	retlw	118	;'v'
  1220  0B7D  3465               	retlw	101	;'e'
  1221  0B7E  3472               	retlw	114	;'r'
  1222  0B7F  3420               	retlw	32	;' '
  1223  0B80  3464               	retlw	100	;'d'
  1224  0B81  3461               	retlw	97	;'a'
  1225  0B82  3474               	retlw	116	;'t'
  1226  0B83  346F               	retlw	111	;'o'
  1227  0B84  3473               	retlw	115	;'s'
  1228  0B85  3420               	retlw	32	;' '
  1229  0B86  3464               	retlw	100	;'d'
  1230  0B87  3465               	retlw	101	;'e'
  1231  0B88  3420               	retlw	32	;' '
  1232  0B89  3475               	retlw	117	;'u'
  1233  0B8A  3473               	retlw	115	;'s'
  1234  0B8B  3475               	retlw	117	;'u'
  1235  0B8C  3461               	retlw	97	;'a'
  1236  0B8D  3472               	retlw	114	;'r'
  1237  0B8E  3469               	retlw	105	;'i'
  1238  0B8F  346F               	retlw	111	;'o'
  1239  0B90  3420               	retlw	32	;' '
  1240  0B91  3475               	retlw	117	;'u'
  1241  0B92  346E               	retlw	110	;'n'
  1242  0B93  346F               	retlw	111	;'o'
  1243  0B94  3420               	retlw	32	;' '
  1244  0B95  340D               	retlw	13
  1245  0B96  3420               	retlw	32	;' '
  1246  0B97  340A               	retlw	10
  1247  0B98  3400               	retlw	0
  1248  0B99                     STR_3:
  1249  0B99  3432               	retlw	50	;'2'
  1250  0B9A  3429               	retlw	41	;')'
  1251  0B9B  3420               	retlw	32	;' '
  1252  0B9C  3476               	retlw	118	;'v'
  1253  0B9D  3465               	retlw	101	;'e'
  1254  0B9E  3472               	retlw	114	;'r'
  1255  0B9F  3420               	retlw	32	;' '
  1256  0BA0  3464               	retlw	100	;'d'
  1257  0BA1  3461               	retlw	97	;'a'
  1258  0BA2  3474               	retlw	116	;'t'
  1259  0BA3  346F               	retlw	111	;'o'
  1260  0BA4  3473               	retlw	115	;'s'
  1261  0BA5  3420               	retlw	32	;' '
  1262  0BA6  3464               	retlw	100	;'d'
  1263  0BA7  3465               	retlw	101	;'e'
  1264  0BA8  3420               	retlw	32	;' '
  1265  0BA9  3475               	retlw	117	;'u'
  1266  0BAA  3473               	retlw	115	;'s'
  1267  0BAB  3475               	retlw	117	;'u'
  1268  0BAC  3461               	retlw	97	;'a'
  1269  0BAD  3472               	retlw	114	;'r'
  1270  0BAE  3469               	retlw	105	;'i'
  1271  0BAF  346F               	retlw	111	;'o'
  1272  0BB0  3420               	retlw	32	;' '
  1273  0BB1  3464               	retlw	100	;'d'
  1274  0BB2  346F               	retlw	111	;'o'
  1275  0BB3  3473               	retlw	115	;'s'
  1276  0BB4  340D               	retlw	13
  1277  0BB5  3420               	retlw	32	;' '
  1278  0BB6  340A               	retlw	10
  1279  0BB7  3400               	retlw	0
  1280  0BB8                     STR_57:
  1281  0BB8  3420               	retlw	32	;' '
  1282  0BB9  3431               	retlw	49	;'1'
  1283  0BBA  342E               	retlw	46	;'.'
  1284  0BBB  3441               	retlw	65	;'A'
  1285  0BBC  3446               	retlw	70	;'F'
  1286  0BBD  3443               	retlw	67	;'C'
  1287  0BBE  3420               	retlw	32	;' '
  1288  0BBF  3420               	retlw	32	;' '
  1289  0BC0  3420               	retlw	32	;' '
  1290  0BC1  3420               	retlw	32	;' '
  1291  0BC2  3432               	retlw	50	;'2'
  1292  0BC3  342E               	retlw	46	;'.'
  1293  0BC4  3446               	retlw	70	;'F'
  1294  0BC5  3446               	retlw	70	;'F'
  1295  0BC6  3454               	retlw	84	;'T'
  1296  0BC7  3420               	retlw	32	;' '
  1297  0BC8  3420               	retlw	32	;' '
  1298  0BC9  3420               	retlw	32	;' '
  1299  0BCA  3433               	retlw	51	;'3'
  1300  0BCB  342E               	retlw	46	;'.'
  1301  0BCC  3444               	retlw	68	;'D'
  1302  0BCD  3448               	retlw	72	;'H'
  1303  0BCE  344C               	retlw	76	;'L'
  1304  0BCF  3420               	retlw	32	;' '
  1305  0BD0  340D               	retlw	13
  1306  0BD1  340A               	retlw	10
  1307  0BD2  3400               	retlw	0
  1308  0BD3                     STR_89:
  1309  0BD3  3420               	retlw	32	;' '
  1310  0BD4  3476               	retlw	118	;'v'
  1311  0BD5  3465               	retlw	101	;'e'
  1312  0BD6  3463               	retlw	99	;'c'
  1313  0BD7  3465               	retlw	101	;'e'
  1314  0BD8  3473               	retlw	115	;'s'
  1315  0BD9  3420               	retlw	32	;' '
  1316  0BDA  340D               	retlw	13
  1317  0BDB  3420               	retlw	32	;' '
  1318  0BDC  340D               	retlw	13
  1319  0BDD  3420               	retlw	32	;' '
  1320  0BDE  340A               	retlw	10
  1321  0BDF  340A               	retlw	10
  1322  0BE0  3400               	retlw	0
  1323  0BE1                     STR_9:
  1324  0BE1  3420               	retlw	32	;' '
  1325  0BE2  3445               	retlw	69	;'E'
  1326  0BE3  3473               	retlw	115	;'s'
  1327  0BE4  3470               	retlw	112	;'p'
  1328  0BE5  3465               	retlw	101	;'e'
  1329  0BE6  3472               	retlw	114	;'r'
  1330  0BE7  3461               	retlw	97	;'a'
  1331  0BE8  3472               	retlw	114	;'r'
  1332  0BE9  3420               	retlw	32	;' '
  1333  0BEA  3420               	retlw	32	;' '
  1334  0BEB  3400               	retlw	0
  1335  0BEC                     STR_85:
  1336  0BEC  3420               	retlw	32	;' '
  1337  0BED  3476               	retlw	118	;'v'
  1338  0BEE  3465               	retlw	101	;'e'
  1339  0BEF  3463               	retlw	99	;'c'
  1340  0BF0  3465               	retlw	101	;'e'
  1341  0BF1  3473               	retlw	115	;'s'
  1342  0BF2  3420               	retlw	32	;' '
  1343  0BF3  340D               	retlw	13
  1344  0BF4  340A               	retlw	10
  1345  0BF5  3400               	retlw	0
  1346  0BF6                     STR_10:
  1347  0BF6  3420               	retlw	32	;' '
  1348  0BF7  3448               	retlw	72	;'H'
  1349  0BF8  346F               	retlw	111	;'o'
  1350  0BF9  3472               	retlw	114	;'r'
  1351  0BFA  3461               	retlw	97	;'a'
  1352  0BFB  3473               	retlw	115	;'s'
  1353  0BFC  3420               	retlw	32	;' '
  1354  0BFD  3400               	retlw	0
  1355  0BFE                     STR_11:
  1356  0BFE  3420               	retlw	32	;' '
  1357  0BFF  3463               	retlw	99	;'c'
  1358  0C00  346F               	retlw	111	;'o'
  1359  0C01  346E               	retlw	110	;'n'
  1360  0C02  3420               	retlw	32	;' '
  1361  0C03  3420               	retlw	32	;' '
  1362  0C04  3400               	retlw	0
  1363  0C05                     STR_53:
  1364  0C05  3420               	retlw	32	;' '
  1365  0C06  340D               	retlw	13
  1366  0C07  3400               	retlw	0
  1367  0C08                     STR_92:
  1368  0C08  3433               	retlw	51	;'3'
  1369  0C09  3430               	retlw	48	;'0'
  1370  0C0A  3400               	retlw	0
  1371  0C0B                     STR_91:
  1372  0C0B  3431               	retlw	49	;'1'
  1373  0C0C  3435               	retlw	53	;'5'
  1374  0C0D  3400               	retlw	0
  1375  0C0E                     STR_93:
  1376  0C0E  3434               	retlw	52	;'4'
  1377  0C0F  3435               	retlw	53	;'5'
  1378  0C10  3400               	retlw	0
  1379  0C11                     STR_94:
  1380  0C11  3435               	retlw	53	;'5'
  1381  0C12  3435               	retlw	53	;'5'
  1382  0C13  3400               	retlw	0
  1383  0AD5                     
  1384                           	psect	cinit
  1385  000F                     start_initialization:	
  1386                           ; #config settings
  1387                           
  1388  000F                     __initialization:
  1389                           
  1390                           ; Clear objects allocated to COMMON
  1391  000F  01F6               	clrf	__pbssCOMMON& (0+127)
  1392  0010  01F7               	clrf	(__pbssCOMMON+1)& (0+127)
  1393  0011  01F8               	clrf	(__pbssCOMMON+2)& (0+127)
  1394  0012  01F9               	clrf	(__pbssCOMMON+3)& (0+127)
  1395  0013  01FA               	clrf	(__pbssCOMMON+4)& (0+127)
  1396                           
  1397                           ; Clear objects allocated to BANK0
  1398  0014  1383               	bcf	3,7	;select IRP bank0
  1399  0015  3020               	movlw	low __pbssBANK0
  1400  0016  0084               	movwf	4
  1401  0017  305C               	movlw	low (__pbssBANK0+60)
  1402  0018  160A  118A  23C3  120A  118A  	fcall	clear_ram0
  1403  001D                     end_of_initialization:	
  1404                           ;End of C runtime variable initialization code
  1405                           
  1406  001D                     __end_of__initialization:
  1407  001D  0183               	clrf	3
  1408  001E  120A  158A  2CE3   	ljmp	_main	;jump to C main() function
  1409                           
  1410                           	psect	bssCOMMON
  1411  0076                     __pbssCOMMON:
  1412  0076                     _medicamento1:
  1413  0076                     	ds	1
  1414  0077                     _hora_nueva:
  1415  0077                     	ds	1
  1416  0078                     _escala:
  1417  0078                     	ds	1
  1418  0079                     _minuto:
  1419  0079                     	ds	1
  1420  007A                     _hora:
  1421  007A                     	ds	1
  1422                           
  1423                           	psect	bssBANK0
  1424  0020                     __pbssBANK0:
  1425  0020                     _medicamento3:
  1426  0020                     	ds	1
  1427  0021                     _medicamento2:
  1428  0021                     	ds	1
  1429  0022                     _RB7_old:
  1430  0022                     	ds	1
  1431  0023                     _RB6_old:
  1432  0023                     	ds	1
  1433  0024                     _RB5_old:
  1434  0024                     	ds	1
  1435  0025                     _RB2_old:
  1436  0025                     	ds	1
  1437  0026                     _RB1_old:
  1438  0026                     	ds	1
  1439  0027                     _RB0_old:
  1440  0027                     	ds	1
  1441  0028                     _prueba:
  1442  0028                     	ds	1
  1443  0029                     _me_3_us3_tm:
  1444  0029                     	ds	1
  1445  002A                     _me_2_us3_tm:
  1446  002A                     	ds	1
  1447  002B                     _me_1_us3_tm:
  1448  002B                     	ds	1
  1449  002C                     _me_3_us2_tm:
  1450  002C                     	ds	1
  1451  002D                     _me_2_us2_tm:
  1452  002D                     	ds	1
  1453  002E                     _me_1_us2_tm:
  1454  002E                     	ds	1
  1455  002F                     _me_3_us1_tm:
  1456  002F                     	ds	1
  1457  0030                     _me_2_us1_tm:
  1458  0030                     	ds	1
  1459  0031                     _me_1_us1_tm:
  1460  0031                     	ds	1
  1461  0032                     _me_3_us3_th:
  1462  0032                     	ds	1
  1463  0033                     _me_2_us3_th:
  1464  0033                     	ds	1
  1465  0034                     _me_1_us3_th:
  1466  0034                     	ds	1
  1467  0035                     _me_3_us2_th:
  1468  0035                     	ds	1
  1469  0036                     _me_2_us2_th:
  1470  0036                     	ds	1
  1471  0037                     _me_1_us2_th:
  1472  0037                     	ds	1
  1473  0038                     _me_3_us1_th:
  1474  0038                     	ds	1
  1475  0039                     _me_2_us1_th:
  1476  0039                     	ds	1
  1477  003A                     _me_1_us1_th:
  1478  003A                     	ds	1
  1479  003B                     _activa3:
  1480  003B                     	ds	1
  1481  003C                     _activa2:
  1482  003C                     	ds	1
  1483  003D                     _activa1:
  1484  003D                     	ds	1
  1485  003E                     _horas:
  1486  003E                     	ds	1
  1487  003F                     _mins:
  1488  003F                     	ds	1
  1489  0040                     _conth:
  1490  0040                     	ds	1
  1491  0041                     _contm:
  1492  0041                     	ds	1
  1493  0042                     _me_3_us3_m:
  1494  0042                     	ds	1
  1495  0043                     _me_2_us3_m:
  1496  0043                     	ds	1
  1497  0044                     _me_1_us3_m:
  1498  0044                     	ds	1
  1499  0045                     _me_3_us2_m:
  1500  0045                     	ds	1
  1501  0046                     _me_2_us2_m:
  1502  0046                     	ds	1
  1503  0047                     _me_1_us2_m:
  1504  0047                     	ds	1
  1505  0048                     _me_3_us1_m:
  1506  0048                     	ds	1
  1507  0049                     _me_2_us1_m:
  1508  0049                     	ds	1
  1509  004A                     _me_1_us1_m:
  1510  004A                     	ds	1
  1511  004B                     _me_3_us3_h:
  1512  004B                     	ds	1
  1513  004C                     _me_2_us3_h:
  1514  004C                     	ds	1
  1515  004D                     _me_1_us3_h:
  1516  004D                     	ds	1
  1517  004E                     _me_3_us2_h:
  1518  004E                     	ds	1
  1519  004F                     _me_2_us2_h:
  1520  004F                     	ds	1
  1521  0050                     _me_1_us2_h:
  1522  0050                     	ds	1
  1523  0051                     _me_3_us1_h:
  1524  0051                     	ds	1
  1525  0052                     _me_2_us1_h:
  1526  0052                     	ds	1
  1527  0053                     _me_1_us1_h:
  1528  0053                     	ds	1
  1529  0054                     _hora_user3:
  1530  0054                     	ds	1
  1531  0055                     _hora_user2:
  1532  0055                     	ds	1
  1533  0056                     _hora_user1:
  1534  0056                     	ds	1
  1535  0057                     _min_user3:
  1536  0057                     	ds	1
  1537  0058                     _min_user2:
  1538  0058                     	ds	1
  1539  0059                     _min_user1:
  1540  0059                     	ds	1
  1541  005A                     _ventana:
  1542  005A                     	ds	1
  1543  005B                     _valor:
  1544  005B                     	ds	1
  1545                           
  1546                           	psect	clrtext
  1547  13C3                     clear_ram0:	
  1548                           ;	Called with FSR containing the base address, and
  1549                           ;	W with the last address+1
  1550                           
  1551  13C3  0064               	clrwdt	;clear the watchdog before getting into this loop
  1552  13C4                     clrloop0:
  1553  13C4  0180               	clrf	0	;clear RAM location pointed to by FSR
  1554  13C5  0A84               	incf	4,f	;increment pointer
  1555  13C6  0604               	xorwf	4,w	;XOR with final address
  1556  13C7  1903               	btfsc	3,2	;have we reached the end yet?
  1557  13C8  3400               	retlw	0	;all done for this memory range, return
  1558  13C9  0604               	xorwf	4,w	;XOR again to restore value
  1559  13CA  2BC4               	goto	clrloop0	;do the next byte
  1560                           
  1561                           	psect	cstackCOMMON
  1562  0070                     __pcstackCOMMON:
  1563  0070                     ?_ReadToEEPROM:
  1564  0070                     ?_USART_Rx:	
  1565                           ; 1 bytes @ 0x0
  1566                           
  1567  0070                     ?_SendCharH:	
  1568                           ; 1 bytes @ 0x0
  1569                           
  1570  0070                     ?_SendCharM:	
  1571                           ; 1 bytes @ 0x0
  1572                           
  1573  0070                     ?_isr:	
  1574                           ; 1 bytes @ 0x0
  1575                           
  1576  0070                     ??_isr:	
  1577                           ; 1 bytes @ 0x0
  1578                           
  1579  0070                     ?_main:	
  1580                           ; 1 bytes @ 0x0
  1581                           
  1582  0070                     ?_USART_Tx:	
  1583                           ; 1 bytes @ 0x0
  1584                           
  1585                           
  1586                           ; 1 bytes @ 0x0
  1587  0070                     	ds	3
  1588  0073                     ??_ReadToEEPROM:
  1589  0073                     ?_WriteToEEPROM:	
  1590                           ; 1 bytes @ 0x3
  1591                           
  1592  0073                     ??_USART_Rx:	
  1593                           ; 1 bytes @ 0x3
  1594                           
  1595  0073                     ??_SendCharH:	
  1596                           ; 1 bytes @ 0x3
  1597                           
  1598  0073                     ?_CharToNumH:	
  1599                           ; 1 bytes @ 0x3
  1600                           
  1601  0073                     ?_CharToNumM:	
  1602                           ; 1 bytes @ 0x3
  1603                           
  1604  0073                     ??_USART_Tx:	
  1605                           ; 1 bytes @ 0x3
  1606                           
  1607  0073                     USART_Tx@data:	
  1608                           ; 1 bytes @ 0x3
  1609                           
  1610  0073                     CharToNumH@hora_user:	
  1611                           ; 1 bytes @ 0x3
  1612                           
  1613  0073                     CharToNumM@her:	
  1614                           ; 1 bytes @ 0x3
  1615                           
  1616  0073                     WriteToEEPROM@addr:	
  1617                           ; 1 bytes @ 0x3
  1618                           
  1619                           
  1620                           ; 1 bytes @ 0x3
  1621  0073                     	ds	1
  1622  0074                     ??_WriteToEEPROM:
  1623  0074                     ?_USART_Cadena:	
  1624                           ; 1 bytes @ 0x4
  1625                           
  1626  0074                     ??_CharToNumH:	
  1627                           ; 1 bytes @ 0x4
  1628                           
  1629  0074                     ??_CharToNumM:	
  1630                           ; 1 bytes @ 0x4
  1631                           
  1632  0074                     WriteToEEPROM@dato:	
  1633                           ; 1 bytes @ 0x4
  1634                           
  1635  0074                     ReadToEEPROM@addr:	
  1636                           ; 1 bytes @ 0x4
  1637                           
  1638  0074                     USART_Cadena@str:	
  1639                           ; 1 bytes @ 0x4
  1640                           
  1641                           
  1642                           ; 2 bytes @ 0x4
  1643  0074                     	ds	1
  1644  0075                     SendCharH@in:
  1645  0075                     CharToNumM@in:	
  1646                           ; 1 bytes @ 0x5
  1647                           
  1648  0075                     ReadToEEPROM@dato:	
  1649                           ; 1 bytes @ 0x5
  1650                           
  1651                           
  1652                           ; 1 bytes @ 0x5
  1653  0075                     	ds	1
  1654  0076                     ??_USART_Cadena:
  1655  0076                     ??_SendCharM:	
  1656                           ; 1 bytes @ 0x6
  1657                           
  1658                           
  1659                           	psect	cstackBANK0
  1660  005C                     __pcstackBANK0:	
  1661                           ; 1 bytes @ 0x6
  1662                           
  1663  005C                     SendCharM@in:
  1664  005C                     CharToNumH@in:	
  1665                           ; 1 bytes @ 0x0
  1666                           
  1667                           
  1668                           ; 1 bytes @ 0x0
  1669  005C                     	ds	1
  1670  005D                     ??_main:
  1671                           
  1672                           ; 1 bytes @ 0x1
  1673  005D                     	ds	2
  1674                           
  1675                           	psect	maintext
  1676  0CE3                     __pmaintext:	
  1677 ;;
  1678 ;;Main: autosize = 0, tempsize = 2, incstack = 0, save=0
  1679 ;;
  1680 ;; *************** function _main *****************
  1681 ;; Defined at:
  1682 ;;		line 131 in file "PROYECTO.c"
  1683 ;; Parameters:    Size  Location     Type
  1684 ;;		None
  1685 ;; Auto vars:     Size  Location     Type
  1686 ;;		None
  1687 ;; Return value:  Size  Location     Type
  1688 ;;                  1    wreg      void 
  1689 ;; Registers used:
  1690 ;;		wreg, fsr0l, fsr0h, status,2, status,0, btemp+1, pclath, cstack
  1691 ;; Tracked objects:
  1692 ;;		On entry : B00/0
  1693 ;;		On exit  : 0/0
  1694 ;;		Unchanged: 0/0
  1695 ;; Data sizes:     COMMON   BANK0   BANK1   BANK3   BANK2
  1696 ;;      Params:         0       0       0       0       0
  1697 ;;      Locals:         0       0       0       0       0
  1698 ;;      Temps:          0       2       0       0       0
  1699 ;;      Totals:         0       2       0       0       0
  1700 ;;Total ram usage:        2 bytes
  1701 ;; Hardware stack levels required when called:    4
  1702 ;; This function calls:
  1703 ;;		_CharToNumH
  1704 ;;		_CharToNumM
  1705 ;;		_ReadToEEPROM
  1706 ;;		_SendCharH
  1707 ;;		_SendCharM
  1708 ;;		_USART_Cadena
  1709 ;;		_USART_Rx
  1710 ;;		_WriteToEEPROM
  1711 ;; This function is called by:
  1712 ;;		Startup code after reset
  1713 ;; This function uses a non-reentrant model
  1714 ;;
  1715                           
  1716                           
  1717                           ;psect for function _main
  1718  0CE3                     _main:
  1719  0CE3                     l3955:	
  1720                           ;incstack = 0
  1721                           ; Regs used in _main: [wreg-fsr0h+status,2+status,0+btemp+1+pclath+cstack]
  1722                           
  1723                           
  1724                           ;PROYECTO.c: 132:     ANSEL = 0b01100000;
  1725  0CE3  3060               	movlw	96
  1726  0CE4  1683               	bsf	3,5	;RP0=1, select bank3
  1727  0CE5  1703               	bsf	3,6	;RP1=1, select bank3
  1728  0CE6  0088               	movwf	8	;volatile
  1729  0CE7                     l3957:
  1730                           
  1731                           ;PROYECTO.c: 133:     ANSELH = 0x00;
  1732  0CE7  0189               	clrf	9	;volatile
  1733  0CE8                     l3959:
  1734                           
  1735                           ;PROYECTO.c: 135:     TRISA = 0b10000000;
  1736  0CE8  3080               	movlw	128
  1737  0CE9  1683               	bsf	3,5	;RP0=1, select bank1
  1738  0CEA  1303               	bcf	3,6	;RP1=0, select bank1
  1739  0CEB  0085               	movwf	5	;volatile
  1740  0CEC                     l3961:
  1741                           
  1742                           ;PROYECTO.c: 136:     TRISB = 0xff;
  1743  0CEC  30FF               	movlw	255
  1744  0CED  0086               	movwf	6	;volatile
  1745  0CEE                     l3963:
  1746                           
  1747                           ;PROYECTO.c: 137:     TRISD = 0x00;
  1748  0CEE  0188               	clrf	8	;volatile
  1749                           
  1750                           ;PROYECTO.c: 138:     TRISE = 0b0011;
  1751  0CEF  3003               	movlw	3
  1752  0CF0  0089               	movwf	9	;volatile
  1753  0CF1                     l3965:
  1754                           
  1755                           ;PROYECTO.c: 141:     ADCON1bits.ADFM = 0;
  1756  0CF1  139F               	bcf	31,7	;volatile
  1757  0CF2                     l3967:
  1758                           
  1759                           ;PROYECTO.c: 142:     ADCON1bits.VCFG0 = 0;
  1760  0CF2  121F               	bcf	31,4	;volatile
  1761  0CF3                     l3969:
  1762                           
  1763                           ;PROYECTO.c: 143:     ADCON1bits.VCFG1 = 0;
  1764  0CF3  129F               	bcf	31,5	;volatile
  1765  0CF4                     l3971:
  1766                           
  1767                           ;PROYECTO.c: 144:     ADCON0bits.ADCS0 = 1;
  1768  0CF4  1283               	bcf	3,5	;RP0=0, select bank0
  1769  0CF5  1303               	bcf	3,6	;RP1=0, select bank0
  1770  0CF6  171F               	bsf	31,6	;volatile
  1771  0CF7                     l3973:
  1772                           
  1773                           ;PROYECTO.c: 145:     ADCON0bits.ADCS1 = 0;
  1774  0CF7  139F               	bcf	31,7	;volatile
  1775  0CF8                     l3975:
  1776                           
  1777                           ;PROYECTO.c: 146:     ADCON0bits.CHS = 5;
  1778  0CF8  081F               	movf	31,w	;volatile
  1779  0CF9  39C3               	andlw	-61
  1780  0CFA  3814               	iorlw	20
  1781  0CFB  009F               	movwf	31	;volatile
  1782  0CFC                     l3977:
  1783                           
  1784                           ;PROYECTO.c: 147:     _delay((unsigned long)((100)*(4000000/4000000.0)));
  1785  0CFC  3020               	movlw	32
  1786  0CFD  1283               	bcf	3,5	;RP0=0, select bank0
  1787  0CFE  1303               	bcf	3,6	;RP1=0, select bank0
  1788  0CFF  00DD               	movwf	??_main
  1789  0D00                     u5947:
  1790  0D00  0BDD               	decfsz	??_main,f
  1791  0D01  2D00               	goto	u5947
  1792  0D02  0000               	nop
  1793  0D03                     l3979:
  1794                           
  1795                           ;PROYECTO.c: 148:     ADCON0bits.ADON = 1;
  1796  0D03  1283               	bcf	3,5	;RP0=0, select bank0
  1797  0D04  1303               	bcf	3,6	;RP1=0, select bank0
  1798  0D05  141F               	bsf	31,0	;volatile
  1799  0D06                     l3981:
  1800                           
  1801                           ;PROYECTO.c: 150:     OPTION_REGbits.nRBPU = 0;
  1802  0D06  1683               	bsf	3,5	;RP0=1, select bank1
  1803  0D07  1303               	bcf	3,6	;RP1=0, select bank1
  1804  0D08  1381               	bcf	1,7	;volatile
  1805  0D09                     l3983:
  1806                           
  1807                           ;PROYECTO.c: 151:     WPUBbits.WPUB0 = 1;
  1808  0D09  1415               	bsf	21,0	;volatile
  1809  0D0A                     l3985:
  1810                           
  1811                           ;PROYECTO.c: 152:     WPUBbits.WPUB1 = 1;
  1812  0D0A  1495               	bsf	21,1	;volatile
  1813  0D0B                     l3987:
  1814                           
  1815                           ;PROYECTO.c: 153:     WPUBbits.WPUB2 = 1;
  1816  0D0B  1515               	bsf	21,2	;volatile
  1817  0D0C                     l3989:
  1818                           
  1819                           ;PROYECTO.c: 154:     WPUBbits.WPUB5 = 1;
  1820  0D0C  1695               	bsf	21,5	;volatile
  1821  0D0D                     l3991:
  1822                           
  1823                           ;PROYECTO.c: 155:     WPUBbits.WPUB6 = 1;
  1824  0D0D  1715               	bsf	21,6	;volatile
  1825  0D0E                     l3993:
  1826                           
  1827                           ;PROYECTO.c: 156:     WPUBbits.WPUB7 = 1;
  1828  0D0E  1795               	bsf	21,7	;volatile
  1829                           
  1830                           ;PROYECTO.c: 158:     OSCCONbits.IRCF = 0b110;
  1831  0D0F  080F               	movf	15,w	;volatile
  1832  0D10  398F               	andlw	-113
  1833  0D11  3860               	iorlw	96
  1834  0D12  008F               	movwf	15	;volatile
  1835  0D13                     l3995:
  1836                           
  1837                           ;PROYECTO.c: 159:     OSCCONbits.SCS = 1;
  1838  0D13  140F               	bsf	15,0	;volatile
  1839  0D14                     l3997:
  1840                           
  1841                           ;PROYECTO.c: 162:     OPTION_REGbits.T0CS = 0;
  1842  0D14  1281               	bcf	1,5	;volatile
  1843  0D15                     l3999:
  1844                           
  1845                           ;PROYECTO.c: 163:     OPTION_REGbits.PSA = 0;
  1846  0D15  1181               	bcf	1,3	;volatile
  1847                           
  1848                           ;PROYECTO.c: 164:     OPTION_REGbits.PS = 0b111;
  1849  0D16  3007               	movlw	7
  1850  0D17  0481               	iorwf	1,f	;volatile
  1851  0D18                     l4001:
  1852                           
  1853                           ;PROYECTO.c: 165:     TMR0 = 78;
  1854  0D18  304E               	movlw	78
  1855  0D19  1283               	bcf	3,5	;RP0=0, select bank0
  1856  0D1A  1303               	bcf	3,6	;RP1=0, select bank0
  1857  0D1B  0081               	movwf	1	;volatile
  1858  0D1C                     l4003:
  1859                           
  1860                           ;PROYECTO.c: 168:     T1CONbits.T1CKPS1 = 1;
  1861  0D1C  1690               	bsf	16,5	;volatile
  1862  0D1D                     l4005:
  1863                           
  1864                           ;PROYECTO.c: 169:     T1CONbits.T1CKPS0 = 1;
  1865  0D1D  1610               	bsf	16,4	;volatile
  1866  0D1E                     l4007:
  1867                           
  1868                           ;PROYECTO.c: 170:     T1CONbits.T1OSCEN = 1;
  1869  0D1E  1590               	bsf	16,3	;volatile
  1870  0D1F                     l4009:
  1871                           
  1872                           ;PROYECTO.c: 171:     T1CONbits.T1SYNC = 1;
  1873  0D1F  1510               	bsf	16,2	;volatile
  1874  0D20                     l4011:
  1875                           
  1876                           ;PROYECTO.c: 172:     T1CONbits.TMR1CS = 0;
  1877  0D20  1090               	bcf	16,1	;volatile
  1878  0D21                     l4013:
  1879                           
  1880                           ;PROYECTO.c: 173:     T1CONbits.TMR1ON = 1;
  1881  0D21  1410               	bsf	16,0	;volatile
  1882  0D22                     l4015:
  1883                           
  1884                           ;PROYECTO.c: 174:     TMR1H = 0;
  1885  0D22  018F               	clrf	15	;volatile
  1886  0D23                     l4017:
  1887                           
  1888                           ;PROYECTO.c: 175:     TMR1L = 0;
  1889  0D23  018E               	clrf	14	;volatile
  1890  0D24                     l4019:
  1891                           
  1892                           ;PROYECTO.c: 179:     TXSTAbits.SYNC = 0;
  1893  0D24  1683               	bsf	3,5	;RP0=1, select bank1
  1894  0D25  1303               	bcf	3,6	;RP1=0, select bank1
  1895  0D26  1218               	bcf	24,4	;volatile
  1896  0D27                     l4021:
  1897                           
  1898                           ;PROYECTO.c: 180:     TXSTAbits.BRGH = 1;
  1899  0D27  1518               	bsf	24,2	;volatile
  1900  0D28                     l4023:
  1901                           
  1902                           ;PROYECTO.c: 181:     BAUDCTLbits.BRG16 = 1;
  1903  0D28  1683               	bsf	3,5	;RP0=1, select bank3
  1904  0D29  1703               	bsf	3,6	;RP1=1, select bank3
  1905  0D2A  1587               	bsf	7,3	;volatile
  1906  0D2B                     l4025:
  1907                           
  1908                           ;PROYECTO.c: 183:     SPBRG = 103;
  1909  0D2B  3067               	movlw	103
  1910  0D2C  1683               	bsf	3,5	;RP0=1, select bank1
  1911  0D2D  1303               	bcf	3,6	;RP1=0, select bank1
  1912  0D2E  0099               	movwf	25	;volatile
  1913  0D2F                     l4027:
  1914                           
  1915                           ;PROYECTO.c: 184:     SPBRGH = 0;
  1916  0D2F  019A               	clrf	26	;volatile
  1917  0D30                     l4029:
  1918                           
  1919                           ;PROYECTO.c: 186:     RCSTAbits.SPEN = 1;
  1920  0D30  1283               	bcf	3,5	;RP0=0, select bank0
  1921  0D31  1303               	bcf	3,6	;RP1=0, select bank0
  1922  0D32  1798               	bsf	24,7	;volatile
  1923  0D33                     l4031:
  1924                           
  1925                           ;PROYECTO.c: 187:     RCSTAbits.RX9 = 0;
  1926  0D33  1318               	bcf	24,6	;volatile
  1927  0D34                     l4033:
  1928                           
  1929                           ;PROYECTO.c: 188:     RCSTAbits.CREN = 1;
  1930  0D34  1618               	bsf	24,4	;volatile
  1931  0D35                     l4035:
  1932                           
  1933                           ;PROYECTO.c: 189:     TXSTAbits.TXEN = 1;
  1934  0D35  1683               	bsf	3,5	;RP0=1, select bank1
  1935  0D36  1303               	bcf	3,6	;RP1=0, select bank1
  1936  0D37  1698               	bsf	24,5	;volatile
  1937  0D38                     l4037:
  1938                           
  1939                           ;PROYECTO.c: 191:     INTCONbits.GIE = 1;
  1940  0D38  178B               	bsf	11,7	;volatile
  1941  0D39                     l4039:
  1942                           
  1943                           ;PROYECTO.c: 192:     INTCONbits.T0IE = 0;
  1944  0D39  128B               	bcf	11,5	;volatile
  1945  0D3A                     l4041:
  1946                           
  1947                           ;PROYECTO.c: 193:     INTCONbits.T0IF = 0;
  1948  0D3A  110B               	bcf	11,2	;volatile
  1949  0D3B                     l4043:
  1950                           
  1951                           ;PROYECTO.c: 194:     PIR1bits.TMR1IF = 0;
  1952  0D3B  1283               	bcf	3,5	;RP0=0, select bank0
  1953  0D3C  1303               	bcf	3,6	;RP1=0, select bank0
  1954  0D3D  100C               	bcf	12,0	;volatile
  1955  0D3E                     l4045:
  1956                           
  1957                           ;PROYECTO.c: 195:     PIE1bits.TMR1IE = 1;
  1958  0D3E  1683               	bsf	3,5	;RP0=1, select bank1
  1959  0D3F  1303               	bcf	3,6	;RP1=0, select bank1
  1960  0D40  140C               	bsf	12,0	;volatile
  1961  0D41                     l4047:
  1962                           
  1963                           ;PROYECTO.c: 196:     INTCONbits.PEIE = 1;
  1964  0D41  170B               	bsf	11,6	;volatile
  1965  0D42                     l4049:
  1966                           
  1967                           ;PROYECTO.c: 201:     ADCON0bits.GO = 1;
  1968  0D42  1283               	bcf	3,5	;RP0=0, select bank0
  1969  0D43  1303               	bcf	3,6	;RP1=0, select bank0
  1970  0D44  149F               	bsf	31,1	;volatile
  1971  0D45                     l4051:
  1972                           
  1973                           ;PROYECTO.c: 203:     medicamento1 = ReadToEEPROM(0x10);
  1974  0D45  3010               	movlw	16
  1975  0D46  160A  118A  23CB  120A  158A  	fcall	_ReadToEEPROM
  1976  0D4B  1283               	bcf	3,5	;RP0=0, select bank0
  1977  0D4C  1303               	bcf	3,6	;RP1=0, select bank0
  1978  0D4D  00DD               	movwf	??_main
  1979  0D4E  085D               	movf	??_main,w
  1980  0D4F  00F6               	movwf	_medicamento1
  1981  0D50                     l4053:
  1982                           
  1983                           ;PROYECTO.c: 207:     medicamento2 = ReadToEEPROM(0x11);
  1984  0D50  3011               	movlw	17
  1985  0D51  160A  118A  23CB  120A  158A  	fcall	_ReadToEEPROM
  1986  0D56  1283               	bcf	3,5	;RP0=0, select bank0
  1987  0D57  1303               	bcf	3,6	;RP1=0, select bank0
  1988  0D58  00DD               	movwf	??_main
  1989  0D59  085D               	movf	??_main,w
  1990  0D5A  00A1               	movwf	_medicamento2
  1991  0D5B                     l4055:
  1992                           
  1993                           ;PROYECTO.c: 211:     medicamento3 = ReadToEEPROM(0x12);
  1994  0D5B  3012               	movlw	18
  1995  0D5C  160A  118A  23CB  120A  158A  	fcall	_ReadToEEPROM
  1996  0D61  1283               	bcf	3,5	;RP0=0, select bank0
  1997  0D62  1303               	bcf	3,6	;RP1=0, select bank0
  1998  0D63  00DD               	movwf	??_main
  1999  0D64  085D               	movf	??_main,w
  2000  0D65  00A0               	movwf	_medicamento3
  2001  0D66                     l4057:
  2002                           
  2003                           ;PROYECTO.c: 216:     PORTA = 0;
  2004  0D66  0185               	clrf	5	;volatile
  2005  0D67                     l4059:
  2006                           
  2007                           ;PROYECTO.c: 217:     PORTB = 0;
  2008  0D67  0186               	clrf	6	;volatile
  2009  0D68                     l4061:
  2010                           
  2011                           ;PROYECTO.c: 218:     PORTC = 0;
  2012  0D68  0187               	clrf	7	;volatile
  2013  0D69                     l4063:
  2014                           
  2015                           ;PROYECTO.c: 219:     PORTD = 0;
  2016  0D69  0188               	clrf	8	;volatile
  2017  0D6A                     l4065:
  2018                           
  2019                           ;PROYECTO.c: 220:     PORTE = 0;
  2020  0D6A  0189               	clrf	9	;volatile
  2021  0D6B                     l4067:
  2022                           
  2023                           ;PROYECTO.c: 222:     activa1 = 0;
  2024  0D6B  01BD               	clrf	_activa1
  2025  0D6C                     l4069:
  2026                           
  2027                           ;PROYECTO.c: 223:     activa2 = 0;
  2028  0D6C  01BC               	clrf	_activa2
  2029  0D6D                     l4071:
  2030                           
  2031                           ;PROYECTO.c: 224:     activa3 = 0;
  2032  0D6D  01BB               	clrf	_activa3
  2033  0D6E                     l4073:
  2034                           
  2035                           ;PROYECTO.c: 226:     RB0_old = 1;
  2036  0D6E  01A7               	clrf	_RB0_old
  2037  0D6F  0AA7               	incf	_RB0_old,f
  2038  0D70                     l4075:
  2039                           
  2040                           ;PROYECTO.c: 227:     RB1_old = 1;
  2041  0D70  01A6               	clrf	_RB1_old
  2042  0D71  0AA6               	incf	_RB1_old,f
  2043  0D72                     l4077:
  2044                           
  2045                           ;PROYECTO.c: 228:     RB2_old = 1;
  2046  0D72  01A5               	clrf	_RB2_old
  2047  0D73  0AA5               	incf	_RB2_old,f
  2048  0D74                     l4079:
  2049                           
  2050                           ;PROYECTO.c: 229:     RB5_old = 1;
  2051  0D74  01A4               	clrf	_RB5_old
  2052  0D75  0AA4               	incf	_RB5_old,f
  2053  0D76                     l4081:
  2054                           
  2055                           ;PROYECTO.c: 230:     RB6_old = 1;
  2056  0D76  01A3               	clrf	_RB6_old
  2057  0D77  0AA3               	incf	_RB6_old,f
  2058  0D78                     l4083:
  2059                           
  2060                           ;PROYECTO.c: 231:     RB7_old = 1;
  2061  0D78  01A2               	clrf	_RB7_old
  2062  0D79  0AA2               	incf	_RB7_old,f
  2063  0D7A                     l4085:
  2064                           
  2065                           ;PROYECTO.c: 233:     me_1_us1_h = 24;
  2066  0D7A  3018               	movlw	24
  2067  0D7B  00DD               	movwf	??_main
  2068  0D7C  085D               	movf	??_main,w
  2069  0D7D  00D3               	movwf	_me_1_us1_h
  2070  0D7E                     l4087:
  2071                           
  2072                           ;PROYECTO.c: 234:     me_2_us1_h = 24;
  2073  0D7E  3018               	movlw	24
  2074  0D7F  00DD               	movwf	??_main
  2075  0D80  085D               	movf	??_main,w
  2076  0D81  00D2               	movwf	_me_2_us1_h
  2077  0D82                     l4089:
  2078                           
  2079                           ;PROYECTO.c: 235:     me_3_us1_h = 24;
  2080  0D82  3018               	movlw	24
  2081  0D83  00DD               	movwf	??_main
  2082  0D84  085D               	movf	??_main,w
  2083  0D85  00D1               	movwf	_me_3_us1_h
  2084  0D86                     l4091:
  2085                           
  2086                           ;PROYECTO.c: 236:     me_1_us2_h = 24;
  2087  0D86  3018               	movlw	24
  2088  0D87  00DD               	movwf	??_main
  2089  0D88  085D               	movf	??_main,w
  2090  0D89  00D0               	movwf	_me_1_us2_h
  2091  0D8A                     l4093:
  2092                           
  2093                           ;PROYECTO.c: 237:     me_2_us2_h = 24;
  2094  0D8A  3018               	movlw	24
  2095  0D8B  00DD               	movwf	??_main
  2096  0D8C  085D               	movf	??_main,w
  2097  0D8D  00CF               	movwf	_me_2_us2_h
  2098  0D8E                     l4095:
  2099                           
  2100                           ;PROYECTO.c: 238:     me_3_us2_h = 24;
  2101  0D8E  3018               	movlw	24
  2102  0D8F  00DD               	movwf	??_main
  2103  0D90  085D               	movf	??_main,w
  2104  0D91  00CE               	movwf	_me_3_us2_h
  2105  0D92                     l4097:
  2106                           
  2107                           ;PROYECTO.c: 239:     me_1_us3_h = 24;
  2108  0D92  3018               	movlw	24
  2109  0D93  00DD               	movwf	??_main
  2110  0D94  085D               	movf	??_main,w
  2111  0D95  00CD               	movwf	_me_1_us3_h
  2112  0D96                     l4099:
  2113                           
  2114                           ;PROYECTO.c: 240:     me_2_us3_h = 24;
  2115  0D96  3018               	movlw	24
  2116  0D97  00DD               	movwf	??_main
  2117  0D98  085D               	movf	??_main,w
  2118  0D99  00CC               	movwf	_me_2_us3_h
  2119  0D9A                     l4101:
  2120                           
  2121                           ;PROYECTO.c: 241:     me_3_us3_h = 24;
  2122  0D9A  3018               	movlw	24
  2123  0D9B  00DD               	movwf	??_main
  2124  0D9C  085D               	movf	??_main,w
  2125  0D9D  00CB               	movwf	_me_3_us3_h
  2126  0D9E                     l4103:
  2127                           
  2128                           ;PROYECTO.c: 242:     me_1_us1_m = 55;
  2129  0D9E  3037               	movlw	55
  2130  0D9F  00DD               	movwf	??_main
  2131  0DA0  085D               	movf	??_main,w
  2132  0DA1  00CA               	movwf	_me_1_us1_m
  2133  0DA2                     l4105:
  2134                           
  2135                           ;PROYECTO.c: 243:     me_2_us1_m = 55;
  2136  0DA2  3037               	movlw	55
  2137  0DA3  00DD               	movwf	??_main
  2138  0DA4  085D               	movf	??_main,w
  2139  0DA5  00C9               	movwf	_me_2_us1_m
  2140  0DA6                     l4107:
  2141                           
  2142                           ;PROYECTO.c: 244:     me_3_us1_m = 55;
  2143  0DA6  3037               	movlw	55
  2144  0DA7  00DD               	movwf	??_main
  2145  0DA8  085D               	movf	??_main,w
  2146  0DA9  00C8               	movwf	_me_3_us1_m
  2147  0DAA                     l4109:
  2148                           
  2149                           ;PROYECTO.c: 245:     me_1_us2_m = 55;
  2150  0DAA  3037               	movlw	55
  2151  0DAB  00DD               	movwf	??_main
  2152  0DAC  085D               	movf	??_main,w
  2153  0DAD  00C7               	movwf	_me_1_us2_m
  2154  0DAE                     l4111:
  2155                           
  2156                           ;PROYECTO.c: 246:     me_2_us2_m = 55;
  2157  0DAE  3037               	movlw	55
  2158  0DAF  00DD               	movwf	??_main
  2159  0DB0  085D               	movf	??_main,w
  2160  0DB1  00C6               	movwf	_me_2_us2_m
  2161  0DB2                     l4113:
  2162                           
  2163                           ;PROYECTO.c: 247:     me_3_us2_m = 55;
  2164  0DB2  3037               	movlw	55
  2165  0DB3  00DD               	movwf	??_main
  2166  0DB4  085D               	movf	??_main,w
  2167  0DB5  00C5               	movwf	_me_3_us2_m
  2168  0DB6                     l4115:
  2169                           
  2170                           ;PROYECTO.c: 248:     me_1_us3_m = 55;
  2171  0DB6  3037               	movlw	55
  2172  0DB7  00DD               	movwf	??_main
  2173  0DB8  085D               	movf	??_main,w
  2174  0DB9  00C4               	movwf	_me_1_us3_m
  2175  0DBA                     l4117:
  2176                           
  2177                           ;PROYECTO.c: 249:     me_2_us3_m = 55;
  2178  0DBA  3037               	movlw	55
  2179  0DBB  00DD               	movwf	??_main
  2180  0DBC  085D               	movf	??_main,w
  2181  0DBD  00C3               	movwf	_me_2_us3_m
  2182  0DBE                     l4119:
  2183                           
  2184                           ;PROYECTO.c: 250:     me_3_us3_m = 55;
  2185  0DBE  3037               	movlw	55
  2186  0DBF  00DD               	movwf	??_main
  2187  0DC0  085D               	movf	??_main,w
  2188  0DC1  00C2               	movwf	_me_3_us3_m
  2189  0DC2                     l4121:
  2190                           
  2191                           ;PROYECTO.c: 252:     me_1_us1_tm = 0;
  2192  0DC2  01B1               	clrf	_me_1_us1_tm
  2193  0DC3                     l4123:
  2194                           
  2195                           ;PROYECTO.c: 253:     me_1_us2_tm = 0;
  2196  0DC3  01AE               	clrf	_me_1_us2_tm
  2197  0DC4                     l4125:
  2198                           
  2199                           ;PROYECTO.c: 254:     me_1_us3_tm = 0;
  2200  0DC4  01AB               	clrf	_me_1_us3_tm
  2201  0DC5                     l4127:
  2202                           
  2203                           ;PROYECTO.c: 255:     me_2_us1_tm = 0;
  2204  0DC5  01B0               	clrf	_me_2_us1_tm
  2205  0DC6                     l4129:
  2206                           
  2207                           ;PROYECTO.c: 256:     me_2_us2_tm = 0;
  2208  0DC6  01AD               	clrf	_me_2_us2_tm
  2209  0DC7                     l4131:
  2210                           
  2211                           ;PROYECTO.c: 257:     me_2_us3_tm = 0;
  2212  0DC7  01AA               	clrf	_me_2_us3_tm
  2213  0DC8                     l4133:
  2214                           
  2215                           ;PROYECTO.c: 258:     me_3_us1_tm = 0;
  2216  0DC8  01AF               	clrf	_me_3_us1_tm
  2217  0DC9                     l4135:
  2218                           
  2219                           ;PROYECTO.c: 259:     me_3_us2_tm = 0;
  2220  0DC9  01AC               	clrf	_me_3_us2_tm
  2221  0DCA                     l4137:
  2222                           
  2223                           ;PROYECTO.c: 260:     me_3_us3_tm = 0;
  2224  0DCA  01A9               	clrf	_me_3_us3_tm
  2225  0DCB                     l4139:
  2226                           
  2227                           ;PROYECTO.c: 262:     me_1_us1_th = 0;
  2228  0DCB  01BA               	clrf	_me_1_us1_th
  2229  0DCC                     l4141:
  2230                           
  2231                           ;PROYECTO.c: 263:     me_1_us2_th = 0;
  2232  0DCC  01B7               	clrf	_me_1_us2_th
  2233  0DCD                     l4143:
  2234                           
  2235                           ;PROYECTO.c: 264:     me_1_us3_th = 0;
  2236  0DCD  01B4               	clrf	_me_1_us3_th
  2237  0DCE                     l4145:
  2238                           
  2239                           ;PROYECTO.c: 265:     me_2_us1_th = 0;
  2240  0DCE  01B9               	clrf	_me_2_us1_th
  2241  0DCF                     l4147:
  2242                           
  2243                           ;PROYECTO.c: 266:     me_2_us2_th = 0;
  2244  0DCF  01B6               	clrf	_me_2_us2_th
  2245  0DD0                     l4149:
  2246                           
  2247                           ;PROYECTO.c: 267:     me_2_us3_th = 0;
  2248  0DD0  01B3               	clrf	_me_2_us3_th
  2249  0DD1                     l4151:
  2250                           
  2251                           ;PROYECTO.c: 268:     me_3_us1_th = 0;
  2252  0DD1  01B8               	clrf	_me_3_us1_th
  2253  0DD2                     l4153:
  2254                           
  2255                           ;PROYECTO.c: 269:     me_3_us2_th = 0;
  2256  0DD2  01B5               	clrf	_me_3_us2_th
  2257  0DD3                     l4155:
  2258                           
  2259                           ;PROYECTO.c: 270:     me_3_us3_th = 0;
  2260  0DD3  01B2               	clrf	_me_3_us3_th
  2261  0DD4                     l4157:
  2262                           
  2263                           ;PROYECTO.c: 272:     ventana = 1;
  2264  0DD4  01DA               	clrf	_ventana
  2265  0DD5  0ADA               	incf	_ventana,f
  2266  0DD6                     l4159:
  2267                           
  2268                           ;PROYECTO.c: 276:         if(prueba){
  2269  0DD6  0828               	movf	_prueba,w
  2270  0DD7  1903               	btfsc	3,2
  2271  0DD8  2DDA               	goto	u4371
  2272  0DD9  2DDD               	goto	u4370
  2273  0DDA                     u4371:
  2274  0DDA  160A  118A  2F06   	goto	l4325
  2275  0DDD                     u4370:
  2276  0DDD                     l4161:
  2277                           
  2278                           ;PROYECTO.c: 277:             if (me_1_us1_th == me_1_us1_h || me_1_us1_h == 0){
  2279  0DDD  083A               	movf	_me_1_us1_th,w
  2280  0DDE  0653               	xorwf	_me_1_us1_h,w
  2281  0DDF  1903               	skipnz
  2282  0DE0  2DE2               	goto	u4381
  2283  0DE1  2DE3               	goto	u4380
  2284  0DE2                     u4381:
  2285  0DE2  2DE8               	goto	l4165
  2286  0DE3                     u4380:
  2287  0DE3                     l4163:
  2288  0DE3  0853               	movf	_me_1_us1_h,w
  2289  0DE4  1D03               	btfss	3,2
  2290  0DE5  2DE7               	goto	u4391
  2291  0DE6  2DE8               	goto	u4390
  2292  0DE7                     u4391:
  2293  0DE7  2E07               	goto	l4179
  2294  0DE8                     u4390:
  2295  0DE8                     l4165:
  2296                           
  2297                           ;PROYECTO.c: 278:                 if(me_1_us1_tm == me_1_us1_m){
  2298  0DE8  0831               	movf	_me_1_us1_tm,w
  2299  0DE9  064A               	xorwf	_me_1_us1_m,w
  2300  0DEA  1D03               	skipz
  2301  0DEB  2DED               	goto	u4401
  2302  0DEC  2DEE               	goto	u4400
  2303  0DED                     u4401:
  2304  0DED  2E07               	goto	l4179
  2305  0DEE                     u4400:
  2306  0DEE                     l4167:
  2307                           
  2308                           ;PROYECTO.c: 279:                     if(activa1 == 0){
  2309  0DEE  083D               	movf	_activa1,w
  2310  0DEF  1D03               	btfss	3,2
  2311  0DF0  2DF2               	goto	u4411
  2312  0DF1  2DF3               	goto	u4410
  2313  0DF2                     u4411:
  2314  0DF2  2E03               	goto	l4175
  2315  0DF3                     u4410:
  2316  0DF3                     l4169:
  2317                           
  2318                           ;PROYECTO.c: 280:                         activa1 = 1;
  2319  0DF3  01BD               	clrf	_activa1
  2320  0DF4  0ABD               	incf	_activa1,f
  2321  0DF5                     l4171:
  2322                           
  2323                           ;PROYECTO.c: 281:                         medicamento1++;
  2324  0DF5  3001               	movlw	1
  2325  0DF6  00DD               	movwf	??_main
  2326  0DF7  085D               	movf	??_main,w
  2327  0DF8  07F6               	addwf	_medicamento1,f
  2328  0DF9                     l4173:
  2329                           
  2330                           ;PROYECTO.c: 282:                         WriteToEEPROM(medicamento1, 0x10);
  2331  0DF9  3010               	movlw	16
  2332  0DFA  00DD               	movwf	??_main
  2333  0DFB  085D               	movf	??_main,w
  2334  0DFC  00F3               	movwf	WriteToEEPROM@addr
  2335  0DFD  0876               	movf	_medicamento1,w
  2336  0DFE  120A  158A  2424  120A  158A  	fcall	_WriteToEEPROM
  2337  0E03                     l4175:
  2338                           
  2339                           ;PROYECTO.c: 284:                     me_1_us1_th = 0;
  2340  0E03  1283               	bcf	3,5	;RP0=0, select bank0
  2341  0E04  1303               	bcf	3,6	;RP1=0, select bank0
  2342  0E05  01BA               	clrf	_me_1_us1_th
  2343  0E06                     l4177:
  2344                           
  2345                           ;PROYECTO.c: 285:                     me_1_us1_tm = 0;
  2346  0E06  01B1               	clrf	_me_1_us1_tm
  2347  0E07                     l4179:
  2348                           
  2349                           ;PROYECTO.c: 288:             if (me_1_us2_th == me_1_us2_h || me_1_us2_h == 0){
  2350  0E07  0837               	movf	_me_1_us2_th,w
  2351  0E08  0650               	xorwf	_me_1_us2_h,w
  2352  0E09  1903               	skipnz
  2353  0E0A  2E0C               	goto	u4421
  2354  0E0B  2E0D               	goto	u4420
  2355  0E0C                     u4421:
  2356  0E0C  2E12               	goto	l4183
  2357  0E0D                     u4420:
  2358  0E0D                     l4181:
  2359  0E0D  0850               	movf	_me_1_us2_h,w
  2360  0E0E  1D03               	btfss	3,2
  2361  0E0F  2E11               	goto	u4431
  2362  0E10  2E12               	goto	u4430
  2363  0E11                     u4431:
  2364  0E11  2E31               	goto	l4197
  2365  0E12                     u4430:
  2366  0E12                     l4183:
  2367                           
  2368                           ;PROYECTO.c: 289:                 if(me_1_us2_tm == me_1_us2_m){
  2369  0E12  082E               	movf	_me_1_us2_tm,w
  2370  0E13  0647               	xorwf	_me_1_us2_m,w
  2371  0E14  1D03               	skipz
  2372  0E15  2E17               	goto	u4441
  2373  0E16  2E18               	goto	u4440
  2374  0E17                     u4441:
  2375  0E17  2E31               	goto	l4197
  2376  0E18                     u4440:
  2377  0E18                     l4185:
  2378                           
  2379                           ;PROYECTO.c: 290:                     if(activa1 == 0){
  2380  0E18  083D               	movf	_activa1,w
  2381  0E19  1D03               	btfss	3,2
  2382  0E1A  2E1C               	goto	u4451
  2383  0E1B  2E1D               	goto	u4450
  2384  0E1C                     u4451:
  2385  0E1C  2E2D               	goto	l4193
  2386  0E1D                     u4450:
  2387  0E1D                     l4187:
  2388                           
  2389                           ;PROYECTO.c: 291:                         activa1 = 1;
  2390  0E1D  01BD               	clrf	_activa1
  2391  0E1E  0ABD               	incf	_activa1,f
  2392  0E1F                     l4189:
  2393                           
  2394                           ;PROYECTO.c: 292:                         medicamento1++;
  2395  0E1F  3001               	movlw	1
  2396  0E20  00DD               	movwf	??_main
  2397  0E21  085D               	movf	??_main,w
  2398  0E22  07F6               	addwf	_medicamento1,f
  2399  0E23                     l4191:
  2400                           
  2401                           ;PROYECTO.c: 293:                         WriteToEEPROM(medicamento1, 0x10);
  2402  0E23  3010               	movlw	16
  2403  0E24  00DD               	movwf	??_main
  2404  0E25  085D               	movf	??_main,w
  2405  0E26  00F3               	movwf	WriteToEEPROM@addr
  2406  0E27  0876               	movf	_medicamento1,w
  2407  0E28  120A  158A  2424  120A  158A  	fcall	_WriteToEEPROM
  2408  0E2D                     l4193:
  2409                           
  2410                           ;PROYECTO.c: 295:                     me_1_us2_th = 0;
  2411  0E2D  1283               	bcf	3,5	;RP0=0, select bank0
  2412  0E2E  1303               	bcf	3,6	;RP1=0, select bank0
  2413  0E2F  01B7               	clrf	_me_1_us2_th
  2414  0E30                     l4195:
  2415                           
  2416                           ;PROYECTO.c: 296:                     me_1_us2_tm = 0;
  2417  0E30  01AE               	clrf	_me_1_us2_tm
  2418  0E31                     l4197:
  2419                           
  2420                           ;PROYECTO.c: 299:             if (me_1_us3_th == me_1_us3_h || me_1_us3_h == 0){
  2421  0E31  0834               	movf	_me_1_us3_th,w
  2422  0E32  064D               	xorwf	_me_1_us3_h,w
  2423  0E33  1903               	skipnz
  2424  0E34  2E38               	goto	u4461
  2425  0E35  160A  118A  2CD5   	goto	u4460
  2426  0E38                     u4461:
  2427  0E38  160A  118A  2CDA   	goto	l4201
  2428                           
  2429                           	psect	text1
  2430  0C24                     __ptext1:	
  2431 ;; *************** function _WriteToEEPROM *****************
  2432 ;; Defined at:
  2433 ;;		line 1102 in file "PROYECTO.c"
  2434 ;; Parameters:    Size  Location     Type
  2435 ;;  dato            1    wreg     unsigned char 
  2436 ;;  addr            1    3[COMMON] unsigned char 
  2437 ;; Auto vars:     Size  Location     Type
  2438 ;;  dato            1    4[COMMON] unsigned char 
  2439 ;; Return value:  Size  Location     Type
  2440 ;;                  1    wreg      void 
  2441 ;; Registers used:
  2442 ;;		wreg
  2443 ;; Tracked objects:
  2444 ;;		On entry : 0/0
  2445 ;;		On exit  : 0/0
  2446 ;;		Unchanged: 0/0
  2447 ;; Data sizes:     COMMON   BANK0   BANK1   BANK3   BANK2
  2448 ;;      Params:         1       0       0       0       0
  2449 ;;      Locals:         1       0       0       0       0
  2450 ;;      Temps:          0       0       0       0       0
  2451 ;;      Totals:         2       0       0       0       0
  2452 ;;Total ram usage:        2 bytes
  2453 ;; Hardware stack levels used:    1
  2454 ;; Hardware stack levels required when called:    1
  2455 ;; This function calls:
  2456 ;;		Nothing
  2457 ;; This function is called by:
  2458 ;;		_main
  2459 ;; This function uses a non-reentrant model
  2460 ;;
  2461                           
  2462                           
  2463                           ;psect for function _WriteToEEPROM
  2464  0C24                     _WriteToEEPROM:
  2465                           
  2466                           ;incstack = 0
  2467                           ; Regs used in _WriteToEEPROM: [wreg]
  2468                           ;WriteToEEPROM@dato stored from wreg
  2469  0C24  00F4               	movwf	WriteToEEPROM@dato
  2470  0C25                     l2595:
  2471                           
  2472                           ;PROYECTO.c: 1103:     EEADR = addr;
  2473  0C25  0873               	movf	WriteToEEPROM@addr,w
  2474  0C26  1283               	bcf	3,5	;RP0=0, select bank2
  2475  0C27  1703               	bsf	3,6	;RP1=1, select bank2
  2476  0C28  008D               	movwf	13	;volatile
  2477                           
  2478                           ;PROYECTO.c: 1104:     EEDAT = dato;
  2479  0C29  0874               	movf	WriteToEEPROM@dato,w
  2480  0C2A  008C               	movwf	12	;volatile
  2481  0C2B                     l2597:
  2482                           
  2483                           ;PROYECTO.c: 1106:     EECON1bits.EEPGD = 0;
  2484  0C2B  1683               	bsf	3,5	;RP0=1, select bank3
  2485  0C2C  1703               	bsf	3,6	;RP1=1, select bank3
  2486  0C2D  138C               	bcf	12,7	;volsfr
  2487  0C2E                     l2599:
  2488                           
  2489                           ;PROYECTO.c: 1107:     EECON1bits.WREN = 1;
  2490  0C2E  150C               	bsf	12,2	;volsfr
  2491  0C2F                     l2601:
  2492                           
  2493                           ;PROYECTO.c: 1109:     INTCONbits.GIE = 0;
  2494  0C2F  138B               	bcf	11,7	;volatile
  2495  0C30                     l2603:
  2496                           
  2497                           ;PROYECTO.c: 1110:     RCSTAbits.SPEN = 0;
  2498  0C30  1283               	bcf	3,5	;RP0=0, select bank0
  2499  0C31  1303               	bcf	3,6	;RP1=0, select bank0
  2500  0C32  1398               	bcf	24,7	;volatile
  2501  0C33                     l2605:
  2502                           
  2503                           ;PROYECTO.c: 1111:     RCSTAbits.CREN = 0;
  2504  0C33  1218               	bcf	24,4	;volatile
  2505  0C34                     l2607:
  2506                           
  2507                           ;PROYECTO.c: 1112:     TXSTAbits.TXEN = 0;
  2508  0C34  1683               	bsf	3,5	;RP0=1, select bank1
  2509  0C35  1303               	bcf	3,6	;RP1=0, select bank1
  2510  0C36  1298               	bcf	24,5	;volatile
  2511                           
  2512                           ;PROYECTO.c: 1114:     EECON2 = 0x55;
  2513  0C37  3055               	movlw	85
  2514  0C38  1683               	bsf	3,5	;RP0=1, select bank3
  2515  0C39  1703               	bsf	3,6	;RP1=1, select bank3
  2516  0C3A  008D               	movwf	13	;volsfr
  2517                           
  2518                           ;PROYECTO.c: 1115:     EECON2 = 0xAA;
  2519  0C3B  30AA               	movlw	170
  2520  0C3C  008D               	movwf	13	;volsfr
  2521  0C3D                     l2609:
  2522                           
  2523                           ;PROYECTO.c: 1117:     EECON1bits.WR = 1;
  2524  0C3D  148C               	bsf	12,1	;volsfr
  2525  0C3E                     l695:	
  2526                           ;PROYECTO.c: 1119:     while(PIR2bits.EEIF == 0);
  2527                           
  2528  0C3E  1283               	bcf	3,5	;RP0=0, select bank0
  2529  0C3F  1303               	bcf	3,6	;RP1=0, select bank0
  2530  0C40  1E0D               	btfss	13,4	;volatile
  2531  0C41  2C43               	goto	u2171
  2532  0C42  2C44               	goto	u2170
  2533  0C43                     u2171:
  2534  0C43  2C3E               	goto	l695
  2535  0C44                     u2170:
  2536  0C44                     l697:
  2537                           
  2538                           ;PROYECTO.c: 1120:     PIR2bits.EEIF = 0;
  2539  0C44  120D               	bcf	13,4	;volatile
  2540                           
  2541                           ;PROYECTO.c: 1122:     EECON1bits.WREN = 0;
  2542  0C45  1683               	bsf	3,5	;RP0=1, select bank3
  2543  0C46  1703               	bsf	3,6	;RP1=1, select bank3
  2544  0C47  110C               	bcf	12,2	;volsfr
  2545                           
  2546                           ;PROYECTO.c: 1123:     INTCONbits.GIE = 1;
  2547  0C48  178B               	bsf	11,7	;volatile
  2548                           
  2549                           ;PROYECTO.c: 1124:     RCSTAbits.SPEN = 1;
  2550  0C49  1283               	bcf	3,5	;RP0=0, select bank0
  2551  0C4A  1303               	bcf	3,6	;RP1=0, select bank0
  2552  0C4B  1798               	bsf	24,7	;volatile
  2553                           
  2554                           ;PROYECTO.c: 1125:     RCSTAbits.CREN = 1;
  2555  0C4C  1618               	bsf	24,4	;volatile
  2556                           
  2557                           ;PROYECTO.c: 1126:     TXSTAbits.TXEN = 1;
  2558  0C4D  1683               	bsf	3,5	;RP0=1, select bank1
  2559  0C4E  1303               	bcf	3,6	;RP1=0, select bank1
  2560  0C4F  1698               	bsf	24,5	;volatile
  2561  0C50                     l698:	
  2562                           ;PROYECTO.c: 1128:     return;
  2563                           
  2564  0C50  0008               	return
  2565  0C51                     __end_of_WriteToEEPROM:
  2566                           
  2567                           	psect	text2
  2568  0C14                     __ptext2:	
  2569 ;; *************** function _USART_Rx *****************
  2570 ;; Defined at:
  2571 ;;		line 822 in file "PROYECTO.c"
  2572 ;; Parameters:    Size  Location     Type
  2573 ;;		None
  2574 ;; Auto vars:     Size  Location     Type
  2575 ;;		None
  2576 ;; Return value:  Size  Location     Type
  2577 ;;                  1    wreg      unsigned char 
  2578 ;; Registers used:
  2579 ;;		wreg
  2580 ;; Tracked objects:
  2581 ;;		On entry : 0/0
  2582 ;;		On exit  : 0/0
  2583 ;;		Unchanged: 0/0
  2584 ;; Data sizes:     COMMON   BANK0   BANK1   BANK3   BANK2
  2585 ;;      Params:         0       0       0       0       0
  2586 ;;      Locals:         0       0       0       0       0
  2587 ;;      Temps:          0       0       0       0       0
  2588 ;;      Totals:         0       0       0       0       0
  2589 ;;Total ram usage:        0 bytes
  2590 ;; Hardware stack levels used:    1
  2591 ;; Hardware stack levels required when called:    1
  2592 ;; This function calls:
  2593 ;;		Nothing
  2594 ;; This function is called by:
  2595 ;;		_main
  2596 ;; This function uses a non-reentrant model
  2597 ;;
  2598                           
  2599                           
  2600                           ;psect for function _USART_Rx
  2601  0C14                     _USART_Rx:
  2602  0C14                     l2611:	
  2603                           ;incstack = 0
  2604                           ; Regs used in _USART_Rx: [wreg]
  2605                           
  2606                           
  2607                           ;PROYECTO.c: 823:     return RCREG;
  2608  0C14  1283               	bcf	3,5	;RP0=0, select bank0
  2609  0C15  1303               	bcf	3,6	;RP1=0, select bank0
  2610  0C16  081A               	movf	26,w	;volatile
  2611  0C17                     l479:
  2612  0C17  0008               	return
  2613  0C18                     __end_of_USART_Rx:
  2614                           
  2615                           	psect	text3
  2616  0C88                     __ptext3:	
  2617 ;; *************** function _SendCharM *****************
  2618 ;; Defined at:
  2619 ;;		line 992 in file "PROYECTO.c"
  2620 ;; Parameters:    Size  Location     Type
  2621 ;;  in              1    wreg     unsigned char 
  2622 ;; Auto vars:     Size  Location     Type
  2623 ;;  in              1    0[BANK0 ] unsigned char 
  2624 ;; Return value:  Size  Location     Type
  2625 ;;                  1    wreg      void 
  2626 ;; Registers used:
  2627 ;;		wreg, fsr0l, fsr0h, status,2, status,0, btemp+1, pclath, cstack
  2628 ;; Tracked objects:
  2629 ;;		On entry : 0/0
  2630 ;;		On exit  : 0/0
  2631 ;;		Unchanged: 0/0
  2632 ;; Data sizes:     COMMON   BANK0   BANK1   BANK3   BANK2
  2633 ;;      Params:         0       0       0       0       0
  2634 ;;      Locals:         0       1       0       0       0
  2635 ;;      Temps:          0       0       0       0       0
  2636 ;;      Totals:         0       1       0       0       0
  2637 ;;Total ram usage:        1 bytes
  2638 ;; Hardware stack levels used:    1
  2639 ;; Hardware stack levels required when called:    3
  2640 ;; This function calls:
  2641 ;;		_USART_Cadena
  2642 ;; This function is called by:
  2643 ;;		_main
  2644 ;; This function uses a non-reentrant model
  2645 ;;
  2646                           
  2647                           
  2648                           ;psect for function _SendCharM
  2649  0C88                     _SendCharM:
  2650                           
  2651                           ;incstack = 0
  2652                           ; Regs used in _SendCharM: [wreg-fsr0h+status,2+status,0+btemp+1+pclath+cstack]
  2653                           ;SendCharM@in stored from wreg
  2654  0C88  1283               	bcf	3,5	;RP0=0, select bank0
  2655  0C89  1303               	bcf	3,6	;RP1=0, select bank0
  2656  0C8A  00DC               	movwf	SendCharM@in
  2657  0C8B                     l3869:
  2658  0C8B                     l638:	
  2659                           ;PROYECTO.c: 993:     while(TXSTAbits.TRMT == 0);
  2660                           
  2661  0C8B  1683               	bsf	3,5	;RP0=1, select bank1
  2662  0C8C  1303               	bcf	3,6	;RP1=0, select bank1
  2663  0C8D  1C98               	btfss	24,1	;volatile
  2664  0C8E  2C90               	goto	u4311
  2665  0C8F  2C91               	goto	u4310
  2666  0C90                     u4311:
  2667  0C90  2C8B               	goto	l638
  2668  0C91                     u4310:
  2669  0C91                     l3871:
  2670                           
  2671                           ;PROYECTO.c: 994:         if(in == 0) {
  2672  0C91  1283               	bcf	3,5	;RP0=0, select bank0
  2673  0C92  1303               	bcf	3,6	;RP1=0, select bank0
  2674  0C93  085C               	movf	SendCharM@in,w
  2675  0C94  1D03               	btfss	3,2
  2676  0C95  2C97               	goto	u4321
  2677  0C96  2C98               	goto	u4320
  2678  0C97                     u4321:
  2679  0C97  2CA2               	goto	l3875
  2680  0C98                     u4320:
  2681  0C98                     l3873:
  2682                           
  2683                           ;PROYECTO.c: 995:             USART_Cadena("0");
  2684  0C98  3009               	movlw	low ((STR_92+1)| (0+32768))
  2685  0C99  00F4               	movwf	USART_Cadena@str
  2686  0C9A  308C               	movlw	high ((STR_92+1)| (0+32768))
  2687  0C9B  00F5               	movwf	USART_Cadena@str+1
  2688  0C9C  160A  118A  23DC  120A  158A  	fcall	_USART_Cadena
  2689                           
  2690                           ;PROYECTO.c: 996:         }else if (in == 15){
  2691  0CA1  2CE2               	goto	l650
  2692  0CA2                     l3875:
  2693  0CA2  300F               	movlw	15
  2694  0CA3  065C               	xorwf	SendCharM@in,w
  2695  0CA4  1D03               	btfss	3,2
  2696  0CA5  2CA7               	goto	u4331
  2697  0CA6  2CA8               	goto	u4330
  2698  0CA7                     u4331:
  2699  0CA7  2CB2               	goto	l3879
  2700  0CA8                     u4330:
  2701  0CA8                     l3877:
  2702                           
  2703                           ;PROYECTO.c: 997:             USART_Cadena("15");
  2704  0CA8  300B               	movlw	low (STR_91| (0+32768))
  2705  0CA9  00F4               	movwf	USART_Cadena@str
  2706  0CAA  308C               	movlw	high (STR_91| (0+32768))
  2707  0CAB  00F5               	movwf	USART_Cadena@str+1
  2708  0CAC  160A  118A  23DC  120A  158A  	fcall	_USART_Cadena
  2709                           
  2710                           ;PROYECTO.c: 998:         }else if (in == 30){
  2711  0CB1  2CE2               	goto	l650
  2712  0CB2                     l3879:
  2713  0CB2  301E               	movlw	30
  2714  0CB3  065C               	xorwf	SendCharM@in,w
  2715  0CB4  1D03               	btfss	3,2
  2716  0CB5  2CB7               	goto	u4341
  2717  0CB6  2CB8               	goto	u4340
  2718  0CB7                     u4341:
  2719  0CB7  2CC2               	goto	l3883
  2720  0CB8                     u4340:
  2721  0CB8                     l3881:
  2722                           
  2723                           ;PROYECTO.c: 999:             USART_Cadena("30");
  2724  0CB8  3008               	movlw	low (STR_92| (0+32768))
  2725  0CB9  00F4               	movwf	USART_Cadena@str
  2726  0CBA  308C               	movlw	high (STR_92| (0+32768))
  2727  0CBB  00F5               	movwf	USART_Cadena@str+1
  2728  0CBC  160A  118A  23DC  120A  158A  	fcall	_USART_Cadena
  2729                           
  2730                           ;PROYECTO.c: 1000:         }else if (in == 45){
  2731  0CC1  2CE2               	goto	l650
  2732  0CC2                     l3883:
  2733  0CC2  302D               	movlw	45
  2734  0CC3  065C               	xorwf	SendCharM@in,w
  2735  0CC4  1D03               	btfss	3,2
  2736  0CC5  2CC7               	goto	u4351
  2737  0CC6  2CC8               	goto	u4350
  2738  0CC7                     u4351:
  2739  0CC7  2CD2               	goto	l3887
  2740  0CC8                     u4350:
  2741  0CC8                     l3885:
  2742                           
  2743                           ;PROYECTO.c: 1001:             USART_Cadena("45");
  2744  0CC8  300E               	movlw	low (STR_93| (0+32768))
  2745  0CC9  00F4               	movwf	USART_Cadena@str
  2746  0CCA  308C               	movlw	high (STR_93| (0+32768))
  2747  0CCB  00F5               	movwf	USART_Cadena@str+1
  2748  0CCC  160A  118A  23DC  120A  158A  	fcall	_USART_Cadena
  2749                           
  2750                           ;PROYECTO.c: 1002:         }else if (in == 55){
  2751  0CD1  2CE2               	goto	l650
  2752  0CD2                     l3887:
  2753  0CD2  3037               	movlw	55
  2754  0CD3  065C               	xorwf	SendCharM@in,w
  2755  0CD4  1D03               	btfss	3,2
  2756  0CD5  2CD7               	goto	u4361
  2757  0CD6  2CD8               	goto	u4360
  2758  0CD7                     u4361:
  2759  0CD7  2CE2               	goto	l644
  2760  0CD8                     u4360:
  2761  0CD8                     l3889:
  2762                           
  2763                           ;PROYECTO.c: 1003:             USART_Cadena("55");
  2764  0CD8  3011               	movlw	low (STR_94| (0+32768))
  2765  0CD9  00F4               	movwf	USART_Cadena@str
  2766  0CDA  308C               	movlw	high (STR_94| (0+32768))
  2767  0CDB  00F5               	movwf	USART_Cadena@str+1
  2768  0CDC  160A  118A  23DC  120A  158A  	fcall	_USART_Cadena
  2769  0CE1  2CE2               	goto	l650
  2770  0CE2                     l644:
  2771  0CE2                     l650:
  2772  0CE2  0008               	return
  2773  0CE3                     __end_of_SendCharM:
  2774                           
  2775                           	psect	text4
  2776  13DC                     __ptext4:	
  2777 ;; *************** function _USART_Cadena *****************
  2778 ;; Defined at:
  2779 ;;		line 826 in file "PROYECTO.c"
  2780 ;; Parameters:    Size  Location     Type
  2781 ;;  str             2    4[COMMON] PTR unsigned char 
  2782 ;;		 -> STR_94(3), STR_93(3), STR_92(3), STR_91(3), 
  2783 ;;		 -> STR_90(2), STR_89(14), STR_88(35), STR_87(10), 
  2784 ;;		 -> STR_86(35), STR_85(10), STR_84(35), STR_83(27), 
  2785 ;;		 -> STR_82(49), STR_81(44), STR_80(4), STR_79(4), 
  2786 ;;		 -> STR_78(37), STR_77(45), STR_76(4), STR_75(4), 
  2787 ;;		 -> STR_74(49), STR_73(49), STR_72(52), STR_71(40), 
  2788 ;;		 -> STR_70(27), STR_69(49), STR_68(44), STR_67(4), 
  2789 ;;		 -> STR_66(4), STR_65(37), STR_64(45), STR_63(4), 
  2790 ;;		 -> STR_62(4), STR_61(49), STR_60(49), STR_59(53), 
  2791 ;;		 -> STR_58(40), STR_57(27), STR_56(49), STR_55(44), 
  2792 ;;		 -> STR_54(3), STR_53(3), STR_52(37), STR_51(45), 
  2793 ;;		 -> STR_50(4), STR_49(4), STR_48(49), STR_47(49), 
  2794 ;;		 -> STR_46(53), STR_45(40), STR_44(34), STR_43(7), 
  2795 ;;		 -> STR_42(8), STR_41(11), STR_40(32), STR_39(7), 
  2796 ;;		 -> STR_38(8), STR_37(11), STR_36(32), STR_35(7), 
  2797 ;;		 -> STR_34(8), STR_33(11), STR_32(34), STR_31(7), 
  2798 ;;		 -> STR_30(8), STR_29(11), STR_28(32), STR_27(7), 
  2799 ;;		 -> STR_26(8), STR_25(11), STR_24(32), STR_23(7), 
  2800 ;;		 -> STR_22(8), STR_21(11), STR_20(34), STR_19(7), 
  2801 ;;		 -> STR_18(8), STR_17(11), STR_16(32), STR_15(7), 
  2802 ;;		 -> STR_14(8), STR_13(11), STR_12(32), STR_11(7), 
  2803 ;;		 -> STR_10(8), STR_9(11), STR_8(51), STR_7(38), 
  2804 ;;		 -> STR_6(36), STR_5(37), STR_4(33), STR_3(31), 
  2805 ;;		 -> STR_2(32), STR_1(33), 
  2806 ;; Auto vars:     Size  Location     Type
  2807 ;;		None
  2808 ;; Return value:  Size  Location     Type
  2809 ;;                  1    wreg      void 
  2810 ;; Registers used:
  2811 ;;		wreg, fsr0l, fsr0h, status,2, status,0, btemp+1, pclath, cstack
  2812 ;; Tracked objects:
  2813 ;;		On entry : 0/0
  2814 ;;		On exit  : 0/0
  2815 ;;		Unchanged: 0/0
  2816 ;; Data sizes:     COMMON   BANK0   BANK1   BANK3   BANK2
  2817 ;;      Params:         2       0       0       0       0
  2818 ;;      Locals:         0       0       0       0       0
  2819 ;;      Temps:          0       0       0       0       0
  2820 ;;      Totals:         2       0       0       0       0
  2821 ;;Total ram usage:        2 bytes
  2822 ;; Hardware stack levels used:    1
  2823 ;; Hardware stack levels required when called:    2
  2824 ;; This function calls:
  2825 ;;		_USART_Tx
  2826 ;; This function is called by:
  2827 ;;		_main
  2828 ;;		_SendCharM
  2829 ;; This function uses a non-reentrant model
  2830 ;;
  2831                           
  2832                           
  2833                           ;psect for function _USART_Cadena
  2834  13DC                     _USART_Cadena:
  2835  13DC                     l3861:	
  2836                           ;incstack = 0
  2837                           ; Regs used in _USART_Cadena: [wreg-fsr0h+status,2+status,0+btemp+1+pclath+cstack]
  2838                           
  2839                           
  2840                           ;PROYECTO.c: 827:     while(*str != '\0'){
  2841  13DC  2BF1               	goto	l3867
  2842  13DD                     l3863:
  2843                           
  2844                           ;PROYECTO.c: 828:         USART_Tx(*str);
  2845  13DD  0875               	movf	USART_Cadena@str+1,w
  2846  13DE  00FF               	movwf	btemp+1
  2847  13DF  0874               	movf	USART_Cadena@str,w
  2848  13E0  0084               	movwf	4
  2849  13E1  120A  118A  27EB  160A  118A  	fcall	stringtab
  2850  13E6  120A  158A  2418  160A  118A  	fcall	_USART_Tx
  2851  13EB                     l3865:
  2852                           
  2853                           ;PROYECTO.c: 829:         str++;
  2854  13EB  3001               	movlw	1
  2855  13EC  07F4               	addwf	USART_Cadena@str,f
  2856  13ED  1803               	skipnc
  2857  13EE  0AF5               	incf	USART_Cadena@str+1,f
  2858  13EF  3000               	movlw	0
  2859  13F0  07F5               	addwf	USART_Cadena@str+1,f
  2860  13F1                     l3867:
  2861                           
  2862                           ;PROYECTO.c: 827:     while(*str != '\0'){
  2863  13F1  0875               	movf	USART_Cadena@str+1,w
  2864  13F2  1283               	bcf	3,5	;RP0=0, select bank0
  2865  13F3  1303               	bcf	3,6	;RP1=0, select bank0
  2866  13F4  00FF               	movwf	btemp+1
  2867  13F5  0874               	movf	USART_Cadena@str,w
  2868  13F6  0084               	movwf	4
  2869  13F7  120A  118A  27EB  160A  118A  	fcall	stringtab
  2870  13FC  3A00               	xorlw	0
  2871  13FD  1D03               	skipz
  2872  13FE  2C00               	goto	u4301
  2873  13FF  2C01               	goto	u4300
  2874  1400                     u4301:
  2875  1400  2BDD               	goto	l3863
  2876  1401                     u4300:
  2877  1401                     l485:
  2878  1401  0008               	return
  2879  1402                     __end_of_USART_Cadena:
  2880                           
  2881                           	psect	text5
  2882  0C18                     __ptext5:	
  2883 ;; *************** function _USART_Tx *****************
  2884 ;; Defined at:
  2885 ;;		line 817 in file "PROYECTO.c"
  2886 ;; Parameters:    Size  Location     Type
  2887 ;;  data            1    wreg     unsigned char 
  2888 ;; Auto vars:     Size  Location     Type
  2889 ;;  data            1    3[COMMON] unsigned char 
  2890 ;; Return value:  Size  Location     Type
  2891 ;;                  1    wreg      void 
  2892 ;; Registers used:
  2893 ;;		wreg
  2894 ;; Tracked objects:
  2895 ;;		On entry : 0/0
  2896 ;;		On exit  : 0/0
  2897 ;;		Unchanged: 0/0
  2898 ;; Data sizes:     COMMON   BANK0   BANK1   BANK3   BANK2
  2899 ;;      Params:         0       0       0       0       0
  2900 ;;      Locals:         1       0       0       0       0
  2901 ;;      Temps:          0       0       0       0       0
  2902 ;;      Totals:         1       0       0       0       0
  2903 ;;Total ram usage:        1 bytes
  2904 ;; Hardware stack levels used:    1
  2905 ;; Hardware stack levels required when called:    1
  2906 ;; This function calls:
  2907 ;;		Nothing
  2908 ;; This function is called by:
  2909 ;;		_USART_Cadena
  2910 ;; This function uses a non-reentrant model
  2911 ;;
  2912                           
  2913                           
  2914                           ;psect for function _USART_Tx
  2915  0C18                     _USART_Tx:
  2916                           
  2917                           ;incstack = 0
  2918                           ; Regs used in _USART_Tx: [wreg]
  2919                           ;USART_Tx@data stored from wreg
  2920  0C18  00F3               	movwf	USART_Tx@data
  2921  0C19                     l3857:
  2922  0C19                     l473:	
  2923                           ;PROYECTO.c: 818:     while(TXSTAbits.TRMT == 0);
  2924                           
  2925  0C19  1683               	bsf	3,5	;RP0=1, select bank1
  2926  0C1A  1303               	bcf	3,6	;RP1=0, select bank1
  2927  0C1B  1C98               	btfss	24,1	;volatile
  2928  0C1C  2C1E               	goto	u4291
  2929  0C1D  2C1F               	goto	u4290
  2930  0C1E                     u4291:
  2931  0C1E  2C19               	goto	l473
  2932  0C1F                     u4290:
  2933  0C1F                     l3859:
  2934                           
  2935                           ;PROYECTO.c: 819:     TXREG = data;
  2936  0C1F  0873               	movf	USART_Tx@data,w
  2937  0C20  1283               	bcf	3,5	;RP0=0, select bank0
  2938  0C21  1303               	bcf	3,6	;RP1=0, select bank0
  2939  0C22  0099               	movwf	25	;volatile
  2940  0C23                     l476:
  2941  0C23  0008               	return
  2942  0C24                     __end_of_USART_Tx:
  2943                           
  2944                           	psect	text6
  2945  0E3B                     __ptext6:	
  2946 ;; *************** function _SendCharH *****************
  2947 ;; Defined at:
  2948 ;;		line 833 in file "PROYECTO.c"
  2949 ;; Parameters:    Size  Location     Type
  2950 ;;  in              1    wreg     unsigned char 
  2951 ;; Auto vars:     Size  Location     Type
  2952 ;;  in              1    5[COMMON] unsigned char 
  2953 ;; Return value:  Size  Location     Type
  2954 ;;                  1    wreg      void 
  2955 ;; Registers used:
  2956 ;;		wreg, fsr0l, fsr0h, status,2, status,0
  2957 ;; Tracked objects:
  2958 ;;		On entry : 0/0
  2959 ;;		On exit  : 0/0
  2960 ;;		Unchanged: 0/0
  2961 ;; Data sizes:     COMMON   BANK0   BANK1   BANK3   BANK2
  2962 ;;      Params:         0       0       0       0       0
  2963 ;;      Locals:         1       0       0       0       0
  2964 ;;      Temps:          2       0       0       0       0
  2965 ;;      Totals:         3       0       0       0       0
  2966 ;;Total ram usage:        3 bytes
  2967 ;; Hardware stack levels used:    1
  2968 ;; Hardware stack levels required when called:    1
  2969 ;; This function calls:
  2970 ;;		Nothing
  2971 ;; This function is called by:
  2972 ;;		_main
  2973 ;; This function uses a non-reentrant model
  2974 ;;
  2975                           
  2976                           
  2977                           ;psect for function _SendCharH
  2978  0E3B                     _SendCharH:
  2979                           
  2980                           ;incstack = 0
  2981                           ; Regs used in _SendCharH: [wreg-fsr0h+status,2+status,0]
  2982                           ;SendCharH@in stored from wreg
  2983  0E3B  00F5               	movwf	SendCharH@in
  2984  0E3C                     l2615:
  2985                           
  2986                           ;PROYECTO.c: 834:     switch(in){
  2987  0E3C  2FAA               	goto	l2699
  2988  0E3D                     l490:
  2989  0E3D  1683               	bsf	3,5	;RP0=1, select bank1
  2990  0E3E  1303               	bcf	3,6	;RP1=0, select bank1
  2991  0E3F  1C98               	btfss	24,1	;volatile
  2992  0E40  2E42               	goto	u2181
  2993  0E41  2E43               	goto	u2180
  2994  0E42                     u2181:
  2995  0E42  2E3D               	goto	l490
  2996  0E43                     u2180:
  2997  0E43                     l2617:
  2998                           
  2999                           ;PROYECTO.c: 837:             TXREG = 48;
  3000  0E43  3030               	movlw	48
  3001  0E44  1283               	bcf	3,5	;RP0=0, select bank0
  3002  0E45  1303               	bcf	3,6	;RP1=0, select bank0
  3003  0E46  0099               	movwf	25	;volatile
  3004                           
  3005                           ;PROYECTO.c: 838:         break;
  3006  0E47  2FFF               	goto	l635
  3007  0E48                     l495:
  3008  0E48  1683               	bsf	3,5	;RP0=1, select bank1
  3009  0E49  1303               	bcf	3,6	;RP1=0, select bank1
  3010  0E4A  1C98               	btfss	24,1	;volatile
  3011  0E4B  2E4D               	goto	u2191
  3012  0E4C  2E4E               	goto	u2190
  3013  0E4D                     u2191:
  3014  0E4D  2E48               	goto	l495
  3015  0E4E                     u2190:
  3016  0E4E                     l2619:
  3017                           
  3018                           ;PROYECTO.c: 842:             TXREG = 49;
  3019  0E4E  3031               	movlw	49
  3020  0E4F  1283               	bcf	3,5	;RP0=0, select bank0
  3021  0E50  1303               	bcf	3,6	;RP1=0, select bank0
  3022  0E51  0099               	movwf	25	;volatile
  3023                           
  3024                           ;PROYECTO.c: 843:         break;
  3025  0E52  2FFF               	goto	l635
  3026  0E53                     l499:
  3027  0E53  1683               	bsf	3,5	;RP0=1, select bank1
  3028  0E54  1303               	bcf	3,6	;RP1=0, select bank1
  3029  0E55  1C98               	btfss	24,1	;volatile
  3030  0E56  2E58               	goto	u2201
  3031  0E57  2E59               	goto	u2200
  3032  0E58                     u2201:
  3033  0E58  2E53               	goto	l499
  3034  0E59                     u2200:
  3035  0E59                     l2621:
  3036                           
  3037                           ;PROYECTO.c: 847:             TXREG = 50;
  3038  0E59  3032               	movlw	50
  3039  0E5A  1283               	bcf	3,5	;RP0=0, select bank0
  3040  0E5B  1303               	bcf	3,6	;RP1=0, select bank0
  3041  0E5C  0099               	movwf	25	;volatile
  3042                           
  3043                           ;PROYECTO.c: 848:         break;
  3044  0E5D  2FFF               	goto	l635
  3045  0E5E                     l503:
  3046  0E5E  1683               	bsf	3,5	;RP0=1, select bank1
  3047  0E5F  1303               	bcf	3,6	;RP1=0, select bank1
  3048  0E60  1C98               	btfss	24,1	;volatile
  3049  0E61  2E63               	goto	u2211
  3050  0E62  2E64               	goto	u2210
  3051  0E63                     u2211:
  3052  0E63  2E5E               	goto	l503
  3053  0E64                     u2210:
  3054  0E64                     l2623:
  3055                           
  3056                           ;PROYECTO.c: 852:             TXREG = 51;
  3057  0E64  3033               	movlw	51
  3058  0E65  1283               	bcf	3,5	;RP0=0, select bank0
  3059  0E66  1303               	bcf	3,6	;RP1=0, select bank0
  3060  0E67  0099               	movwf	25	;volatile
  3061                           
  3062                           ;PROYECTO.c: 853:         break;
  3063  0E68  2FFF               	goto	l635
  3064  0E69                     l507:
  3065  0E69  1683               	bsf	3,5	;RP0=1, select bank1
  3066  0E6A  1303               	bcf	3,6	;RP1=0, select bank1
  3067  0E6B  1C98               	btfss	24,1	;volatile
  3068  0E6C  2E6E               	goto	u2221
  3069  0E6D  2E6F               	goto	u2220
  3070  0E6E                     u2221:
  3071  0E6E  2E69               	goto	l507
  3072  0E6F                     u2220:
  3073  0E6F                     l2625:
  3074                           
  3075                           ;PROYECTO.c: 857:             TXREG = 52;
  3076  0E6F  3034               	movlw	52
  3077  0E70  1283               	bcf	3,5	;RP0=0, select bank0
  3078  0E71  1303               	bcf	3,6	;RP1=0, select bank0
  3079  0E72  0099               	movwf	25	;volatile
  3080                           
  3081                           ;PROYECTO.c: 858:         break;
  3082  0E73  2FFF               	goto	l635
  3083  0E74                     l511:
  3084  0E74  1683               	bsf	3,5	;RP0=1, select bank1
  3085  0E75  1303               	bcf	3,6	;RP1=0, select bank1
  3086  0E76  1C98               	btfss	24,1	;volatile
  3087  0E77  2E79               	goto	u2231
  3088  0E78  2E7A               	goto	u2230
  3089  0E79                     u2231:
  3090  0E79  2E74               	goto	l511
  3091  0E7A                     u2230:
  3092  0E7A                     l2627:
  3093                           
  3094                           ;PROYECTO.c: 862:             TXREG = 53;
  3095  0E7A  3035               	movlw	53
  3096  0E7B  1283               	bcf	3,5	;RP0=0, select bank0
  3097  0E7C  1303               	bcf	3,6	;RP1=0, select bank0
  3098  0E7D  0099               	movwf	25	;volatile
  3099                           
  3100                           ;PROYECTO.c: 863:         break;
  3101  0E7E  2FFF               	goto	l635
  3102  0E7F                     l515:
  3103  0E7F  1683               	bsf	3,5	;RP0=1, select bank1
  3104  0E80  1303               	bcf	3,6	;RP1=0, select bank1
  3105  0E81  1C98               	btfss	24,1	;volatile
  3106  0E82  2E84               	goto	u2241
  3107  0E83  2E85               	goto	u2240
  3108  0E84                     u2241:
  3109  0E84  2E7F               	goto	l515
  3110  0E85                     u2240:
  3111  0E85                     l2629:
  3112                           
  3113                           ;PROYECTO.c: 867:             TXREG = 54;
  3114  0E85  3036               	movlw	54
  3115  0E86  1283               	bcf	3,5	;RP0=0, select bank0
  3116  0E87  1303               	bcf	3,6	;RP1=0, select bank0
  3117  0E88  0099               	movwf	25	;volatile
  3118                           
  3119                           ;PROYECTO.c: 868:         break;
  3120  0E89  2FFF               	goto	l635
  3121  0E8A                     l519:
  3122  0E8A  1683               	bsf	3,5	;RP0=1, select bank1
  3123  0E8B  1303               	bcf	3,6	;RP1=0, select bank1
  3124  0E8C  1C98               	btfss	24,1	;volatile
  3125  0E8D  2E8F               	goto	u2251
  3126  0E8E  2E90               	goto	u2250
  3127  0E8F                     u2251:
  3128  0E8F  2E8A               	goto	l519
  3129  0E90                     u2250:
  3130  0E90                     l2631:
  3131                           
  3132                           ;PROYECTO.c: 872:             TXREG = 55;
  3133  0E90  3037               	movlw	55
  3134  0E91  1283               	bcf	3,5	;RP0=0, select bank0
  3135  0E92  1303               	bcf	3,6	;RP1=0, select bank0
  3136  0E93  0099               	movwf	25	;volatile
  3137                           
  3138                           ;PROYECTO.c: 873:         break;
  3139  0E94  2FFF               	goto	l635
  3140  0E95                     l523:
  3141  0E95  1683               	bsf	3,5	;RP0=1, select bank1
  3142  0E96  1303               	bcf	3,6	;RP1=0, select bank1
  3143  0E97  1C98               	btfss	24,1	;volatile
  3144  0E98  2E9A               	goto	u2261
  3145  0E99  2E9B               	goto	u2260
  3146  0E9A                     u2261:
  3147  0E9A  2E95               	goto	l523
  3148  0E9B                     u2260:
  3149  0E9B                     l2633:
  3150                           
  3151                           ;PROYECTO.c: 877:             TXREG = 56;
  3152  0E9B  3038               	movlw	56
  3153  0E9C  1283               	bcf	3,5	;RP0=0, select bank0
  3154  0E9D  1303               	bcf	3,6	;RP1=0, select bank0
  3155  0E9E  0099               	movwf	25	;volatile
  3156                           
  3157                           ;PROYECTO.c: 878:         break;
  3158  0E9F  2FFF               	goto	l635
  3159  0EA0                     l527:
  3160  0EA0  1683               	bsf	3,5	;RP0=1, select bank1
  3161  0EA1  1303               	bcf	3,6	;RP1=0, select bank1
  3162  0EA2  1C98               	btfss	24,1	;volatile
  3163  0EA3  2EA5               	goto	u2271
  3164  0EA4  2EA6               	goto	u2270
  3165  0EA5                     u2271:
  3166  0EA5  2EA0               	goto	l527
  3167  0EA6                     u2270:
  3168  0EA6                     l2635:
  3169                           
  3170                           ;PROYECTO.c: 882:             TXREG = 57;
  3171  0EA6  3039               	movlw	57
  3172  0EA7  1283               	bcf	3,5	;RP0=0, select bank0
  3173  0EA8  1303               	bcf	3,6	;RP1=0, select bank0
  3174  0EA9  0099               	movwf	25	;volatile
  3175                           
  3176                           ;PROYECTO.c: 883:         break;
  3177  0EAA  2FFF               	goto	l635
  3178  0EAB                     l531:
  3179  0EAB  1683               	bsf	3,5	;RP0=1, select bank1
  3180  0EAC  1303               	bcf	3,6	;RP1=0, select bank1
  3181  0EAD  1C98               	btfss	24,1	;volatile
  3182  0EAE  2EB0               	goto	u2281
  3183  0EAF  2EB1               	goto	u2280
  3184  0EB0                     u2281:
  3185  0EB0  2EAB               	goto	l531
  3186  0EB1                     u2280:
  3187  0EB1                     l2637:
  3188                           
  3189                           ;PROYECTO.c: 887:             TXREG = 49;
  3190  0EB1  3031               	movlw	49
  3191  0EB2  1283               	bcf	3,5	;RP0=0, select bank0
  3192  0EB3  1303               	bcf	3,6	;RP1=0, select bank0
  3193  0EB4  0099               	movwf	25	;volatile
  3194  0EB5                     l534:	
  3195                           ;PROYECTO.c: 888:             while(TXSTAbits.TRMT == 0);
  3196                           
  3197  0EB5  1683               	bsf	3,5	;RP0=1, select bank1
  3198  0EB6  1303               	bcf	3,6	;RP1=0, select bank1
  3199  0EB7  1C98               	btfss	24,1	;volatile
  3200  0EB8  2EBA               	goto	u2291
  3201  0EB9  2EBB               	goto	u2290
  3202  0EBA                     u2291:
  3203  0EBA  2EB5               	goto	l534
  3204  0EBB                     u2290:
  3205  0EBB  2E43               	goto	l2617
  3206  0EBC                     l538:
  3207  0EBC  1683               	bsf	3,5	;RP0=1, select bank1
  3208  0EBD  1303               	bcf	3,6	;RP1=0, select bank1
  3209  0EBE  1C98               	btfss	24,1	;volatile
  3210  0EBF  2EC1               	goto	u2301
  3211  0EC0  2EC2               	goto	u2300
  3212  0EC1                     u2301:
  3213  0EC1  2EBC               	goto	l538
  3214  0EC2                     u2300:
  3215  0EC2                     l2641:
  3216                           
  3217                           ;PROYECTO.c: 894:             TXREG = 49;
  3218  0EC2  3031               	movlw	49
  3219  0EC3  1283               	bcf	3,5	;RP0=0, select bank0
  3220  0EC4  1303               	bcf	3,6	;RP1=0, select bank0
  3221  0EC5  0099               	movwf	25	;volatile
  3222  0EC6                     l541:	
  3223                           ;PROYECTO.c: 895:             while(TXSTAbits.TRMT == 0);
  3224                           
  3225  0EC6  1683               	bsf	3,5	;RP0=1, select bank1
  3226  0EC7  1303               	bcf	3,6	;RP1=0, select bank1
  3227  0EC8  1C98               	btfss	24,1	;volatile
  3228  0EC9  2ECB               	goto	u2311
  3229  0ECA  2ECC               	goto	u2310
  3230  0ECB                     u2311:
  3231  0ECB  2EC6               	goto	l541
  3232  0ECC                     u2310:
  3233  0ECC  2E4E               	goto	l2619
  3234  0ECD                     l545:
  3235  0ECD  1683               	bsf	3,5	;RP0=1, select bank1
  3236  0ECE  1303               	bcf	3,6	;RP1=0, select bank1
  3237  0ECF  1C98               	btfss	24,1	;volatile
  3238  0ED0  2ED2               	goto	u2321
  3239  0ED1  2ED3               	goto	u2320
  3240  0ED2                     u2321:
  3241  0ED2  2ECD               	goto	l545
  3242  0ED3                     u2320:
  3243  0ED3                     l2645:
  3244                           
  3245                           ;PROYECTO.c: 901:             TXREG = 49;
  3246  0ED3  3031               	movlw	49
  3247  0ED4  1283               	bcf	3,5	;RP0=0, select bank0
  3248  0ED5  1303               	bcf	3,6	;RP1=0, select bank0
  3249  0ED6  0099               	movwf	25	;volatile
  3250  0ED7                     l548:	
  3251                           ;PROYECTO.c: 902:             while(TXSTAbits.TRMT == 0);
  3252                           
  3253  0ED7  1683               	bsf	3,5	;RP0=1, select bank1
  3254  0ED8  1303               	bcf	3,6	;RP1=0, select bank1
  3255  0ED9  1C98               	btfss	24,1	;volatile
  3256  0EDA  2EDC               	goto	u2331
  3257  0EDB  2EDD               	goto	u2330
  3258  0EDC                     u2331:
  3259  0EDC  2ED7               	goto	l548
  3260  0EDD                     u2330:
  3261  0EDD  2E59               	goto	l2621
  3262  0EDE                     l552:
  3263  0EDE  1683               	bsf	3,5	;RP0=1, select bank1
  3264  0EDF  1303               	bcf	3,6	;RP1=0, select bank1
  3265  0EE0  1C98               	btfss	24,1	;volatile
  3266  0EE1  2EE3               	goto	u2341
  3267  0EE2  2EE4               	goto	u2340
  3268  0EE3                     u2341:
  3269  0EE3  2EDE               	goto	l552
  3270  0EE4                     u2340:
  3271  0EE4                     l2649:
  3272                           
  3273                           ;PROYECTO.c: 908:             TXREG = 49;
  3274  0EE4  3031               	movlw	49
  3275  0EE5  1283               	bcf	3,5	;RP0=0, select bank0
  3276  0EE6  1303               	bcf	3,6	;RP1=0, select bank0
  3277  0EE7  0099               	movwf	25	;volatile
  3278  0EE8                     l555:	
  3279                           ;PROYECTO.c: 909:             while(TXSTAbits.TRMT == 0);
  3280                           
  3281  0EE8  1683               	bsf	3,5	;RP0=1, select bank1
  3282  0EE9  1303               	bcf	3,6	;RP1=0, select bank1
  3283  0EEA  1C98               	btfss	24,1	;volatile
  3284  0EEB  2EED               	goto	u2351
  3285  0EEC  2EEE               	goto	u2350
  3286  0EED                     u2351:
  3287  0EED  2EE8               	goto	l555
  3288  0EEE                     u2350:
  3289  0EEE  2E64               	goto	l2623
  3290  0EEF                     l559:
  3291  0EEF  1683               	bsf	3,5	;RP0=1, select bank1
  3292  0EF0  1303               	bcf	3,6	;RP1=0, select bank1
  3293  0EF1  1C98               	btfss	24,1	;volatile
  3294  0EF2  2EF4               	goto	u2361
  3295  0EF3  2EF5               	goto	u2360
  3296  0EF4                     u2361:
  3297  0EF4  2EEF               	goto	l559
  3298  0EF5                     u2360:
  3299  0EF5                     l2653:
  3300                           
  3301                           ;PROYECTO.c: 915:             TXREG = 49;
  3302  0EF5  3031               	movlw	49
  3303  0EF6  1283               	bcf	3,5	;RP0=0, select bank0
  3304  0EF7  1303               	bcf	3,6	;RP1=0, select bank0
  3305  0EF8  0099               	movwf	25	;volatile
  3306  0EF9                     l562:	
  3307                           ;PROYECTO.c: 916:             while(TXSTAbits.TRMT == 0);
  3308                           
  3309  0EF9  1683               	bsf	3,5	;RP0=1, select bank1
  3310  0EFA  1303               	bcf	3,6	;RP1=0, select bank1
  3311  0EFB  1C98               	btfss	24,1	;volatile
  3312  0EFC  2EFE               	goto	u2371
  3313  0EFD  2EFF               	goto	u2370
  3314  0EFE                     u2371:
  3315  0EFE  2EF9               	goto	l562
  3316  0EFF                     u2370:
  3317  0EFF  2E6F               	goto	l2625
  3318  0F00                     l566:
  3319  0F00  1683               	bsf	3,5	;RP0=1, select bank1
  3320  0F01  1303               	bcf	3,6	;RP1=0, select bank1
  3321  0F02  1C98               	btfss	24,1	;volatile
  3322  0F03  2F05               	goto	u2381
  3323  0F04  2F06               	goto	u2380
  3324  0F05                     u2381:
  3325  0F05  2F00               	goto	l566
  3326  0F06                     u2380:
  3327  0F06                     l2657:
  3328                           
  3329                           ;PROYECTO.c: 922:             TXREG = 49;
  3330  0F06  3031               	movlw	49
  3331  0F07  1283               	bcf	3,5	;RP0=0, select bank0
  3332  0F08  1303               	bcf	3,6	;RP1=0, select bank0
  3333  0F09  0099               	movwf	25	;volatile
  3334  0F0A                     l569:	
  3335                           ;PROYECTO.c: 923:             while(TXSTAbits.TRMT == 0);
  3336                           
  3337  0F0A  1683               	bsf	3,5	;RP0=1, select bank1
  3338  0F0B  1303               	bcf	3,6	;RP1=0, select bank1
  3339  0F0C  1C98               	btfss	24,1	;volatile
  3340  0F0D  2F0F               	goto	u2391
  3341  0F0E  2F10               	goto	u2390
  3342  0F0F                     u2391:
  3343  0F0F  2F0A               	goto	l569
  3344  0F10                     u2390:
  3345  0F10  2E7A               	goto	l2627
  3346  0F11                     l573:
  3347  0F11  1683               	bsf	3,5	;RP0=1, select bank1
  3348  0F12  1303               	bcf	3,6	;RP1=0, select bank1
  3349  0F13  1C98               	btfss	24,1	;volatile
  3350  0F14  2F16               	goto	u2401
  3351  0F15  2F17               	goto	u2400
  3352  0F16                     u2401:
  3353  0F16  2F11               	goto	l573
  3354  0F17                     u2400:
  3355  0F17                     l2661:
  3356                           
  3357                           ;PROYECTO.c: 929:             TXREG = 49;
  3358  0F17  3031               	movlw	49
  3359  0F18  1283               	bcf	3,5	;RP0=0, select bank0
  3360  0F19  1303               	bcf	3,6	;RP1=0, select bank0
  3361  0F1A  0099               	movwf	25	;volatile
  3362  0F1B                     l576:	
  3363                           ;PROYECTO.c: 930:             while(TXSTAbits.TRMT == 0);
  3364                           
  3365  0F1B  1683               	bsf	3,5	;RP0=1, select bank1
  3366  0F1C  1303               	bcf	3,6	;RP1=0, select bank1
  3367  0F1D  1C98               	btfss	24,1	;volatile
  3368  0F1E  2F20               	goto	u2411
  3369  0F1F  2F21               	goto	u2410
  3370  0F20                     u2411:
  3371  0F20  2F1B               	goto	l576
  3372  0F21                     u2410:
  3373  0F21  2E85               	goto	l2629
  3374  0F22                     l580:
  3375  0F22  1683               	bsf	3,5	;RP0=1, select bank1
  3376  0F23  1303               	bcf	3,6	;RP1=0, select bank1
  3377  0F24  1C98               	btfss	24,1	;volatile
  3378  0F25  2F27               	goto	u2421
  3379  0F26  2F28               	goto	u2420
  3380  0F27                     u2421:
  3381  0F27  2F22               	goto	l580
  3382  0F28                     u2420:
  3383  0F28                     l2665:
  3384                           
  3385                           ;PROYECTO.c: 936:             TXREG = 49;
  3386  0F28  3031               	movlw	49
  3387  0F29  1283               	bcf	3,5	;RP0=0, select bank0
  3388  0F2A  1303               	bcf	3,6	;RP1=0, select bank0
  3389  0F2B  0099               	movwf	25	;volatile
  3390  0F2C                     l583:	
  3391                           ;PROYECTO.c: 937:             while(TXSTAbits.TRMT == 0);
  3392                           
  3393  0F2C  1683               	bsf	3,5	;RP0=1, select bank1
  3394  0F2D  1303               	bcf	3,6	;RP1=0, select bank1
  3395  0F2E  1C98               	btfss	24,1	;volatile
  3396  0F2F  2F31               	goto	u2431
  3397  0F30  2F32               	goto	u2430
  3398  0F31                     u2431:
  3399  0F31  2F2C               	goto	l583
  3400  0F32                     u2430:
  3401  0F32  2E90               	goto	l2631
  3402  0F33                     l587:
  3403  0F33  1683               	bsf	3,5	;RP0=1, select bank1
  3404  0F34  1303               	bcf	3,6	;RP1=0, select bank1
  3405  0F35  1C98               	btfss	24,1	;volatile
  3406  0F36  2F38               	goto	u2441
  3407  0F37  2F39               	goto	u2440
  3408  0F38                     u2441:
  3409  0F38  2F33               	goto	l587
  3410  0F39                     u2440:
  3411  0F39                     l2669:
  3412                           
  3413                           ;PROYECTO.c: 943:             TXREG = 49;
  3414  0F39  3031               	movlw	49
  3415  0F3A  1283               	bcf	3,5	;RP0=0, select bank0
  3416  0F3B  1303               	bcf	3,6	;RP1=0, select bank0
  3417  0F3C  0099               	movwf	25	;volatile
  3418  0F3D                     l590:	
  3419                           ;PROYECTO.c: 944:             while(TXSTAbits.TRMT == 0);
  3420                           
  3421  0F3D  1683               	bsf	3,5	;RP0=1, select bank1
  3422  0F3E  1303               	bcf	3,6	;RP1=0, select bank1
  3423  0F3F  1C98               	btfss	24,1	;volatile
  3424  0F40  2F42               	goto	u2451
  3425  0F41  2F43               	goto	u2450
  3426  0F42                     u2451:
  3427  0F42  2F3D               	goto	l590
  3428  0F43                     u2450:
  3429  0F43  2E9B               	goto	l2633
  3430  0F44                     l594:
  3431  0F44  1683               	bsf	3,5	;RP0=1, select bank1
  3432  0F45  1303               	bcf	3,6	;RP1=0, select bank1
  3433  0F46  1C98               	btfss	24,1	;volatile
  3434  0F47  2F49               	goto	u2461
  3435  0F48  2F4A               	goto	u2460
  3436  0F49                     u2461:
  3437  0F49  2F44               	goto	l594
  3438  0F4A                     u2460:
  3439  0F4A                     l2673:
  3440                           
  3441                           ;PROYECTO.c: 950:             TXREG = 49;
  3442  0F4A  3031               	movlw	49
  3443  0F4B  1283               	bcf	3,5	;RP0=0, select bank0
  3444  0F4C  1303               	bcf	3,6	;RP1=0, select bank0
  3445  0F4D  0099               	movwf	25	;volatile
  3446  0F4E                     l597:	
  3447                           ;PROYECTO.c: 951:             while(TXSTAbits.TRMT == 0);
  3448                           
  3449  0F4E  1683               	bsf	3,5	;RP0=1, select bank1
  3450  0F4F  1303               	bcf	3,6	;RP1=0, select bank1
  3451  0F50  1C98               	btfss	24,1	;volatile
  3452  0F51  2F53               	goto	u2471
  3453  0F52  2F54               	goto	u2470
  3454  0F53                     u2471:
  3455  0F53  2F4E               	goto	l597
  3456  0F54                     u2470:
  3457  0F54  2EA6               	goto	l2635
  3458  0F55                     l601:
  3459  0F55  1683               	bsf	3,5	;RP0=1, select bank1
  3460  0F56  1303               	bcf	3,6	;RP1=0, select bank1
  3461  0F57  1C98               	btfss	24,1	;volatile
  3462  0F58  2F5A               	goto	u2481
  3463  0F59  2F5B               	goto	u2480
  3464  0F5A                     u2481:
  3465  0F5A  2F55               	goto	l601
  3466  0F5B                     u2480:
  3467  0F5B                     l2677:
  3468                           
  3469                           ;PROYECTO.c: 957:             TXREG = 50;
  3470  0F5B  3032               	movlw	50
  3471  0F5C  1283               	bcf	3,5	;RP0=0, select bank0
  3472  0F5D  1303               	bcf	3,6	;RP1=0, select bank0
  3473  0F5E  0099               	movwf	25	;volatile
  3474  0F5F                     l604:	
  3475                           ;PROYECTO.c: 958:             while(TXSTAbits.TRMT == 0);
  3476                           
  3477  0F5F  1683               	bsf	3,5	;RP0=1, select bank1
  3478  0F60  1303               	bcf	3,6	;RP1=0, select bank1
  3479  0F61  1C98               	btfss	24,1	;volatile
  3480  0F62  2F64               	goto	u2491
  3481  0F63  2F65               	goto	u2490
  3482  0F64                     u2491:
  3483  0F64  2F5F               	goto	l604
  3484  0F65                     u2490:
  3485  0F65  2E43               	goto	l2617
  3486  0F66                     l608:
  3487  0F66  1683               	bsf	3,5	;RP0=1, select bank1
  3488  0F67  1303               	bcf	3,6	;RP1=0, select bank1
  3489  0F68  1C98               	btfss	24,1	;volatile
  3490  0F69  2F6B               	goto	u2501
  3491  0F6A  2F6C               	goto	u2500
  3492  0F6B                     u2501:
  3493  0F6B  2F66               	goto	l608
  3494  0F6C                     u2500:
  3495  0F6C                     l2681:
  3496                           
  3497                           ;PROYECTO.c: 964:             TXREG = 50;
  3498  0F6C  3032               	movlw	50
  3499  0F6D  1283               	bcf	3,5	;RP0=0, select bank0
  3500  0F6E  1303               	bcf	3,6	;RP1=0, select bank0
  3501  0F6F  0099               	movwf	25	;volatile
  3502  0F70                     l611:	
  3503                           ;PROYECTO.c: 965:             while(TXSTAbits.TRMT == 0);
  3504                           
  3505  0F70  1683               	bsf	3,5	;RP0=1, select bank1
  3506  0F71  1303               	bcf	3,6	;RP1=0, select bank1
  3507  0F72  1C98               	btfss	24,1	;volatile
  3508  0F73  2F75               	goto	u2511
  3509  0F74  2F76               	goto	u2510
  3510  0F75                     u2511:
  3511  0F75  2F70               	goto	l611
  3512  0F76                     u2510:
  3513  0F76  2E4E               	goto	l2619
  3514  0F77                     l615:
  3515  0F77  1683               	bsf	3,5	;RP0=1, select bank1
  3516  0F78  1303               	bcf	3,6	;RP1=0, select bank1
  3517  0F79  1C98               	btfss	24,1	;volatile
  3518  0F7A  2F7C               	goto	u2521
  3519  0F7B  2F7D               	goto	u2520
  3520  0F7C                     u2521:
  3521  0F7C  2F77               	goto	l615
  3522  0F7D                     u2520:
  3523  0F7D                     l2685:
  3524                           
  3525                           ;PROYECTO.c: 971:             TXREG = 50;
  3526  0F7D  3032               	movlw	50
  3527  0F7E  1283               	bcf	3,5	;RP0=0, select bank0
  3528  0F7F  1303               	bcf	3,6	;RP1=0, select bank0
  3529  0F80  0099               	movwf	25	;volatile
  3530  0F81                     l618:	
  3531                           ;PROYECTO.c: 972:             while(TXSTAbits.TRMT == 0);
  3532                           
  3533  0F81  1683               	bsf	3,5	;RP0=1, select bank1
  3534  0F82  1303               	bcf	3,6	;RP1=0, select bank1
  3535  0F83  1C98               	btfss	24,1	;volatile
  3536  0F84  2F86               	goto	u2531
  3537  0F85  2F87               	goto	u2530
  3538  0F86                     u2531:
  3539  0F86  2F81               	goto	l618
  3540  0F87                     u2530:
  3541  0F87  2E59               	goto	l2621
  3542  0F88                     l622:
  3543  0F88  1683               	bsf	3,5	;RP0=1, select bank1
  3544  0F89  1303               	bcf	3,6	;RP1=0, select bank1
  3545  0F8A  1C98               	btfss	24,1	;volatile
  3546  0F8B  2F8D               	goto	u2541
  3547  0F8C  2F8E               	goto	u2540
  3548  0F8D                     u2541:
  3549  0F8D  2F88               	goto	l622
  3550  0F8E                     u2540:
  3551  0F8E                     l2689:
  3552                           
  3553                           ;PROYECTO.c: 978:             TXREG = 50;
  3554  0F8E  3032               	movlw	50
  3555  0F8F  1283               	bcf	3,5	;RP0=0, select bank0
  3556  0F90  1303               	bcf	3,6	;RP1=0, select bank0
  3557  0F91  0099               	movwf	25	;volatile
  3558  0F92                     l625:	
  3559                           ;PROYECTO.c: 979:             while(TXSTAbits.TRMT == 0);
  3560                           
  3561  0F92  1683               	bsf	3,5	;RP0=1, select bank1
  3562  0F93  1303               	bcf	3,6	;RP1=0, select bank1
  3563  0F94  1C98               	btfss	24,1	;volatile
  3564  0F95  2F97               	goto	u2551
  3565  0F96  2F98               	goto	u2550
  3566  0F97                     u2551:
  3567  0F97  2F92               	goto	l625
  3568  0F98                     u2550:
  3569  0F98  2E64               	goto	l2623
  3570  0F99                     l629:
  3571  0F99  1683               	bsf	3,5	;RP0=1, select bank1
  3572  0F9A  1303               	bcf	3,6	;RP1=0, select bank1
  3573  0F9B  1C98               	btfss	24,1	;volatile
  3574  0F9C  2F9E               	goto	u2561
  3575  0F9D  2F9F               	goto	u2560
  3576  0F9E                     u2561:
  3577  0F9E  2F99               	goto	l629
  3578  0F9F                     u2560:
  3579  0F9F                     l2693:
  3580                           
  3581                           ;PROYECTO.c: 985:             TXREG = 50;
  3582  0F9F  3032               	movlw	50
  3583  0FA0  1283               	bcf	3,5	;RP0=0, select bank0
  3584  0FA1  1303               	bcf	3,6	;RP1=0, select bank0
  3585  0FA2  0099               	movwf	25	;volatile
  3586  0FA3                     l632:	
  3587                           ;PROYECTO.c: 986:             while(TXSTAbits.TRMT == 0);
  3588                           
  3589  0FA3  1683               	bsf	3,5	;RP0=1, select bank1
  3590  0FA4  1303               	bcf	3,6	;RP1=0, select bank1
  3591  0FA5  1C98               	btfss	24,1	;volatile
  3592  0FA6  2FA8               	goto	u2571
  3593  0FA7  2FA9               	goto	u2570
  3594  0FA8                     u2571:
  3595  0FA8  2FA3               	goto	l632
  3596  0FA9                     u2570:
  3597  0FA9  2E6F               	goto	l2625
  3598  0FAA                     l2699:
  3599  0FAA  0875               	movf	SendCharH@in,w
  3600  0FAB  00F3               	movwf	??_SendCharH
  3601  0FAC  01F4               	clrf	??_SendCharH+1
  3602                           
  3603                           ; Switch on 2 bytes has been partitioned into a top level switch of size 1, and 1 sub-sw
      +                          itches
  3604                           ; Switch size 1, requested type "simple"
  3605                           ; Number of cases is 1, Range of values is 0 to 0
  3606                           ; switch strategies available:
  3607                           ; Name         Instructions Cycles
  3608                           ; simple_byte            4     3 (average)
  3609                           ; direct_byte           11     8 (fixed)
  3610                           ; jumptable            260     6 (fixed)
  3611                           ;	Chosen strategy is simple_byte
  3612  0FAD  0874               	movf	??_SendCharH+1,w
  3613  0FAE  3A00               	xorlw	0	; case 0
  3614  0FAF  1903               	skipnz
  3615  0FB0  2FB2               	goto	l4985
  3616  0FB1  2FFF               	goto	l635
  3617  0FB2                     l4985:
  3618                           
  3619                           ; Switch size 1, requested type "simple"
  3620                           ; Number of cases is 25, Range of values is 0 to 24
  3621                           ; switch strategies available:
  3622                           ; Name         Instructions Cycles
  3623                           ; simple_byte           76    39 (average)
  3624                           ; direct_byte           83     8 (fixed)
  3625                           ; jumptable            260     6 (fixed)
  3626                           ;	Chosen strategy is simple_byte
  3627  0FB2  0873               	movf	??_SendCharH,w
  3628  0FB3  3A00               	xorlw	0	; case 0
  3629  0FB4  1903               	skipnz
  3630  0FB5  2E3D               	goto	l490
  3631  0FB6  3A01               	xorlw	1	; case 1
  3632  0FB7  1903               	skipnz
  3633  0FB8  2E48               	goto	l495
  3634  0FB9  3A03               	xorlw	3	; case 2
  3635  0FBA  1903               	skipnz
  3636  0FBB  2E53               	goto	l499
  3637  0FBC  3A01               	xorlw	1	; case 3
  3638  0FBD  1903               	skipnz
  3639  0FBE  2E5E               	goto	l503
  3640  0FBF  3A07               	xorlw	7	; case 4
  3641  0FC0  1903               	skipnz
  3642  0FC1  2E69               	goto	l507
  3643  0FC2  3A01               	xorlw	1	; case 5
  3644  0FC3  1903               	skipnz
  3645  0FC4  2E74               	goto	l511
  3646  0FC5  3A03               	xorlw	3	; case 6
  3647  0FC6  1903               	skipnz
  3648  0FC7  2E7F               	goto	l515
  3649  0FC8  3A01               	xorlw	1	; case 7
  3650  0FC9  1903               	skipnz
  3651  0FCA  2E8A               	goto	l519
  3652  0FCB  3A0F               	xorlw	15	; case 8
  3653  0FCC  1903               	skipnz
  3654  0FCD  2E95               	goto	l523
  3655  0FCE  3A01               	xorlw	1	; case 9
  3656  0FCF  1903               	skipnz
  3657  0FD0  2EA0               	goto	l527
  3658  0FD1  3A03               	xorlw	3	; case 10
  3659  0FD2  1903               	skipnz
  3660  0FD3  2EAB               	goto	l531
  3661  0FD4  3A01               	xorlw	1	; case 11
  3662  0FD5  1903               	skipnz
  3663  0FD6  2EBC               	goto	l538
  3664  0FD7  3A07               	xorlw	7	; case 12
  3665  0FD8  1903               	skipnz
  3666  0FD9  2ECD               	goto	l545
  3667  0FDA  3A01               	xorlw	1	; case 13
  3668  0FDB  1903               	skipnz
  3669  0FDC  2EDE               	goto	l552
  3670  0FDD  3A03               	xorlw	3	; case 14
  3671  0FDE  1903               	skipnz
  3672  0FDF  2EEF               	goto	l559
  3673  0FE0  3A01               	xorlw	1	; case 15
  3674  0FE1  1903               	skipnz
  3675  0FE2  2F00               	goto	l566
  3676  0FE3  3A1F               	xorlw	31	; case 16
  3677  0FE4  1903               	skipnz
  3678  0FE5  2F11               	goto	l573
  3679  0FE6  3A01               	xorlw	1	; case 17
  3680  0FE7  1903               	skipnz
  3681  0FE8  2F22               	goto	l580
  3682  0FE9  3A03               	xorlw	3	; case 18
  3683  0FEA  1903               	skipnz
  3684  0FEB  2F33               	goto	l587
  3685  0FEC  3A01               	xorlw	1	; case 19
  3686  0FED  1903               	skipnz
  3687  0FEE  2F44               	goto	l594
  3688  0FEF  3A07               	xorlw	7	; case 20
  3689  0FF0  1903               	skipnz
  3690  0FF1  2F55               	goto	l601
  3691  0FF2  3A01               	xorlw	1	; case 21
  3692  0FF3  1903               	skipnz
  3693  0FF4  2F66               	goto	l608
  3694  0FF5  3A03               	xorlw	3	; case 22
  3695  0FF6  1903               	skipnz
  3696  0FF7  2F77               	goto	l615
  3697  0FF8  3A01               	xorlw	1	; case 23
  3698  0FF9  1903               	skipnz
  3699  0FFA  2F88               	goto	l622
  3700  0FFB  3A0F               	xorlw	15	; case 24
  3701  0FFC  1903               	skipnz
  3702  0FFD  2F99               	goto	l629
  3703  0FFE  2FFF               	goto	l635
  3704  0FFF                     l635:
  3705  0FFF  0008               	return
  3706  1000                     __end_of_SendCharH:
  3707                           
  3708                           	psect	text7
  3709  13CB                     __ptext7:	
  3710 ;; *************** function _ReadToEEPROM *****************
  3711 ;; Defined at:
  3712 ;;		line 1131 in file "PROYECTO.c"
  3713 ;; Parameters:    Size  Location     Type
  3714 ;;  addr            1    wreg     unsigned char 
  3715 ;; Auto vars:     Size  Location     Type
  3716 ;;  addr            1    4[COMMON] unsigned char 
  3717 ;;  dato            1    5[COMMON] unsigned char 
  3718 ;; Return value:  Size  Location     Type
  3719 ;;                  1    wreg      unsigned char 
  3720 ;; Registers used:
  3721 ;;		wreg
  3722 ;; Tracked objects:
  3723 ;;		On entry : 0/0
  3724 ;;		On exit  : 0/0
  3725 ;;		Unchanged: 0/0
  3726 ;; Data sizes:     COMMON   BANK0   BANK1   BANK3   BANK2
  3727 ;;      Params:         0       0       0       0       0
  3728 ;;      Locals:         2       0       0       0       0
  3729 ;;      Temps:          1       0       0       0       0
  3730 ;;      Totals:         3       0       0       0       0
  3731 ;;Total ram usage:        3 bytes
  3732 ;; Hardware stack levels used:    1
  3733 ;; Hardware stack levels required when called:    1
  3734 ;; This function calls:
  3735 ;;		Nothing
  3736 ;; This function is called by:
  3737 ;;		_main
  3738 ;; This function uses a non-reentrant model
  3739 ;;
  3740                           
  3741                           
  3742                           ;psect for function _ReadToEEPROM
  3743  13CB                     _ReadToEEPROM:
  3744                           
  3745                           ;incstack = 0
  3746                           ; Regs used in _ReadToEEPROM: [wreg]
  3747                           ;ReadToEEPROM@addr stored from wreg
  3748  13CB  00F4               	movwf	ReadToEEPROM@addr
  3749  13CC                     l2587:
  3750                           
  3751                           ;PROYECTO.c: 1132:     EEADR = addr;
  3752  13CC  0874               	movf	ReadToEEPROM@addr,w
  3753  13CD  1283               	bcf	3,5	;RP0=0, select bank2
  3754  13CE  1703               	bsf	3,6	;RP1=1, select bank2
  3755  13CF  008D               	movwf	13	;volatile
  3756  13D0                     l2589:
  3757                           
  3758                           ;PROYECTO.c: 1133:     EECON1bits.EEPGD = 0;
  3759  13D0  1683               	bsf	3,5	;RP0=1, select bank3
  3760  13D1  1703               	bsf	3,6	;RP1=1, select bank3
  3761  13D2  138C               	bcf	12,7	;volsfr
  3762  13D3                     l2591:
  3763                           
  3764                           ;PROYECTO.c: 1134:     EECON1bits.RD = 1;
  3765  13D3  140C               	bsf	12,0	;volsfr
  3766                           
  3767                           ;PROYECTO.c: 1135:     uint8_t dato = EEADR;
  3768  13D4  1283               	bcf	3,5	;RP0=0, select bank2
  3769  13D5  1703               	bsf	3,6	;RP1=1, select bank2
  3770  13D6  080D               	movf	13,w	;volatile
  3771  13D7  00F3               	movwf	??_ReadToEEPROM
  3772  13D8  0873               	movf	??_ReadToEEPROM,w
  3773  13D9  00F5               	movwf	ReadToEEPROM@dato
  3774                           
  3775                           ;PROYECTO.c: 1136:     return dato;
  3776  13DA  0875               	movf	ReadToEEPROM@dato,w
  3777  13DB                     l701:
  3778  13DB  0008               	return
  3779  13DC                     __end_of_ReadToEEPROM:
  3780                           
  3781                           	psect	text8
  3782  0C51                     __ptext8:	
  3783 ;; *************** function _CharToNumM *****************
  3784 ;; Defined at:
  3785 ;;		line 1087 in file "PROYECTO.c"
  3786 ;; Parameters:    Size  Location     Type
  3787 ;;  in              1    wreg     unsigned char 
  3788 ;;  her             1    3[COMMON] unsigned char 
  3789 ;; Auto vars:     Size  Location     Type
  3790 ;;  in              1    5[COMMON] unsigned char 
  3791 ;; Return value:  Size  Location     Type
  3792 ;;                  1    wreg      unsigned char 
  3793 ;; Registers used:
  3794 ;;		wreg, status,2, status,0
  3795 ;; Tracked objects:
  3796 ;;		On entry : 0/0
  3797 ;;		On exit  : 0/0
  3798 ;;		Unchanged: 0/0
  3799 ;; Data sizes:     COMMON   BANK0   BANK1   BANK3   BANK2
  3800 ;;      Params:         1       0       0       0       0
  3801 ;;      Locals:         1       0       0       0       0
  3802 ;;      Temps:          1       0       0       0       0
  3803 ;;      Totals:         3       0       0       0       0
  3804 ;;Total ram usage:        3 bytes
  3805 ;; Hardware stack levels used:    1
  3806 ;; Hardware stack levels required when called:    1
  3807 ;; This function calls:
  3808 ;;		Nothing
  3809 ;; This function is called by:
  3810 ;;		_main
  3811 ;; This function uses a non-reentrant model
  3812 ;;
  3813                           
  3814                           
  3815                           ;psect for function _CharToNumM
  3816  0C51                     _CharToNumM:
  3817                           
  3818                           ;incstack = 0
  3819                           ; Regs used in _CharToNumM: [wreg+status,2+status,0]
  3820                           ;CharToNumM@in stored from wreg
  3821  0C51  00F5               	movwf	CharToNumM@in
  3822  0C52                     l2789:
  3823                           
  3824                           ;PROYECTO.c: 1088:     if(in == 'a'){
  3825  0C52  3061               	movlw	97
  3826  0C53  0675               	xorwf	CharToNumM@in,w
  3827  0C54  1D03               	btfss	3,2
  3828  0C55  2C57               	goto	u2641
  3829  0C56  2C58               	goto	u2640
  3830  0C57                     u2641:
  3831  0C57  2C5A               	goto	l2793
  3832  0C58                     u2640:
  3833  0C58                     l2791:
  3834                           
  3835                           ;PROYECTO.c: 1089:         her = 0;
  3836  0C58  01F3               	clrf	CharToNumM@her
  3837                           
  3838                           ;PROYECTO.c: 1090:     }else if(in == 'b'){
  3839  0C59  2C86               	goto	l684
  3840  0C5A                     l2793:
  3841  0C5A  3062               	movlw	98
  3842  0C5B  0675               	xorwf	CharToNumM@in,w
  3843  0C5C  1D03               	btfss	3,2
  3844  0C5D  2C5F               	goto	u2651
  3845  0C5E  2C60               	goto	u2650
  3846  0C5F                     u2651:
  3847  0C5F  2C65               	goto	l2797
  3848  0C60                     u2650:
  3849  0C60                     l2795:
  3850                           
  3851                           ;PROYECTO.c: 1091:         her = 15;
  3852  0C60  300F               	movlw	15
  3853  0C61  00F4               	movwf	??_CharToNumM
  3854  0C62  0874               	movf	??_CharToNumM,w
  3855  0C63  00F3               	movwf	CharToNumM@her
  3856                           
  3857                           ;PROYECTO.c: 1092:     }else if(in == 'c'){
  3858  0C64  2C86               	goto	l684
  3859  0C65                     l2797:
  3860  0C65  3063               	movlw	99
  3861  0C66  0675               	xorwf	CharToNumM@in,w
  3862  0C67  1D03               	btfss	3,2
  3863  0C68  2C6A               	goto	u2661
  3864  0C69  2C6B               	goto	u2660
  3865  0C6A                     u2661:
  3866  0C6A  2C70               	goto	l2801
  3867  0C6B                     u2660:
  3868  0C6B                     l2799:
  3869                           
  3870                           ;PROYECTO.c: 1093:         her = 30;
  3871  0C6B  301E               	movlw	30
  3872  0C6C  00F4               	movwf	??_CharToNumM
  3873  0C6D  0874               	movf	??_CharToNumM,w
  3874  0C6E  00F3               	movwf	CharToNumM@her
  3875                           
  3876                           ;PROYECTO.c: 1094:     }else if(in == 'd'){
  3877  0C6F  2C86               	goto	l684
  3878  0C70                     l2801:
  3879  0C70  3064               	movlw	100
  3880  0C71  0675               	xorwf	CharToNumM@in,w
  3881  0C72  1D03               	btfss	3,2
  3882  0C73  2C75               	goto	u2671
  3883  0C74  2C76               	goto	u2670
  3884  0C75                     u2671:
  3885  0C75  2C7B               	goto	l2805
  3886  0C76                     u2670:
  3887  0C76                     l2803:
  3888                           
  3889                           ;PROYECTO.c: 1095:         her = 45;
  3890  0C76  302D               	movlw	45
  3891  0C77  00F4               	movwf	??_CharToNumM
  3892  0C78  0874               	movf	??_CharToNumM,w
  3893  0C79  00F3               	movwf	CharToNumM@her
  3894                           
  3895                           ;PROYECTO.c: 1096:     }else if(in == 'e'){
  3896  0C7A  2C86               	goto	l684
  3897  0C7B                     l2805:
  3898  0C7B  3065               	movlw	101
  3899  0C7C  0675               	xorwf	CharToNumM@in,w
  3900  0C7D  1D03               	btfss	3,2
  3901  0C7E  2C80               	goto	u2681
  3902  0C7F  2C81               	goto	u2680
  3903  0C80                     u2681:
  3904  0C80  2C86               	goto	l688
  3905  0C81                     u2680:
  3906  0C81                     l2807:
  3907                           
  3908                           ;PROYECTO.c: 1097:         her = 55;
  3909  0C81  3037               	movlw	55
  3910  0C82  00F4               	movwf	??_CharToNumM
  3911  0C83  0874               	movf	??_CharToNumM,w
  3912  0C84  00F3               	movwf	CharToNumM@her
  3913  0C85  2C86               	goto	l684
  3914  0C86                     l688:
  3915  0C86                     l684:
  3916                           
  3917                           ;PROYECTO.c: 1099:     return her;
  3918  0C86  0873               	movf	CharToNumM@her,w
  3919  0C87                     l692:
  3920  0C87  0008               	return
  3921  0C88                     __end_of_CharToNumM:
  3922                           
  3923                           	psect	text9
  3924  1402                     __ptext9:	
  3925 ;; *************** function _CharToNumH *****************
  3926 ;; Defined at:
  3927 ;;		line 1007 in file "PROYECTO.c"
  3928 ;; Parameters:    Size  Location     Type
  3929 ;;  in              1    wreg     unsigned char 
  3930 ;;  hora_user       1    3[COMMON] unsigned char 
  3931 ;; Auto vars:     Size  Location     Type
  3932 ;;  in              1    0[BANK0 ] unsigned char 
  3933 ;; Return value:  Size  Location     Type
  3934 ;;                  1    wreg      unsigned char 
  3935 ;; Registers used:
  3936 ;;		wreg, fsr0l, fsr0h, status,2, status,0
  3937 ;; Tracked objects:
  3938 ;;		On entry : 0/0
  3939 ;;		On exit  : 0/0
  3940 ;;		Unchanged: 0/0
  3941 ;; Data sizes:     COMMON   BANK0   BANK1   BANK3   BANK2
  3942 ;;      Params:         1       0       0       0       0
  3943 ;;      Locals:         0       1       0       0       0
  3944 ;;      Temps:          2       0       0       0       0
  3945 ;;      Totals:         3       1       0       0       0
  3946 ;;Total ram usage:        4 bytes
  3947 ;; Hardware stack levels used:    1
  3948 ;; Hardware stack levels required when called:    1
  3949 ;; This function calls:
  3950 ;;		Nothing
  3951 ;; This function is called by:
  3952 ;;		_main
  3953 ;; This function uses a non-reentrant model
  3954 ;;
  3955                           
  3956                           
  3957                           ;psect for function _CharToNumH
  3958  1402                     _CharToNumH:
  3959                           
  3960                           ;incstack = 0
  3961                           ; Regs used in _CharToNumH: [wreg-fsr0h+status,2+status,0]
  3962                           ;CharToNumH@in stored from wreg
  3963  1402  1283               	bcf	3,5	;RP0=0, select bank0
  3964  1403  1303               	bcf	3,6	;RP1=0, select bank0
  3965  1404  00DC               	movwf	CharToNumH@in
  3966  1405                     l3891:
  3967                           
  3968                           ;PROYECTO.c: 1008:     switch(in){
  3969  1405  2C7E               	goto	l3943
  3970  1406                     l3893:
  3971                           
  3972                           ;PROYECTO.c: 1010:             hora_user = 0;
  3973  1406  01F3               	clrf	CharToNumH@hora_user
  3974                           
  3975                           ;PROYECTO.c: 1011:             break;
  3976  1407  2CD3               	goto	l3945
  3977  1408                     l656:	
  3978                           ;PROYECTO.c: 1012:         case('b'):
  3979                           
  3980                           
  3981                           ;PROYECTO.c: 1013:             hora_user = 1;
  3982  1408  01F3               	clrf	CharToNumH@hora_user
  3983  1409  0AF3               	incf	CharToNumH@hora_user,f
  3984                           
  3985                           ;PROYECTO.c: 1014:             break;
  3986  140A  2CD3               	goto	l3945
  3987  140B                     l3895:
  3988                           
  3989                           ;PROYECTO.c: 1016:             hora_user = 2;
  3990  140B  3002               	movlw	2
  3991  140C  00F4               	movwf	??_CharToNumH
  3992  140D  0874               	movf	??_CharToNumH,w
  3993  140E  00F3               	movwf	CharToNumH@hora_user
  3994                           
  3995                           ;PROYECTO.c: 1017:             break;
  3996  140F  2CD3               	goto	l3945
  3997  1410                     l3897:
  3998                           
  3999                           ;PROYECTO.c: 1019:             hora_user = 3;
  4000  1410  3003               	movlw	3
  4001  1411  00F4               	movwf	??_CharToNumH
  4002  1412  0874               	movf	??_CharToNumH,w
  4003  1413  00F3               	movwf	CharToNumH@hora_user
  4004                           
  4005                           ;PROYECTO.c: 1020:             break;
  4006  1414  2CD3               	goto	l3945
  4007  1415                     l3899:
  4008                           
  4009                           ;PROYECTO.c: 1022:             hora_user = 4;
  4010  1415  3004               	movlw	4
  4011  1416  00F4               	movwf	??_CharToNumH
  4012  1417  0874               	movf	??_CharToNumH,w
  4013  1418  00F3               	movwf	CharToNumH@hora_user
  4014                           
  4015                           ;PROYECTO.c: 1023:             break;
  4016  1419  2CD3               	goto	l3945
  4017  141A                     l3901:
  4018                           
  4019                           ;PROYECTO.c: 1025:             hora_user = 5;
  4020  141A  3005               	movlw	5
  4021  141B  00F4               	movwf	??_CharToNumH
  4022  141C  0874               	movf	??_CharToNumH,w
  4023  141D  00F3               	movwf	CharToNumH@hora_user
  4024                           
  4025                           ;PROYECTO.c: 1026:             break;
  4026  141E  2CD3               	goto	l3945
  4027  141F                     l3903:
  4028                           
  4029                           ;PROYECTO.c: 1028:             hora_user = 6;
  4030  141F  3006               	movlw	6
  4031  1420  00F4               	movwf	??_CharToNumH
  4032  1421  0874               	movf	??_CharToNumH,w
  4033  1422  00F3               	movwf	CharToNumH@hora_user
  4034                           
  4035                           ;PROYECTO.c: 1029:             break;
  4036  1423  2CD3               	goto	l3945
  4037  1424                     l3905:
  4038                           
  4039                           ;PROYECTO.c: 1031:             hora_user = 7;
  4040  1424  3007               	movlw	7
  4041  1425  00F4               	movwf	??_CharToNumH
  4042  1426  0874               	movf	??_CharToNumH,w
  4043  1427  00F3               	movwf	CharToNumH@hora_user
  4044                           
  4045                           ;PROYECTO.c: 1032:             break;
  4046  1428  2CD3               	goto	l3945
  4047  1429                     l3907:
  4048                           
  4049                           ;PROYECTO.c: 1034:             hora_user = 8;
  4050  1429  3008               	movlw	8
  4051  142A  00F4               	movwf	??_CharToNumH
  4052  142B  0874               	movf	??_CharToNumH,w
  4053  142C  00F3               	movwf	CharToNumH@hora_user
  4054                           
  4055                           ;PROYECTO.c: 1035:             break;
  4056  142D  2CD3               	goto	l3945
  4057  142E                     l3909:
  4058                           
  4059                           ;PROYECTO.c: 1037:             hora_user = 9;
  4060  142E  3009               	movlw	9
  4061  142F  00F4               	movwf	??_CharToNumH
  4062  1430  0874               	movf	??_CharToNumH,w
  4063  1431  00F3               	movwf	CharToNumH@hora_user
  4064                           
  4065                           ;PROYECTO.c: 1038:             break;
  4066  1432  2CD3               	goto	l3945
  4067  1433                     l3911:
  4068                           
  4069                           ;PROYECTO.c: 1040:             hora_user = 10;
  4070  1433  300A               	movlw	10
  4071  1434  00F4               	movwf	??_CharToNumH
  4072  1435  0874               	movf	??_CharToNumH,w
  4073  1436  00F3               	movwf	CharToNumH@hora_user
  4074                           
  4075                           ;PROYECTO.c: 1041:             break;
  4076  1437  2CD3               	goto	l3945
  4077  1438                     l3913:
  4078                           
  4079                           ;PROYECTO.c: 1043:             hora_user = 11;
  4080  1438  300B               	movlw	11
  4081  1439  00F4               	movwf	??_CharToNumH
  4082  143A  0874               	movf	??_CharToNumH,w
  4083  143B  00F3               	movwf	CharToNumH@hora_user
  4084                           
  4085                           ;PROYECTO.c: 1044:             break;
  4086  143C  2CD3               	goto	l3945
  4087  143D                     l3915:
  4088                           
  4089                           ;PROYECTO.c: 1046:             hora_user = 12;
  4090  143D  300C               	movlw	12
  4091  143E  00F4               	movwf	??_CharToNumH
  4092  143F  0874               	movf	??_CharToNumH,w
  4093  1440  00F3               	movwf	CharToNumH@hora_user
  4094                           
  4095                           ;PROYECTO.c: 1047:             break;
  4096  1441  2CD3               	goto	l3945
  4097  1442                     l3917:
  4098                           
  4099                           ;PROYECTO.c: 1049:             hora_user = 13;
  4100  1442  300D               	movlw	13
  4101  1443  00F4               	movwf	??_CharToNumH
  4102  1444  0874               	movf	??_CharToNumH,w
  4103  1445  00F3               	movwf	CharToNumH@hora_user
  4104                           
  4105                           ;PROYECTO.c: 1050:             break;
  4106  1446  2CD3               	goto	l3945
  4107  1447                     l3919:
  4108                           
  4109                           ;PROYECTO.c: 1052:             hora_user = 14;
  4110  1447  300E               	movlw	14
  4111  1448  00F4               	movwf	??_CharToNumH
  4112  1449  0874               	movf	??_CharToNumH,w
  4113  144A  00F3               	movwf	CharToNumH@hora_user
  4114                           
  4115                           ;PROYECTO.c: 1053:             break;
  4116  144B  2CD3               	goto	l3945
  4117  144C                     l3921:
  4118                           
  4119                           ;PROYECTO.c: 1055:             hora_user = 15;
  4120  144C  300F               	movlw	15
  4121  144D  00F4               	movwf	??_CharToNumH
  4122  144E  0874               	movf	??_CharToNumH,w
  4123  144F  00F3               	movwf	CharToNumH@hora_user
  4124                           
  4125                           ;PROYECTO.c: 1056:             break;
  4126  1450  2CD3               	goto	l3945
  4127  1451                     l3923:
  4128                           
  4129                           ;PROYECTO.c: 1058:             hora_user = 16;
  4130  1451  3010               	movlw	16
  4131  1452  00F4               	movwf	??_CharToNumH
  4132  1453  0874               	movf	??_CharToNumH,w
  4133  1454  00F3               	movwf	CharToNumH@hora_user
  4134                           
  4135                           ;PROYECTO.c: 1059:             break;
  4136  1455  2CD3               	goto	l3945
  4137  1456                     l3925:
  4138                           
  4139                           ;PROYECTO.c: 1061:             hora_user = 17;
  4140  1456  3011               	movlw	17
  4141  1457  00F4               	movwf	??_CharToNumH
  4142  1458  0874               	movf	??_CharToNumH,w
  4143  1459  00F3               	movwf	CharToNumH@hora_user
  4144                           
  4145                           ;PROYECTO.c: 1062:             break;
  4146  145A  2CD3               	goto	l3945
  4147  145B                     l3927:
  4148                           
  4149                           ;PROYECTO.c: 1064:             hora_user = 18;
  4150  145B  3012               	movlw	18
  4151  145C  00F4               	movwf	??_CharToNumH
  4152  145D  0874               	movf	??_CharToNumH,w
  4153  145E  00F3               	movwf	CharToNumH@hora_user
  4154                           
  4155                           ;PROYECTO.c: 1065:             break;
  4156  145F  2CD3               	goto	l3945
  4157  1460                     l3929:
  4158                           
  4159                           ;PROYECTO.c: 1067:             hora_user = 19;
  4160  1460  3013               	movlw	19
  4161  1461  00F4               	movwf	??_CharToNumH
  4162  1462  0874               	movf	??_CharToNumH,w
  4163  1463  00F3               	movwf	CharToNumH@hora_user
  4164                           
  4165                           ;PROYECTO.c: 1068:             break;
  4166  1464  2CD3               	goto	l3945
  4167  1465                     l3931:
  4168                           
  4169                           ;PROYECTO.c: 1070:             hora_user = 20;
  4170  1465  3014               	movlw	20
  4171  1466  00F4               	movwf	??_CharToNumH
  4172  1467  0874               	movf	??_CharToNumH,w
  4173  1468  00F3               	movwf	CharToNumH@hora_user
  4174                           
  4175                           ;PROYECTO.c: 1071:             break;
  4176  1469  2CD3               	goto	l3945
  4177  146A                     l3933:
  4178                           
  4179                           ;PROYECTO.c: 1073:             hora_user = 21;
  4180  146A  3015               	movlw	21
  4181  146B  00F4               	movwf	??_CharToNumH
  4182  146C  0874               	movf	??_CharToNumH,w
  4183  146D  00F3               	movwf	CharToNumH@hora_user
  4184                           
  4185                           ;PROYECTO.c: 1074:             break;
  4186  146E  2CD3               	goto	l3945
  4187  146F                     l3935:
  4188                           
  4189                           ;PROYECTO.c: 1076:             hora_user = 22;
  4190  146F  3016               	movlw	22
  4191  1470  00F4               	movwf	??_CharToNumH
  4192  1471  0874               	movf	??_CharToNumH,w
  4193  1472  00F3               	movwf	CharToNumH@hora_user
  4194                           
  4195                           ;PROYECTO.c: 1077:             break;
  4196  1473  2CD3               	goto	l3945
  4197  1474                     l3937:
  4198                           
  4199                           ;PROYECTO.c: 1079:             hora_user = 23;
  4200  1474  3017               	movlw	23
  4201  1475  00F4               	movwf	??_CharToNumH
  4202  1476  0874               	movf	??_CharToNumH,w
  4203  1477  00F3               	movwf	CharToNumH@hora_user
  4204                           
  4205                           ;PROYECTO.c: 1080:             break;
  4206  1478  2CD3               	goto	l3945
  4207  1479                     l3939:
  4208                           
  4209                           ;PROYECTO.c: 1082:             hora_user = 24;
  4210  1479  3018               	movlw	24
  4211  147A  00F4               	movwf	??_CharToNumH
  4212  147B  0874               	movf	??_CharToNumH,w
  4213  147C  00F3               	movwf	CharToNumH@hora_user
  4214                           
  4215                           ;PROYECTO.c: 1083:             break;
  4216  147D  2CD3               	goto	l3945
  4217  147E                     l3943:
  4218  147E  085C               	movf	CharToNumH@in,w
  4219  147F  00F4               	movwf	??_CharToNumH
  4220  1480  01F5               	clrf	??_CharToNumH+1
  4221                           
  4222                           ; Switch on 2 bytes has been partitioned into a top level switch of size 1, and 1 sub-sw
      +                          itches
  4223                           ; Switch size 1, requested type "simple"
  4224                           ; Number of cases is 1, Range of values is 0 to 0
  4225                           ; switch strategies available:
  4226                           ; Name         Instructions Cycles
  4227                           ; simple_byte            4     3 (average)
  4228                           ; direct_byte           11     8 (fixed)
  4229                           ; jumptable            260     6 (fixed)
  4230                           ;	Chosen strategy is simple_byte
  4231  1481  0875               	movf	??_CharToNumH+1,w
  4232  1482  3A00               	xorlw	0	; case 0
  4233  1483  1903               	skipnz
  4234  1484  2C86               	goto	l4987
  4235  1485  2CD3               	goto	l3945
  4236  1486                     l4987:
  4237                           
  4238                           ; Switch size 1, requested type "simple"
  4239                           ; Number of cases is 25, Range of values is 97 to 121
  4240                           ; switch strategies available:
  4241                           ; Name         Instructions Cycles
  4242                           ; simple_byte           76    39 (average)
  4243                           ; direct_byte           86    11 (fixed)
  4244                           ; jumptable            263     9 (fixed)
  4245                           ;	Chosen strategy is simple_byte
  4246  1486  0874               	movf	??_CharToNumH,w
  4247  1487  3A61               	xorlw	97	; case 97
  4248  1488  1903               	skipnz
  4249  1489  2C06               	goto	l3893
  4250  148A  3A03               	xorlw	3	; case 98
  4251  148B  1903               	skipnz
  4252  148C  2C08               	goto	l656
  4253  148D  3A01               	xorlw	1	; case 99
  4254  148E  1903               	skipnz
  4255  148F  2C0B               	goto	l3895
  4256  1490  3A07               	xorlw	7	; case 100
  4257  1491  1903               	skipnz
  4258  1492  2C10               	goto	l3897
  4259  1493  3A01               	xorlw	1	; case 101
  4260  1494  1903               	skipnz
  4261  1495  2C15               	goto	l3899
  4262  1496  3A03               	xorlw	3	; case 102
  4263  1497  1903               	skipnz
  4264  1498  2C1A               	goto	l3901
  4265  1499  3A01               	xorlw	1	; case 103
  4266  149A  1903               	skipnz
  4267  149B  2C1F               	goto	l3903
  4268  149C  3A0F               	xorlw	15	; case 104
  4269  149D  1903               	skipnz
  4270  149E  2C24               	goto	l3905
  4271  149F  3A01               	xorlw	1	; case 105
  4272  14A0  1903               	skipnz
  4273  14A1  2C29               	goto	l3907
  4274  14A2  3A03               	xorlw	3	; case 106
  4275  14A3  1903               	skipnz
  4276  14A4  2C2E               	goto	l3909
  4277  14A5  3A01               	xorlw	1	; case 107
  4278  14A6  1903               	skipnz
  4279  14A7  2C33               	goto	l3911
  4280  14A8  3A07               	xorlw	7	; case 108
  4281  14A9  1903               	skipnz
  4282  14AA  2C38               	goto	l3913
  4283  14AB  3A01               	xorlw	1	; case 109
  4284  14AC  1903               	skipnz
  4285  14AD  2C3D               	goto	l3915
  4286  14AE  3A03               	xorlw	3	; case 110
  4287  14AF  1903               	skipnz
  4288  14B0  2C42               	goto	l3917
  4289  14B1  3A01               	xorlw	1	; case 111
  4290  14B2  1903               	skipnz
  4291  14B3  2C47               	goto	l3919
  4292  14B4  3A1F               	xorlw	31	; case 112
  4293  14B5  1903               	skipnz
  4294  14B6  2C4C               	goto	l3921
  4295  14B7  3A01               	xorlw	1	; case 113
  4296  14B8  1903               	skipnz
  4297  14B9  2C51               	goto	l3923
  4298  14BA  3A03               	xorlw	3	; case 114
  4299  14BB  1903               	skipnz
  4300  14BC  2C56               	goto	l3925
  4301  14BD  3A01               	xorlw	1	; case 115
  4302  14BE  1903               	skipnz
  4303  14BF  2C5B               	goto	l3927
  4304  14C0  3A07               	xorlw	7	; case 116
  4305  14C1  1903               	skipnz
  4306  14C2  2C60               	goto	l3929
  4307  14C3  3A01               	xorlw	1	; case 117
  4308  14C4  1903               	skipnz
  4309  14C5  2C65               	goto	l3931
  4310  14C6  3A03               	xorlw	3	; case 118
  4311  14C7  1903               	skipnz
  4312  14C8  2C6A               	goto	l3933
  4313  14C9  3A01               	xorlw	1	; case 119
  4314  14CA  1903               	skipnz
  4315  14CB  2C6F               	goto	l3935
  4316  14CC  3A0F               	xorlw	15	; case 120
  4317  14CD  1903               	skipnz
  4318  14CE  2C74               	goto	l3937
  4319  14CF  3A01               	xorlw	1	; case 121
  4320  14D0  1903               	skipnz
  4321  14D1  2C79               	goto	l3939
  4322  14D2  2CD3               	goto	l3945
  4323  14D3                     l3945:
  4324                           
  4325                           ;PROYECTO.c: 1085:     return hora_user;
  4326  14D3  0873               	movf	CharToNumH@hora_user,w
  4327  14D4                     l680:
  4328  14D4  0008               	return
  4329  14D5                     __end_of_CharToNumH:
  4330                           
  4331                           	psect	text10
  4332  0773                     __ptext10:	
  4333 ;; *************** function _isr *****************
  4334 ;; Defined at:
  4335 ;;		line 87 in file "PROYECTO.c"
  4336 ;; Parameters:    Size  Location     Type
  4337 ;;		None
  4338 ;; Auto vars:     Size  Location     Type
  4339 ;;		None
  4340 ;; Return value:  Size  Location     Type
  4341 ;;                  1    wreg      void 
  4342 ;; Registers used:
  4343 ;;		wreg, status,2, status,0
  4344 ;; Tracked objects:
  4345 ;;		On entry : 0/0
  4346 ;;		On exit  : 0/0
  4347 ;;		Unchanged: 0/0
  4348 ;; Data sizes:     COMMON   BANK0   BANK1   BANK3   BANK2
  4349 ;;      Params:         0       0       0       0       0
  4350 ;;      Locals:         0       0       0       0       0
  4351 ;;      Temps:          3       0       0       0       0
  4352 ;;      Totals:         3       0       0       0       0
  4353 ;;Total ram usage:        3 bytes
  4354 ;; Hardware stack levels used:    1
  4355 ;; This function calls:
  4356 ;;		Nothing
  4357 ;; This function is called by:
  4358 ;;		Interrupt level 1
  4359 ;; This function uses a non-reentrant model
  4360 ;;
  4361                           
  4362                           
  4363                           ;psect for function _isr
  4364  0773                     _isr:
  4365  0773                     i1l2811:
  4366                           
  4367                           ;PROYECTO.c: 88:     if (TMR1IF == 1){
  4368  0773  1283               	bcf	3,5	;RP0=0, select bank0
  4369  0774  1303               	bcf	3,6	;RP1=0, select bank0
  4370  0775  1C0C               	btfss	12,0	;volatile
  4371  0776  2F78               	goto	u269_21
  4372  0777  2F79               	goto	u269_20
  4373  0778                     u269_21:
  4374  0778  2FE4               	goto	i1l260
  4375  0779                     u269_20:
  4376  0779                     i1l2813:
  4377                           
  4378                           ;PROYECTO.c: 89:         contm++;
  4379  0779  3001               	movlw	1
  4380  077A  00F0               	movwf	??_isr
  4381  077B  0870               	movf	??_isr,w
  4382  077C  07C1               	addwf	_contm,f
  4383                           
  4384                           ;PROYECTO.c: 90:         conth++;
  4385  077D  3001               	movlw	1
  4386  077E  00F0               	movwf	??_isr
  4387  077F  0870               	movf	??_isr,w
  4388  0780  07C0               	addwf	_conth,f
  4389                           
  4390                           ;PROYECTO.c: 91:         if(contm == 2){
  4391  0781  3002               	movlw	2
  4392  0782  0641               	xorwf	_contm,w
  4393  0783  1D03               	btfss	3,2
  4394  0784  2F86               	goto	u270_21
  4395  0785  2F87               	goto	u270_20
  4396  0786                     u270_21:
  4397  0786  2FB1               	goto	i1l258
  4398  0787                     u270_20:
  4399  0787                     i1l2815:
  4400                           
  4401                           ;PROYECTO.c: 93:             me_1_us1_tm++;
  4402  0787  3001               	movlw	1
  4403  0788  00F0               	movwf	??_isr
  4404  0789  0870               	movf	??_isr,w
  4405  078A  07B1               	addwf	_me_1_us1_tm,f
  4406                           
  4407                           ;PROYECTO.c: 94:             me_1_us2_tm++;
  4408  078B  3001               	movlw	1
  4409  078C  00F0               	movwf	??_isr
  4410  078D  0870               	movf	??_isr,w
  4411  078E  07AE               	addwf	_me_1_us2_tm,f
  4412                           
  4413                           ;PROYECTO.c: 95:             me_1_us3_tm++;
  4414  078F  3001               	movlw	1
  4415  0790  00F0               	movwf	??_isr
  4416  0791  0870               	movf	??_isr,w
  4417  0792  07AB               	addwf	_me_1_us3_tm,f
  4418                           
  4419                           ;PROYECTO.c: 96:             me_2_us1_tm++;
  4420  0793  3001               	movlw	1
  4421  0794  00F0               	movwf	??_isr
  4422  0795  0870               	movf	??_isr,w
  4423  0796  07B0               	addwf	_me_2_us1_tm,f
  4424                           
  4425                           ;PROYECTO.c: 97:             me_2_us2_tm++;
  4426  0797  3001               	movlw	1
  4427  0798  00F0               	movwf	??_isr
  4428  0799  0870               	movf	??_isr,w
  4429  079A  07AD               	addwf	_me_2_us2_tm,f
  4430                           
  4431                           ;PROYECTO.c: 98:             me_2_us3_tm++;
  4432  079B  3001               	movlw	1
  4433  079C  00F0               	movwf	??_isr
  4434  079D  0870               	movf	??_isr,w
  4435  079E  07AA               	addwf	_me_2_us3_tm,f
  4436                           
  4437                           ;PROYECTO.c: 99:             me_3_us1_tm++;
  4438  079F  3001               	movlw	1
  4439  07A0  00F0               	movwf	??_isr
  4440  07A1  0870               	movf	??_isr,w
  4441  07A2  07AF               	addwf	_me_3_us1_tm,f
  4442                           
  4443                           ;PROYECTO.c: 100:             me_3_us2_tm++;
  4444  07A3  3001               	movlw	1
  4445  07A4  00F0               	movwf	??_isr
  4446  07A5  0870               	movf	??_isr,w
  4447  07A6  07AC               	addwf	_me_3_us2_tm,f
  4448                           
  4449                           ;PROYECTO.c: 101:             me_3_us3_tm++;
  4450  07A7  3001               	movlw	1
  4451  07A8  00F0               	movwf	??_isr
  4452  07A9  0870               	movf	??_isr,w
  4453  07AA  07A9               	addwf	_me_3_us3_tm,f
  4454  07AB                     i1l2817:
  4455                           
  4456                           ;PROYECTO.c: 102:             contm = 0;
  4457  07AB  01C1               	clrf	_contm
  4458  07AC                     i1l2819:
  4459                           
  4460                           ;PROYECTO.c: 103:             activa1 = 0;
  4461  07AC  01BD               	clrf	_activa1
  4462  07AD                     i1l2821:
  4463                           
  4464                           ;PROYECTO.c: 104:             activa2 = 0;
  4465  07AD  01BC               	clrf	_activa2
  4466  07AE                     i1l2823:
  4467                           
  4468                           ;PROYECTO.c: 105:             activa3 = 0;
  4469  07AE  01BB               	clrf	_activa3
  4470  07AF                     i1l2825:
  4471                           
  4472                           ;PROYECTO.c: 106:             prueba = 1;
  4473  07AF  01A8               	clrf	_prueba
  4474  07B0  0AA8               	incf	_prueba,f
  4475  07B1                     i1l258:	
  4476                           ;PROYECTO.c: 107:         }
  4477                           
  4478                           
  4479                           ;PROYECTO.c: 108:         if(conth == 120){
  4480  07B1  3078               	movlw	120
  4481  07B2  0640               	xorwf	_conth,w
  4482  07B3  1D03               	btfss	3,2
  4483  07B4  2FB6               	goto	u271_21
  4484  07B5  2FB7               	goto	u271_20
  4485  07B6                     u271_21:
  4486  07B6  2FDC               	goto	i1l2831
  4487  07B7                     u271_20:
  4488  07B7                     i1l2827:
  4489                           
  4490                           ;PROYECTO.c: 109:             me_1_us1_th++;
  4491  07B7  3001               	movlw	1
  4492  07B8  00F0               	movwf	??_isr
  4493  07B9  0870               	movf	??_isr,w
  4494  07BA  07BA               	addwf	_me_1_us1_th,f
  4495                           
  4496                           ;PROYECTO.c: 110:             me_1_us2_th++;
  4497  07BB  3001               	movlw	1
  4498  07BC  00F0               	movwf	??_isr
  4499  07BD  0870               	movf	??_isr,w
  4500  07BE  07B7               	addwf	_me_1_us2_th,f
  4501                           
  4502                           ;PROYECTO.c: 111:             me_1_us3_th++;
  4503  07BF  3001               	movlw	1
  4504  07C0  00F0               	movwf	??_isr
  4505  07C1  0870               	movf	??_isr,w
  4506  07C2  07B4               	addwf	_me_1_us3_th,f
  4507                           
  4508                           ;PROYECTO.c: 112:             me_2_us1_th++;
  4509  07C3  3001               	movlw	1
  4510  07C4  00F0               	movwf	??_isr
  4511  07C5  0870               	movf	??_isr,w
  4512  07C6  07B9               	addwf	_me_2_us1_th,f
  4513                           
  4514                           ;PROYECTO.c: 113:             me_2_us2_th++;
  4515  07C7  3001               	movlw	1
  4516  07C8  00F0               	movwf	??_isr
  4517  07C9  0870               	movf	??_isr,w
  4518  07CA  07B6               	addwf	_me_2_us2_th,f
  4519                           
  4520                           ;PROYECTO.c: 114:             me_2_us3_th++;
  4521  07CB  3001               	movlw	1
  4522  07CC  00F0               	movwf	??_isr
  4523  07CD  0870               	movf	??_isr,w
  4524  07CE  07B3               	addwf	_me_2_us3_th,f
  4525                           
  4526                           ;PROYECTO.c: 115:             me_3_us1_th++;
  4527  07CF  3001               	movlw	1
  4528  07D0  00F0               	movwf	??_isr
  4529  07D1  0870               	movf	??_isr,w
  4530  07D2  07B8               	addwf	_me_3_us1_th,f
  4531                           
  4532                           ;PROYECTO.c: 116:             me_3_us2_th++;
  4533  07D3  3001               	movlw	1
  4534  07D4  00F0               	movwf	??_isr
  4535  07D5  0870               	movf	??_isr,w
  4536  07D6  07B5               	addwf	_me_3_us2_th,f
  4537                           
  4538                           ;PROYECTO.c: 117:             me_3_us3_th++;
  4539  07D7  3001               	movlw	1
  4540  07D8  00F0               	movwf	??_isr
  4541  07D9  0870               	movf	??_isr,w
  4542  07DA  07B2               	addwf	_me_3_us3_th,f
  4543  07DB                     i1l2829:
  4544                           
  4545                           ;PROYECTO.c: 118:             conth = 0;
  4546  07DB  01C0               	clrf	_conth
  4547  07DC                     i1l2831:
  4548                           
  4549                           ;PROYECTO.c: 122:         TMR1IF = 0;
  4550  07DC  100C               	bcf	12,0	;volatile
  4551  07DD                     i1l2833:
  4552                           
  4553                           ;PROYECTO.c: 123:         TMR1IE =1;
  4554  07DD  1683               	bsf	3,5	;RP0=1, select bank1
  4555  07DE  1303               	bcf	3,6	;RP1=0, select bank1
  4556  07DF  140C               	bsf	12,0	;volatile
  4557  07E0                     i1l2835:
  4558                           
  4559                           ;PROYECTO.c: 124:         TMR1H = 0;
  4560  07E0  1283               	bcf	3,5	;RP0=0, select bank0
  4561  07E1  1303               	bcf	3,6	;RP1=0, select bank0
  4562  07E2  018F               	clrf	15	;volatile
  4563  07E3                     i1l2837:
  4564                           
  4565                           ;PROYECTO.c: 125:         TMR1L = 0;
  4566  07E3  018E               	clrf	14	;volatile
  4567  07E4                     i1l260:
  4568  07E4  0872               	movf	??_isr+2,w
  4569  07E5  008A               	movwf	10
  4570  07E6  0E71               	swapf	??_isr+1,w
  4571  07E7  0083               	movwf	3
  4572  07E8  0EFE               	swapf	btemp,f
  4573  07E9  0E7E               	swapf	btemp,w
  4574  07EA  0009               	retfie
  4575  07EB                     __end_of_isr:
  4576  007E                     btemp	set	126	;btemp
  4577  007E                     wtemp0	set	126
  4578                           
  4579                           	psect	intentry
  4580  0004                     __pintentry:	
  4581                           ;incstack = 0
  4582                           ; Regs used in _isr: [wreg+status,2+status,0]
  4583                           
  4584  0004                     interrupt_function:
  4585  007E                     saved_w	set	btemp
  4586  0004  00FE               	movwf	btemp
  4587  0005  0E03               	swapf	3,w
  4588  0006  00F1               	movwf	??_isr+1
  4589  0007  080A               	movf	10,w
  4590  0008  00F2               	movwf	??_isr+2
  4591  0009  120A  118A  2F73   	ljmp	_isr
  4592                           
  4593                           	psect	config
  4594                           
  4595                           ;Config register CONFIG1 @ 0x2007
  4596                           ;	Oscillator Selection bits
  4597                           ;	FOSC = INTRC_NOCLKOUT, INTOSCIO oscillator: I/O function on RA6/OSC2/CLKOUT pin, I/O f
      +                          unction on RA7/OSC1/CLKIN
  4598                           ;	Watchdog Timer Enable bit
  4599                           ;	WDTE = OFF, WDT disabled and can be enabled by SWDTEN bit of the WDTCON register
  4600                           ;	Power-up Timer Enable bit
  4601                           ;	PWRTE = OFF, PWRT disabled
  4602                           ;	RE3/MCLR pin function select bit
  4603                           ;	MCLRE = OFF, RE3/MCLR pin function is digital input, MCLR internally tied to VDD
  4604                           ;	Code Protection bit
  4605                           ;	CP = OFF, Program memory code protection is disabled
  4606                           ;	Data Code Protection bit
  4607                           ;	CPD = OFF, Data memory code protection is disabled
  4608                           ;	Brown Out Reset Selection bits
  4609                           ;	BOREN = OFF, BOR disabled
  4610                           ;	Internal External Switchover bit
  4611                           ;	IESO = OFF, Internal/External Switchover mode is disabled
  4612                           ;	Fail-Safe Clock Monitor Enabled bit
  4613                           ;	FCMEN = OFF, Fail-Safe Clock Monitor is disabled
  4614                           ;	Low Voltage Programming Enable bit
  4615                           ;	LVP = OFF, RB3 pin has digital I/O, HV on MCLR must be used for programming
  4616                           ;	In-Circuit Debugger Mode bit
  4617                           ;	DEBUG = 0x1, unprogrammed default
  4618  2007                     	org	8199
  4619  2007  20D4               	dw	8404
  4620                           
  4621                           ;Config register CONFIG2 @ 0x2008
  4622                           ;	Brown-out Reset Selection bit
  4623                           ;	BOR4V = BOR40V, Brown-out Reset set to 4.0V
  4624                           ;	Flash Program Memory Self Write Enable bits
  4625                           ;	WRT = OFF, Write protection off
  4626  2008                     	org	8200
  4627  2008  3FFF               	dw	16383
  4628                           
  4629                           	psect	maintext_split_1
  4630  14D5                     u4460:
  4631  14D5                     l4199:
  4632  14D5  084D               	movf	_me_1_us3_h,w
  4633  14D6  1D03               	btfss	3,2
  4634  14D7  2CD9               	goto	u4471
  4635  14D8  2CDA               	goto	u4470
  4636  14D9                     u4471:
  4637  14D9  2CF9               	goto	l4215
  4638  14DA                     u4470:
  4639  14DA                     l4201:
  4640                           
  4641                           ;PROYECTO.c: 300:                 if(me_1_us3_tm == me_1_us3_m){
  4642  14DA  082B               	movf	_me_1_us3_tm,w
  4643  14DB  0644               	xorwf	_me_1_us3_m,w
  4644  14DC  1D03               	skipz
  4645  14DD  2CDF               	goto	u4481
  4646  14DE  2CE0               	goto	u4480
  4647  14DF                     u4481:
  4648  14DF  2CF9               	goto	l4215
  4649  14E0                     u4480:
  4650  14E0                     l4203:
  4651                           
  4652                           ;PROYECTO.c: 301:                     if(activa1 == 0){
  4653  14E0  083D               	movf	_activa1,w
  4654  14E1  1D03               	btfss	3,2
  4655  14E2  2CE4               	goto	u4491
  4656  14E3  2CE5               	goto	u4490
  4657  14E4                     u4491:
  4658  14E4  2CF5               	goto	l4211
  4659  14E5                     u4490:
  4660  14E5                     l4205:
  4661                           
  4662                           ;PROYECTO.c: 302:                         activa1 = 1;
  4663  14E5  01BD               	clrf	_activa1
  4664  14E6  0ABD               	incf	_activa1,f
  4665  14E7                     l4207:
  4666                           
  4667                           ;PROYECTO.c: 303:                         medicamento1++;
  4668  14E7  3001               	movlw	1
  4669  14E8  00DD               	movwf	??_main
  4670  14E9  085D               	movf	??_main,w
  4671  14EA  07F6               	addwf	_medicamento1,f
  4672  14EB                     l4209:
  4673                           
  4674                           ;PROYECTO.c: 304:                         WriteToEEPROM(medicamento1, 0x10);
  4675  14EB  3010               	movlw	16
  4676  14EC  00DD               	movwf	??_main
  4677  14ED  085D               	movf	??_main,w
  4678  14EE  00F3               	movwf	WriteToEEPROM@addr
  4679  14EF  0876               	movf	_medicamento1,w
  4680  14F0  120A  158A  2424  160A  118A  	fcall	_WriteToEEPROM
  4681  14F5                     l4211:
  4682                           
  4683                           ;PROYECTO.c: 306:                     me_1_us3_th = 0;
  4684  14F5  1283               	bcf	3,5	;RP0=0, select bank0
  4685  14F6  1303               	bcf	3,6	;RP1=0, select bank0
  4686  14F7  01B4               	clrf	_me_1_us3_th
  4687  14F8                     l4213:
  4688                           
  4689                           ;PROYECTO.c: 307:                     me_1_us3_tm = 0;
  4690  14F8  01AB               	clrf	_me_1_us3_tm
  4691  14F9                     l4215:
  4692                           
  4693                           ;PROYECTO.c: 310:             if (me_2_us1_th == me_2_us1_h || me_2_us1_h == 0){
  4694  14F9  0839               	movf	_me_2_us1_th,w
  4695  14FA  0652               	xorwf	_me_2_us1_h,w
  4696  14FB  1903               	skipnz
  4697  14FC  2CFE               	goto	u4501
  4698  14FD  2CFF               	goto	u4500
  4699  14FE                     u4501:
  4700  14FE  2D04               	goto	l4219
  4701  14FF                     u4500:
  4702  14FF                     l4217:
  4703  14FF  0852               	movf	_me_2_us1_h,w
  4704  1500  1D03               	btfss	3,2
  4705  1501  2D03               	goto	u4511
  4706  1502  2D04               	goto	u4510
  4707  1503                     u4511:
  4708  1503  2D23               	goto	l4233
  4709  1504                     u4510:
  4710  1504                     l4219:
  4711                           
  4712                           ;PROYECTO.c: 311:                 if(me_2_us1_tm == me_2_us1_m){
  4713  1504  0830               	movf	_me_2_us1_tm,w
  4714  1505  0649               	xorwf	_me_2_us1_m,w
  4715  1506  1D03               	skipz
  4716  1507  2D09               	goto	u4521
  4717  1508  2D0A               	goto	u4520
  4718  1509                     u4521:
  4719  1509  2D23               	goto	l4233
  4720  150A                     u4520:
  4721  150A                     l4221:
  4722                           
  4723                           ;PROYECTO.c: 312:                     if(activa2 == 0){
  4724  150A  083C               	movf	_activa2,w
  4725  150B  1D03               	btfss	3,2
  4726  150C  2D0E               	goto	u4531
  4727  150D  2D0F               	goto	u4530
  4728  150E                     u4531:
  4729  150E  2D1F               	goto	l4229
  4730  150F                     u4530:
  4731  150F                     l4223:
  4732                           
  4733                           ;PROYECTO.c: 313:                         activa2 = 1;
  4734  150F  01BC               	clrf	_activa2
  4735  1510  0ABC               	incf	_activa2,f
  4736  1511                     l4225:
  4737                           
  4738                           ;PROYECTO.c: 314:                         medicamento2++;
  4739  1511  3001               	movlw	1
  4740  1512  00DD               	movwf	??_main
  4741  1513  085D               	movf	??_main,w
  4742  1514  07A1               	addwf	_medicamento2,f
  4743  1515                     l4227:
  4744                           
  4745                           ;PROYECTO.c: 315:                         WriteToEEPROM(medicamento2, 0x11);
  4746  1515  3011               	movlw	17
  4747  1516  00DD               	movwf	??_main
  4748  1517  085D               	movf	??_main,w
  4749  1518  00F3               	movwf	WriteToEEPROM@addr
  4750  1519  0821               	movf	_medicamento2,w
  4751  151A  120A  158A  2424  160A  118A  	fcall	_WriteToEEPROM
  4752  151F                     l4229:
  4753                           
  4754                           ;PROYECTO.c: 317:                     me_2_us1_th = 0;
  4755  151F  1283               	bcf	3,5	;RP0=0, select bank0
  4756  1520  1303               	bcf	3,6	;RP1=0, select bank0
  4757  1521  01B9               	clrf	_me_2_us1_th
  4758  1522                     l4231:
  4759                           
  4760                           ;PROYECTO.c: 318:                     me_2_us1_tm = 0;
  4761  1522  01B0               	clrf	_me_2_us1_tm
  4762  1523                     l4233:
  4763                           
  4764                           ;PROYECTO.c: 321:             if (me_2_us2_th == me_2_us2_h || me_2_us2_h == 0){
  4765  1523  0836               	movf	_me_2_us2_th,w
  4766  1524  064F               	xorwf	_me_2_us2_h,w
  4767  1525  1903               	skipnz
  4768  1526  2D28               	goto	u4541
  4769  1527  2D29               	goto	u4540
  4770  1528                     u4541:
  4771  1528  2D2E               	goto	l4237
  4772  1529                     u4540:
  4773  1529                     l4235:
  4774  1529  084F               	movf	_me_2_us2_h,w
  4775  152A  1D03               	btfss	3,2
  4776  152B  2D2D               	goto	u4551
  4777  152C  2D2E               	goto	u4550
  4778  152D                     u4551:
  4779  152D  2D4D               	goto	l4251
  4780  152E                     u4550:
  4781  152E                     l4237:
  4782                           
  4783                           ;PROYECTO.c: 322:                 if(me_2_us2_tm == me_2_us2_m){
  4784  152E  082D               	movf	_me_2_us2_tm,w
  4785  152F  0646               	xorwf	_me_2_us2_m,w
  4786  1530  1D03               	skipz
  4787  1531  2D33               	goto	u4561
  4788  1532  2D34               	goto	u4560
  4789  1533                     u4561:
  4790  1533  2D4D               	goto	l4251
  4791  1534                     u4560:
  4792  1534                     l4239:
  4793                           
  4794                           ;PROYECTO.c: 323:                     if(activa2 == 0){
  4795  1534  083C               	movf	_activa2,w
  4796  1535  1D03               	btfss	3,2
  4797  1536  2D38               	goto	u4571
  4798  1537  2D39               	goto	u4570
  4799  1538                     u4571:
  4800  1538  2D49               	goto	l4247
  4801  1539                     u4570:
  4802  1539                     l4241:
  4803                           
  4804                           ;PROYECTO.c: 324:                         activa2 = 1;
  4805  1539  01BC               	clrf	_activa2
  4806  153A  0ABC               	incf	_activa2,f
  4807  153B                     l4243:
  4808                           
  4809                           ;PROYECTO.c: 325:                         medicamento2++;
  4810  153B  3001               	movlw	1
  4811  153C  00DD               	movwf	??_main
  4812  153D  085D               	movf	??_main,w
  4813  153E  07A1               	addwf	_medicamento2,f
  4814  153F                     l4245:
  4815                           
  4816                           ;PROYECTO.c: 326:                         WriteToEEPROM(medicamento2, 0x11);
  4817  153F  3011               	movlw	17
  4818  1540  00DD               	movwf	??_main
  4819  1541  085D               	movf	??_main,w
  4820  1542  00F3               	movwf	WriteToEEPROM@addr
  4821  1543  0821               	movf	_medicamento2,w
  4822  1544  120A  158A  2424  160A  118A  	fcall	_WriteToEEPROM
  4823  1549                     l4247:
  4824                           
  4825                           ;PROYECTO.c: 328:                     me_2_us2_th = 0;
  4826  1549  1283               	bcf	3,5	;RP0=0, select bank0
  4827  154A  1303               	bcf	3,6	;RP1=0, select bank0
  4828  154B  01B6               	clrf	_me_2_us2_th
  4829  154C                     l4249:
  4830                           
  4831                           ;PROYECTO.c: 329:                     me_2_us2_tm = 0;
  4832  154C  01AD               	clrf	_me_2_us2_tm
  4833  154D                     l4251:
  4834                           
  4835                           ;PROYECTO.c: 332:             if (me_2_us3_th == me_2_us3_h || me_2_us3_h == 0){
  4836  154D  0833               	movf	_me_2_us3_th,w
  4837  154E  064C               	xorwf	_me_2_us3_h,w
  4838  154F  1903               	skipnz
  4839  1550  2D52               	goto	u4581
  4840  1551  2D53               	goto	u4580
  4841  1552                     u4581:
  4842  1552  2D58               	goto	l4255
  4843  1553                     u4580:
  4844  1553                     l4253:
  4845  1553  084C               	movf	_me_2_us3_h,w
  4846  1554  1D03               	btfss	3,2
  4847  1555  2D57               	goto	u4591
  4848  1556  2D58               	goto	u4590
  4849  1557                     u4591:
  4850  1557  2D77               	goto	l4269
  4851  1558                     u4590:
  4852  1558                     l4255:
  4853                           
  4854                           ;PROYECTO.c: 333:                 if(me_2_us3_tm == me_2_us3_m){
  4855  1558  082A               	movf	_me_2_us3_tm,w
  4856  1559  0643               	xorwf	_me_2_us3_m,w
  4857  155A  1D03               	skipz
  4858  155B  2D5D               	goto	u4601
  4859  155C  2D5E               	goto	u4600
  4860  155D                     u4601:
  4861  155D  2D77               	goto	l4269
  4862  155E                     u4600:
  4863  155E                     l4257:
  4864                           
  4865                           ;PROYECTO.c: 334:                     if(activa2 == 0){
  4866  155E  083C               	movf	_activa2,w
  4867  155F  1D03               	btfss	3,2
  4868  1560  2D62               	goto	u4611
  4869  1561  2D63               	goto	u4610
  4870  1562                     u4611:
  4871  1562  2D73               	goto	l4265
  4872  1563                     u4610:
  4873  1563                     l4259:
  4874                           
  4875                           ;PROYECTO.c: 335:                         activa2 = 1;
  4876  1563  01BC               	clrf	_activa2
  4877  1564  0ABC               	incf	_activa2,f
  4878  1565                     l4261:
  4879                           
  4880                           ;PROYECTO.c: 336:                         medicamento2++;
  4881  1565  3001               	movlw	1
  4882  1566  00DD               	movwf	??_main
  4883  1567  085D               	movf	??_main,w
  4884  1568  07A1               	addwf	_medicamento2,f
  4885  1569                     l4263:
  4886                           
  4887                           ;PROYECTO.c: 337:                        WriteToEEPROM(medicamento2, 0x11);
  4888  1569  3011               	movlw	17
  4889  156A  00DD               	movwf	??_main
  4890  156B  085D               	movf	??_main,w
  4891  156C  00F3               	movwf	WriteToEEPROM@addr
  4892  156D  0821               	movf	_medicamento2,w
  4893  156E  120A  158A  2424  160A  118A  	fcall	_WriteToEEPROM
  4894  1573                     l4265:
  4895                           
  4896                           ;PROYECTO.c: 339:                     me_2_us3_th = 0;
  4897  1573  1283               	bcf	3,5	;RP0=0, select bank0
  4898  1574  1303               	bcf	3,6	;RP1=0, select bank0
  4899  1575  01B3               	clrf	_me_2_us3_th
  4900  1576                     l4267:
  4901                           
  4902                           ;PROYECTO.c: 340:                     me_2_us3_tm = 0;
  4903  1576  01AA               	clrf	_me_2_us3_tm
  4904  1577                     l4269:
  4905                           
  4906                           ;PROYECTO.c: 343:             if (me_3_us1_th == me_3_us1_h || me_3_us1_h == 0){
  4907  1577  0838               	movf	_me_3_us1_th,w
  4908  1578  0651               	xorwf	_me_3_us1_h,w
  4909  1579  1903               	skipnz
  4910  157A  2D7C               	goto	u4621
  4911  157B  2D7D               	goto	u4620
  4912  157C                     u4621:
  4913  157C  2D82               	goto	l4273
  4914  157D                     u4620:
  4915  157D                     l4271:
  4916  157D  0851               	movf	_me_3_us1_h,w
  4917  157E  1D03               	btfss	3,2
  4918  157F  2D81               	goto	u4631
  4919  1580  2D82               	goto	u4630
  4920  1581                     u4631:
  4921  1581  2DA1               	goto	l4287
  4922  1582                     u4630:
  4923  1582                     l4273:
  4924                           
  4925                           ;PROYECTO.c: 344:                 if(me_3_us1_tm == me_3_us1_m){
  4926  1582  082F               	movf	_me_3_us1_tm,w
  4927  1583  0648               	xorwf	_me_3_us1_m,w
  4928  1584  1D03               	skipz
  4929  1585  2D87               	goto	u4641
  4930  1586  2D88               	goto	u4640
  4931  1587                     u4641:
  4932  1587  2DA1               	goto	l4287
  4933  1588                     u4640:
  4934  1588                     l4275:
  4935                           
  4936                           ;PROYECTO.c: 345:                     if(activa3 == 0){
  4937  1588  083B               	movf	_activa3,w
  4938  1589  1D03               	btfss	3,2
  4939  158A  2D8C               	goto	u4651
  4940  158B  2D8D               	goto	u4650
  4941  158C                     u4651:
  4942  158C  2D9D               	goto	l4283
  4943  158D                     u4650:
  4944  158D                     l4277:
  4945                           
  4946                           ;PROYECTO.c: 346:                         activa3 = 1;
  4947  158D  01BB               	clrf	_activa3
  4948  158E  0ABB               	incf	_activa3,f
  4949  158F                     l4279:
  4950                           
  4951                           ;PROYECTO.c: 347:                         medicamento3++;
  4952  158F  3001               	movlw	1
  4953  1590  00DD               	movwf	??_main
  4954  1591  085D               	movf	??_main,w
  4955  1592  07A0               	addwf	_medicamento3,f
  4956  1593                     l4281:
  4957                           
  4958                           ;PROYECTO.c: 348:                         WriteToEEPROM(medicamento3, 0x12);
  4959  1593  3012               	movlw	18
  4960  1594  00DD               	movwf	??_main
  4961  1595  085D               	movf	??_main,w
  4962  1596  00F3               	movwf	WriteToEEPROM@addr
  4963  1597  0820               	movf	_medicamento3,w
  4964  1598  120A  158A  2424  160A  118A  	fcall	_WriteToEEPROM
  4965  159D                     l4283:
  4966                           
  4967                           ;PROYECTO.c: 350:                     me_3_us1_th = 0;
  4968  159D  1283               	bcf	3,5	;RP0=0, select bank0
  4969  159E  1303               	bcf	3,6	;RP1=0, select bank0
  4970  159F  01B8               	clrf	_me_3_us1_th
  4971  15A0                     l4285:
  4972                           
  4973                           ;PROYECTO.c: 351:                     me_3_us1_tm = 0;
  4974  15A0  01AF               	clrf	_me_3_us1_tm
  4975  15A1                     l4287:
  4976                           
  4977                           ;PROYECTO.c: 354:             if (me_3_us2_th == me_3_us2_h || me_3_us2_h == 0){
  4978  15A1  0835               	movf	_me_3_us2_th,w
  4979  15A2  064E               	xorwf	_me_3_us2_h,w
  4980  15A3  1903               	skipnz
  4981  15A4  2DA6               	goto	u4661
  4982  15A5  2DA7               	goto	u4660
  4983  15A6                     u4661:
  4984  15A6  2DAC               	goto	l4291
  4985  15A7                     u4660:
  4986  15A7                     l4289:
  4987  15A7  084E               	movf	_me_3_us2_h,w
  4988  15A8  1D03               	btfss	3,2
  4989  15A9  2DAB               	goto	u4671
  4990  15AA  2DAC               	goto	u4670
  4991  15AB                     u4671:
  4992  15AB  2DCB               	goto	l4305
  4993  15AC                     u4670:
  4994  15AC                     l4291:
  4995                           
  4996                           ;PROYECTO.c: 355:                 if(me_3_us2_tm == me_3_us2_m){
  4997  15AC  082C               	movf	_me_3_us2_tm,w
  4998  15AD  0645               	xorwf	_me_3_us2_m,w
  4999  15AE  1D03               	skipz
  5000  15AF  2DB1               	goto	u4681
  5001  15B0  2DB2               	goto	u4680
  5002  15B1                     u4681:
  5003  15B1  2DCB               	goto	l4305
  5004  15B2                     u4680:
  5005  15B2                     l4293:
  5006                           
  5007                           ;PROYECTO.c: 356:                     if(activa3 == 0){
  5008  15B2  083B               	movf	_activa3,w
  5009  15B3  1D03               	btfss	3,2
  5010  15B4  2DB6               	goto	u4691
  5011  15B5  2DB7               	goto	u4690
  5012  15B6                     u4691:
  5013  15B6  2DC7               	goto	l4301
  5014  15B7                     u4690:
  5015  15B7                     l4295:
  5016                           
  5017                           ;PROYECTO.c: 357:                         activa3 = 1;
  5018  15B7  01BB               	clrf	_activa3
  5019  15B8  0ABB               	incf	_activa3,f
  5020  15B9                     l4297:
  5021                           
  5022                           ;PROYECTO.c: 358:                         medicamento3++;
  5023  15B9  3001               	movlw	1
  5024  15BA  00DD               	movwf	??_main
  5025  15BB  085D               	movf	??_main,w
  5026  15BC  07A0               	addwf	_medicamento3,f
  5027  15BD                     l4299:
  5028                           
  5029                           ;PROYECTO.c: 359:                         WriteToEEPROM(medicamento3, 0x12);
  5030  15BD  3012               	movlw	18
  5031  15BE  00DD               	movwf	??_main
  5032  15BF  085D               	movf	??_main,w
  5033  15C0  00F3               	movwf	WriteToEEPROM@addr
  5034  15C1  0820               	movf	_medicamento3,w
  5035  15C2  120A  158A  2424  160A  118A  	fcall	_WriteToEEPROM
  5036  15C7                     l4301:
  5037                           
  5038                           ;PROYECTO.c: 361:                     me_3_us2_th = 0;
  5039  15C7  1283               	bcf	3,5	;RP0=0, select bank0
  5040  15C8  1303               	bcf	3,6	;RP1=0, select bank0
  5041  15C9  01B5               	clrf	_me_3_us2_th
  5042  15CA                     l4303:
  5043                           
  5044                           ;PROYECTO.c: 362:                     me_3_us2_tm = 0;
  5045  15CA  01AC               	clrf	_me_3_us2_tm
  5046  15CB                     l4305:
  5047                           
  5048                           ;PROYECTO.c: 365:             if (me_3_us3_th == me_3_us3_h || me_3_us3_h == 0){
  5049  15CB  0832               	movf	_me_3_us3_th,w
  5050  15CC  064B               	xorwf	_me_3_us3_h,w
  5051  15CD  1903               	skipnz
  5052  15CE  2DD0               	goto	u4701
  5053  15CF  2DD3               	goto	u4700
  5054  15D0                     u4701:
  5055  15D0  160A  118A  2EE6   	goto	l4309
  5056  15D3                     u4700:
  5057  15D3                     l4307:
  5058  15D3  084B               	movf	_me_3_us3_h,w
  5059  15D4  1D03               	btfss	3,2
  5060  15D5  2DD9               	goto	u4711
  5061  15D6  160A  118A  2EE6   	goto	u4710
  5062  15D9                     u4711:
  5063  15D9  160A  118A  2F05   	goto	l4323
  5064                           
  5065                           	psect	maintext_split_2
  5066  16E6                     u4710:
  5067  16E6                     l4309:
  5068                           
  5069                           ;PROYECTO.c: 366:                 if(me_3_us3_tm == me_3_us3_m){
  5070  16E6  0829               	movf	_me_3_us3_tm,w
  5071  16E7  0642               	xorwf	_me_3_us3_m,w
  5072  16E8  1D03               	skipz
  5073  16E9  2EEB               	goto	u4721
  5074  16EA  2EEC               	goto	u4720
  5075  16EB                     u4721:
  5076  16EB  2F05               	goto	l4323
  5077  16EC                     u4720:
  5078  16EC                     l4311:
  5079                           
  5080                           ;PROYECTO.c: 367:                     if(activa3 == 0){
  5081  16EC  083B               	movf	_activa3,w
  5082  16ED  1D03               	btfss	3,2
  5083  16EE  2EF0               	goto	u4731
  5084  16EF  2EF1               	goto	u4730
  5085  16F0                     u4731:
  5086  16F0  2F01               	goto	l4319
  5087  16F1                     u4730:
  5088  16F1                     l4313:
  5089                           
  5090                           ;PROYECTO.c: 368:                         activa3 = 1;
  5091  16F1  01BB               	clrf	_activa3
  5092  16F2  0ABB               	incf	_activa3,f
  5093  16F3                     l4315:
  5094                           
  5095                           ;PROYECTO.c: 369:                         medicamento3++;
  5096  16F3  3001               	movlw	1
  5097  16F4  00DD               	movwf	??_main
  5098  16F5  085D               	movf	??_main,w
  5099  16F6  07A0               	addwf	_medicamento3,f
  5100  16F7                     l4317:
  5101                           
  5102                           ;PROYECTO.c: 370:                         WriteToEEPROM(medicamento3, 0x12);
  5103  16F7  3012               	movlw	18
  5104  16F8  00DD               	movwf	??_main
  5105  16F9  085D               	movf	??_main,w
  5106  16FA  00F3               	movwf	WriteToEEPROM@addr
  5107  16FB  0820               	movf	_medicamento3,w
  5108  16FC  120A  158A  2424  160A  118A  	fcall	_WriteToEEPROM
  5109  1701                     l4319:
  5110                           
  5111                           ;PROYECTO.c: 372:                     me_3_us3_th = 0;
  5112  1701  1283               	bcf	3,5	;RP0=0, select bank0
  5113  1702  1303               	bcf	3,6	;RP1=0, select bank0
  5114  1703  01B2               	clrf	_me_3_us3_th
  5115  1704                     l4321:
  5116                           
  5117                           ;PROYECTO.c: 373:                     me_3_us3_tm = 0;
  5118  1704  01A9               	clrf	_me_3_us3_tm
  5119  1705                     l4323:
  5120                           
  5121                           ;PROYECTO.c: 376:             prueba = 0;
  5122  1705  01A8               	clrf	_prueba
  5123  1706                     l4325:
  5124                           
  5125                           ;PROYECTO.c: 378:         if (T0IF == 1) {
  5126  1706  1D0B               	btfss	11,2	;volatile
  5127  1707  2F09               	goto	u4741
  5128  1708  2F0A               	goto	u4740
  5129  1709                     u4741:
  5130  1709  2F8B               	goto	l4377
  5131  170A                     u4740:
  5132  170A                     l4327:
  5133                           
  5134                           ;PROYECTO.c: 379:             if(RB0==0 || activa1==1){
  5135  170A  1C06               	btfss	6,0	;volatile
  5136  170B  2F0D               	goto	u4751
  5137  170C  2F0E               	goto	u4750
  5138  170D                     u4751:
  5139  170D  2F13               	goto	l315
  5140  170E                     u4750:
  5141  170E                     l4329:
  5142  170E  033D               	decf	_activa1,w
  5143  170F  1D03               	btfss	3,2
  5144  1710  2F12               	goto	u4761
  5145  1711  2F13               	goto	u4760
  5146  1712                     u4761:
  5147  1712  2F27               	goto	l313
  5148  1713                     u4760:
  5149  1713                     l315:
  5150                           
  5151                           ;PROYECTO.c: 380:                 RD0 = 1;
  5152  1713  1408               	bsf	8,0	;volatile
  5153  1714                     l4331:
  5154                           
  5155                           ;PROYECTO.c: 381:                 RA0 = ~RA0;
  5156  1714  3001               	movlw	1
  5157  1715  0685               	xorwf	5,f
  5158                           
  5159                           ;PROYECTO.c: 382:                 _delay((unsigned long)((2)*(4000000/4000.0)));
  5160  1716  3003               	movlw	3
  5161  1717  1283               	bcf	3,5	;RP0=0, select bank0
  5162  1718  1303               	bcf	3,6	;RP1=0, select bank0
  5163  1719  00DE               	movwf	??_main+1
  5164  171A  3097               	movlw	151
  5165  171B  00DD               	movwf	??_main
  5166  171C                     u5957:
  5167  171C  0BDD               	decfsz	??_main,f
  5168  171D  2F1C               	goto	u5957
  5169  171E  0BDE               	decfsz	??_main+1,f
  5170  171F  2F1C               	goto	u5957
  5171  1720                     l4333:
  5172                           
  5173                           ;PROYECTO.c: 383:                 RD0 = 0;
  5174  1720  1283               	bcf	3,5	;RP0=0, select bank0
  5175  1721  1303               	bcf	3,6	;RP1=0, select bank0
  5176  1722  1008               	bcf	8,0	;volatile
  5177                           
  5178                           ;PROYECTO.c: 384:                 TMR0 = 70;
  5179  1723  3046               	movlw	70
  5180  1724  0081               	movwf	1	;volatile
  5181  1725                     l4335:
  5182                           
  5183                           ;PROYECTO.c: 385:                 INTCONbits.T0IF = 0;
  5184  1725  110B               	bcf	11,2	;volatile
  5185                           
  5186                           ;PROYECTO.c: 387:             }else{
  5187  1726  2F36               	goto	l4343
  5188  1727                     l313:
  5189                           
  5190                           ;PROYECTO.c: 388:                 RD0 = 1;
  5191  1727  1408               	bsf	8,0	;volatile
  5192  1728                     l4337:
  5193                           
  5194                           ;PROYECTO.c: 389:                 _delay((unsigned long)((1)*(4000000/4000.0)));
  5195  1728  30C7               	movlw	199
  5196  1729  1283               	bcf	3,5	;RP0=0, select bank0
  5197  172A  1303               	bcf	3,6	;RP1=0, select bank0
  5198  172B  00DD               	movwf	??_main
  5199  172C                     u5967:
  5200  172C  2F2D               	nop2
  5201  172D  0BDD               	decfsz	??_main,f
  5202  172E  2F2C               	goto	u5967
  5203  172F  2F30               	nop2
  5204  1730                     l4339:
  5205                           
  5206                           ;PROYECTO.c: 390:                 RD0 = 0;
  5207  1730  1283               	bcf	3,5	;RP0=0, select bank0
  5208  1731  1303               	bcf	3,6	;RP1=0, select bank0
  5209  1732  1008               	bcf	8,0	;volatile
  5210                           
  5211                           ;PROYECTO.c: 391:                 TMR0 = 74;
  5212  1733  304A               	movlw	74
  5213  1734  0081               	movwf	1	;volatile
  5214  1735                     l4341:
  5215                           
  5216                           ;PROYECTO.c: 392:                 INTCONbits.T0IF = 0;
  5217  1735  110B               	bcf	11,2	;volatile
  5218  1736                     l4343:
  5219                           
  5220                           ;PROYECTO.c: 395:             if(RB1==0 || activa2==1){
  5221  1736  1C86               	btfss	6,1	;volatile
  5222  1737  2F39               	goto	u4771
  5223  1738  2F3A               	goto	u4770
  5224  1739                     u4771:
  5225  1739  2F3F               	goto	l319
  5226  173A                     u4770:
  5227  173A                     l4345:
  5228  173A  033C               	decf	_activa2,w
  5229  173B  1D03               	btfss	3,2
  5230  173C  2F3E               	goto	u4781
  5231  173D  2F3F               	goto	u4780
  5232  173E                     u4781:
  5233  173E  2F51               	goto	l317
  5234  173F                     u4780:
  5235  173F                     l319:
  5236                           
  5237                           ;PROYECTO.c: 396:                 RD1 = 1;
  5238  173F  1488               	bsf	8,1	;volatile
  5239  1740                     l4347:
  5240                           
  5241                           ;PROYECTO.c: 397:                 _delay((unsigned long)((2)*(4000000/4000.0)));
  5242  1740  3003               	movlw	3
  5243  1741  1283               	bcf	3,5	;RP0=0, select bank0
  5244  1742  1303               	bcf	3,6	;RP1=0, select bank0
  5245  1743  00DE               	movwf	??_main+1
  5246  1744  3097               	movlw	151
  5247  1745  00DD               	movwf	??_main
  5248  1746                     u5977:
  5249  1746  0BDD               	decfsz	??_main,f
  5250  1747  2F46               	goto	u5977
  5251  1748  0BDE               	decfsz	??_main+1,f
  5252  1749  2F46               	goto	u5977
  5253  174A                     l4349:
  5254                           
  5255                           ;PROYECTO.c: 398:                 RD1 = 0;
  5256  174A  1283               	bcf	3,5	;RP0=0, select bank0
  5257  174B  1303               	bcf	3,6	;RP1=0, select bank0
  5258  174C  1088               	bcf	8,1	;volatile
  5259                           
  5260                           ;PROYECTO.c: 399:                 TMR0 = 70;
  5261  174D  3046               	movlw	70
  5262  174E  0081               	movwf	1	;volatile
  5263  174F                     l4351:
  5264                           
  5265                           ;PROYECTO.c: 400:                 INTCONbits.T0IF = 0;
  5266  174F  110B               	bcf	11,2	;volatile
  5267                           
  5268                           ;PROYECTO.c: 401:             }else{
  5269  1750  2F60               	goto	l4359
  5270  1751                     l317:
  5271                           
  5272                           ;PROYECTO.c: 402:                 RD1 = 1;
  5273  1751  1488               	bsf	8,1	;volatile
  5274  1752                     l4353:
  5275                           
  5276                           ;PROYECTO.c: 403:                 _delay((unsigned long)((1)*(4000000/4000.0)));
  5277  1752  30C7               	movlw	199
  5278  1753  1283               	bcf	3,5	;RP0=0, select bank0
  5279  1754  1303               	bcf	3,6	;RP1=0, select bank0
  5280  1755  00DD               	movwf	??_main
  5281  1756                     u5987:
  5282  1756  2F57               	nop2
  5283  1757  0BDD               	decfsz	??_main,f
  5284  1758  2F56               	goto	u5987
  5285  1759  2F5A               	nop2
  5286  175A                     l4355:
  5287                           
  5288                           ;PROYECTO.c: 404:                 RD1 = 0;
  5289  175A  1283               	bcf	3,5	;RP0=0, select bank0
  5290  175B  1303               	bcf	3,6	;RP1=0, select bank0
  5291  175C  1088               	bcf	8,1	;volatile
  5292                           
  5293                           ;PROYECTO.c: 405:                 TMR0 = 74;
  5294  175D  304A               	movlw	74
  5295  175E  0081               	movwf	1	;volatile
  5296  175F                     l4357:
  5297                           
  5298                           ;PROYECTO.c: 406:                 INTCONbits.T0IF = 0;
  5299  175F  110B               	bcf	11,2	;volatile
  5300  1760                     l4359:
  5301                           
  5302                           ;PROYECTO.c: 408:             if(RB2==0 || activa3==1){
  5303  1760  1D06               	btfss	6,2	;volatile
  5304  1761  2F63               	goto	u4791
  5305  1762  2F64               	goto	u4790
  5306  1763                     u4791:
  5307  1763  2F69               	goto	l323
  5308  1764                     u4790:
  5309  1764                     l4361:
  5310  1764  033B               	decf	_activa3,w
  5311  1765  1D03               	btfss	3,2
  5312  1766  2F68               	goto	u4801
  5313  1767  2F69               	goto	u4800
  5314  1768                     u4801:
  5315  1768  2F7B               	goto	l321
  5316  1769                     u4800:
  5317  1769                     l323:
  5318                           
  5319                           ;PROYECTO.c: 409:                 RD2 = 1;
  5320  1769  1508               	bsf	8,2	;volatile
  5321  176A                     l4363:
  5322                           
  5323                           ;PROYECTO.c: 410:                 _delay((unsigned long)((2)*(4000000/4000.0)));
  5324  176A  3003               	movlw	3
  5325  176B  1283               	bcf	3,5	;RP0=0, select bank0
  5326  176C  1303               	bcf	3,6	;RP1=0, select bank0
  5327  176D  00DE               	movwf	??_main+1
  5328  176E  3097               	movlw	151
  5329  176F  00DD               	movwf	??_main
  5330  1770                     u5997:
  5331  1770  0BDD               	decfsz	??_main,f
  5332  1771  2F70               	goto	u5997
  5333  1772  0BDE               	decfsz	??_main+1,f
  5334  1773  2F70               	goto	u5997
  5335  1774                     l4365:
  5336                           
  5337                           ;PROYECTO.c: 411:                 RD2 = 0;
  5338  1774  1283               	bcf	3,5	;RP0=0, select bank0
  5339  1775  1303               	bcf	3,6	;RP1=0, select bank0
  5340  1776  1108               	bcf	8,2	;volatile
  5341                           
  5342                           ;PROYECTO.c: 412:                 TMR0 = 70;
  5343  1777  3046               	movlw	70
  5344  1778  0081               	movwf	1	;volatile
  5345  1779                     l4367:
  5346                           
  5347                           ;PROYECTO.c: 413:                 INTCONbits.T0IF = 0;
  5348  1779  110B               	bcf	11,2	;volatile
  5349                           
  5350                           ;PROYECTO.c: 414:             }else{
  5351  177A  2F8A               	goto	l4375
  5352  177B                     l321:
  5353                           
  5354                           ;PROYECTO.c: 415:                 RD2 = 1;
  5355  177B  1508               	bsf	8,2	;volatile
  5356  177C                     l4369:
  5357                           
  5358                           ;PROYECTO.c: 416:                 _delay((unsigned long)((1)*(4000000/4000.0)));
  5359  177C  30C7               	movlw	199
  5360  177D  1283               	bcf	3,5	;RP0=0, select bank0
  5361  177E  1303               	bcf	3,6	;RP1=0, select bank0
  5362  177F  00DD               	movwf	??_main
  5363  1780                     u6007:
  5364  1780  2F81               	nop2
  5365  1781  0BDD               	decfsz	??_main,f
  5366  1782  2F80               	goto	u6007
  5367  1783  2F84               	nop2
  5368  1784                     l4371:
  5369                           
  5370                           ;PROYECTO.c: 417:                 RD2 = 0;
  5371  1784  1283               	bcf	3,5	;RP0=0, select bank0
  5372  1785  1303               	bcf	3,6	;RP1=0, select bank0
  5373  1786  1108               	bcf	8,2	;volatile
  5374                           
  5375                           ;PROYECTO.c: 418:                 TMR0 = 74;
  5376  1787  304A               	movlw	74
  5377  1788  0081               	movwf	1	;volatile
  5378  1789                     l4373:
  5379                           
  5380                           ;PROYECTO.c: 419:                 INTCONbits.T0IF = 0;
  5381  1789  110B               	bcf	11,2	;volatile
  5382  178A                     l4375:
  5383                           
  5384                           ;PROYECTO.c: 421:             T0IF = 0;
  5385  178A  110B               	bcf	11,2	;volatile
  5386  178B                     l4377:
  5387                           
  5388                           ;PROYECTO.c: 423:         if (RB0 == 1 && RB0_old == 0) {
  5389  178B  1C06               	btfss	6,0	;volatile
  5390  178C  2F8E               	goto	u4811
  5391  178D  2F8F               	goto	u4810
  5392  178E                     u4811:
  5393  178E  2FA2               	goto	l4385
  5394  178F                     u4810:
  5395  178F                     l4379:
  5396  178F  0827               	movf	_RB0_old,w
  5397  1790  1D03               	btfss	3,2
  5398  1791  2F93               	goto	u4821
  5399  1792  2F94               	goto	u4820
  5400  1793                     u4821:
  5401  1793  2FA2               	goto	l4385
  5402  1794                     u4820:
  5403  1794                     l4381:
  5404                           
  5405                           ;PROYECTO.c: 424:             medicamento1++;
  5406  1794  3001               	movlw	1
  5407  1795  00DD               	movwf	??_main
  5408  1796  085D               	movf	??_main,w
  5409  1797  07F6               	addwf	_medicamento1,f
  5410  1798                     l4383:
  5411                           
  5412                           ;PROYECTO.c: 425:             WriteToEEPROM(medicamento1, 0x10);
  5413  1798  3010               	movlw	16
  5414  1799  00DD               	movwf	??_main
  5415  179A  085D               	movf	??_main,w
  5416  179B  00F3               	movwf	WriteToEEPROM@addr
  5417  179C  0876               	movf	_medicamento1,w
  5418  179D  120A  158A  2424  160A  118A  	fcall	_WriteToEEPROM
  5419  17A2                     l4385:
  5420  17A2  3000               	movlw	0
  5421  17A3  1283               	bcf	3,5	;RP0=0, select bank0
  5422  17A4  1303               	bcf	3,6	;RP1=0, select bank0
  5423  17A5  1806               	btfsc	6,0	;volatile
  5424  17A6  3001               	movlw	1
  5425  17A7  00A7               	movwf	_RB0_old
  5426  17A8                     l4387:
  5427                           
  5428                           ;PROYECTO.c: 427:         if (RB1 == 1 && RB1_old == 0){
  5429  17A8  1C86               	btfss	6,1	;volatile
  5430  17A9  2FAB               	goto	u4831
  5431  17AA  2FAC               	goto	u4830
  5432  17AB                     u4831:
  5433  17AB  2FBF               	goto	l4395
  5434  17AC                     u4830:
  5435  17AC                     l4389:
  5436  17AC  0826               	movf	_RB1_old,w
  5437  17AD  1D03               	btfss	3,2
  5438  17AE  2FB0               	goto	u4841
  5439  17AF  2FB1               	goto	u4840
  5440  17B0                     u4841:
  5441  17B0  2FBF               	goto	l4395
  5442  17B1                     u4840:
  5443  17B1                     l4391:
  5444                           
  5445                           ;PROYECTO.c: 428:             medicamento2++;
  5446  17B1  3001               	movlw	1
  5447  17B2  00DD               	movwf	??_main
  5448  17B3  085D               	movf	??_main,w
  5449  17B4  07A1               	addwf	_medicamento2,f
  5450  17B5                     l4393:
  5451                           
  5452                           ;PROYECTO.c: 429:             WriteToEEPROM(medicamento2, 0x11);
  5453  17B5  3011               	movlw	17
  5454  17B6  00DD               	movwf	??_main
  5455  17B7  085D               	movf	??_main,w
  5456  17B8  00F3               	movwf	WriteToEEPROM@addr
  5457  17B9  0821               	movf	_medicamento2,w
  5458  17BA  120A  158A  2424  160A  118A  	fcall	_WriteToEEPROM
  5459  17BF                     l4395:
  5460  17BF  3000               	movlw	0
  5461  17C0  1283               	bcf	3,5	;RP0=0, select bank0
  5462  17C1  1303               	bcf	3,6	;RP1=0, select bank0
  5463  17C2  1886               	btfsc	6,1	;volatile
  5464  17C3  3001               	movlw	1
  5465  17C4  00A6               	movwf	_RB1_old
  5466  17C5                     l4397:
  5467                           
  5468                           ;PROYECTO.c: 431:         if (RB2 == 1 && RB2_old == 0){
  5469  17C5  1D06               	btfss	6,2	;volatile
  5470  17C6  2FC8               	goto	u4851
  5471  17C7  2FC9               	goto	u4850
  5472  17C8                     u4851:
  5473  17C8  2FDC               	goto	l4405
  5474  17C9                     u4850:
  5475  17C9                     l4399:
  5476  17C9  0825               	movf	_RB2_old,w
  5477  17CA  1D03               	btfss	3,2
  5478  17CB  2FCD               	goto	u4861
  5479  17CC  2FCE               	goto	u4860
  5480  17CD                     u4861:
  5481  17CD  2FDC               	goto	l4405
  5482  17CE                     u4860:
  5483  17CE                     l4401:
  5484                           
  5485                           ;PROYECTO.c: 432:             medicamento3++;
  5486  17CE  3001               	movlw	1
  5487  17CF  00DD               	movwf	??_main
  5488  17D0  085D               	movf	??_main,w
  5489  17D1  07A0               	addwf	_medicamento3,f
  5490  17D2                     l4403:
  5491                           
  5492                           ;PROYECTO.c: 433:             WriteToEEPROM(medicamento3, 0x12);
  5493  17D2  3012               	movlw	18
  5494  17D3  00DD               	movwf	??_main
  5495  17D4  085D               	movf	??_main,w
  5496  17D5  00F3               	movwf	WriteToEEPROM@addr
  5497  17D6  0820               	movf	_medicamento3,w
  5498  17D7  120A  158A  2424  160A  118A  	fcall	_WriteToEEPROM
  5499  17DC                     l4405:
  5500  17DC  3000               	movlw	0
  5501  17DD  1283               	bcf	3,5	;RP0=0, select bank0
  5502  17DE  1303               	bcf	3,6	;RP1=0, select bank0
  5503  17DF  1906               	btfsc	6,2	;volatile
  5504  17E0  3001               	movlw	1
  5505  17E1  00A5               	movwf	_RB2_old
  5506  17E2                     l4407:
  5507                           
  5508                           ;PROYECTO.c: 435:        if(!RA7){
  5509  17E2  1B85               	btfsc	5,7	;volatile
  5510  17E3  2FE5               	goto	u4871
  5511  17E4  2FE6               	goto	u4870
  5512  17E5                     u4871:
  5513  17E5  2FF8               	goto	l4411
  5514  17E6                     u4870:
  5515  17E6                     l4409:
  5516                           
  5517                           ;PROYECTO.c: 436:            me_1_us1_tm = 0;
  5518  17E6  01B1               	clrf	_me_1_us1_tm
  5519                           
  5520                           ;PROYECTO.c: 437:            me_1_us2_tm = 0;
  5521  17E7  01AE               	clrf	_me_1_us2_tm
  5522                           
  5523                           ;PROYECTO.c: 438:            me_1_us3_tm = 0;
  5524  17E8  01AB               	clrf	_me_1_us3_tm
  5525                           
  5526                           ;PROYECTO.c: 439:            me_2_us1_tm = 0;
  5527  17E9  01B0               	clrf	_me_2_us1_tm
  5528                           
  5529                           ;PROYECTO.c: 440:            me_2_us2_tm = 0;
  5530  17EA  01AD               	clrf	_me_2_us2_tm
  5531                           
  5532                           ;PROYECTO.c: 441:            me_2_us3_tm = 0;
  5533  17EB  01AA               	clrf	_me_2_us3_tm
  5534                           
  5535                           ;PROYECTO.c: 442:            me_3_us1_tm = 0;
  5536  17EC  01AF               	clrf	_me_3_us1_tm
  5537                           
  5538                           ;PROYECTO.c: 443:            me_3_us2_tm = 0;
  5539  17ED  01AC               	clrf	_me_3_us2_tm
  5540                           
  5541                           ;PROYECTO.c: 444:            me_3_us3_tm = 0;
  5542  17EE  01A9               	clrf	_me_3_us3_tm
  5543                           
  5544                           ;PROYECTO.c: 445:            me_1_us1_th = 0;
  5545  17EF  01BA               	clrf	_me_1_us1_th
  5546                           
  5547                           ;PROYECTO.c: 446:            me_1_us2_th = 0;
  5548  17F0  01B7               	clrf	_me_1_us2_th
  5549                           
  5550                           ;PROYECTO.c: 447:            me_1_us3_th = 0;
  5551  17F1  01B4               	clrf	_me_1_us3_th
  5552                           
  5553                           ;PROYECTO.c: 448:            me_2_us1_th = 0;
  5554  17F2  01B9               	clrf	_me_2_us1_th
  5555                           
  5556                           ;PROYECTO.c: 449:            me_2_us2_th = 0;
  5557  17F3  01B6               	clrf	_me_2_us2_th
  5558                           
  5559                           ;PROYECTO.c: 450:            me_2_us3_th = 0;
  5560  17F4  01B3               	clrf	_me_2_us3_th
  5561                           
  5562                           ;PROYECTO.c: 451:            me_3_us1_th = 0;
  5563  17F5  01B8               	clrf	_me_3_us1_th
  5564                           
  5565                           ;PROYECTO.c: 452:            me_3_us2_th = 0;
  5566  17F6  01B5               	clrf	_me_3_us2_th
  5567                           
  5568                           ;PROYECTO.c: 453:            me_3_us3_th = 0;
  5569  17F7  01B2               	clrf	_me_3_us3_th
  5570  17F8                     l4411:
  5571                           
  5572                           ;PROYECTO.c: 456:        if(ADCON0bits.GO == 0){
  5573  17F8  189F               	btfsc	31,1	;volatile
  5574  17F9  2FFD               	goto	u4881
  5575  17FA  160A  118A  2DDC   	goto	u4880
  5576  17FD                     u4881:
  5577  17FD  120A  118A  2928   	goto	l329
  5578                           
  5579                           	psect	maintext_split_3
  5580  15DC                     u4880:
  5581  15DC                     l4413:
  5582                           
  5583                           ;PROYECTO.c: 458:             if(ADCON0bits.CHS == 6){
  5584  15DC  0C1F               	rrf	31,w	;volatile
  5585  15DD  00DD               	movwf	??_main
  5586  15DE  0C5D               	rrf	??_main,w
  5587  15DF  390F               	andlw	15
  5588  15E0  3A06               	xorlw	6
  5589  15E1  1D03               	skipz
  5590  15E2  2DE4               	goto	u4891
  5591  15E3  2DE5               	goto	u4890
  5592  15E4                     u4891:
  5593  15E4  2E34               	goto	l4443
  5594  15E5                     u4890:
  5595  15E5                     l4415:
  5596                           
  5597                           ;PROYECTO.c: 459:                 escala = ADRESH;
  5598  15E5  081E               	movf	30,w	;volatile
  5599  15E6  00DD               	movwf	??_main
  5600  15E7  085D               	movf	??_main,w
  5601  15E8  00F8               	movwf	_escala
  5602                           
  5603                           ;PROYECTO.c: 460:                 if ((escala >= 0) && (escala <=42)){
  5604  15E9  302B               	movlw	43
  5605  15EA  0278               	subwf	_escala,w
  5606  15EB  1803               	skipnc
  5607  15EC  2DEE               	goto	u4901
  5608  15ED  2DEF               	goto	u4900
  5609  15EE                     u4901:
  5610  15EE  2DF1               	goto	l4419
  5611  15EF                     u4900:
  5612  15EF                     l4417:
  5613                           
  5614                           ;PROYECTO.c: 461:                     minuto = 0;
  5615  15EF  01F9               	clrf	_minuto
  5616                           
  5617                           ;PROYECTO.c: 462:                 }else if((escala >= 43 )&& (escala <= 84 )){
  5618  15F0  2E2F               	goto	l4441
  5619  15F1                     l4419:
  5620  15F1  302B               	movlw	43
  5621  15F2  0278               	subwf	_escala,w
  5622  15F3  1C03               	skipc
  5623  15F4  2DF6               	goto	u4911
  5624  15F5  2DF7               	goto	u4910
  5625  15F6                     u4911:
  5626  15F6  2E02               	goto	l4425
  5627  15F7                     u4910:
  5628  15F7                     l4421:
  5629  15F7  3055               	movlw	85
  5630  15F8  0278               	subwf	_escala,w
  5631  15F9  1803               	skipnc
  5632  15FA  2DFC               	goto	u4921
  5633  15FB  2DFD               	goto	u4920
  5634  15FC                     u4921:
  5635  15FC  2E02               	goto	l4425
  5636  15FD                     u4920:
  5637  15FD                     l4423:
  5638                           
  5639                           ;PROYECTO.c: 463:                     minuto = 15;
  5640  15FD  300F               	movlw	15
  5641  15FE  00DD               	movwf	??_main
  5642  15FF  085D               	movf	??_main,w
  5643  1600  00F9               	movwf	_minuto
  5644                           
  5645                           ;PROYECTO.c: 464:                 }else if((escala >= 85) && (escala <= 126 )){
  5646  1601  2E2F               	goto	l4441
  5647  1602                     l4425:
  5648  1602  3055               	movlw	85
  5649  1603  0278               	subwf	_escala,w
  5650  1604  1C03               	skipc
  5651  1605  2E07               	goto	u4931
  5652  1606  2E08               	goto	u4930
  5653  1607                     u4931:
  5654  1607  2E13               	goto	l4431
  5655  1608                     u4930:
  5656  1608                     l4427:
  5657  1608  307F               	movlw	127
  5658  1609  0278               	subwf	_escala,w
  5659  160A  1803               	skipnc
  5660  160B  2E0D               	goto	u4941
  5661  160C  2E0E               	goto	u4940
  5662  160D                     u4941:
  5663  160D  2E13               	goto	l4431
  5664  160E                     u4940:
  5665  160E                     l4429:
  5666                           
  5667                           ;PROYECTO.c: 465:                     minuto = 30;
  5668  160E  301E               	movlw	30
  5669  160F  00DD               	movwf	??_main
  5670  1610  085D               	movf	??_main,w
  5671  1611  00F9               	movwf	_minuto
  5672                           
  5673                           ;PROYECTO.c: 466:                 }else if((escala >= 127) && (escala <= 168) ){
  5674  1612  2E2F               	goto	l4441
  5675  1613                     l4431:
  5676  1613  307F               	movlw	127
  5677  1614  0278               	subwf	_escala,w
  5678  1615  1C03               	skipc
  5679  1616  2E18               	goto	u4951
  5680  1617  2E19               	goto	u4950
  5681  1618                     u4951:
  5682  1618  2E24               	goto	l4437
  5683  1619                     u4950:
  5684  1619                     l4433:
  5685  1619  30A9               	movlw	169
  5686  161A  0278               	subwf	_escala,w
  5687  161B  1803               	skipnc
  5688  161C  2E1E               	goto	u4961
  5689  161D  2E1F               	goto	u4960
  5690  161E                     u4961:
  5691  161E  2E24               	goto	l4437
  5692  161F                     u4960:
  5693  161F                     l4435:
  5694                           
  5695                           ;PROYECTO.c: 467:                     minuto = 45;
  5696  161F  302D               	movlw	45
  5697  1620  00DD               	movwf	??_main
  5698  1621  085D               	movf	??_main,w
  5699  1622  00F9               	movwf	_minuto
  5700                           
  5701                           ;PROYECTO.c: 468:                 }else if(escala >= 210 && escala <= 255 ){
  5702  1623  2E2F               	goto	l4441
  5703  1624                     l4437:
  5704  1624  30D2               	movlw	210
  5705  1625  0278               	subwf	_escala,w
  5706  1626  1C03               	skipc
  5707  1627  2E29               	goto	u4971
  5708  1628  2E2A               	goto	u4970
  5709  1629                     u4971:
  5710  1629  2E2F               	goto	l334
  5711  162A                     u4970:
  5712  162A                     l4439:
  5713                           
  5714                           ;PROYECTO.c: 469:                     minuto = 55;
  5715  162A  3037               	movlw	55
  5716  162B  00DD               	movwf	??_main
  5717  162C  085D               	movf	??_main,w
  5718  162D  00F9               	movwf	_minuto
  5719  162E  2E2F               	goto	l4441
  5720  162F                     l334:
  5721  162F                     l4441:
  5722                           
  5723                           ;PROYECTO.c: 472:                 ADCON0bits.CHS = 5;
  5724  162F  081F               	movf	31,w	;volatile
  5725  1630  39C3               	andlw	-61
  5726  1631  3814               	iorlw	20
  5727  1632  009F               	movwf	31	;volatile
  5728                           
  5729                           ;PROYECTO.c: 473:             }
  5730  1633  2E3C               	goto	u4981
  5731  1634                     l4443:
  5732  1634  0C1F               	rrf	31,w	;volatile
  5733  1635  00DD               	movwf	??_main
  5734  1636  0C5D               	rrf	??_main,w
  5735  1637  390F               	andlw	15
  5736  1638  3A05               	xorlw	5
  5737  1639  1D03               	skipz
  5738  163A  2E3C               	goto	u4981
  5739  163B  2E3F               	goto	u4980
  5740  163C                     u4981:
  5741  163C  120A  118A  291E   	goto	l4593
  5742  163F                     u4980:
  5743  163F                     l4445:
  5744                           
  5745                           ;PROYECTO.c: 475:                 escala = ADRESH;
  5746  163F  081E               	movf	30,w	;volatile
  5747  1640  00DD               	movwf	??_main
  5748  1641  085D               	movf	??_main,w
  5749  1642  00F8               	movwf	_escala
  5750                           
  5751                           ;PROYECTO.c: 476:                 if (escala >= 0 && escala <=10 ){
  5752  1643  300B               	movlw	11
  5753  1644  0278               	subwf	_escala,w
  5754  1645  1803               	skipnc
  5755  1646  2E48               	goto	u4991
  5756  1647  2E49               	goto	u4990
  5757  1648                     u4991:
  5758  1648  2E4D               	goto	l4449
  5759  1649                     u4990:
  5760  1649                     l4447:
  5761                           
  5762                           ;PROYECTO.c: 477:                     hora = 0;
  5763  1649  01FA               	clrf	_hora
  5764  164A                     L1:
  5765                           
  5766                           ;PROYECTO.c: 478:                 }else if(escala >= 11 && escala <=20 ){
  5767  164A  120A  118A  291A   	goto	l4591
  5768  164D                     l4449:
  5769  164D  300B               	movlw	11
  5770  164E  0278               	subwf	_escala,w
  5771  164F  1C03               	skipc
  5772  1650  2E52               	goto	u5001
  5773  1651  2E53               	goto	u5000
  5774  1652                     u5001:
  5775  1652  2E5C               	goto	l4455
  5776  1653                     u5000:
  5777  1653                     l4451:
  5778  1653  3015               	movlw	21
  5779  1654  0278               	subwf	_escala,w
  5780  1655  1803               	skipnc
  5781  1656  2E58               	goto	u5011
  5782  1657  2E59               	goto	u5010
  5783  1658                     u5011:
  5784  1658  2E5C               	goto	l4455
  5785  1659                     u5010:
  5786  1659                     l4453:
  5787                           
  5788                           ;PROYECTO.c: 479:                     hora = 1;
  5789  1659  01FA               	clrf	_hora
  5790  165A  0AFA               	incf	_hora,f
  5791                           
  5792                           ;PROYECTO.c: 480:                 }else if(escala >= 21 && escala <=30 ){
  5793  165B  2E4A               	goto	L1
  5794  165C                     l4455:
  5795  165C  3015               	movlw	21
  5796  165D  0278               	subwf	_escala,w
  5797  165E  1C03               	skipc
  5798  165F  2E61               	goto	u5021
  5799  1660  2E62               	goto	u5020
  5800  1661                     u5021:
  5801  1661  2E6D               	goto	l4461
  5802  1662                     u5020:
  5803  1662                     l4457:
  5804  1662  301F               	movlw	31
  5805  1663  0278               	subwf	_escala,w
  5806  1664  1803               	skipnc
  5807  1665  2E67               	goto	u5031
  5808  1666  2E68               	goto	u5030
  5809  1667                     u5031:
  5810  1667  2E6D               	goto	l4461
  5811  1668                     u5030:
  5812  1668                     l4459:
  5813                           
  5814                           ;PROYECTO.c: 481:                     hora = 2;
  5815  1668  3002               	movlw	2
  5816  1669  00DD               	movwf	??_main
  5817  166A  085D               	movf	??_main,w
  5818  166B  00FA               	movwf	_hora
  5819                           
  5820                           ;PROYECTO.c: 482:                 }else if(escala >= 31 && escala <=40 ){
  5821  166C  2E4A               	goto	L1
  5822  166D                     l4461:
  5823  166D  301F               	movlw	31
  5824  166E  0278               	subwf	_escala,w
  5825  166F  1C03               	skipc
  5826  1670  2E72               	goto	u5041
  5827  1671  2E73               	goto	u5040
  5828  1672                     u5041:
  5829  1672  2E7E               	goto	l4467
  5830  1673                     u5040:
  5831  1673                     l4463:
  5832  1673  3029               	movlw	41
  5833  1674  0278               	subwf	_escala,w
  5834  1675  1803               	skipnc
  5835  1676  2E78               	goto	u5051
  5836  1677  2E79               	goto	u5050
  5837  1678                     u5051:
  5838  1678  2E7E               	goto	l4467
  5839  1679                     u5050:
  5840  1679                     l4465:
  5841                           
  5842                           ;PROYECTO.c: 483:                     hora = 3;
  5843  1679  3003               	movlw	3
  5844  167A  00DD               	movwf	??_main
  5845  167B  085D               	movf	??_main,w
  5846  167C  00FA               	movwf	_hora
  5847                           
  5848                           ;PROYECTO.c: 484:                 }else if(escala >= 41 && escala <=50 ){
  5849  167D  2E4A               	goto	L1
  5850  167E                     l4467:
  5851  167E  3029               	movlw	41
  5852  167F  0278               	subwf	_escala,w
  5853  1680  1C03               	skipc
  5854  1681  2E83               	goto	u5061
  5855  1682  2E84               	goto	u5060
  5856  1683                     u5061:
  5857  1683  2E8F               	goto	l4473
  5858  1684                     u5060:
  5859  1684                     l4469:
  5860  1684  3033               	movlw	51
  5861  1685  0278               	subwf	_escala,w
  5862  1686  1803               	skipnc
  5863  1687  2E89               	goto	u5071
  5864  1688  2E8A               	goto	u5070
  5865  1689                     u5071:
  5866  1689  2E8F               	goto	l4473
  5867  168A                     u5070:
  5868  168A                     l4471:
  5869                           
  5870                           ;PROYECTO.c: 485:                     hora = 4;
  5871  168A  3004               	movlw	4
  5872  168B  00DD               	movwf	??_main
  5873  168C  085D               	movf	??_main,w
  5874  168D  00FA               	movwf	_hora
  5875                           
  5876                           ;PROYECTO.c: 486:                 }else if(escala >= 51 && escala <=60 ){
  5877  168E  2E4A               	goto	L1
  5878  168F                     l4473:
  5879  168F  3033               	movlw	51
  5880  1690  0278               	subwf	_escala,w
  5881  1691  1C03               	skipc
  5882  1692  2E94               	goto	u5081
  5883  1693  2E95               	goto	u5080
  5884  1694                     u5081:
  5885  1694  2EA0               	goto	l4479
  5886  1695                     u5080:
  5887  1695                     l4475:
  5888  1695  303D               	movlw	61
  5889  1696  0278               	subwf	_escala,w
  5890  1697  1803               	skipnc
  5891  1698  2E9A               	goto	u5091
  5892  1699  2E9B               	goto	u5090
  5893  169A                     u5091:
  5894  169A  2EA0               	goto	l4479
  5895  169B                     u5090:
  5896  169B                     l4477:
  5897                           
  5898                           ;PROYECTO.c: 487:                     hora = 5;
  5899  169B  3005               	movlw	5
  5900  169C  00DD               	movwf	??_main
  5901  169D  085D               	movf	??_main,w
  5902  169E  00FA               	movwf	_hora
  5903                           
  5904                           ;PROYECTO.c: 488:                 }else if(escala >= 61 && escala <=70 ){
  5905  169F  2E4A               	goto	L1
  5906  16A0                     l4479:
  5907  16A0  303D               	movlw	61
  5908  16A1  0278               	subwf	_escala,w
  5909  16A2  1C03               	skipc
  5910  16A3  2EA5               	goto	u5101
  5911  16A4  2EA6               	goto	u5100
  5912  16A5                     u5101:
  5913  16A5  2EB1               	goto	l4485
  5914  16A6                     u5100:
  5915  16A6                     l4481:
  5916  16A6  3047               	movlw	71
  5917  16A7  0278               	subwf	_escala,w
  5918  16A8  1803               	skipnc
  5919  16A9  2EAB               	goto	u5111
  5920  16AA  2EAC               	goto	u5110
  5921  16AB                     u5111:
  5922  16AB  2EB1               	goto	l4485
  5923  16AC                     u5110:
  5924  16AC                     l4483:
  5925                           
  5926                           ;PROYECTO.c: 489:                     hora = 6;
  5927  16AC  3006               	movlw	6
  5928  16AD  00DD               	movwf	??_main
  5929  16AE  085D               	movf	??_main,w
  5930  16AF  00FA               	movwf	_hora
  5931                           
  5932                           ;PROYECTO.c: 490:                 }else if(escala >= 71 && escala <=80 ){
  5933  16B0  2E4A               	goto	L1
  5934  16B1                     l4485:
  5935  16B1  3047               	movlw	71
  5936  16B2  0278               	subwf	_escala,w
  5937  16B3  1C03               	skipc
  5938  16B4  2EB6               	goto	u5121
  5939  16B5  2EB7               	goto	u5120
  5940  16B6                     u5121:
  5941  16B6  2EC2               	goto	l4491
  5942  16B7                     u5120:
  5943  16B7                     l4487:
  5944  16B7  3051               	movlw	81
  5945  16B8  0278               	subwf	_escala,w
  5946  16B9  1803               	skipnc
  5947  16BA  2EBC               	goto	u5131
  5948  16BB  2EBD               	goto	u5130
  5949  16BC                     u5131:
  5950  16BC  2EC2               	goto	l4491
  5951  16BD                     u5130:
  5952  16BD                     l4489:
  5953                           
  5954                           ;PROYECTO.c: 491:                     hora = 7;
  5955  16BD  3007               	movlw	7
  5956  16BE  00DD               	movwf	??_main
  5957  16BF  085D               	movf	??_main,w
  5958  16C0  00FA               	movwf	_hora
  5959                           
  5960                           ;PROYECTO.c: 492:                 }else if(escala >= 81 && escala <=90 ){
  5961  16C1  2E4A               	goto	L1
  5962  16C2                     l4491:
  5963  16C2  3051               	movlw	81
  5964  16C3  0278               	subwf	_escala,w
  5965  16C4  1C03               	skipc
  5966  16C5  2EC7               	goto	u5141
  5967  16C6  2EC8               	goto	u5140
  5968  16C7                     u5141:
  5969  16C7  2ED3               	goto	l4497
  5970  16C8                     u5140:
  5971  16C8                     l4493:
  5972  16C8  305B               	movlw	91
  5973  16C9  0278               	subwf	_escala,w
  5974  16CA  1803               	skipnc
  5975  16CB  2ECD               	goto	u5151
  5976  16CC  2ECE               	goto	u5150
  5977  16CD                     u5151:
  5978  16CD  2ED3               	goto	l4497
  5979  16CE                     u5150:
  5980  16CE                     l4495:
  5981                           
  5982                           ;PROYECTO.c: 493:                     hora = 8;
  5983  16CE  3008               	movlw	8
  5984  16CF  00DD               	movwf	??_main
  5985  16D0  085D               	movf	??_main,w
  5986  16D1  00FA               	movwf	_hora
  5987                           
  5988                           ;PROYECTO.c: 494:                 }else if(escala >= 91 && escala <=100 ){
  5989  16D2  2E4A               	goto	L1
  5990  16D3                     l4497:
  5991  16D3  305B               	movlw	91
  5992  16D4  0278               	subwf	_escala,w
  5993  16D5  1C03               	skipc
  5994  16D6  2ED8               	goto	u5161
  5995  16D7  2EDB               	goto	u5160
  5996  16D8                     u5161:
  5997  16D8  120A  118A  2821   	goto	l4503
  5998  16DB                     u5160:
  5999  16DB                     l4499:
  6000  16DB  3065               	movlw	101
  6001  16DC  0278               	subwf	_escala,w
  6002  16DD  1803               	skipnc
  6003  16DE  2EE0               	goto	u5171
  6004  16DF  2EE1               	goto	u5170
  6005  16E0                     u5171:
  6006  16E0  2ED8               	goto	u5161
  6007  16E1                     u5170:
  6008  16E1                     l4501:
  6009                           
  6010                           ;PROYECTO.c: 495:                     hora = 9;
  6011  16E1  3009               	movlw	9
  6012  16E2  00DD               	movwf	??_main
  6013  16E3  085D               	movf	??_main,w
  6014  16E4  00FA               	movwf	_hora
  6015                           
  6016                           ;PROYECTO.c: 496:                 }else if(escala >= 101&& escala <=110 ){
  6017  16E5  2E4A               	goto	L1
  6018                           
  6019                           	psect	maintext_split_4
  6020  0021                     l4503:
  6021  0021  3065               	movlw	101
  6022  0022  0278               	subwf	_escala,w
  6023  0023  1C03               	skipc
  6024  0024  2826               	goto	u5181
  6025  0025  2827               	goto	u5180
  6026  0026                     u5181:
  6027  0026  2832               	goto	l4509
  6028  0027                     u5180:
  6029  0027                     l4505:
  6030  0027  306F               	movlw	111
  6031  0028  0278               	subwf	_escala,w
  6032  0029  1803               	skipnc
  6033  002A  282C               	goto	u5191
  6034  002B  282D               	goto	u5190
  6035  002C                     u5191:
  6036  002C  2832               	goto	l4509
  6037  002D                     u5190:
  6038  002D                     l4507:
  6039                           
  6040                           ;PROYECTO.c: 497:                     hora = 10;
  6041  002D  300A               	movlw	10
  6042  002E  00DD               	movwf	??_main
  6043  002F  085D               	movf	??_main,w
  6044  0030  00FA               	movwf	_hora
  6045                           
  6046                           ;PROYECTO.c: 498:                 }else if(escala >= 111 && escala <=120 ){
  6047  0031  291A               	goto	l4591
  6048  0032                     l4509:
  6049  0032  306F               	movlw	111
  6050  0033  0278               	subwf	_escala,w
  6051  0034  1C03               	skipc
  6052  0035  2837               	goto	u5201
  6053  0036  2838               	goto	u5200
  6054  0037                     u5201:
  6055  0037  2843               	goto	l4515
  6056  0038                     u5200:
  6057  0038                     l4511:
  6058  0038  3079               	movlw	121
  6059  0039  0278               	subwf	_escala,w
  6060  003A  1803               	skipnc
  6061  003B  283D               	goto	u5211
  6062  003C  283E               	goto	u5210
  6063  003D                     u5211:
  6064  003D  2843               	goto	l4515
  6065  003E                     u5210:
  6066  003E                     l4513:
  6067                           
  6068                           ;PROYECTO.c: 499:                     hora = 11;
  6069  003E  300B               	movlw	11
  6070  003F  00DD               	movwf	??_main
  6071  0040  085D               	movf	??_main,w
  6072  0041  00FA               	movwf	_hora
  6073                           
  6074                           ;PROYECTO.c: 500:                 }else if(escala >= 121 && escala <=130 ){
  6075  0042  291A               	goto	l4591
  6076  0043                     l4515:
  6077  0043  3079               	movlw	121
  6078  0044  0278               	subwf	_escala,w
  6079  0045  1C03               	skipc
  6080  0046  2848               	goto	u5221
  6081  0047  2849               	goto	u5220
  6082  0048                     u5221:
  6083  0048  2854               	goto	l4521
  6084  0049                     u5220:
  6085  0049                     l4517:
  6086  0049  3083               	movlw	131
  6087  004A  0278               	subwf	_escala,w
  6088  004B  1803               	skipnc
  6089  004C  284E               	goto	u5231
  6090  004D  284F               	goto	u5230
  6091  004E                     u5231:
  6092  004E  2854               	goto	l4521
  6093  004F                     u5230:
  6094  004F                     l4519:
  6095                           
  6096                           ;PROYECTO.c: 501:                     hora = 12;
  6097  004F  300C               	movlw	12
  6098  0050  00DD               	movwf	??_main
  6099  0051  085D               	movf	??_main,w
  6100  0052  00FA               	movwf	_hora
  6101                           
  6102                           ;PROYECTO.c: 502:                 }else if(escala >= 131 && escala <=140 ){
  6103  0053  291A               	goto	l4591
  6104  0054                     l4521:
  6105  0054  3083               	movlw	131
  6106  0055  0278               	subwf	_escala,w
  6107  0056  1C03               	skipc
  6108  0057  2859               	goto	u5241
  6109  0058  285A               	goto	u5240
  6110  0059                     u5241:
  6111  0059  2865               	goto	l4527
  6112  005A                     u5240:
  6113  005A                     l4523:
  6114  005A  308D               	movlw	141
  6115  005B  0278               	subwf	_escala,w
  6116  005C  1803               	skipnc
  6117  005D  285F               	goto	u5251
  6118  005E  2860               	goto	u5250
  6119  005F                     u5251:
  6120  005F  2865               	goto	l4527
  6121  0060                     u5250:
  6122  0060                     l4525:
  6123                           
  6124                           ;PROYECTO.c: 503:                     hora = 13;
  6125  0060  300D               	movlw	13
  6126  0061  00DD               	movwf	??_main
  6127  0062  085D               	movf	??_main,w
  6128  0063  00FA               	movwf	_hora
  6129                           
  6130                           ;PROYECTO.c: 504:                 }else if(escala >= 141 && escala <=150 ){
  6131  0064  291A               	goto	l4591
  6132  0065                     l4527:
  6133  0065  308D               	movlw	141
  6134  0066  0278               	subwf	_escala,w
  6135  0067  1C03               	skipc
  6136  0068  286A               	goto	u5261
  6137  0069  286B               	goto	u5260
  6138  006A                     u5261:
  6139  006A  2876               	goto	l4533
  6140  006B                     u5260:
  6141  006B                     l4529:
  6142  006B  3097               	movlw	151
  6143  006C  0278               	subwf	_escala,w
  6144  006D  1803               	skipnc
  6145  006E  2870               	goto	u5271
  6146  006F  2871               	goto	u5270
  6147  0070                     u5271:
  6148  0070  2876               	goto	l4533
  6149  0071                     u5270:
  6150  0071                     l4531:
  6151                           
  6152                           ;PROYECTO.c: 505:                     hora = 14;
  6153  0071  300E               	movlw	14
  6154  0072  00DD               	movwf	??_main
  6155  0073  085D               	movf	??_main,w
  6156  0074  00FA               	movwf	_hora
  6157                           
  6158                           ;PROYECTO.c: 506:                 }else if(escala >= 151 && escala <=160 ){
  6159  0075  291A               	goto	l4591
  6160  0076                     l4533:
  6161  0076  3097               	movlw	151
  6162  0077  0278               	subwf	_escala,w
  6163  0078  1C03               	skipc
  6164  0079  287B               	goto	u5281
  6165  007A  287C               	goto	u5280
  6166  007B                     u5281:
  6167  007B  2887               	goto	l4539
  6168  007C                     u5280:
  6169  007C                     l4535:
  6170  007C  30A1               	movlw	161
  6171  007D  0278               	subwf	_escala,w
  6172  007E  1803               	skipnc
  6173  007F  2881               	goto	u5291
  6174  0080  2882               	goto	u5290
  6175  0081                     u5291:
  6176  0081  2887               	goto	l4539
  6177  0082                     u5290:
  6178  0082                     l4537:
  6179                           
  6180                           ;PROYECTO.c: 507:                     hora = 15;
  6181  0082  300F               	movlw	15
  6182  0083  00DD               	movwf	??_main
  6183  0084  085D               	movf	??_main,w
  6184  0085  00FA               	movwf	_hora
  6185                           
  6186                           ;PROYECTO.c: 508:                 }else if(escala >= 161 && escala <=170 ){
  6187  0086  291A               	goto	l4591
  6188  0087                     l4539:
  6189  0087  30A1               	movlw	161
  6190  0088  0278               	subwf	_escala,w
  6191  0089  1C03               	skipc
  6192  008A  288C               	goto	u5301
  6193  008B  288D               	goto	u5300
  6194  008C                     u5301:
  6195  008C  2898               	goto	l4545
  6196  008D                     u5300:
  6197  008D                     l4541:
  6198  008D  30AB               	movlw	171
  6199  008E  0278               	subwf	_escala,w
  6200  008F  1803               	skipnc
  6201  0090  2892               	goto	u5311
  6202  0091  2893               	goto	u5310
  6203  0092                     u5311:
  6204  0092  2898               	goto	l4545
  6205  0093                     u5310:
  6206  0093                     l4543:
  6207                           
  6208                           ;PROYECTO.c: 509:                     hora = 16;
  6209  0093  3010               	movlw	16
  6210  0094  00DD               	movwf	??_main
  6211  0095  085D               	movf	??_main,w
  6212  0096  00FA               	movwf	_hora
  6213                           
  6214                           ;PROYECTO.c: 510:                 }else if(escala >= 171 && escala <=180 ){
  6215  0097  291A               	goto	l4591
  6216  0098                     l4545:
  6217  0098  30AB               	movlw	171
  6218  0099  0278               	subwf	_escala,w
  6219  009A  1C03               	skipc
  6220  009B  289D               	goto	u5321
  6221  009C  289E               	goto	u5320
  6222  009D                     u5321:
  6223  009D  28A9               	goto	l4551
  6224  009E                     u5320:
  6225  009E                     l4547:
  6226  009E  30B5               	movlw	181
  6227  009F  0278               	subwf	_escala,w
  6228  00A0  1803               	skipnc
  6229  00A1  28A3               	goto	u5331
  6230  00A2  28A4               	goto	u5330
  6231  00A3                     u5331:
  6232  00A3  28A9               	goto	l4551
  6233  00A4                     u5330:
  6234  00A4                     l4549:
  6235                           
  6236                           ;PROYECTO.c: 511:                     hora = 17;
  6237  00A4  3011               	movlw	17
  6238  00A5  00DD               	movwf	??_main
  6239  00A6  085D               	movf	??_main,w
  6240  00A7  00FA               	movwf	_hora
  6241                           
  6242                           ;PROYECTO.c: 512:                 }else if(escala >= 181 && escala <=190 ){
  6243  00A8  291A               	goto	l4591
  6244  00A9                     l4551:
  6245  00A9  30B5               	movlw	181
  6246  00AA  0278               	subwf	_escala,w
  6247  00AB  1C03               	skipc
  6248  00AC  28AE               	goto	u5341
  6249  00AD  28AF               	goto	u5340
  6250  00AE                     u5341:
  6251  00AE  28BA               	goto	l4557
  6252  00AF                     u5340:
  6253  00AF                     l4553:
  6254  00AF  30BF               	movlw	191
  6255  00B0  0278               	subwf	_escala,w
  6256  00B1  1803               	skipnc
  6257  00B2  28B4               	goto	u5351
  6258  00B3  28B5               	goto	u5350
  6259  00B4                     u5351:
  6260  00B4  28BA               	goto	l4557
  6261  00B5                     u5350:
  6262  00B5                     l4555:
  6263                           
  6264                           ;PROYECTO.c: 513:                     hora = 18;
  6265  00B5  3012               	movlw	18
  6266  00B6  00DD               	movwf	??_main
  6267  00B7  085D               	movf	??_main,w
  6268  00B8  00FA               	movwf	_hora
  6269                           
  6270                           ;PROYECTO.c: 514:                 }else if(escala >= 191 && escala <=200 ){
  6271  00B9  291A               	goto	l4591
  6272  00BA                     l4557:
  6273  00BA  30BF               	movlw	191
  6274  00BB  0278               	subwf	_escala,w
  6275  00BC  1C03               	skipc
  6276  00BD  28BF               	goto	u5361
  6277  00BE  28C0               	goto	u5360
  6278  00BF                     u5361:
  6279  00BF  28CB               	goto	l4563
  6280  00C0                     u5360:
  6281  00C0                     l4559:
  6282  00C0  30C9               	movlw	201
  6283  00C1  0278               	subwf	_escala,w
  6284  00C2  1803               	skipnc
  6285  00C3  28C5               	goto	u5371
  6286  00C4  28C6               	goto	u5370
  6287  00C5                     u5371:
  6288  00C5  28CB               	goto	l4563
  6289  00C6                     u5370:
  6290  00C6                     l4561:
  6291                           
  6292                           ;PROYECTO.c: 515:                     hora = 19;
  6293  00C6  3013               	movlw	19
  6294  00C7  00DD               	movwf	??_main
  6295  00C8  085D               	movf	??_main,w
  6296  00C9  00FA               	movwf	_hora
  6297                           
  6298                           ;PROYECTO.c: 516:                 }else if(escala >= 201&& escala <=210 ){
  6299  00CA  291A               	goto	l4591
  6300  00CB                     l4563:
  6301  00CB  30C9               	movlw	201
  6302  00CC  0278               	subwf	_escala,w
  6303  00CD  1C03               	skipc
  6304  00CE  28D0               	goto	u5381
  6305  00CF  28D1               	goto	u5380
  6306  00D0                     u5381:
  6307  00D0  28DC               	goto	l4569
  6308  00D1                     u5380:
  6309  00D1                     l4565:
  6310  00D1  30D3               	movlw	211
  6311  00D2  0278               	subwf	_escala,w
  6312  00D3  1803               	skipnc
  6313  00D4  28D6               	goto	u5391
  6314  00D5  28D7               	goto	u5390
  6315  00D6                     u5391:
  6316  00D6  28DC               	goto	l4569
  6317  00D7                     u5390:
  6318  00D7                     l4567:
  6319                           
  6320                           ;PROYECTO.c: 517:                     hora = 20;
  6321  00D7  3014               	movlw	20
  6322  00D8  00DD               	movwf	??_main
  6323  00D9  085D               	movf	??_main,w
  6324  00DA  00FA               	movwf	_hora
  6325                           
  6326                           ;PROYECTO.c: 518:                 }else if(escala >= 211 && escala <=220 ){
  6327  00DB  291A               	goto	l4591
  6328  00DC                     l4569:
  6329  00DC  30D3               	movlw	211
  6330  00DD  0278               	subwf	_escala,w
  6331  00DE  1C03               	skipc
  6332  00DF  28E1               	goto	u5401
  6333  00E0  28E2               	goto	u5400
  6334  00E1                     u5401:
  6335  00E1  28ED               	goto	l4575
  6336  00E2                     u5400:
  6337  00E2                     l4571:
  6338  00E2  30DD               	movlw	221
  6339  00E3  0278               	subwf	_escala,w
  6340  00E4  1803               	skipnc
  6341  00E5  28E7               	goto	u5411
  6342  00E6  28E8               	goto	u5410
  6343  00E7                     u5411:
  6344  00E7  28ED               	goto	l4575
  6345  00E8                     u5410:
  6346  00E8                     l4573:
  6347                           
  6348                           ;PROYECTO.c: 519:                     hora = 21;
  6349  00E8  3015               	movlw	21
  6350  00E9  00DD               	movwf	??_main
  6351  00EA  085D               	movf	??_main,w
  6352  00EB  00FA               	movwf	_hora
  6353                           
  6354                           ;PROYECTO.c: 520:                 }else if(escala >= 221 && escala <=230 ){
  6355  00EC  291A               	goto	l4591
  6356  00ED                     l4575:
  6357  00ED  30DD               	movlw	221
  6358  00EE  0278               	subwf	_escala,w
  6359  00EF  1C03               	skipc
  6360  00F0  28F2               	goto	u5421
  6361  00F1  28F3               	goto	u5420
  6362  00F2                     u5421:
  6363  00F2  28FE               	goto	l4581
  6364  00F3                     u5420:
  6365  00F3                     l4577:
  6366  00F3  30E7               	movlw	231
  6367  00F4  0278               	subwf	_escala,w
  6368  00F5  1803               	skipnc
  6369  00F6  28F8               	goto	u5431
  6370  00F7  28F9               	goto	u5430
  6371  00F8                     u5431:
  6372  00F8  28FE               	goto	l4581
  6373  00F9                     u5430:
  6374  00F9                     l4579:
  6375                           
  6376                           ;PROYECTO.c: 521:                     hora = 22;
  6377  00F9  3016               	movlw	22
  6378  00FA  00DD               	movwf	??_main
  6379  00FB  085D               	movf	??_main,w
  6380  00FC  00FA               	movwf	_hora
  6381                           
  6382                           ;PROYECTO.c: 522:                 }else if(escala >= 231 && escala <=240 ){
  6383  00FD  291A               	goto	l4591
  6384  00FE                     l4581:
  6385  00FE  30E7               	movlw	231
  6386  00FF  0278               	subwf	_escala,w
  6387  0100  1C03               	skipc
  6388  0101  2903               	goto	u5441
  6389  0102  2904               	goto	u5440
  6390  0103                     u5441:
  6391  0103  290F               	goto	l4587
  6392  0104                     u5440:
  6393  0104                     l4583:
  6394  0104  30F1               	movlw	241
  6395  0105  0278               	subwf	_escala,w
  6396  0106  1803               	skipnc
  6397  0107  2909               	goto	u5451
  6398  0108  290A               	goto	u5450
  6399  0109                     u5451:
  6400  0109  290F               	goto	l4587
  6401  010A                     u5450:
  6402  010A                     l4585:
  6403                           
  6404                           ;PROYECTO.c: 523:                     hora = 23;
  6405  010A  3017               	movlw	23
  6406  010B  00DD               	movwf	??_main
  6407  010C  085D               	movf	??_main,w
  6408  010D  00FA               	movwf	_hora
  6409                           
  6410                           ;PROYECTO.c: 524:                 }else if(escala >= 241 && escala <=255 ){
  6411  010E  291A               	goto	l4591
  6412  010F                     l4587:
  6413  010F  30F1               	movlw	241
  6414  0110  0278               	subwf	_escala,w
  6415  0111  1C03               	skipc
  6416  0112  2914               	goto	u5461
  6417  0113  2915               	goto	u5460
  6418  0114                     u5461:
  6419  0114  291A               	goto	l385
  6420  0115                     u5460:
  6421  0115                     l4589:
  6422                           
  6423                           ;PROYECTO.c: 525:                     hora = 24;
  6424  0115  3018               	movlw	24
  6425  0116  00DD               	movwf	??_main
  6426  0117  085D               	movf	??_main,w
  6427  0118  00FA               	movwf	_hora
  6428  0119  291A               	goto	l4591
  6429  011A                     l385:
  6430  011A                     l4591:
  6431                           
  6432                           ;PROYECTO.c: 527:                 ADCON0bits.CHS = 6;
  6433  011A  081F               	movf	31,w	;volatile
  6434  011B  39C3               	andlw	-61
  6435  011C  3818               	iorlw	24
  6436  011D  009F               	movwf	31	;volatile
  6437  011E                     l4593:
  6438                           
  6439                           ;PROYECTO.c: 529:             _delay((unsigned long)((50)*(4000000/4000000.0)));
  6440  011E  300F               	movlw	15
  6441  011F  1283               	bcf	3,5	;RP0=0, select bank0
  6442  0120  1303               	bcf	3,6	;RP1=0, select bank0
  6443  0121  00DD               	movwf	??_main
  6444  0122                     u6017:
  6445  0122  0BDD               	decfsz	??_main,f
  6446  0123  2922               	goto	u6017
  6447  0124  2925               	nop2
  6448  0125                     l4595:
  6449                           
  6450                           ;PROYECTO.c: 531:             ADCON0bits.GO = 1;
  6451  0125  1283               	bcf	3,5	;RP0=0, select bank0
  6452  0126  1303               	bcf	3,6	;RP1=0, select bank0
  6453  0127  149F               	bsf	31,1	;volatile
  6454  0128                     l329:	
  6455                           ;PROYECTO.c: 532:         }
  6456                           
  6457                           
  6458                           ;PROYECTO.c: 534:        if(ventana == 1){
  6459  0128  035A               	decf	_ventana,w
  6460  0129  1D03               	btfss	3,2
  6461  012A  292C               	goto	u5471
  6462  012B  292D               	goto	u5470
  6463  012C                     u5471:
  6464  012C  2978               	goto	l4601
  6465  012D                     u5470:
  6466  012D                     l4597:
  6467                           
  6468                           ;PROYECTO.c: 536:            USART_Cadena("\r Que accion desea ejecutar? \r \n");
  6469  012D  30F7               	movlw	low (STR_1| (0+32768))
  6470  012E  00F4               	movwf	USART_Cadena@str
  6471  012F  308A               	movlw	high (STR_1| (0+32768))
  6472  0130  00F5               	movwf	USART_Cadena@str+1
  6473  0131  160A  118A  23DC  120A  118A  	fcall	_USART_Cadena
  6474                           
  6475                           ;PROYECTO.c: 537:            USART_Cadena("1) ver datos de usuario uno \r \n");
  6476  0136  3079               	movlw	low (STR_2| (0+32768))
  6477  0137  00F4               	movwf	USART_Cadena@str
  6478  0138  308B               	movlw	high (STR_2| (0+32768))
  6479  0139  00F5               	movwf	USART_Cadena@str+1
  6480  013A  160A  118A  23DC  120A  118A  	fcall	_USART_Cadena
  6481                           
  6482                           ;PROYECTO.c: 538:            USART_Cadena("2) ver datos de usuario dos\r \n");
  6483  013F  3099               	movlw	low (STR_3| (0+32768))
  6484  0140  00F4               	movwf	USART_Cadena@str
  6485  0141  308B               	movlw	high (STR_3| (0+32768))
  6486  0142  00F5               	movwf	USART_Cadena@str+1
  6487  0143  160A  118A  23DC  120A  118A  	fcall	_USART_Cadena
  6488                           
  6489                           ;PROYECTO.c: 539:            USART_Cadena("3) ver datos de usuario tres \r \n");
  6490  0148  3018               	movlw	low (STR_4| (0+32768))
  6491  0149  00F4               	movwf	USART_Cadena@str
  6492  014A  308B               	movlw	high (STR_4| (0+32768))
  6493  014B  00F5               	movwf	USART_Cadena@str+1
  6494  014C  160A  118A  23DC  120A  118A  	fcall	_USART_Cadena
  6495                           
  6496                           ;PROYECTO.c: 540:            USART_Cadena("4) Modificar horario usuario uno \r \n");
  6497  0151  3023               	movlw	low (STR_5| (0+32768))
  6498  0152  00F4               	movwf	USART_Cadena@str
  6499  0153  308A               	movlw	high (STR_5| (0+32768))
  6500  0154  00F5               	movwf	USART_Cadena@str+1
  6501  0155  160A  118A  23DC  120A  118A  	fcall	_USART_Cadena
  6502                           
  6503                           ;PROYECTO.c: 541:            USART_Cadena("5) Modificar horario usuario dos\r \n");
  6504  015A  3048               	movlw	low (STR_6| (0+32768))
  6505  015B  00F4               	movwf	USART_Cadena@str
  6506  015C  308A               	movlw	high (STR_6| (0+32768))
  6507  015D  00F5               	movwf	USART_Cadena@str+1
  6508  015E  160A  118A  23DC  120A  118A  	fcall	_USART_Cadena
  6509                           
  6510                           ;PROYECTO.c: 542:            USART_Cadena("6) Modificar horario usuario tres \r \n");
  6511  0163  30D8               	movlw	low (STR_7| (0+32768))
  6512  0164  00F4               	movwf	USART_Cadena@str
  6513  0165  3089               	movlw	high (STR_7| (0+32768))
  6514  0166  00F5               	movwf	USART_Cadena@str+1
  6515  0167  160A  118A  23DC  120A  118A  	fcall	_USART_Cadena
  6516                           
  6517                           ;PROYECTO.c: 543:            USART_Cadena("7) Mostrar cantidad de medicamento dispensado
      +                           \r\r\n\n");
  6518  016C  3069               	movlw	low (STR_8| (0+32768))
  6519  016D  00F4               	movwf	USART_Cadena@str
  6520  016E  3088               	movlw	high (STR_8| (0+32768))
  6521  016F  00F5               	movwf	USART_Cadena@str+1
  6522  0170  160A  118A  23DC  120A  118A  	fcall	_USART_Cadena
  6523  0175                     l4599:
  6524                           
  6525                           ;PROYECTO.c: 544:            ventana = 0;
  6526  0175  1283               	bcf	3,5	;RP0=0, select bank0
  6527  0176  1303               	bcf	3,6	;RP1=0, select bank0
  6528  0177  01DA               	clrf	_ventana
  6529  0178                     l4601:
  6530                           
  6531                           ;PROYECTO.c: 547:        if (PIR1bits.RCIF == 1){
  6532  0178  1E8C               	btfss	12,5	;volatile
  6533  0179  297B               	goto	u5481
  6534  017A  297C               	goto	u5480
  6535  017B                     u5481:
  6536  017B  2E8D               	goto	l4833
  6537  017C                     u5480:
  6538  017C                     l4603:
  6539                           
  6540                           ;PROYECTO.c: 548:            valor = USART_Rx();
  6541  017C  120A  158A  2414  120A  118A  	fcall	_USART_Rx
  6542  0181  1283               	bcf	3,5	;RP0=0, select bank0
  6543  0182  1303               	bcf	3,6	;RP1=0, select bank0
  6544  0183  00DD               	movwf	??_main
  6545  0184  085D               	movf	??_main,w
  6546  0185  00DB               	movwf	_valor
  6547  0186                     l4605:
  6548                           
  6549                           ;PROYECTO.c: 549:            ventana = 1;
  6550  0186  01DA               	clrf	_ventana
  6551  0187  0ADA               	incf	_ventana,f
  6552  0188  2E8D               	goto	l4833
  6553  0189                     l4607:
  6554                           
  6555                           ;PROYECTO.c: 554:                 USART_Cadena(" Esperar  ");
  6556  0189  30E1               	movlw	low (STR_9| (0+32768))
  6557  018A  00F4               	movwf	USART_Cadena@str
  6558  018B  308B               	movlw	high (STR_9| (0+32768))
  6559  018C  00F5               	movwf	USART_Cadena@str+1
  6560  018D  160A  118A  23DC  120A  118A  	fcall	_USART_Cadena
  6561  0192                     l4609:
  6562                           
  6563                           ;PROYECTO.c: 555:                 SendCharH(me_1_us1_h);
  6564  0192  1283               	bcf	3,5	;RP0=0, select bank0
  6565  0193  1303               	bcf	3,6	;RP1=0, select bank0
  6566  0194  0853               	movf	_me_1_us1_h,w
  6567  0195  120A  158A  263B  120A  118A  	fcall	_SendCharH
  6568  019A                     l4611:
  6569                           
  6570                           ;PROYECTO.c: 556:                 USART_Cadena(" Horas ");
  6571  019A  30F6               	movlw	low (STR_10| (0+32768))
  6572  019B  00F4               	movwf	USART_Cadena@str
  6573  019C  308B               	movlw	high (STR_10| (0+32768))
  6574  019D  00F5               	movwf	USART_Cadena@str+1
  6575  019E  160A  118A  23DC  120A  118A  	fcall	_USART_Cadena
  6576  01A3                     l4613:
  6577                           
  6578                           ;PROYECTO.c: 557:                 USART_Cadena(" con  ");
  6579  01A3  30FE               	movlw	low (STR_11| (0+32768))
  6580  01A4  00F4               	movwf	USART_Cadena@str
  6581  01A5  308B               	movlw	high (STR_11| (0+32768))
  6582  01A6  00F5               	movwf	USART_Cadena@str+1
  6583  01A7  160A  118A  23DC  120A  118A  	fcall	_USART_Cadena
  6584  01AC                     l4615:
  6585                           
  6586                           ;PROYECTO.c: 558:                 SendCharM(me_1_us1_m);
  6587  01AC  1283               	bcf	3,5	;RP0=0, select bank0
  6588  01AD  1303               	bcf	3,6	;RP1=0, select bank0
  6589  01AE  084A               	movf	_me_1_us1_m,w
  6590  01AF  120A  158A  2488  120A  118A  	fcall	_SendCharM
  6591  01B4                     l4617:
  6592                           
  6593                           ;PROYECTO.c: 559:                 USART_Cadena(" mins. para el medicamento 1 \r\n");
  6594  01B4  3039               	movlw	low (STR_12| (0+32768))
  6595  01B5  00F4               	movwf	USART_Cadena@str
  6596  01B6  308B               	movlw	high (STR_12| (0+32768))
  6597  01B7  00F5               	movwf	USART_Cadena@str+1
  6598  01B8  160A  118A  23DC  120A  118A  	fcall	_USART_Cadena
  6599  01BD                     l4619:
  6600                           
  6601                           ;PROYECTO.c: 561:                 USART_Cadena(" Esperar  ");
  6602  01BD  30E1               	movlw	low (STR_9| (0+32768))
  6603  01BE  00F4               	movwf	USART_Cadena@str
  6604  01BF  308B               	movlw	high (STR_9| (0+32768))
  6605  01C0  00F5               	movwf	USART_Cadena@str+1
  6606  01C1  160A  118A  23DC  120A  118A  	fcall	_USART_Cadena
  6607                           
  6608                           ;PROYECTO.c: 562:                 SendCharH(me_2_us1_h);
  6609  01C6  1283               	bcf	3,5	;RP0=0, select bank0
  6610  01C7  1303               	bcf	3,6	;RP1=0, select bank0
  6611  01C8  0852               	movf	_me_2_us1_h,w
  6612  01C9  120A  158A  263B  120A  118A  	fcall	_SendCharH
  6613  01CE                     l4621:
  6614                           
  6615                           ;PROYECTO.c: 563:                 USART_Cadena(" Horas ");
  6616  01CE  30F6               	movlw	low (STR_10| (0+32768))
  6617  01CF  00F4               	movwf	USART_Cadena@str
  6618  01D0  308B               	movlw	high (STR_10| (0+32768))
  6619  01D1  00F5               	movwf	USART_Cadena@str+1
  6620  01D2  160A  118A  23DC  120A  118A  	fcall	_USART_Cadena
  6621  01D7                     l4623:
  6622                           
  6623                           ;PROYECTO.c: 564:                 USART_Cadena(" con  ");
  6624  01D7  30FE               	movlw	low (STR_11| (0+32768))
  6625  01D8  00F4               	movwf	USART_Cadena@str
  6626  01D9  308B               	movlw	high (STR_11| (0+32768))
  6627  01DA  00F5               	movwf	USART_Cadena@str+1
  6628  01DB  160A  118A  23DC  120A  118A  	fcall	_USART_Cadena
  6629  01E0                     l4625:
  6630                           
  6631                           ;PROYECTO.c: 565:                 SendCharM(me_2_us1_m);
  6632  01E0  1283               	bcf	3,5	;RP0=0, select bank0
  6633  01E1  1303               	bcf	3,6	;RP1=0, select bank0
  6634  01E2  0849               	movf	_me_2_us1_m,w
  6635  01E3  120A  158A  2488  120A  118A  	fcall	_SendCharM
  6636  01E8                     l4627:
  6637                           
  6638                           ;PROYECTO.c: 566:                 USART_Cadena(" mins. para el medicamento 2 \r\n");
  6639  01E8  3059               	movlw	low (STR_16| (0+32768))
  6640  01E9  00F4               	movwf	USART_Cadena@str
  6641  01EA  308B               	movlw	high (STR_16| (0+32768))
  6642  01EB  00F5               	movwf	USART_Cadena@str+1
  6643  01EC  160A  118A  23DC  120A  118A  	fcall	_USART_Cadena
  6644  01F1                     l4629:
  6645                           
  6646                           ;PROYECTO.c: 568:                 USART_Cadena(" Esperar  ");
  6647  01F1  30E1               	movlw	low (STR_9| (0+32768))
  6648  01F2  00F4               	movwf	USART_Cadena@str
  6649  01F3  308B               	movlw	high (STR_9| (0+32768))
  6650  01F4  00F5               	movwf	USART_Cadena@str+1
  6651  01F5  160A  118A  23DC  120A  118A  	fcall	_USART_Cadena
  6652  01FA                     l4631:
  6653                           
  6654                           ;PROYECTO.c: 569:                 SendCharH(me_3_us1_h);
  6655  01FA  1283               	bcf	3,5	;RP0=0, select bank0
  6656  01FB  1303               	bcf	3,6	;RP1=0, select bank0
  6657  01FC  0851               	movf	_me_3_us1_h,w
  6658  01FD  120A  158A  263B  120A  118A  	fcall	_SendCharH
  6659                           
  6660                           ;PROYECTO.c: 570:                 USART_Cadena(" Horas ");
  6661  0202  30F6               	movlw	low (STR_10| (0+32768))
  6662  0203  00F4               	movwf	USART_Cadena@str
  6663  0204  308B               	movlw	high (STR_10| (0+32768))
  6664  0205  00F5               	movwf	USART_Cadena@str+1
  6665  0206  160A  118A  23DC  120A  118A  	fcall	_USART_Cadena
  6666                           
  6667                           ;PROYECTO.c: 571:                 USART_Cadena(" con  ");
  6668  020B  30FE               	movlw	low (STR_11| (0+32768))
  6669  020C  00F4               	movwf	USART_Cadena@str
  6670  020D  308B               	movlw	high (STR_11| (0+32768))
  6671  020E  00F5               	movwf	USART_Cadena@str+1
  6672  020F  160A  118A  23DC  120A  118A  	fcall	_USART_Cadena
  6673                           
  6674                           ;PROYECTO.c: 572:                 SendCharM(me_3_us1_m);
  6675  0214  1283               	bcf	3,5	;RP0=0, select bank0
  6676  0215  1303               	bcf	3,6	;RP1=0, select bank0
  6677  0216  0848               	movf	_me_3_us1_m,w
  6678  0217  120A  158A  2488  120A  118A  	fcall	_SendCharM
  6679                           
  6680                           ;PROYECTO.c: 573:                 USART_Cadena(" mins. para el medicamento 3 \r\r\n\n");
  6681  021C  30D5               	movlw	low (STR_20| (0+32768))
  6682  021D  00F4               	movwf	USART_Cadena@str
  6683  021E  308A               	movlw	high (STR_20| (0+32768))
  6684  021F  00F5               	movwf	USART_Cadena@str+1
  6685  0220  160A  118A  23DC  120A  118A  	fcall	_USART_Cadena
  6686  0225                     l4633:
  6687                           
  6688                           ;PROYECTO.c: 574:                 ventana = 1;
  6689  0225  1283               	bcf	3,5	;RP0=0, select bank0
  6690  0226  1303               	bcf	3,6	;RP1=0, select bank0
  6691  0227  01DA               	clrf	_ventana
  6692  0228  0ADA               	incf	_ventana,f
  6693                           
  6694                           ;PROYECTO.c: 575:                 break;
  6695  0229  2EAC               	goto	l4835
  6696  022A                     l4635:
  6697                           
  6698                           ;PROYECTO.c: 578:                 USART_Cadena(" Esperar  ");
  6699  022A  30E1               	movlw	low (STR_9| (0+32768))
  6700  022B  00F4               	movwf	USART_Cadena@str
  6701  022C  308B               	movlw	high (STR_9| (0+32768))
  6702  022D  00F5               	movwf	USART_Cadena@str+1
  6703  022E  160A  118A  23DC  120A  118A  	fcall	_USART_Cadena
  6704  0233                     l4637:
  6705                           
  6706                           ;PROYECTO.c: 579:                 SendCharH(me_1_us2_h);
  6707  0233  1283               	bcf	3,5	;RP0=0, select bank0
  6708  0234  1303               	bcf	3,6	;RP1=0, select bank0
  6709  0235  0850               	movf	_me_1_us2_h,w
  6710  0236  120A  158A  263B  120A  118A  	fcall	_SendCharH
  6711  023B                     l4639:
  6712                           
  6713                           ;PROYECTO.c: 580:                 USART_Cadena(" Horas ");
  6714  023B  30F6               	movlw	low (STR_10| (0+32768))
  6715  023C  00F4               	movwf	USART_Cadena@str
  6716  023D  308B               	movlw	high (STR_10| (0+32768))
  6717  023E  00F5               	movwf	USART_Cadena@str+1
  6718  023F  160A  118A  23DC  120A  118A  	fcall	_USART_Cadena
  6719  0244                     l4641:
  6720                           
  6721                           ;PROYECTO.c: 581:                 USART_Cadena(" con  ");
  6722  0244  30FE               	movlw	low (STR_11| (0+32768))
  6723  0245  00F4               	movwf	USART_Cadena@str
  6724  0246  308B               	movlw	high (STR_11| (0+32768))
  6725  0247  00F5               	movwf	USART_Cadena@str+1
  6726  0248  160A  118A  23DC  120A  118A  	fcall	_USART_Cadena
  6727  024D                     l4643:
  6728                           
  6729                           ;PROYECTO.c: 582:                 SendCharM(me_1_us2_m);
  6730  024D  1283               	bcf	3,5	;RP0=0, select bank0
  6731  024E  1303               	bcf	3,6	;RP1=0, select bank0
  6732  024F  0847               	movf	_me_1_us2_m,w
  6733  0250  120A  158A  2488  120A  118A  	fcall	_SendCharM
  6734  0255                     l4645:
  6735                           
  6736                           ;PROYECTO.c: 583:                 USART_Cadena(" mins. para el medicamento 1 \r\n");
  6737  0255  3039               	movlw	low (STR_12| (0+32768))
  6738  0256  00F4               	movwf	USART_Cadena@str
  6739  0257  308B               	movlw	high (STR_12| (0+32768))
  6740  0258  00F5               	movwf	USART_Cadena@str+1
  6741  0259  160A  118A  23DC  120A  118A  	fcall	_USART_Cadena
  6742  025E                     l4647:
  6743                           
  6744                           ;PROYECTO.c: 585:                 USART_Cadena(" Esperar  ");
  6745  025E  30E1               	movlw	low (STR_9| (0+32768))
  6746  025F  00F4               	movwf	USART_Cadena@str
  6747  0260  308B               	movlw	high (STR_9| (0+32768))
  6748  0261  00F5               	movwf	USART_Cadena@str+1
  6749  0262  160A  118A  23DC  120A  118A  	fcall	_USART_Cadena
  6750                           
  6751                           ;PROYECTO.c: 586:                 SendCharH(me_2_us2_h);
  6752  0267  1283               	bcf	3,5	;RP0=0, select bank0
  6753  0268  1303               	bcf	3,6	;RP1=0, select bank0
  6754  0269  084F               	movf	_me_2_us2_h,w
  6755  026A  120A  158A  263B  120A  118A  	fcall	_SendCharH
  6756  026F                     l4649:
  6757                           
  6758                           ;PROYECTO.c: 587:                 USART_Cadena(" Horas ");
  6759  026F  30F6               	movlw	low (STR_10| (0+32768))
  6760  0270  00F4               	movwf	USART_Cadena@str
  6761  0271  308B               	movlw	high (STR_10| (0+32768))
  6762  0272  00F5               	movwf	USART_Cadena@str+1
  6763  0273  160A  118A  23DC  120A  118A  	fcall	_USART_Cadena
  6764  0278                     l4651:
  6765                           
  6766                           ;PROYECTO.c: 588:                 USART_Cadena(" con  ");
  6767  0278  30FE               	movlw	low (STR_11| (0+32768))
  6768  0279  00F4               	movwf	USART_Cadena@str
  6769  027A  308B               	movlw	high (STR_11| (0+32768))
  6770  027B  00F5               	movwf	USART_Cadena@str+1
  6771  027C  160A  118A  23DC  120A  118A  	fcall	_USART_Cadena
  6772  0281                     l4653:
  6773                           
  6774                           ;PROYECTO.c: 589:                 SendCharM(me_2_us2_m);
  6775  0281  1283               	bcf	3,5	;RP0=0, select bank0
  6776  0282  1303               	bcf	3,6	;RP1=0, select bank0
  6777  0283  0846               	movf	_me_2_us2_m,w
  6778  0284  120A  158A  2488  120A  118A  	fcall	_SendCharM
  6779  0289                     l4655:
  6780                           
  6781                           ;PROYECTO.c: 590:                 USART_Cadena(" mins. para el medicamento 2 \r\n");
  6782  0289  3059               	movlw	low (STR_16| (0+32768))
  6783  028A  00F4               	movwf	USART_Cadena@str
  6784  028B  308B               	movlw	high (STR_16| (0+32768))
  6785  028C  00F5               	movwf	USART_Cadena@str+1
  6786  028D  160A  118A  23DC  120A  118A  	fcall	_USART_Cadena
  6787  0292                     l4657:
  6788                           
  6789                           ;PROYECTO.c: 592:                 USART_Cadena(" Esperar  ");
  6790  0292  30E1               	movlw	low (STR_9| (0+32768))
  6791  0293  00F4               	movwf	USART_Cadena@str
  6792  0294  308B               	movlw	high (STR_9| (0+32768))
  6793  0295  00F5               	movwf	USART_Cadena@str+1
  6794  0296  160A  118A  23DC  120A  118A  	fcall	_USART_Cadena
  6795  029B                     l4659:
  6796                           
  6797                           ;PROYECTO.c: 593:                 SendCharH(me_3_us2_h);
  6798  029B  1283               	bcf	3,5	;RP0=0, select bank0
  6799  029C  1303               	bcf	3,6	;RP1=0, select bank0
  6800  029D  084E               	movf	_me_3_us2_h,w
  6801  029E  120A  158A  263B  120A  118A  	fcall	_SendCharH
  6802                           
  6803                           ;PROYECTO.c: 594:                 USART_Cadena(" Horas ");
  6804  02A3  30F6               	movlw	low (STR_10| (0+32768))
  6805  02A4  00F4               	movwf	USART_Cadena@str
  6806  02A5  308B               	movlw	high (STR_10| (0+32768))
  6807  02A6  00F5               	movwf	USART_Cadena@str+1
  6808  02A7  160A  118A  23DC  120A  118A  	fcall	_USART_Cadena
  6809                           
  6810                           ;PROYECTO.c: 595:                 USART_Cadena(" con  ");
  6811  02AC  30FE               	movlw	low (STR_11| (0+32768))
  6812  02AD  00F4               	movwf	USART_Cadena@str
  6813  02AE  308B               	movlw	high (STR_11| (0+32768))
  6814  02AF  00F5               	movwf	USART_Cadena@str+1
  6815  02B0  160A  118A  23DC  120A  118A  	fcall	_USART_Cadena
  6816                           
  6817                           ;PROYECTO.c: 596:                 SendCharM(me_3_us2_m);
  6818  02B5  1283               	bcf	3,5	;RP0=0, select bank0
  6819  02B6  1303               	bcf	3,6	;RP1=0, select bank0
  6820  02B7  0845               	movf	_me_3_us2_m,w
  6821  02B8  120A  158A  2488  120A  118A  	fcall	_SendCharM
  6822                           
  6823                           ;PROYECTO.c: 597:                 USART_Cadena(" mins. para el medicamento 3 \r\r\n\n");
  6824  02BD  30D5               	movlw	low (STR_20| (0+32768))
  6825  02BE  00F4               	movwf	USART_Cadena@str
  6826  02BF  308A               	movlw	high (STR_20| (0+32768))
  6827  02C0  00F5               	movwf	USART_Cadena@str+1
  6828  02C1  160A  118A  23DC  120A  118A  	fcall	_USART_Cadena
  6829  02C6  2A25               	goto	l4633
  6830  02C7                     l4663:
  6831                           
  6832                           ;PROYECTO.c: 602:                 USART_Cadena(" Esperar  ");
  6833  02C7  30E1               	movlw	low (STR_9| (0+32768))
  6834  02C8  00F4               	movwf	USART_Cadena@str
  6835  02C9  308B               	movlw	high (STR_9| (0+32768))
  6836  02CA  00F5               	movwf	USART_Cadena@str+1
  6837  02CB  160A  118A  23DC  120A  118A  	fcall	_USART_Cadena
  6838  02D0                     l4665:
  6839                           
  6840                           ;PROYECTO.c: 603:                 SendCharH(me_1_us3_h);
  6841  02D0  1283               	bcf	3,5	;RP0=0, select bank0
  6842  02D1  1303               	bcf	3,6	;RP1=0, select bank0
  6843  02D2  084D               	movf	_me_1_us3_h,w
  6844  02D3  120A  158A  263B  120A  118A  	fcall	_SendCharH
  6845  02D8                     l4667:
  6846                           
  6847                           ;PROYECTO.c: 604:                 USART_Cadena(" Horas ");
  6848  02D8  30F6               	movlw	low (STR_10| (0+32768))
  6849  02D9  00F4               	movwf	USART_Cadena@str
  6850  02DA  308B               	movlw	high (STR_10| (0+32768))
  6851  02DB  00F5               	movwf	USART_Cadena@str+1
  6852  02DC  160A  118A  23DC  120A  118A  	fcall	_USART_Cadena
  6853  02E1                     l4669:
  6854                           
  6855                           ;PROYECTO.c: 605:                 USART_Cadena(" con  ");
  6856  02E1  30FE               	movlw	low (STR_11| (0+32768))
  6857  02E2  00F4               	movwf	USART_Cadena@str
  6858  02E3  308B               	movlw	high (STR_11| (0+32768))
  6859  02E4  00F5               	movwf	USART_Cadena@str+1
  6860  02E5  160A  118A  23DC  120A  118A  	fcall	_USART_Cadena
  6861  02EA                     l4671:
  6862                           
  6863                           ;PROYECTO.c: 606:                 SendCharM(me_1_us3_m);
  6864  02EA  1283               	bcf	3,5	;RP0=0, select bank0
  6865  02EB  1303               	bcf	3,6	;RP1=0, select bank0
  6866  02EC  0844               	movf	_me_1_us3_m,w
  6867  02ED  120A  158A  2488  120A  118A  	fcall	_SendCharM
  6868  02F2                     l4673:
  6869                           
  6870                           ;PROYECTO.c: 607:                 USART_Cadena(" mins. para el medicamento 1 \r\n");
  6871  02F2  3039               	movlw	low (STR_12| (0+32768))
  6872  02F3  00F4               	movwf	USART_Cadena@str
  6873  02F4  308B               	movlw	high (STR_12| (0+32768))
  6874  02F5  00F5               	movwf	USART_Cadena@str+1
  6875  02F6  160A  118A  23DC  120A  118A  	fcall	_USART_Cadena
  6876  02FB                     l4675:
  6877                           
  6878                           ;PROYECTO.c: 609:                 USART_Cadena(" Esperar  ");
  6879  02FB  30E1               	movlw	low (STR_9| (0+32768))
  6880  02FC  00F4               	movwf	USART_Cadena@str
  6881  02FD  308B               	movlw	high (STR_9| (0+32768))
  6882  02FE  00F5               	movwf	USART_Cadena@str+1
  6883  02FF  160A  118A  23DC  120A  118A  	fcall	_USART_Cadena
  6884                           
  6885                           ;PROYECTO.c: 610:                 SendCharH(me_2_us3_h);
  6886  0304  1283               	bcf	3,5	;RP0=0, select bank0
  6887  0305  1303               	bcf	3,6	;RP1=0, select bank0
  6888  0306  084C               	movf	_me_2_us3_h,w
  6889  0307  120A  158A  263B  120A  118A  	fcall	_SendCharH
  6890  030C                     l4677:
  6891                           
  6892                           ;PROYECTO.c: 611:                 USART_Cadena(" Horas ");
  6893  030C  30F6               	movlw	low (STR_10| (0+32768))
  6894  030D  00F4               	movwf	USART_Cadena@str
  6895  030E  308B               	movlw	high (STR_10| (0+32768))
  6896  030F  00F5               	movwf	USART_Cadena@str+1
  6897  0310  160A  118A  23DC  120A  118A  	fcall	_USART_Cadena
  6898  0315                     l4679:
  6899                           
  6900                           ;PROYECTO.c: 612:                 USART_Cadena(" con  ");
  6901  0315  30FE               	movlw	low (STR_11| (0+32768))
  6902  0316  00F4               	movwf	USART_Cadena@str
  6903  0317  308B               	movlw	high (STR_11| (0+32768))
  6904  0318  00F5               	movwf	USART_Cadena@str+1
  6905  0319  160A  118A  23DC  120A  118A  	fcall	_USART_Cadena
  6906  031E                     l4681:
  6907                           
  6908                           ;PROYECTO.c: 613:                 SendCharM(me_2_us3_m);
  6909  031E  1283               	bcf	3,5	;RP0=0, select bank0
  6910  031F  1303               	bcf	3,6	;RP1=0, select bank0
  6911  0320  0843               	movf	_me_2_us3_m,w
  6912  0321  120A  158A  2488  120A  118A  	fcall	_SendCharM
  6913  0326                     l4683:
  6914                           
  6915                           ;PROYECTO.c: 614:                 USART_Cadena(" mins. para el medicamento 2 \r\n");
  6916  0326  3059               	movlw	low (STR_16| (0+32768))
  6917  0327  00F4               	movwf	USART_Cadena@str
  6918  0328  308B               	movlw	high (STR_16| (0+32768))
  6919  0329  00F5               	movwf	USART_Cadena@str+1
  6920  032A  160A  118A  23DC  120A  118A  	fcall	_USART_Cadena
  6921  032F                     l4685:
  6922                           
  6923                           ;PROYECTO.c: 616:                 USART_Cadena(" Esperar  ");
  6924  032F  30E1               	movlw	low (STR_9| (0+32768))
  6925  0330  00F4               	movwf	USART_Cadena@str
  6926  0331  308B               	movlw	high (STR_9| (0+32768))
  6927  0332  00F5               	movwf	USART_Cadena@str+1
  6928  0333  160A  118A  23DC  120A  118A  	fcall	_USART_Cadena
  6929  0338                     l4687:
  6930                           
  6931                           ;PROYECTO.c: 617:                 SendCharH(me_3_us3_h);
  6932  0338  1283               	bcf	3,5	;RP0=0, select bank0
  6933  0339  1303               	bcf	3,6	;RP1=0, select bank0
  6934  033A  084B               	movf	_me_3_us3_h,w
  6935  033B  120A  158A  263B  120A  118A  	fcall	_SendCharH
  6936                           
  6937                           ;PROYECTO.c: 618:                 USART_Cadena(" Horas ");
  6938  0340  30F6               	movlw	low (STR_10| (0+32768))
  6939  0341  00F4               	movwf	USART_Cadena@str
  6940  0342  308B               	movlw	high (STR_10| (0+32768))
  6941  0343  00F5               	movwf	USART_Cadena@str+1
  6942  0344  160A  118A  23DC  120A  118A  	fcall	_USART_Cadena
  6943                           
  6944                           ;PROYECTO.c: 619:                 USART_Cadena(" con  ");
  6945  0349  30FE               	movlw	low (STR_11| (0+32768))
  6946  034A  00F4               	movwf	USART_Cadena@str
  6947  034B  308B               	movlw	high (STR_11| (0+32768))
  6948  034C  00F5               	movwf	USART_Cadena@str+1
  6949  034D  160A  118A  23DC  120A  118A  	fcall	_USART_Cadena
  6950                           
  6951                           ;PROYECTO.c: 620:                 SendCharM(me_3_us3_m);
  6952  0352  1283               	bcf	3,5	;RP0=0, select bank0
  6953  0353  1303               	bcf	3,6	;RP1=0, select bank0
  6954  0354  0842               	movf	_me_3_us3_m,w
  6955  0355  120A  158A  2488  120A  118A  	fcall	_SendCharM
  6956                           
  6957                           ;PROYECTO.c: 621:                 USART_Cadena(" mins. para el medicamento 3 \r\r\n\n");
  6958  035A  30D5               	movlw	low (STR_20| (0+32768))
  6959  035B  00F4               	movwf	USART_Cadena@str
  6960  035C  308A               	movlw	high (STR_20| (0+32768))
  6961  035D  00F5               	movwf	USART_Cadena@str+1
  6962  035E  160A  118A  23DC  120A  118A  	fcall	_USART_Cadena
  6963  0363  2A25               	goto	l4633
  6964  0364                     l4691:
  6965                           
  6966                           ;PROYECTO.c: 626:                 USART_Cadena(" Ingresá la letra de la nueva hora  \n\
      +                          r");
  6967  0364  30B0               	movlw	low (STR_45| (0+32768))
  6968  0365  00F4               	movwf	USART_Cadena@str
  6969  0366  3089               	movlw	high (STR_45| (0+32768))
  6970  0367  00F5               	movwf	USART_Cadena@str+1
  6971  0368  160A  118A  23DC  120A  118A  	fcall	_USART_Cadena
  6972                           
  6973                           ;PROYECTO.c: 627:                 USART_Cadena(" a.0  b.1   c.2   d.3   e.4   f.5   g.6 
      +                            h.7  i.8\r\n");
  6974  036D  3000               	movlw	low (STR_46| (0+32768))
  6975  036E  00F4               	movwf	USART_Cadena@str
  6976  036F  3088               	movlw	high (STR_46| (0+32768))
  6977  0370  00F5               	movwf	USART_Cadena@str+1
  6978  0371  160A  118A  23DC  120A  118A  	fcall	_USART_Cadena
  6979                           
  6980                           ;PROYECTO.c: 628:                 USART_Cadena(" j.9  k.10  l.11  m.12  n.13  o.14  p.15
      +                            q.16\r\n");
  6981  0376  30FE               	movlw	low (STR_47| (0+32768))
  6982  0377  00F4               	movwf	USART_Cadena@str
  6983  0378  3088               	movlw	high (STR_47| (0+32768))
  6984  0379  00F5               	movwf	USART_Cadena@str+1
  6985  037A  160A  118A  23DC  120A  118A  	fcall	_USART_Cadena
  6986                           
  6987                           ;PROYECTO.c: 629:                 USART_Cadena("r.17  s.18  t.19  u.20  v.21  w.22  x.23
      +                            y.24\r\n");
  6988  037F  30CD               	movlw	low (STR_48| (0+32768))
  6989  0380  00F4               	movwf	USART_Cadena@str
  6990  0381  3088               	movlw	high (STR_48| (0+32768))
  6991  0382  00F5               	movwf	USART_Cadena@str+1
  6992  0383  160A  118A  23DC  120A  118A  	fcall	_USART_Cadena
  6993  0388                     l4693:
  6994                           
  6995                           ;PROYECTO.c: 631:                     if (PIR1bits.RCIF == 1){
  6996  0388  1283               	bcf	3,5	;RP0=0, select bank0
  6997  0389  1303               	bcf	3,6	;RP1=0, select bank0
  6998  038A  1E8C               	btfss	12,5	;volatile
  6999  038B  2B8D               	goto	u5491
  7000  038C  2B8E               	goto	u5490
  7001  038D                     u5491:
  7002  038D  2B88               	goto	l4693
  7003  038E                     u5490:
  7004  038E                     l4695:
  7005                           
  7006                           ;PROYECTO.c: 632:                         USART_Cadena(" \r\n");
  7007  038E  301F               	movlw	low ((STR_52+33)| (0+32768))
  7008  038F  00F4               	movwf	USART_Cadena@str
  7009  0390  308A               	movlw	high ((STR_52+33)| (0+32768))
  7010  0391  00F5               	movwf	USART_Cadena@str+1
  7011  0392  160A  118A  23DC  120A  118A  	fcall	_USART_Cadena
  7012  0397                     l4697:
  7013                           
  7014                           ;PROYECTO.c: 633:                         hora_nueva = USART_Rx();
  7015  0397  120A  158A  2414  120A  118A  	fcall	_USART_Rx
  7016  039C  1283               	bcf	3,5	;RP0=0, select bank0
  7017  039D  1303               	bcf	3,6	;RP1=0, select bank0
  7018  039E  00DD               	movwf	??_main
  7019  039F  085D               	movf	??_main,w
  7020  03A0  00F7               	movwf	_hora_nueva
  7021  03A1                     l4699:
  7022                           
  7023                           ;PROYECTO.c: 634:                         USART_Cadena(" \r\n");
  7024  03A1  301F               	movlw	low ((STR_52+33)| (0+32768))
  7025  03A2  00F4               	movwf	USART_Cadena@str
  7026  03A3  308A               	movlw	high ((STR_52+33)| (0+32768))
  7027  03A4  00F5               	movwf	USART_Cadena@str+1
  7028  03A5  160A  118A  23DC  120A  118A  	fcall	_USART_Cadena
  7029  03AA                     l4701:
  7030                           
  7031                           ;PROYECTO.c: 635:                         hora_user1 = CharToNumH(hora_nueva, hora_user1
      +                          );
  7032  03AA  1283               	bcf	3,5	;RP0=0, select bank0
  7033  03AB  1303               	bcf	3,6	;RP1=0, select bank0
  7034  03AC  0856               	movf	_hora_user1,w
  7035  03AD  00DD               	movwf	??_main
  7036  03AE  085D               	movf	??_main,w
  7037  03AF  00F3               	movwf	CharToNumH@hora_user
  7038  03B0  0877               	movf	_hora_nueva,w
  7039  03B1  160A  118A  2402  120A  118A  	fcall	_CharToNumH
  7040  03B6  1283               	bcf	3,5	;RP0=0, select bank0
  7041  03B7  1303               	bcf	3,6	;RP1=0, select bank0
  7042  03B8  00DE               	movwf	??_main+1
  7043  03B9  085E               	movf	??_main+1,w
  7044  03BA  00D6               	movwf	_hora_user1
  7045  03BB                     l4703:	
  7046                           ;PROYECTO.c: 636:                         break;
  7047                           
  7048                           
  7049                           ;PROYECTO.c: 639:                 USART_Cadena(" Ingresá la letra de los minutos nuevos
      +                            \r\n");
  7050  03BB  302F               	movlw	low (STR_51| (0+32768))
  7051  03BC  00F4               	movwf	USART_Cadena@str
  7052  03BD  3089               	movlw	high (STR_51| (0+32768))
  7053  03BE  00F5               	movwf	USART_Cadena@str+1
  7054  03BF  160A  118A  23DC  120A  118A  	fcall	_USART_Cadena
  7055                           
  7056                           ;PROYECTO.c: 640:                 USART_Cadena(" a.0  b.15   c.30   d.45   e.55   \r\n")
      +                          ;
  7057  03C4  30FE               	movlw	low (STR_52| (0+32768))
  7058  03C5  00F4               	movwf	USART_Cadena@str
  7059  03C6  3089               	movlw	high (STR_52| (0+32768))
  7060  03C7  00F5               	movwf	USART_Cadena@str+1
  7061  03C8  160A  118A  23DC  120A  118A  	fcall	_USART_Cadena
  7062  03CD                     l4705:
  7063                           
  7064                           ;PROYECTO.c: 642:                     if (PIR1bits.RCIF == 1){
  7065  03CD  1283               	bcf	3,5	;RP0=0, select bank0
  7066  03CE  1303               	bcf	3,6	;RP1=0, select bank0
  7067  03CF  1E8C               	btfss	12,5	;volatile
  7068  03D0  2BD2               	goto	u5501
  7069  03D1  2BD3               	goto	u5500
  7070  03D2                     u5501:
  7071  03D2  2BCD               	goto	l4705
  7072  03D3                     u5500:
  7073  03D3                     l4707:
  7074                           
  7075                           ;PROYECTO.c: 643:                         USART_Cadena(" \r");
  7076  03D3  3005               	movlw	low (STR_53| (0+32768))
  7077  03D4  00F4               	movwf	USART_Cadena@str
  7078  03D5  308C               	movlw	high (STR_53| (0+32768))
  7079  03D6  00F5               	movwf	USART_Cadena@str+1
  7080  03D7  160A  118A  23DC  120A  118A  	fcall	_USART_Cadena
  7081  03DC                     l4709:
  7082                           
  7083                           ;PROYECTO.c: 644:                         hora_nueva = USART_Rx();
  7084  03DC  120A  158A  2414  120A  118A  	fcall	_USART_Rx
  7085  03E1  1283               	bcf	3,5	;RP0=0, select bank0
  7086  03E2  1303               	bcf	3,6	;RP1=0, select bank0
  7087  03E3  00DD               	movwf	??_main
  7088  03E4  085D               	movf	??_main,w
  7089  03E5  00F7               	movwf	_hora_nueva
  7090  03E6                     l4711:
  7091                           
  7092                           ;PROYECTO.c: 645:                         USART_Cadena(" \r");
  7093  03E6  3005               	movlw	low (STR_53| (0+32768))
  7094  03E7  00F4               	movwf	USART_Cadena@str
  7095  03E8  308C               	movlw	high (STR_53| (0+32768))
  7096  03E9  00F5               	movwf	USART_Cadena@str+1
  7097  03EA  160A  118A  23DC  120A  118A  	fcall	_USART_Cadena
  7098  03EF                     l4713:
  7099                           
  7100                           ;PROYECTO.c: 646:                         min_user1 = CharToNumM(hora_nueva, min_user1);
  7101  03EF  1283               	bcf	3,5	;RP0=0, select bank0
  7102  03F0  1303               	bcf	3,6	;RP1=0, select bank0
  7103  03F1  0859               	movf	_min_user1,w
  7104  03F2  00DD               	movwf	??_main
  7105  03F3  085D               	movf	??_main,w
  7106  03F4  00F3               	movwf	CharToNumM@her
  7107  03F5  0877               	movf	_hora_nueva,w
  7108  03F6  120A  158A  2451  120A  118A  	fcall	_CharToNumM
  7109  03FB  1283               	bcf	3,5	;RP0=0, select bank0
  7110  03FC  1303               	bcf	3,6	;RP1=0, select bank0
  7111  03FD  00DE               	movwf	??_main+1
  7112  03FE  085E               	movf	??_main+1,w
  7113  03FF  00D9               	movwf	_min_user1
  7114  0400                     l4715:	
  7115                           ;PROYECTO.c: 647:                         break;
  7116                           
  7117                           
  7118                           ;PROYECTO.c: 650:                 USART_Cadena(" Actualmente se cuenta con 3 medicamento
      +                          s\r\n");
  7119  0400  305C               	movlw	low (STR_55| (0+32768))
  7120  0401  00F4               	movwf	USART_Cadena@str
  7121  0402  3089               	movlw	high (STR_55| (0+32768))
  7122  0403  00F5               	movwf	USART_Cadena@str+1
  7123  0404  160A  118A  23DC  120A  118A  	fcall	_USART_Cadena
  7124                           
  7125                           ;PROYECTO.c: 651:                 USART_Cadena(" presione el número de medicamento a gu
      +                          ardar \r\n");
  7126  0409  309C               	movlw	low (STR_56| (0+32768))
  7127  040A  00F4               	movwf	USART_Cadena@str
  7128  040B  3088               	movlw	high (STR_56| (0+32768))
  7129  040C  00F5               	movwf	USART_Cadena@str+1
  7130  040D  160A  118A  23DC  120A  118A  	fcall	_USART_Cadena
  7131                           
  7132                           ;PROYECTO.c: 652:                 USART_Cadena(" 1.AFC    2.FFT   3.DHL \r\n");
  7133  0412  30B8               	movlw	low (STR_57| (0+32768))
  7134  0413  00F4               	movwf	USART_Cadena@str
  7135  0414  308B               	movlw	high (STR_57| (0+32768))
  7136  0415  00F5               	movwf	USART_Cadena@str+1
  7137  0416  160A  118A  23DC  120A  118A  	fcall	_USART_Cadena
  7138  041B                     l4717:
  7139                           
  7140                           ;PROYECTO.c: 654:                     if (PIR1bits.RCIF == 1){
  7141  041B  1283               	bcf	3,5	;RP0=0, select bank0
  7142  041C  1303               	bcf	3,6	;RP1=0, select bank0
  7143  041D  1E8C               	btfss	12,5	;volatile
  7144  041E  2C20               	goto	u5511
  7145  041F  2C21               	goto	u5510
  7146  0420                     u5511:
  7147  0420  2C1B               	goto	l4717
  7148  0421                     u5510:
  7149  0421                     l4719:
  7150                           
  7151                           ;PROYECTO.c: 655:                         hora_nueva = USART_Rx();
  7152  0421  120A  158A  2414  120A  118A  	fcall	_USART_Rx
  7153  0426  1283               	bcf	3,5	;RP0=0, select bank0
  7154  0427  1303               	bcf	3,6	;RP1=0, select bank0
  7155  0428  00DD               	movwf	??_main
  7156  0429  085D               	movf	??_main,w
  7157  042A  00F7               	movwf	_hora_nueva
  7158  042B                     l4721:
  7159                           
  7160                           ;PROYECTO.c: 656:                         if(hora_nueva == '1'){
  7161  042B  3031               	movlw	49
  7162  042C  0677               	xorwf	_hora_nueva,w
  7163  042D  1D03               	btfss	3,2
  7164  042E  2C30               	goto	u5521
  7165  042F  2C31               	goto	u5520
  7166  0430                     u5521:
  7167  0430  2C3A               	goto	l4725
  7168  0431                     u5520:
  7169  0431                     l4723:
  7170                           
  7171                           ;PROYECTO.c: 657:                             me_1_us1_h = hora_user1;
  7172  0431  0856               	movf	_hora_user1,w
  7173  0432  00DD               	movwf	??_main
  7174  0433  085D               	movf	??_main,w
  7175  0434  00D3               	movwf	_me_1_us1_h
  7176                           
  7177                           ;PROYECTO.c: 658:                             me_1_us1_m = min_user1;
  7178  0435  0859               	movf	_min_user1,w
  7179  0436  00DD               	movwf	??_main
  7180  0437  085D               	movf	??_main,w
  7181  0438  00CA               	movwf	_me_1_us1_m
  7182                           
  7183                           ;PROYECTO.c: 659:                         }else if(hora_nueva == '2'){
  7184  0439  2A25               	goto	l4633
  7185  043A                     l4725:
  7186  043A  3032               	movlw	50
  7187  043B  0677               	xorwf	_hora_nueva,w
  7188  043C  1D03               	btfss	3,2
  7189  043D  2C3F               	goto	u5531
  7190  043E  2C40               	goto	u5530
  7191  043F                     u5531:
  7192  043F  2C49               	goto	l4729
  7193  0440                     u5530:
  7194  0440                     l4727:
  7195                           
  7196                           ;PROYECTO.c: 660:                             me_2_us1_h = hora_user1;
  7197  0440  0856               	movf	_hora_user1,w
  7198  0441  00DD               	movwf	??_main
  7199  0442  085D               	movf	??_main,w
  7200  0443  00D2               	movwf	_me_2_us1_h
  7201                           
  7202                           ;PROYECTO.c: 661:                             me_2_us1_m = min_user1;
  7203  0444  0859               	movf	_min_user1,w
  7204  0445  00DD               	movwf	??_main
  7205  0446  085D               	movf	??_main,w
  7206  0447  00C9               	movwf	_me_2_us1_m
  7207                           
  7208                           ;PROYECTO.c: 662:                         }else if(hora_nueva == '3'){
  7209  0448  2A25               	goto	l4633
  7210  0449                     l4729:
  7211  0449  3033               	movlw	51
  7212  044A  0677               	xorwf	_hora_nueva,w
  7213  044B  1D03               	btfss	3,2
  7214  044C  2C4E               	goto	u5541
  7215  044D  2C4F               	goto	u5540
  7216  044E                     u5541:
  7217  044E  2A25               	goto	l4633
  7218  044F                     u5540:
  7219  044F                     l4731:
  7220                           
  7221                           ;PROYECTO.c: 663:                             me_3_us1_h = hora_user1;
  7222  044F  0856               	movf	_hora_user1,w
  7223  0450  00DD               	movwf	??_main
  7224  0451  085D               	movf	??_main,w
  7225  0452  00D1               	movwf	_me_3_us1_h
  7226                           
  7227                           ;PROYECTO.c: 664:                             me_3_us1_m = min_user1;
  7228  0453  0859               	movf	_min_user1,w
  7229  0454  00DD               	movwf	??_main
  7230  0455  085D               	movf	??_main,w
  7231  0456  00C8               	movwf	_me_3_us1_m
  7232  0457  2A25               	goto	l4633
  7233  0458                     l4733:
  7234                           
  7235                           ;PROYECTO.c: 673:                 USART_Cadena(" Ingresá la letra de la nueva hora  \r\
      +                          n");
  7236  0458  3088               	movlw	low (STR_58| (0+32768))
  7237  0459  00F4               	movwf	USART_Cadena@str
  7238  045A  3089               	movlw	high (STR_58| (0+32768))
  7239  045B  00F5               	movwf	USART_Cadena@str+1
  7240  045C  160A  118A  23DC  120A  118A  	fcall	_USART_Cadena
  7241                           
  7242                           ;PROYECTO.c: 674:                 USART_Cadena(" a.0  b.1   c.2   d.3   e.4   f.5   g.6 
      +                            h.7  i.8\r\n");
  7243  0461  3000               	movlw	low (STR_46| (0+32768))
  7244  0462  00F4               	movwf	USART_Cadena@str
  7245  0463  3088               	movlw	high (STR_46| (0+32768))
  7246  0464  00F5               	movwf	USART_Cadena@str+1
  7247  0465  160A  118A  23DC  120A  118A  	fcall	_USART_Cadena
  7248                           
  7249                           ;PROYECTO.c: 675:                 USART_Cadena(" j.9  k.10  l.11  m.12  n.13  o.14  p.15
      +                            q.16\r\n");
  7250  046A  30FE               	movlw	low (STR_47| (0+32768))
  7251  046B  00F4               	movwf	USART_Cadena@str
  7252  046C  3088               	movlw	high (STR_47| (0+32768))
  7253  046D  00F5               	movwf	USART_Cadena@str+1
  7254  046E  160A  118A  23DC  120A  118A  	fcall	_USART_Cadena
  7255                           
  7256                           ;PROYECTO.c: 676:                 USART_Cadena("r.17  s.18  t.19  u.20  v.21  w.22  x.23
      +                            y.24\r\n");
  7257  0473  30CD               	movlw	low (STR_48| (0+32768))
  7258  0474  00F4               	movwf	USART_Cadena@str
  7259  0475  3088               	movlw	high (STR_48| (0+32768))
  7260  0476  00F5               	movwf	USART_Cadena@str+1
  7261  0477  160A  118A  23DC  120A  118A  	fcall	_USART_Cadena
  7262  047C                     l4735:
  7263                           
  7264                           ;PROYECTO.c: 678:                     if (PIR1bits.RCIF == 1){
  7265  047C  1283               	bcf	3,5	;RP0=0, select bank0
  7266  047D  1303               	bcf	3,6	;RP1=0, select bank0
  7267  047E  1E8C               	btfss	12,5	;volatile
  7268  047F  2C81               	goto	u5551
  7269  0480  2C82               	goto	u5550
  7270  0481                     u5551:
  7271  0481  2C7C               	goto	l4735
  7272  0482                     u5550:
  7273  0482                     l4737:
  7274                           
  7275                           ;PROYECTO.c: 679:                         USART_Cadena(" \r\n");
  7276  0482  301F               	movlw	low ((STR_52+33)| (0+32768))
  7277  0483  00F4               	movwf	USART_Cadena@str
  7278  0484  308A               	movlw	high ((STR_52+33)| (0+32768))
  7279  0485  00F5               	movwf	USART_Cadena@str+1
  7280  0486  160A  118A  23DC  120A  118A  	fcall	_USART_Cadena
  7281  048B                     l4739:
  7282                           
  7283                           ;PROYECTO.c: 680:                         hora_nueva = USART_Rx();
  7284  048B  120A  158A  2414  120A  118A  	fcall	_USART_Rx
  7285  0490  1283               	bcf	3,5	;RP0=0, select bank0
  7286  0491  1303               	bcf	3,6	;RP1=0, select bank0
  7287  0492  00DD               	movwf	??_main
  7288  0493  085D               	movf	??_main,w
  7289  0494  00F7               	movwf	_hora_nueva
  7290  0495                     l4741:
  7291                           
  7292                           ;PROYECTO.c: 681:                         USART_Cadena(" \r\n");
  7293  0495  301F               	movlw	low ((STR_52+33)| (0+32768))
  7294  0496  00F4               	movwf	USART_Cadena@str
  7295  0497  308A               	movlw	high ((STR_52+33)| (0+32768))
  7296  0498  00F5               	movwf	USART_Cadena@str+1
  7297  0499  160A  118A  23DC  120A  118A  	fcall	_USART_Cadena
  7298  049E                     l4743:
  7299                           
  7300                           ;PROYECTO.c: 682:                         hora_user2 = CharToNumH(hora_nueva, hora_user2
      +                          );
  7301  049E  1283               	bcf	3,5	;RP0=0, select bank0
  7302  049F  1303               	bcf	3,6	;RP1=0, select bank0
  7303  04A0  0855               	movf	_hora_user2,w
  7304  04A1  00DD               	movwf	??_main
  7305  04A2  085D               	movf	??_main,w
  7306  04A3  00F3               	movwf	CharToNumH@hora_user
  7307  04A4  0877               	movf	_hora_nueva,w
  7308  04A5  160A  118A  2402  120A  118A  	fcall	_CharToNumH
  7309  04AA  1283               	bcf	3,5	;RP0=0, select bank0
  7310  04AB  1303               	bcf	3,6	;RP1=0, select bank0
  7311  04AC  00DE               	movwf	??_main+1
  7312  04AD  085E               	movf	??_main+1,w
  7313  04AE  00D5               	movwf	_hora_user2
  7314  04AF                     l4745:	
  7315                           ;PROYECTO.c: 683:                         break;
  7316                           
  7317                           
  7318                           ;PROYECTO.c: 686:                 USART_Cadena(" Ingresá la letra de los minutos nuevos
      +                            \r\n");
  7319  04AF  302F               	movlw	low (STR_51| (0+32768))
  7320  04B0  00F4               	movwf	USART_Cadena@str
  7321  04B1  3089               	movlw	high (STR_51| (0+32768))
  7322  04B2  00F5               	movwf	USART_Cadena@str+1
  7323  04B3  160A  118A  23DC  120A  118A  	fcall	_USART_Cadena
  7324                           
  7325                           ;PROYECTO.c: 687:                 USART_Cadena(" a.0  b.15   c.30   d.45   e.55   \r\n")
      +                          ;
  7326  04B8  30FE               	movlw	low (STR_52| (0+32768))
  7327  04B9  00F4               	movwf	USART_Cadena@str
  7328  04BA  3089               	movlw	high (STR_52| (0+32768))
  7329  04BB  00F5               	movwf	USART_Cadena@str+1
  7330  04BC  160A  118A  23DC  120A  118A  	fcall	_USART_Cadena
  7331  04C1                     l4747:
  7332                           
  7333                           ;PROYECTO.c: 689:                     if (PIR1bits.RCIF == 1){
  7334  04C1  1283               	bcf	3,5	;RP0=0, select bank0
  7335  04C2  1303               	bcf	3,6	;RP1=0, select bank0
  7336  04C3  1E8C               	btfss	12,5	;volatile
  7337  04C4  2CC6               	goto	u5561
  7338  04C5  2CC7               	goto	u5560
  7339  04C6                     u5561:
  7340  04C6  2CC1               	goto	l4747
  7341  04C7                     u5560:
  7342  04C7                     l4749:
  7343                           
  7344                           ;PROYECTO.c: 690:                         USART_Cadena(" \r\n");
  7345  04C7  301F               	movlw	low ((STR_52+33)| (0+32768))
  7346  04C8  00F4               	movwf	USART_Cadena@str
  7347  04C9  308A               	movlw	high ((STR_52+33)| (0+32768))
  7348  04CA  00F5               	movwf	USART_Cadena@str+1
  7349  04CB  160A  118A  23DC  120A  118A  	fcall	_USART_Cadena
  7350  04D0                     l4751:
  7351                           
  7352                           ;PROYECTO.c: 691:                         hora_nueva = USART_Rx();
  7353  04D0  120A  158A  2414  120A  118A  	fcall	_USART_Rx
  7354  04D5  1283               	bcf	3,5	;RP0=0, select bank0
  7355  04D6  1303               	bcf	3,6	;RP1=0, select bank0
  7356  04D7  00DD               	movwf	??_main
  7357  04D8  085D               	movf	??_main,w
  7358  04D9  00F7               	movwf	_hora_nueva
  7359  04DA                     l4753:
  7360                           
  7361                           ;PROYECTO.c: 692:                         USART_Cadena(" \r\n");
  7362  04DA  301F               	movlw	low ((STR_52+33)| (0+32768))
  7363  04DB  00F4               	movwf	USART_Cadena@str
  7364  04DC  308A               	movlw	high ((STR_52+33)| (0+32768))
  7365  04DD  00F5               	movwf	USART_Cadena@str+1
  7366  04DE  160A  118A  23DC  120A  118A  	fcall	_USART_Cadena
  7367  04E3                     l4755:
  7368                           
  7369                           ;PROYECTO.c: 693:                         min_user2 = CharToNumM(hora_nueva, min_user2);
  7370  04E3  1283               	bcf	3,5	;RP0=0, select bank0
  7371  04E4  1303               	bcf	3,6	;RP1=0, select bank0
  7372  04E5  0858               	movf	_min_user2,w
  7373  04E6  00DD               	movwf	??_main
  7374  04E7  085D               	movf	??_main,w
  7375  04E8  00F3               	movwf	CharToNumM@her
  7376  04E9  0877               	movf	_hora_nueva,w
  7377  04EA  120A  158A  2451  120A  118A  	fcall	_CharToNumM
  7378  04EF  1283               	bcf	3,5	;RP0=0, select bank0
  7379  04F0  1303               	bcf	3,6	;RP1=0, select bank0
  7380  04F1  00DE               	movwf	??_main+1
  7381  04F2  085E               	movf	??_main+1,w
  7382  04F3  00D8               	movwf	_min_user2
  7383  04F4                     l4757:	
  7384                           ;PROYECTO.c: 694:                         break;
  7385                           
  7386                           
  7387                           ;PROYECTO.c: 697:                 USART_Cadena(" Actualmente se cuenta con 3 medicamento
      +                          s\r\n");
  7388  04F4  305C               	movlw	low (STR_55| (0+32768))
  7389  04F5  00F4               	movwf	USART_Cadena@str
  7390  04F6  3089               	movlw	high (STR_55| (0+32768))
  7391  04F7  00F5               	movwf	USART_Cadena@str+1
  7392  04F8  160A  118A  23DC  120A  118A  	fcall	_USART_Cadena
  7393                           
  7394                           ;PROYECTO.c: 698:                 USART_Cadena(" presione el número de medicamento a gu
      +                          ardar \r\n");
  7395  04FD  309C               	movlw	low (STR_56| (0+32768))
  7396  04FE  00F4               	movwf	USART_Cadena@str
  7397  04FF  3088               	movlw	high (STR_56| (0+32768))
  7398  0500  00F5               	movwf	USART_Cadena@str+1
  7399  0501  160A  118A  23DC  120A  118A  	fcall	_USART_Cadena
  7400                           
  7401                           ;PROYECTO.c: 699:                 USART_Cadena(" 1.AFC    2.FFT   3.DHL \r\n");
  7402  0506  30B8               	movlw	low (STR_57| (0+32768))
  7403  0507  00F4               	movwf	USART_Cadena@str
  7404  0508  308B               	movlw	high (STR_57| (0+32768))
  7405  0509  00F5               	movwf	USART_Cadena@str+1
  7406  050A  160A  118A  23DC  120A  118A  	fcall	_USART_Cadena
  7407  050F                     l4759:
  7408                           
  7409                           ;PROYECTO.c: 701:                     if (PIR1bits.RCIF == 1){
  7410  050F  1283               	bcf	3,5	;RP0=0, select bank0
  7411  0510  1303               	bcf	3,6	;RP1=0, select bank0
  7412  0511  1E8C               	btfss	12,5	;volatile
  7413  0512  2D14               	goto	u5571
  7414  0513  2D15               	goto	u5570
  7415  0514                     u5571:
  7416  0514  2D0F               	goto	l4759
  7417  0515                     u5570:
  7418  0515                     l4761:
  7419                           
  7420                           ;PROYECTO.c: 702:                         hora_nueva = USART_Rx();
  7421  0515  120A  158A  2414  120A  118A  	fcall	_USART_Rx
  7422  051A  1283               	bcf	3,5	;RP0=0, select bank0
  7423  051B  1303               	bcf	3,6	;RP1=0, select bank0
  7424  051C  00DD               	movwf	??_main
  7425  051D  085D               	movf	??_main,w
  7426  051E  00F7               	movwf	_hora_nueva
  7427  051F                     l4763:
  7428                           
  7429                           ;PROYECTO.c: 703:                         if(hora_nueva == '1'){
  7430  051F  3031               	movlw	49
  7431  0520  0677               	xorwf	_hora_nueva,w
  7432  0521  1D03               	btfss	3,2
  7433  0522  2D24               	goto	u5581
  7434  0523  2D25               	goto	u5580
  7435  0524                     u5581:
  7436  0524  2D2E               	goto	l4767
  7437  0525                     u5580:
  7438  0525                     l4765:
  7439                           
  7440                           ;PROYECTO.c: 704:                             me_1_us2_h = hora_user2;
  7441  0525  0855               	movf	_hora_user2,w
  7442  0526  00DD               	movwf	??_main
  7443  0527  085D               	movf	??_main,w
  7444  0528  00D0               	movwf	_me_1_us2_h
  7445                           
  7446                           ;PROYECTO.c: 705:                             me_1_us2_m = min_user2;
  7447  0529  0858               	movf	_min_user2,w
  7448  052A  00DD               	movwf	??_main
  7449  052B  085D               	movf	??_main,w
  7450  052C  00C7               	movwf	_me_1_us2_m
  7451                           
  7452                           ;PROYECTO.c: 706:                         }else if(hora_nueva == '2'){
  7453  052D  2A25               	goto	l4633
  7454  052E                     l4767:
  7455  052E  3032               	movlw	50
  7456  052F  0677               	xorwf	_hora_nueva,w
  7457  0530  1D03               	btfss	3,2
  7458  0531  2D33               	goto	u5591
  7459  0532  2D34               	goto	u5590
  7460  0533                     u5591:
  7461  0533  2D3D               	goto	l4771
  7462  0534                     u5590:
  7463  0534                     l4769:
  7464                           
  7465                           ;PROYECTO.c: 707:                             me_2_us2_h = hora_user2;
  7466  0534  0855               	movf	_hora_user2,w
  7467  0535  00DD               	movwf	??_main
  7468  0536  085D               	movf	??_main,w
  7469  0537  00CF               	movwf	_me_2_us2_h
  7470                           
  7471                           ;PROYECTO.c: 708:                             me_2_us2_m = min_user2;
  7472  0538  0858               	movf	_min_user2,w
  7473  0539  00DD               	movwf	??_main
  7474  053A  085D               	movf	??_main,w
  7475  053B  00C6               	movwf	_me_2_us2_m
  7476                           
  7477                           ;PROYECTO.c: 709:                         }else if(hora_nueva == '3'){
  7478  053C  2A25               	goto	l4633
  7479  053D                     l4771:
  7480  053D  3033               	movlw	51
  7481  053E  0677               	xorwf	_hora_nueva,w
  7482  053F  1D03               	btfss	3,2
  7483  0540  2D42               	goto	u5601
  7484  0541  2D43               	goto	u5600
  7485  0542                     u5601:
  7486  0542  2A25               	goto	l4633
  7487  0543                     u5600:
  7488  0543                     l4773:
  7489                           
  7490                           ;PROYECTO.c: 710:                             me_3_us2_h = hora_user2;
  7491  0543  0855               	movf	_hora_user2,w
  7492  0544  00DD               	movwf	??_main
  7493  0545  085D               	movf	??_main,w
  7494  0546  00CE               	movwf	_me_3_us2_h
  7495                           
  7496                           ;PROYECTO.c: 711:                             me_3_us2_m = min_user2;
  7497  0547  0858               	movf	_min_user2,w
  7498  0548  00DD               	movwf	??_main
  7499  0549  085D               	movf	??_main,w
  7500  054A  00C5               	movwf	_me_3_us2_m
  7501  054B  2A25               	goto	l4633
  7502  054C                     l4775:
  7503                           
  7504                           ;PROYECTO.c: 719:                 USART_Cadena(" Ingresá la letra de la nueva hora  \r\
      +                          n");
  7505  054C  3088               	movlw	low (STR_58| (0+32768))
  7506  054D  00F4               	movwf	USART_Cadena@str
  7507  054E  3089               	movlw	high (STR_58| (0+32768))
  7508  054F  00F5               	movwf	USART_Cadena@str+1
  7509  0550  160A  118A  23DC  120A  118A  	fcall	_USART_Cadena
  7510                           
  7511                           ;PROYECTO.c: 720:                 USART_Cadena(" a.0  b.1   c.2   d.3   e.4   f.5   g.6 
      +                           h.7  i.8\r\n");
  7512  0555  3035               	movlw	low (STR_72| (0+32768))
  7513  0556  00F4               	movwf	USART_Cadena@str
  7514  0557  3088               	movlw	high (STR_72| (0+32768))
  7515  0558  00F5               	movwf	USART_Cadena@str+1
  7516  0559  160A  118A  23DC  120A  118A  	fcall	_USART_Cadena
  7517                           
  7518                           ;PROYECTO.c: 721:                 USART_Cadena(" j.9  k.10  l.11  m.12  n.13  o.14  p.15
      +                            q.16\r\n");
  7519  055E  30FE               	movlw	low (STR_47| (0+32768))
  7520  055F  00F4               	movwf	USART_Cadena@str
  7521  0560  3088               	movlw	high (STR_47| (0+32768))
  7522  0561  00F5               	movwf	USART_Cadena@str+1
  7523  0562  160A  118A  23DC  120A  118A  	fcall	_USART_Cadena
  7524                           
  7525                           ;PROYECTO.c: 722:                 USART_Cadena("r.17  s.18  t.19  u.20  v.21  w.22  x.23
      +                            y.24\r\n");
  7526  0567  30CD               	movlw	low (STR_48| (0+32768))
  7527  0568  00F4               	movwf	USART_Cadena@str
  7528  0569  3088               	movlw	high (STR_48| (0+32768))
  7529  056A  00F5               	movwf	USART_Cadena@str+1
  7530  056B  160A  118A  23DC  120A  118A  	fcall	_USART_Cadena
  7531  0570                     l4777:
  7532                           
  7533                           ;PROYECTO.c: 724:                     if (PIR1bits.RCIF == 1){
  7534  0570  1283               	bcf	3,5	;RP0=0, select bank0
  7535  0571  1303               	bcf	3,6	;RP1=0, select bank0
  7536  0572  1E8C               	btfss	12,5	;volatile
  7537  0573  2D75               	goto	u5611
  7538  0574  2D76               	goto	u5610
  7539  0575                     u5611:
  7540  0575  2D70               	goto	l4777
  7541  0576                     u5610:
  7542  0576                     l4779:
  7543                           
  7544                           ;PROYECTO.c: 725:                         USART_Cadena(" \r\n");
  7545  0576  301F               	movlw	low ((STR_52+33)| (0+32768))
  7546  0577  00F4               	movwf	USART_Cadena@str
  7547  0578  308A               	movlw	high ((STR_52+33)| (0+32768))
  7548  0579  00F5               	movwf	USART_Cadena@str+1
  7549  057A  160A  118A  23DC  120A  118A  	fcall	_USART_Cadena
  7550  057F                     l4781:
  7551                           
  7552                           ;PROYECTO.c: 726:                         hora_nueva = USART_Rx();
  7553  057F  120A  158A  2414  120A  118A  	fcall	_USART_Rx
  7554  0584  1283               	bcf	3,5	;RP0=0, select bank0
  7555  0585  1303               	bcf	3,6	;RP1=0, select bank0
  7556  0586  00DD               	movwf	??_main
  7557  0587  085D               	movf	??_main,w
  7558  0588  00F7               	movwf	_hora_nueva
  7559  0589                     l4783:
  7560                           
  7561                           ;PROYECTO.c: 727:                         USART_Cadena(" \r\n");
  7562  0589  301F               	movlw	low ((STR_52+33)| (0+32768))
  7563  058A  00F4               	movwf	USART_Cadena@str
  7564  058B  308A               	movlw	high ((STR_52+33)| (0+32768))
  7565  058C  00F5               	movwf	USART_Cadena@str+1
  7566  058D  160A  118A  23DC  120A  118A  	fcall	_USART_Cadena
  7567  0592                     l4785:
  7568                           
  7569                           ;PROYECTO.c: 728:                         hora_user3 = CharToNumH(hora_nueva, hora_user3
      +                          );
  7570  0592  1283               	bcf	3,5	;RP0=0, select bank0
  7571  0593  1303               	bcf	3,6	;RP1=0, select bank0
  7572  0594  0854               	movf	_hora_user3,w
  7573  0595  00DD               	movwf	??_main
  7574  0596  085D               	movf	??_main,w
  7575  0597  00F3               	movwf	CharToNumH@hora_user
  7576  0598  0877               	movf	_hora_nueva,w
  7577  0599  160A  118A  2402  120A  118A  	fcall	_CharToNumH
  7578  059E  1283               	bcf	3,5	;RP0=0, select bank0
  7579  059F  1303               	bcf	3,6	;RP1=0, select bank0
  7580  05A0  00DE               	movwf	??_main+1
  7581  05A1  085E               	movf	??_main+1,w
  7582  05A2  00D4               	movwf	_hora_user3
  7583  05A3                     l4787:	
  7584                           ;PROYECTO.c: 729:                         break;
  7585                           
  7586                           
  7587                           ;PROYECTO.c: 732:                 USART_Cadena(" Ingresá la letra de los minutos nuevos
      +                            \r\n");
  7588  05A3  302F               	movlw	low (STR_51| (0+32768))
  7589  05A4  00F4               	movwf	USART_Cadena@str
  7590  05A5  3089               	movlw	high (STR_51| (0+32768))
  7591  05A6  00F5               	movwf	USART_Cadena@str+1
  7592  05A7  160A  118A  23DC  120A  118A  	fcall	_USART_Cadena
  7593                           
  7594                           ;PROYECTO.c: 733:                 USART_Cadena(" a.0  b.15   c.30   d.45   e.55   \r\n")
      +                          ;
  7595  05AC  30FE               	movlw	low (STR_52| (0+32768))
  7596  05AD  00F4               	movwf	USART_Cadena@str
  7597  05AE  3089               	movlw	high (STR_52| (0+32768))
  7598  05AF  00F5               	movwf	USART_Cadena@str+1
  7599  05B0  160A  118A  23DC  120A  118A  	fcall	_USART_Cadena
  7600  05B5                     l4789:
  7601                           
  7602                           ;PROYECTO.c: 735:                     if (PIR1bits.RCIF == 1){
  7603  05B5  1283               	bcf	3,5	;RP0=0, select bank0
  7604  05B6  1303               	bcf	3,6	;RP1=0, select bank0
  7605  05B7  1E8C               	btfss	12,5	;volatile
  7606  05B8  2DBA               	goto	u5621
  7607  05B9  2DBB               	goto	u5620
  7608  05BA                     u5621:
  7609  05BA  2DB5               	goto	l4789
  7610  05BB                     u5620:
  7611  05BB                     l4791:
  7612                           
  7613                           ;PROYECTO.c: 736:                         USART_Cadena(" \r\n");
  7614  05BB  301F               	movlw	low ((STR_52+33)| (0+32768))
  7615  05BC  00F4               	movwf	USART_Cadena@str
  7616  05BD  308A               	movlw	high ((STR_52+33)| (0+32768))
  7617  05BE  00F5               	movwf	USART_Cadena@str+1
  7618  05BF  160A  118A  23DC  120A  118A  	fcall	_USART_Cadena
  7619  05C4                     l4793:
  7620                           
  7621                           ;PROYECTO.c: 737:                         hora_nueva = USART_Rx();
  7622  05C4  120A  158A  2414  120A  118A  	fcall	_USART_Rx
  7623  05C9  1283               	bcf	3,5	;RP0=0, select bank0
  7624  05CA  1303               	bcf	3,6	;RP1=0, select bank0
  7625  05CB  00DD               	movwf	??_main
  7626  05CC  085D               	movf	??_main,w
  7627  05CD  00F7               	movwf	_hora_nueva
  7628  05CE                     l4795:
  7629                           
  7630                           ;PROYECTO.c: 738:                         USART_Cadena(" \r\n");
  7631  05CE  301F               	movlw	low ((STR_52+33)| (0+32768))
  7632  05CF  00F4               	movwf	USART_Cadena@str
  7633  05D0  308A               	movlw	high ((STR_52+33)| (0+32768))
  7634  05D1  00F5               	movwf	USART_Cadena@str+1
  7635  05D2  160A  118A  23DC  120A  118A  	fcall	_USART_Cadena
  7636  05D7                     l4797:
  7637                           
  7638                           ;PROYECTO.c: 739:                         min_user3 = CharToNumM(hora_nueva, min_user3);
  7639  05D7  1283               	bcf	3,5	;RP0=0, select bank0
  7640  05D8  1303               	bcf	3,6	;RP1=0, select bank0
  7641  05D9  0857               	movf	_min_user3,w
  7642  05DA  00DD               	movwf	??_main
  7643  05DB  085D               	movf	??_main,w
  7644  05DC  00F3               	movwf	CharToNumM@her
  7645  05DD  0877               	movf	_hora_nueva,w
  7646  05DE  120A  158A  2451  120A  118A  	fcall	_CharToNumM
  7647  05E3  1283               	bcf	3,5	;RP0=0, select bank0
  7648  05E4  1303               	bcf	3,6	;RP1=0, select bank0
  7649  05E5  00DE               	movwf	??_main+1
  7650  05E6  085E               	movf	??_main+1,w
  7651  05E7  00D7               	movwf	_min_user3
  7652  05E8                     l4799:	
  7653                           ;PROYECTO.c: 740:                         break;
  7654                           
  7655                           
  7656                           ;PROYECTO.c: 743:                 USART_Cadena(" Actualmente se cuenta con 3 medicamento
      +                          s\r\n");
  7657  05E8  305C               	movlw	low (STR_55| (0+32768))
  7658  05E9  00F4               	movwf	USART_Cadena@str
  7659  05EA  3089               	movlw	high (STR_55| (0+32768))
  7660  05EB  00F5               	movwf	USART_Cadena@str+1
  7661  05EC  160A  118A  23DC  120A  118A  	fcall	_USART_Cadena
  7662                           
  7663                           ;PROYECTO.c: 744:                 USART_Cadena(" presione el número de medicamento a gu
      +                          ardar \r\n");
  7664  05F1  309C               	movlw	low (STR_56| (0+32768))
  7665  05F2  00F4               	movwf	USART_Cadena@str
  7666  05F3  3088               	movlw	high (STR_56| (0+32768))
  7667  05F4  00F5               	movwf	USART_Cadena@str+1
  7668  05F5  160A  118A  23DC  120A  118A  	fcall	_USART_Cadena
  7669                           
  7670                           ;PROYECTO.c: 745:                 USART_Cadena(" 1.AFC    2.FFT   3.DHL \r\n");
  7671  05FA  30B8               	movlw	low (STR_57| (0+32768))
  7672  05FB  00F4               	movwf	USART_Cadena@str
  7673  05FC  308B               	movlw	high (STR_57| (0+32768))
  7674  05FD  00F5               	movwf	USART_Cadena@str+1
  7675  05FE  160A  118A  23DC  120A  118A  	fcall	_USART_Cadena
  7676  0603                     l4801:
  7677                           
  7678                           ;PROYECTO.c: 747:                     if (PIR1bits.RCIF == 1){
  7679  0603  1283               	bcf	3,5	;RP0=0, select bank0
  7680  0604  1303               	bcf	3,6	;RP1=0, select bank0
  7681  0605  1E8C               	btfss	12,5	;volatile
  7682  0606  2E08               	goto	u5631
  7683  0607  2E09               	goto	u5630
  7684  0608                     u5631:
  7685  0608  2E03               	goto	l4801
  7686  0609                     u5630:
  7687  0609                     l4803:
  7688                           
  7689                           ;PROYECTO.c: 748:                         hora_nueva = USART_Rx();
  7690  0609  120A  158A  2414  120A  118A  	fcall	_USART_Rx
  7691  060E  1283               	bcf	3,5	;RP0=0, select bank0
  7692  060F  1303               	bcf	3,6	;RP1=0, select bank0
  7693  0610  00DD               	movwf	??_main
  7694  0611  085D               	movf	??_main,w
  7695  0612  00F7               	movwf	_hora_nueva
  7696  0613                     l4805:
  7697                           
  7698                           ;PROYECTO.c: 749:                         if(hora_nueva == '1'){
  7699  0613  3031               	movlw	49
  7700  0614  0677               	xorwf	_hora_nueva,w
  7701  0615  1D03               	btfss	3,2
  7702  0616  2E18               	goto	u5641
  7703  0617  2E19               	goto	u5640
  7704  0618                     u5641:
  7705  0618  2E22               	goto	l4809
  7706  0619                     u5640:
  7707  0619                     l4807:
  7708                           
  7709                           ;PROYECTO.c: 750:                             me_1_us3_h = hora_user3;
  7710  0619  0854               	movf	_hora_user3,w
  7711  061A  00DD               	movwf	??_main
  7712  061B  085D               	movf	??_main,w
  7713  061C  00CD               	movwf	_me_1_us3_h
  7714                           
  7715                           ;PROYECTO.c: 751:                             me_1_us3_m = min_user3;
  7716  061D  0857               	movf	_min_user3,w
  7717  061E  00DD               	movwf	??_main
  7718  061F  085D               	movf	??_main,w
  7719  0620  00C4               	movwf	_me_1_us3_m
  7720                           
  7721                           ;PROYECTO.c: 752:                         }else if(hora_nueva == '2'){
  7722  0621  2A25               	goto	l4633
  7723  0622                     l4809:
  7724  0622  3032               	movlw	50
  7725  0623  0677               	xorwf	_hora_nueva,w
  7726  0624  1D03               	btfss	3,2
  7727  0625  2E27               	goto	u5651
  7728  0626  2E28               	goto	u5650
  7729  0627                     u5651:
  7730  0627  2E31               	goto	l4813
  7731  0628                     u5650:
  7732  0628                     l4811:
  7733                           
  7734                           ;PROYECTO.c: 753:                             me_2_us3_h = hora_user3;
  7735  0628  0854               	movf	_hora_user3,w
  7736  0629  00DD               	movwf	??_main
  7737  062A  085D               	movf	??_main,w
  7738  062B  00CC               	movwf	_me_2_us3_h
  7739                           
  7740                           ;PROYECTO.c: 754:                             me_2_us3_m = min_user3;
  7741  062C  0857               	movf	_min_user3,w
  7742  062D  00DD               	movwf	??_main
  7743  062E  085D               	movf	??_main,w
  7744  062F  00C3               	movwf	_me_2_us3_m
  7745                           
  7746                           ;PROYECTO.c: 755:                         }else if(hora_nueva == '3'){
  7747  0630  2A25               	goto	l4633
  7748  0631                     l4813:
  7749  0631  3033               	movlw	51
  7750  0632  0677               	xorwf	_hora_nueva,w
  7751  0633  1D03               	btfss	3,2
  7752  0634  2E36               	goto	u5661
  7753  0635  2E37               	goto	u5660
  7754  0636                     u5661:
  7755  0636  2A25               	goto	l4633
  7756  0637                     u5660:
  7757  0637                     l4815:
  7758                           
  7759                           ;PROYECTO.c: 756:                             me_3_us3_h = hora_user3;
  7760  0637  0854               	movf	_hora_user3,w
  7761  0638  00DD               	movwf	??_main
  7762  0639  085D               	movf	??_main,w
  7763  063A  00CB               	movwf	_me_3_us3_h
  7764                           
  7765                           ;PROYECTO.c: 757:                             me_3_us3_m = min_user3;
  7766  063B  0857               	movf	_min_user3,w
  7767  063C  00DD               	movwf	??_main
  7768  063D  085D               	movf	??_main,w
  7769  063E  00C2               	movwf	_me_3_us3_m
  7770  063F  2A25               	goto	l4633
  7771  0640                     l4817:
  7772                           
  7773                           ;PROYECTO.c: 765:                USART_Cadena("El medicamento 1 se ha dispensado ");
  7774  0640  306C               	movlw	low (STR_84| (0+32768))
  7775  0641  00F4               	movwf	USART_Cadena@str
  7776  0642  308A               	movlw	high (STR_84| (0+32768))
  7777  0643  00F5               	movwf	USART_Cadena@str+1
  7778  0644  160A  118A  23DC  120A  118A  	fcall	_USART_Cadena
  7779  0649                     l4819:
  7780                           
  7781                           ;PROYECTO.c: 766:                SendCharH(medicamento1);
  7782  0649  0876               	movf	_medicamento1,w
  7783  064A  120A  158A  263B  120A  118A  	fcall	_SendCharH
  7784  064F                     l4821:
  7785                           
  7786                           ;PROYECTO.c: 767:                USART_Cadena(" veces \r\n");
  7787  064F  30EC               	movlw	low (STR_85| (0+32768))
  7788  0650  00F4               	movwf	USART_Cadena@str
  7789  0651  308B               	movlw	high (STR_85| (0+32768))
  7790  0652  00F5               	movwf	USART_Cadena@str+1
  7791  0653  160A  118A  23DC  120A  118A  	fcall	_USART_Cadena
  7792  0658                     l4823:
  7793                           
  7794                           ;PROYECTO.c: 768:                USART_Cadena("El medicamento 2 se ha dispensado ");
  7795  0658  308F               	movlw	low (STR_86| (0+32768))
  7796  0659  00F4               	movwf	USART_Cadena@str
  7797  065A  308A               	movlw	high (STR_86| (0+32768))
  7798  065B  00F5               	movwf	USART_Cadena@str+1
  7799  065C  160A  118A  23DC  120A  118A  	fcall	_USART_Cadena
  7800  0661                     l4825:
  7801                           
  7802                           ;PROYECTO.c: 769:                SendCharH(medicamento2);
  7803  0661  1283               	bcf	3,5	;RP0=0, select bank0
  7804  0662  1303               	bcf	3,6	;RP1=0, select bank0
  7805  0663  0821               	movf	_medicamento2,w
  7806  0664  120A  158A  263B  120A  118A  	fcall	_SendCharH
  7807                           
  7808                           ;PROYECTO.c: 770:                USART_Cadena(" veces \r\n");
  7809  0669  30EC               	movlw	low (STR_85| (0+32768))
  7810  066A  00F4               	movwf	USART_Cadena@str
  7811  066B  308B               	movlw	high (STR_85| (0+32768))
  7812  066C  00F5               	movwf	USART_Cadena@str+1
  7813  066D  160A  118A  23DC  120A  118A  	fcall	_USART_Cadena
  7814                           
  7815                           ;PROYECTO.c: 771:                USART_Cadena("El medicamento 3 se ha dispensado ");
  7816  0672  30B2               	movlw	low (STR_88| (0+32768))
  7817  0673  00F4               	movwf	USART_Cadena@str
  7818  0674  308A               	movlw	high (STR_88| (0+32768))
  7819  0675  00F5               	movwf	USART_Cadena@str+1
  7820  0676  160A  118A  23DC  120A  118A  	fcall	_USART_Cadena
  7821  067B                     l4827:
  7822                           
  7823                           ;PROYECTO.c: 772:                SendCharH(medicamento3);
  7824  067B  1283               	bcf	3,5	;RP0=0, select bank0
  7825  067C  1303               	bcf	3,6	;RP1=0, select bank0
  7826  067D  0820               	movf	_medicamento3,w
  7827  067E  120A  158A  263B  120A  118A  	fcall	_SendCharH
  7828  0683                     l4829:
  7829                           
  7830                           ;PROYECTO.c: 773:                USART_Cadena(" veces \r \r \n\n");
  7831  0683  30D3               	movlw	low (STR_89| (0+32768))
  7832  0684  00F4               	movwf	USART_Cadena@str
  7833  0685  308B               	movlw	high (STR_89| (0+32768))
  7834  0686  00F5               	movwf	USART_Cadena@str+1
  7835  0687  160A  118A  23DC  120A  118A  	fcall	_USART_Cadena
  7836                           
  7837                           ;PROYECTO.c: 774:                break;
  7838  068C  2EAC               	goto	l4835
  7839  068D                     l4833:
  7840  068D  085B               	movf	_valor,w
  7841  068E  00DD               	movwf	??_main
  7842  068F  01DE               	clrf	??_main+1
  7843                           
  7844                           ; Switch on 2 bytes has been partitioned into a top level switch of size 1, and 1 sub-sw
      +                          itches
  7845                           ; Switch size 1, requested type "simple"
  7846                           ; Number of cases is 1, Range of values is 0 to 0
  7847                           ; switch strategies available:
  7848                           ; Name         Instructions Cycles
  7849                           ; simple_byte            4     3 (average)
  7850                           ; direct_byte           11     8 (fixed)
  7851                           ; jumptable            260     6 (fixed)
  7852                           ;	Chosen strategy is simple_byte
  7853  0690  085E               	movf	??_main+1,w
  7854  0691  3A00               	xorlw	0	; case 0
  7855  0692  1903               	skipnz
  7856  0693  2E95               	goto	l4983
  7857  0694  2EAC               	goto	l4835
  7858  0695                     l4983:
  7859                           
  7860                           ; Switch size 1, requested type "simple"
  7861                           ; Number of cases is 7, Range of values is 49 to 55
  7862                           ; switch strategies available:
  7863                           ; Name         Instructions Cycles
  7864                           ; simple_byte           22    12 (average)
  7865                           ; direct_byte           32    11 (fixed)
  7866                           ; jumptable            263     9 (fixed)
  7867                           ;	Chosen strategy is simple_byte
  7868  0695  085D               	movf	??_main,w
  7869  0696  3A31               	xorlw	49	; case 49
  7870  0697  1903               	skipnz
  7871  0698  2989               	goto	l4607
  7872  0699  3A03               	xorlw	3	; case 50
  7873  069A  1903               	skipnz
  7874  069B  2A2A               	goto	l4635
  7875  069C  3A01               	xorlw	1	; case 51
  7876  069D  1903               	skipnz
  7877  069E  2AC7               	goto	l4663
  7878  069F  3A07               	xorlw	7	; case 52
  7879  06A0  1903               	skipnz
  7880  06A1  2B64               	goto	l4691
  7881  06A2  3A01               	xorlw	1	; case 53
  7882  06A3  1903               	skipnz
  7883  06A4  2C58               	goto	l4733
  7884  06A5  3A03               	xorlw	3	; case 54
  7885  06A6  1903               	skipnz
  7886  06A7  2D4C               	goto	l4775
  7887  06A8  3A01               	xorlw	1	; case 55
  7888  06A9  1903               	skipnz
  7889  06AA  2E40               	goto	l4817
  7890  06AB  2EAC               	goto	l4835
  7891  06AC                     l4835:
  7892                           
  7893                           ;PROYECTO.c: 777:        valor = '0';
  7894  06AC  3030               	movlw	48
  7895  06AD  1283               	bcf	3,5	;RP0=0, select bank0
  7896  06AE  1303               	bcf	3,6	;RP1=0, select bank0
  7897  06AF  00DD               	movwf	??_main
  7898  06B0  085D               	movf	??_main,w
  7899  06B1  00DB               	movwf	_valor
  7900  06B2                     l4837:
  7901                           
  7902                           ;PROYECTO.c: 779:        if (RB7==0 && RB3==1 && RB4==0){
  7903  06B2  1B86               	btfsc	6,7	;volatile
  7904  06B3  2EB5               	goto	u5671
  7905  06B4  2EB6               	goto	u5670
  7906  06B5                     u5671:
  7907  06B5  2EC7               	goto	l453
  7908  06B6                     u5670:
  7909  06B6                     l4839:
  7910  06B6  1D86               	btfss	6,3	;volatile
  7911  06B7  2EB9               	goto	u5681
  7912  06B8  2EBA               	goto	u5680
  7913  06B9                     u5681:
  7914  06B9  2EC7               	goto	l453
  7915  06BA                     u5680:
  7916  06BA                     l4841:
  7917  06BA  1A06               	btfsc	6,4	;volatile
  7918  06BB  2EBD               	goto	u5691
  7919  06BC  2EBE               	goto	u5690
  7920  06BD                     u5691:
  7921  06BD  2EC7               	goto	l453
  7922  06BE                     u5690:
  7923  06BE                     l4843:
  7924                           
  7925                           ;PROYECTO.c: 780:            me_3_us3_m = minuto;
  7926  06BE  0879               	movf	_minuto,w
  7927  06BF  00DD               	movwf	??_main
  7928  06C0  085D               	movf	??_main,w
  7929  06C1  00C2               	movwf	_me_3_us3_m
  7930                           
  7931                           ;PROYECTO.c: 781:            me_3_us3_h = hora;
  7932  06C2  087A               	movf	_hora,w
  7933  06C3  00DD               	movwf	??_main
  7934  06C4  085D               	movf	??_main,w
  7935  06C5  00CB               	movwf	_me_3_us3_h
  7936                           
  7937                           ;PROYECTO.c: 782:        }else if (RB7==0 && RB3==0 && RB4==1){
  7938  06C6  2EF0               	goto	l4857
  7939  06C7                     l453:
  7940  06C7  1B86               	btfsc	6,7	;volatile
  7941  06C8  2ECA               	goto	u5701
  7942  06C9  2ECB               	goto	u5700
  7943  06CA                     u5701:
  7944  06CA  2EDC               	goto	l455
  7945  06CB                     u5700:
  7946  06CB                     l4845:
  7947  06CB  1986               	btfsc	6,3	;volatile
  7948  06CC  2ECE               	goto	u5711
  7949  06CD  2ECF               	goto	u5710
  7950  06CE                     u5711:
  7951  06CE  2EDC               	goto	l455
  7952  06CF                     u5710:
  7953  06CF                     l4847:
  7954  06CF  1E06               	btfss	6,4	;volatile
  7955  06D0  2ED2               	goto	u5721
  7956  06D1  2ED3               	goto	u5720
  7957  06D2                     u5721:
  7958  06D2  2EDC               	goto	l455
  7959  06D3                     u5720:
  7960  06D3                     l4849:
  7961                           
  7962                           ;PROYECTO.c: 783:            me_2_us3_m = minuto;
  7963  06D3  0879               	movf	_minuto,w
  7964  06D4  00DD               	movwf	??_main
  7965  06D5  085D               	movf	??_main,w
  7966  06D6  00C3               	movwf	_me_2_us3_m
  7967                           
  7968                           ;PROYECTO.c: 784:            me_2_us3_h = hora;
  7969  06D7  087A               	movf	_hora,w
  7970  06D8  00DD               	movwf	??_main
  7971  06D9  085D               	movf	??_main,w
  7972  06DA  00CC               	movwf	_me_2_us3_h
  7973                           
  7974                           ;PROYECTO.c: 785:        }else if (RB7==0 && RB3==0 && RB4==0){
  7975  06DB  2EF0               	goto	l4857
  7976  06DC                     l455:
  7977  06DC  1B86               	btfsc	6,7	;volatile
  7978  06DD  2EDF               	goto	u5731
  7979  06DE  2EE0               	goto	u5730
  7980  06DF                     u5731:
  7981  06DF  2EF0               	goto	l4857
  7982  06E0                     u5730:
  7983  06E0                     l4851:
  7984  06E0  1986               	btfsc	6,3	;volatile
  7985  06E1  2EE3               	goto	u5741
  7986  06E2  2EE4               	goto	u5740
  7987  06E3                     u5741:
  7988  06E3  2EF0               	goto	l4857
  7989  06E4                     u5740:
  7990  06E4                     l4853:
  7991  06E4  1A06               	btfsc	6,4	;volatile
  7992  06E5  2EE7               	goto	u5751
  7993  06E6  2EE8               	goto	u5750
  7994  06E7                     u5751:
  7995  06E7  2EF0               	goto	l4857
  7996  06E8                     u5750:
  7997  06E8                     l4855:
  7998                           
  7999                           ;PROYECTO.c: 786:            me_1_us3_m = minuto;
  8000  06E8  0879               	movf	_minuto,w
  8001  06E9  00DD               	movwf	??_main
  8002  06EA  085D               	movf	??_main,w
  8003  06EB  00C4               	movwf	_me_1_us3_m
  8004                           
  8005                           ;PROYECTO.c: 787:            me_1_us3_h = hora;
  8006  06EC  087A               	movf	_hora,w
  8007  06ED  00DD               	movwf	??_main
  8008  06EE  085D               	movf	??_main,w
  8009  06EF  00CD               	movwf	_me_1_us3_h
  8010  06F0                     l4857:
  8011                           
  8012                           ;PROYECTO.c: 790:        if (RB6==0 && RB3==1 && RB4==0){
  8013  06F0  1B06               	btfsc	6,6	;volatile
  8014  06F1  2EF3               	goto	u5761
  8015  06F2  2EF4               	goto	u5760
  8016  06F3                     u5761:
  8017  06F3  2F05               	goto	l458
  8018  06F4                     u5760:
  8019  06F4                     l4859:
  8020  06F4  1D86               	btfss	6,3	;volatile
  8021  06F5  2EF7               	goto	u5771
  8022  06F6  2EF8               	goto	u5770
  8023  06F7                     u5771:
  8024  06F7  2F05               	goto	l458
  8025  06F8                     u5770:
  8026  06F8                     l4861:
  8027  06F8  1A06               	btfsc	6,4	;volatile
  8028  06F9  2EFB               	goto	u5781
  8029  06FA  2EFC               	goto	u5780
  8030  06FB                     u5781:
  8031  06FB  2F05               	goto	l458
  8032  06FC                     u5780:
  8033  06FC                     l4863:
  8034                           
  8035                           ;PROYECTO.c: 791:            me_3_us2_m = minuto;
  8036  06FC  0879               	movf	_minuto,w
  8037  06FD  00DD               	movwf	??_main
  8038  06FE  085D               	movf	??_main,w
  8039  06FF  00C5               	movwf	_me_3_us2_m
  8040                           
  8041                           ;PROYECTO.c: 792:            me_3_us2_h = hora;
  8042  0700  087A               	movf	_hora,w
  8043  0701  00DD               	movwf	??_main
  8044  0702  085D               	movf	??_main,w
  8045  0703  00CE               	movwf	_me_3_us2_h
  8046                           
  8047                           ;PROYECTO.c: 793:        }else if (RB6==0 && RB3==0 && RB4==1){
  8048  0704  2F2E               	goto	l4877
  8049  0705                     l458:
  8050  0705  1B06               	btfsc	6,6	;volatile
  8051  0706  2F08               	goto	u5791
  8052  0707  2F09               	goto	u5790
  8053  0708                     u5791:
  8054  0708  2F1A               	goto	l460
  8055  0709                     u5790:
  8056  0709                     l4865:
  8057  0709  1986               	btfsc	6,3	;volatile
  8058  070A  2F0C               	goto	u5801
  8059  070B  2F0D               	goto	u5800
  8060  070C                     u5801:
  8061  070C  2F1A               	goto	l460
  8062  070D                     u5800:
  8063  070D                     l4867:
  8064  070D  1E06               	btfss	6,4	;volatile
  8065  070E  2F10               	goto	u5811
  8066  070F  2F11               	goto	u5810
  8067  0710                     u5811:
  8068  0710  2F1A               	goto	l460
  8069  0711                     u5810:
  8070  0711                     l4869:
  8071                           
  8072                           ;PROYECTO.c: 794:            me_2_us2_m = minuto;
  8073  0711  0879               	movf	_minuto,w
  8074  0712  00DD               	movwf	??_main
  8075  0713  085D               	movf	??_main,w
  8076  0714  00C6               	movwf	_me_2_us2_m
  8077                           
  8078                           ;PROYECTO.c: 795:            me_2_us2_h = hora;
  8079  0715  087A               	movf	_hora,w
  8080  0716  00DD               	movwf	??_main
  8081  0717  085D               	movf	??_main,w
  8082  0718  00CF               	movwf	_me_2_us2_h
  8083                           
  8084                           ;PROYECTO.c: 796:        }else if (RB6==0 && RB3==0 && RB4==0){
  8085  0719  2F2E               	goto	l4877
  8086  071A                     l460:
  8087  071A  1B06               	btfsc	6,6	;volatile
  8088  071B  2F1D               	goto	u5821
  8089  071C  2F1E               	goto	u5820
  8090  071D                     u5821:
  8091  071D  2F2E               	goto	l4877
  8092  071E                     u5820:
  8093  071E                     l4871:
  8094  071E  1986               	btfsc	6,3	;volatile
  8095  071F  2F21               	goto	u5831
  8096  0720  2F22               	goto	u5830
  8097  0721                     u5831:
  8098  0721  2F2E               	goto	l4877
  8099  0722                     u5830:
  8100  0722                     l4873:
  8101  0722  1A06               	btfsc	6,4	;volatile
  8102  0723  2F25               	goto	u5841
  8103  0724  2F26               	goto	u5840
  8104  0725                     u5841:
  8105  0725  2F2E               	goto	l4877
  8106  0726                     u5840:
  8107  0726                     l4875:
  8108                           
  8109                           ;PROYECTO.c: 797:            me_1_us2_m = minuto;
  8110  0726  0879               	movf	_minuto,w
  8111  0727  00DD               	movwf	??_main
  8112  0728  085D               	movf	??_main,w
  8113  0729  00C7               	movwf	_me_1_us2_m
  8114                           
  8115                           ;PROYECTO.c: 798:            me_1_us2_h = hora;
  8116  072A  087A               	movf	_hora,w
  8117  072B  00DD               	movwf	??_main
  8118  072C  085D               	movf	??_main,w
  8119  072D  00D0               	movwf	_me_1_us2_h
  8120  072E                     l4877:
  8121                           
  8122                           ;PROYECTO.c: 801:        if (RB5==0 && RB3==0 && RB4==1){
  8123  072E  1A86               	btfsc	6,5	;volatile
  8124  072F  2F31               	goto	u5851
  8125  0730  2F32               	goto	u5850
  8126  0731                     u5851:
  8127  0731  2F43               	goto	l463
  8128  0732                     u5850:
  8129  0732                     l4879:
  8130  0732  1986               	btfsc	6,3	;volatile
  8131  0733  2F35               	goto	u5861
  8132  0734  2F36               	goto	u5860
  8133  0735                     u5861:
  8134  0735  2F43               	goto	l463
  8135  0736                     u5860:
  8136  0736                     l4881:
  8137  0736  1E06               	btfss	6,4	;volatile
  8138  0737  2F39               	goto	u5871
  8139  0738  2F3A               	goto	u5870
  8140  0739                     u5871:
  8141  0739  2F43               	goto	l463
  8142  073A                     u5870:
  8143  073A                     l4883:
  8144                           
  8145                           ;PROYECTO.c: 802:            me_3_us1_m = minuto;
  8146  073A  0879               	movf	_minuto,w
  8147  073B  00DD               	movwf	??_main
  8148  073C  085D               	movf	??_main,w
  8149  073D  00C8               	movwf	_me_3_us1_m
  8150                           
  8151                           ;PROYECTO.c: 803:            me_3_us1_h = hora;
  8152  073E  087A               	movf	_hora,w
  8153  073F  00DD               	movwf	??_main
  8154  0740  085D               	movf	??_main,w
  8155  0741  00D1               	movwf	_me_3_us1_h
  8156                           
  8157                           ;PROYECTO.c: 804:        }else if (RB5==0 && RB3==1 && RB4==0){
  8158  0742  2F6D               	goto	l464
  8159  0743                     l463:
  8160  0743  1A86               	btfsc	6,5	;volatile
  8161  0744  2F46               	goto	u5881
  8162  0745  2F47               	goto	u5880
  8163  0746                     u5881:
  8164  0746  2F58               	goto	l465
  8165  0747                     u5880:
  8166  0747                     l4885:
  8167  0747  1D86               	btfss	6,3	;volatile
  8168  0748  2F4A               	goto	u5891
  8169  0749  2F4B               	goto	u5890
  8170  074A                     u5891:
  8171  074A  2F58               	goto	l465
  8172  074B                     u5890:
  8173  074B                     l4887:
  8174  074B  1A06               	btfsc	6,4	;volatile
  8175  074C  2F4E               	goto	u5901
  8176  074D  2F4F               	goto	u5900
  8177  074E                     u5901:
  8178  074E  2F58               	goto	l465
  8179  074F                     u5900:
  8180  074F                     l4889:
  8181                           
  8182                           ;PROYECTO.c: 805:            me_2_us1_m = minuto;
  8183  074F  0879               	movf	_minuto,w
  8184  0750  00DD               	movwf	??_main
  8185  0751  085D               	movf	??_main,w
  8186  0752  00C9               	movwf	_me_2_us1_m
  8187                           
  8188                           ;PROYECTO.c: 806:            me_2_us1_h = hora;
  8189  0753  087A               	movf	_hora,w
  8190  0754  00DD               	movwf	??_main
  8191  0755  085D               	movf	??_main,w
  8192  0756  00D2               	movwf	_me_2_us1_h
  8193                           
  8194                           ;PROYECTO.c: 807:        }else if (RB5==0 && RB3==0 && RB4==0){
  8195  0757  2F6D               	goto	l464
  8196  0758                     l465:
  8197  0758  1A86               	btfsc	6,5	;volatile
  8198  0759  2F5B               	goto	u5911
  8199  075A  2F5C               	goto	u5910
  8200  075B                     u5911:
  8201  075B  2F6D               	goto	l464
  8202  075C                     u5910:
  8203  075C                     l4891:
  8204  075C  1986               	btfsc	6,3	;volatile
  8205  075D  2F5F               	goto	u5921
  8206  075E  2F60               	goto	u5920
  8207  075F                     u5921:
  8208  075F  2F6D               	goto	l464
  8209  0760                     u5920:
  8210  0760                     l4893:
  8211  0760  1A06               	btfsc	6,4	;volatile
  8212  0761  2F63               	goto	u5931
  8213  0762  2F64               	goto	u5930
  8214  0763                     u5931:
  8215  0763  2F6D               	goto	l464
  8216  0764                     u5930:
  8217  0764                     l4895:
  8218                           
  8219                           ;PROYECTO.c: 808:            me_1_us1_m = minuto;
  8220  0764  0879               	movf	_minuto,w
  8221  0765  00DD               	movwf	??_main
  8222  0766  085D               	movf	??_main,w
  8223  0767  00CA               	movwf	_me_1_us1_m
  8224                           
  8225                           ;PROYECTO.c: 809:            me_1_us1_h = hora;
  8226  0768  087A               	movf	_hora,w
  8227  0769  00DD               	movwf	??_main
  8228  076A  085D               	movf	??_main,w
  8229  076B  00D3               	movwf	_me_1_us1_h
  8230  076C  2F6D               	goto	l464
  8231  076D                     l464:
  8232  076D  120A  158A  2DD6   	goto	l4159
  8233  0770  120A  118A  280C   	ljmp	start
  8234  0773                     __end_of_main:

Data Sizes:
    Strings     1044
    Constant    0
    Data        0
    BSS         65
    Persistent  0
    Stack       0

Auto Spaces:
    Space          Size  Autos    Used
    COMMON           14      6      11
    BANK0            80      3      63
    BANK1            80      0       0
    BANK3            96      0       0
    BANK2            96      0       0

Pointer List with Targets:

    USART_Cadena@str	PTR unsigned char  size(2) Largest target is 53
		 -> STR_94(CODE[3]), STR_93(CODE[3]), STR_92(CODE[3]), STR_91(CODE[3]), 
		 -> STR_90(CODE[2]), STR_89(CODE[14]), STR_88(CODE[35]), STR_87(CODE[10]), 
		 -> STR_86(CODE[35]), STR_85(CODE[10]), STR_84(CODE[35]), STR_83(CODE[27]), 
		 -> STR_82(CODE[49]), STR_81(CODE[44]), STR_80(CODE[4]), STR_79(CODE[4]), 
		 -> STR_78(CODE[37]), STR_77(CODE[45]), STR_76(CODE[4]), STR_75(CODE[4]), 
		 -> STR_74(CODE[49]), STR_73(CODE[49]), STR_72(CODE[52]), STR_71(CODE[40]), 
		 -> STR_70(CODE[27]), STR_69(CODE[49]), STR_68(CODE[44]), STR_67(CODE[4]), 
		 -> STR_66(CODE[4]), STR_65(CODE[37]), STR_64(CODE[45]), STR_63(CODE[4]), 
		 -> STR_62(CODE[4]), STR_61(CODE[49]), STR_60(CODE[49]), STR_59(CODE[53]), 
		 -> STR_58(CODE[40]), STR_57(CODE[27]), STR_56(CODE[49]), STR_55(CODE[44]), 
		 -> STR_54(CODE[3]), STR_53(CODE[3]), STR_52(CODE[37]), STR_51(CODE[45]), 
		 -> STR_50(CODE[4]), STR_49(CODE[4]), STR_48(CODE[49]), STR_47(CODE[49]), 
		 -> STR_46(CODE[53]), STR_45(CODE[40]), STR_44(CODE[34]), STR_43(CODE[7]), 
		 -> STR_42(CODE[8]), STR_41(CODE[11]), STR_40(CODE[32]), STR_39(CODE[7]), 
		 -> STR_38(CODE[8]), STR_37(CODE[11]), STR_36(CODE[32]), STR_35(CODE[7]), 
		 -> STR_34(CODE[8]), STR_33(CODE[11]), STR_32(CODE[34]), STR_31(CODE[7]), 
		 -> STR_30(CODE[8]), STR_29(CODE[11]), STR_28(CODE[32]), STR_27(CODE[7]), 
		 -> STR_26(CODE[8]), STR_25(CODE[11]), STR_24(CODE[32]), STR_23(CODE[7]), 
		 -> STR_22(CODE[8]), STR_21(CODE[11]), STR_20(CODE[34]), STR_19(CODE[7]), 
		 -> STR_18(CODE[8]), STR_17(CODE[11]), STR_16(CODE[32]), STR_15(CODE[7]), 
		 -> STR_14(CODE[8]), STR_13(CODE[11]), STR_12(CODE[32]), STR_11(CODE[7]), 
		 -> STR_10(CODE[8]), STR_9(CODE[11]), STR_8(CODE[51]), STR_7(CODE[38]), 
		 -> STR_6(CODE[36]), STR_5(CODE[37]), STR_4(CODE[33]), STR_3(CODE[31]), 
		 -> STR_2(CODE[32]), STR_1(CODE[33]), 


Critical Paths under _main in COMMON

    _main->_CharToNumH
    _main->_CharToNumM
    _main->_ReadToEEPROM
    _main->_SendCharH
    _main->_USART_Cadena
    _SendCharM->_USART_Cadena
    _USART_Cadena->_USART_Tx

Critical Paths under _isr in COMMON

    None.

Critical Paths under _main in BANK0

    _main->_CharToNumH
    _main->_SendCharM

Critical Paths under _isr in BANK0

    None.

Critical Paths under _main in BANK1

    None.

Critical Paths under _isr in BANK1

    None.

Critical Paths under _main in BANK3

    None.

Critical Paths under _isr in BANK3

    None.

Critical Paths under _main in BANK2

    None.

Critical Paths under _isr in BANK2

    None.

Call Graph Tables:

 ---------------------------------------------------------------------------------
 (Depth) Function   	        Calls       Base Space   Used Autos Params    Refs
 ---------------------------------------------------------------------------------
 (0) _main                                                 2     2      0   19062
                                              1 BANK0      2     2      0
                         _CharToNumH
                         _CharToNumM
                       _ReadToEEPROM
                          _SendCharH
                          _SendCharM
                       _USART_Cadena
                           _USART_Rx
                      _WriteToEEPROM
 ---------------------------------------------------------------------------------
 (1) _WriteToEEPROM                                        2     1      1     956
                                              3 COMMON     2     1      1
 ---------------------------------------------------------------------------------
 (1) _USART_Rx                                             0     0      0       0
 ---------------------------------------------------------------------------------
 (1) _SendCharM                                            1     1      0    8711
                                              0 BANK0      1     1      0
                       _USART_Cadena
 ---------------------------------------------------------------------------------
 (1) _USART_Cadena                                         2     0      2    8556
                                              4 COMMON     2     0      2
                           _USART_Tx
 ---------------------------------------------------------------------------------
 (2) _USART_Tx                                             1     1      0      31
                                              3 COMMON     1     1      0
 ---------------------------------------------------------------------------------
 (1) _SendCharH                                            3     3      0      22
                                              3 COMMON     3     3      0
 ---------------------------------------------------------------------------------
 (1) _ReadToEEPROM                                         3     3      0      45
                                              3 COMMON     3     3      0
 ---------------------------------------------------------------------------------
 (1) _CharToNumM                                           3     2      1     365
                                              3 COMMON     3     2      1
 ---------------------------------------------------------------------------------
 (1) _CharToNumH                                           4     3      1     407
                                              3 COMMON     3     2      1
                                              0 BANK0      1     1      0
 ---------------------------------------------------------------------------------
 Estimated maximum stack depth 2
 ---------------------------------------------------------------------------------
 (Depth) Function   	        Calls       Base Space   Used Autos Params    Refs
 ---------------------------------------------------------------------------------
 (4) _isr                                                  3     3      0       0
                                              0 COMMON     3     3      0
 ---------------------------------------------------------------------------------
 Estimated maximum stack depth 4
 ---------------------------------------------------------------------------------

 Call Graph Graphs:

 _main (ROOT)
   _CharToNumH
   _CharToNumM
   _ReadToEEPROM
   _SendCharH
   _SendCharM
     _USART_Cadena
       _USART_Tx
   _USART_Cadena
     _USART_Tx
   _USART_Rx
   _WriteToEEPROM

 _isr (ROOT)

 Address spaces:
Name               Size   Autos  Total    Cost      Usage
BITCOMMON            E      0       0       0        0.0%
EEDATA             100      0       0       0        0.0%
NULL                 0      0       0       0        0.0%
CODE                 0      0       0       0        0.0%
COMMON               E      6       B       1       78.6%
BITSFR0              0      0       0       1        0.0%
SFR0                 0      0       0       1        0.0%
BITSFR1              0      0       0       2        0.0%
SFR1                 0      0       0       2        0.0%
STACK                0      0       0       2        0.0%
ABS                  0      0      4A       3        0.0%
BITBANK0            50      0       0       4        0.0%
BITSFR3              0      0       0       4        0.0%
SFR3                 0      0       0       4        0.0%
BANK0               50      3      3F       5       78.8%
BITSFR2              0      0       0       5        0.0%
SFR2                 0      0       0       5        0.0%
BITBANK1            50      0       0       6        0.0%
BANK1               50      0       0       7        0.0%
BITBANK3            60      0       0       8        0.0%
BANK3               60      0       0       9        0.0%
BITBANK2            60      0       0      10        0.0%
BANK2               60      0       0      11        0.0%
DATA                 0      0      4A      12        0.0%


Microchip Technology PIC Macro Assembler V2.31 build 20201012212115 
Symbol Table                                                                                   Mon Jun 28 19:33:53 2021

                      pc 0002                       fsr 0004                      l321 177B  
                    l313 1727                      l323 1769                      l315 1713  
                    l317 1751                      l334 162F                      l511 0E74  
                    l503 0E5E                      l319 173F                      l601 0F55  
                    l329 0128                      l611 0F70                      l531 0EAB  
                    l523 0E95                      l515 0E7F                      l507 0E69  
                    l604 0F5F                      l460 071A                      l701 13DB  
                    l541 0EC6                      l453 06C7                      l622 0F88  
                    l534 0EB5                      l615 0F77                      l527 0EA0  
                    l519 0E8A                      l463 0743                      l455 06DC  
                    l632 0FA3                      l608 0F66                      l552 0EDE  
                    l464 076D                      l625 0F92                      l545 0ECD  
                    l473 0C19                      l465 0758                      l385 011A  
                    l618 0F81                      l562 0EF9                      l538 0EBC  
                    l490 0E3D                      l650 0CE2                      l458 0705  
                    l555 0EE8                      l635 0FFF                      l580 0F22  
                    l548 0ED7                      l476 0C23                      l644 0CE2  
                    l629 0F99                      l573 0F11                      l485 1401  
                    l590 0F3D                      l566 0F00                      l638 0C8B  
                    l583 0F2C                      l559 0EEF                      l495 0E48  
                    l479 0C17                      l680 14D4                      l656 1408  
                    l576 0F1B                      l569 0F0A                      l594 0F44  
                    l587 0F33                      l499 0E53                      l692 0C87  
                    l684 0C86                      l597 0F4E                      l695 0C3E  
                    l688 0C86                      l697 0C44                      l698 0C50  
                    _RA0 0028                      _RB0 0030                      _RB1 0031  
                    _RB2 0032                      _RB3 0033                      _RD0 0040  
                    _RB4 0034                      _RD1 0041                      _RA7 002F  
                    _RB5 0035                      _RD2 0042                      _RB6 0036  
                    _RB7 0037                      _isr 0773                      fsr0 0004  
                    indf 0000               _CharToNumH 1402               _CharToNumM 0C51  
                   l4001 0D18                     l4011 0D20                     l4003 0D1C  
                   l4101 0D9A                     l4021 0D27                     l4013 0D21  
                   l4005 0D1D                     l4111 0DAE                     l4103 0D9E  
                   l4031 0D33                     l4023 0D28                     l4015 0D22  
                   l4007 0D1E                     l2601 0C2F                     l4201 14DA  
                   l4121 0DC2                     l4113 0DB2                     l4105 0DA2  
                   l4041 0D3A                     l4033 0D34                     l4025 0D2B  
                   l4017 0D23                     l4009 0D1F                     l2611 0C14  
                   l2603 0C30                     l4211 14F5                     l4203 14E0  
                   l4131 0DC7                     l4123 0DC3                     l4115 0DB6  
                   l4107 0DA6                     l4051 0D45                     l4043 0D3B  
                   l4035 0D35                     l4027 0D2F                     l4019 0D24  
                   l2621 0E59                     l2605 0C33                     l4301 15C7  
                   l4221 150A                     l4213 14F8                     l4205 14E5  
                   l4141 0DCC                     l4133 0DC8                     l4125 0DC4  
                   l4117 0DBA                     l4109 0DAA                     l4061 0D68  
                   l4053 0D50                     l4045 0D3E                     l4037 0D38  
                   l4029 0D30                     l2631 0E90                     l2623 0E64  
                   l2615 0E3C                     l2607 0C34                     l4311 16EC  
                   l4303 15CA                     l4231 1522                     l4223 150F  
                   l4207 14E7                     l4215 14F9                     l4151 0DD1  
                   l4143 0DCD                     l4135 0DC9                     l4127 0DC5  
                   l4119 0DBE                     l4071 0D6D                     l4063 0D69  
                   l4055 0D5B                     l4047 0D41                     l4039 0D39  
                   l2801 0C70                     l2641 0EC2                     l2633 0E9B  
                   l2625 0E6F                     l2617 0E43                     l2609 0C3D  
                   l4401 17CE                     l4321 1704                     l4313 16F1  
                   l4305 15CB                     l4241 1539                     l4225 1511  
                   l4233 1523                     l4217 14FF                     l4209 14EB  
                   l4161 0DDD                     l4153 0DD2                     l4145 0DCE  
                   l4137 0DCA                     l4129 0DC6                     l4081 0D76  
                   l4073 0D6E                     l4065 0D6A                     l4057 0D66  
                   l4049 0D42                     l2803 0C76                     l2635 0EA6  
                   l2627 0E7A                     l2619 0E4E                     l4411 17F8  
                   l4403 17D2                     l4331 1714                     l4315 16F3  
                   l4323 1705                     l4307 15D3                     l4243 153B  
                   l4251 154D                     l4235 1529                     l4227 1515  
                   l4219 1504                     l4171 0DF5                     l4163 0DE3  
                   l4155 0DD3                     l4147 0DCF                     l4139 0DCB  
                   l4091 0D86                     l4083 0D78                     l4075 0D70  
                   l4067 0D6B                     l4059 0D67                     l2805 0C7B  
                   l2661 0F17                     l2653 0EF5                     l2645 0ED3  
                   l2637 0EB1                     l2629 0E85                     l4501 16E1  
                   l4421 15F7                     l4413 15DC                     l4405 17DC  
                   l4341 1735                     l4333 1720                     l4317 16F7  
                   l4309 16E6                     l4261 1565                     l4253 1553  
                   l4245 153F                     l4237 152E                     l4229 151F  
                   l4181 0E0D                     l4173 0DF9                     l4165 0DE8  
                   l4325 1706                     l4157 0DD4                     l4149 0DD0  
                   l4093 0D8A                     l4085 0D7A                     l4077 0D72  
                   l4069 0D6C                     l2807 0C81                     l2591 13D3  
                   l4511 0038                     l4503 0021                     l4431 1613  
                   l4423 15FD                     l4415 15E5                     l4407 17E2  
                   l4351 174F                     l4343 1736                     l4335 1725  
                   l4327 170A                     l4319 1701                     l4271 157D  
                   l4263 1569                     l4255 1558                     l4247 1549  
                   l4239 1534                     l4191 0E23                     l4183 0E12  
                   l4175 0E03                     l4167 0DEE                     l4159 0DD6  
                   l4095 0D8E                     l4087 0D7E                     l4079 0D74  
                   l2681 0F6C                     l2673 0F4A                     l2665 0F28  
                   l2657 0F06                     l2649 0EE4                     l4601 0178  
                   l4521 0054                     l4513 003E                     l4505 0027  
                   l4433 1619                     l4425 1602                     l4441 162F  
                   l4417 15EF                     l4409 17E6                     l4361 1764  
                   l4353 1752                     l4345 173A                     l4337 1728  
                   l4329 170E                     l4281 1593                     l4273 1582  
                   l4265 1573                     l4257 155E                     l4249 154C  
                   l4193 0E2D                     l4185 0E18                     l4177 0E06  
                   l4169 0DF3                     l4097 0D92                     l4089 0D82  
                   l2587 13CC                     l2595 0C25                     l4611 019A  
                   l4603 017C                     l4531 0071                     l4523 005A  
                   l4515 0043                     l4507 002D                     l4451 1653  
                   l4435 161F                     l4427 1608                     l4419 15F1  
                   l4443 1634                     l4371 1784                     l4363 176A  
                   l4355 175A                     l4347 1740                     l4339 1730  
                   l4291 15AC                     l4283 159D                     l4275 1588  
                   l4267 1576                     l4259 1563                     l4195 0E30  
                   l4187 0E1D                     l4179 0E07                     l4099 0D96  
                   l3901 141A                     l2589 13D0                     l2693 0F9F  
                   l2685 0F7D                     l2677 0F5B                     l2669 0F39  
                   l2597 0C2B                     l4701 03AA                     l4621 01CE  
                   l4613 01A3                     l4605 0186                     l4541 008D  
                   l4533 0076                     l4525 0060                     l4517 0049  
                   l4509 0032                     l4461 166D                     l4453 1659  
                   l4445 163F                     l4437 1624                     l4429 160E  
                   l4381 1794                     l4373 1789                     l4365 1774  
                   l4357 175F                     l4349 174A                     l4293 15B2  
                   l4285 15A0                     l4277 158D                     l4269 1577  
                   l4189 0E1F                     l4197 0E31                     l3911 1433  
                   l3903 141F                     l2791 0C58                     l2599 0C2E  
                   l4711 03E6                     l4703 03BB                     l4631 01FA  
                   l4623 01D7                     l4615 01AC                     l4607 0189  
                   l4551 00A9                     l4543 0093                     l4535 007C  
                   l4527 0065                     l4519 004F                     l4471 168A  
                   l4463 1673                     l4455 165C                     l4447 1649  
                   l4439 162A                     l4391 17B1                     l4383 1798  
                   l4375 178A                     l4367 1779                     l4359 1760  
                   l4295 15B7                     l4279 158F                     l4287 15A1  
                   l4199 14D5                     l3921 144C                     l3913 1438  
                   l3905 1424                     l2793 0C5A                     l2689 0F8E  
                   l4801 0603                     l4721 042B                     l4713 03EF  
                   l4705 03CD                     l4641 0244                     l4633 0225  
                   l4625 01E0                     l4617 01B4                     l4609 0192  
                   l4561 00C6                     l4553 00AF                     l4545 0098  
                   l4537 0082                     l4529 006B                     l4481 16A6  
                   l4473 168F                     l4465 1679                     l4457 1662  
                   l4449 164D                     l4393 17B5                     l4385 17A2  
                   l4369 177C                     l4377 178B                     l4297 15B9  
                   l4289 15A7                     l3931 1465                     l3923 1451  
                   l3915 143D                     l3907 1429                     l2795 0C60  
                   l2699 0FAA                     l4811 0628                     l4803 0609  
                   l4731 044F                     l4723 0431                     l4715 0400  
                   l4707 03D3                     l4651 0278                     l4643 024D  
                   l4635 022A                     l4627 01E8                     l4619 01BD  
                   l4571 00E2                     l4563 00CB                     l4555 00B5  
                   l4547 009E                     l4539 0087                     l4491 16C2  
                   l4483 16AC                     l4475 1695                     l4467 167E  
                   l4459 1668                     l4395 17BF                     l4387 17A8  
                   l4379 178F                     l4299 15BD                     l3933 146A  
                   l3925 1456                     l3917 1442                     l3909 142E  
                   l2797 0C65                     l2789 0C52                     l3861 13DC  
                   l4821 064F                     l4813 0631                     l4805 0613  
                   l4741 0495                     l4733 0458                     l4725 043A  
                   l4717 041B                     l4709 03DC                     l4653 0281  
                   l4645 0255                     l4637 0233                     l4629 01F1  
                   l4581 00FE                     l4573 00E8                     l4565 00D1  
                   l4557 00BA                     l4549 00A4                     l4493 16C8  
                   l4485 16B1                     l4477 169B                     l4469 1684  
                   l4397 17C5                     l4389 17AC                     l3935 146F  
                   l3927 145B                     l3919 1447                     l3943 147E  
                   l2799 0C6B                     l3863 13DD                     l3871 0C91  
                   l4823 0658                     l4815 0637                     l4807 0619  
                   l4751 04D0                     l4743 049E                     l4735 047C  
                   l4727 0440                     l4719 0421                     l4671 02EA  
                   l4663 02C7                     l4655 0289                     l4647 025E  
                   l4639 023B                     l4583 0104                     l4575 00ED  
                   l4567 00D7                     l4559 00C0                     l4495 16CE  
                   l4487 16B7                     l4479 16A0                     l4591 011A  
                   l4399 17C9                     l3937 1474                     l3929 1460  
                   l3945 14D3                     l3857 0C19                     l3865 13EB  
                   l3881 0CB8                     l3873 0C98                     l4841 06BA  
                   l4825 0661                     l4817 0640                     l4809 0622  
                   l4761 0515                     l4753 04DA                     l4745 04AF  
                   l4737 0482                     l4729 0449                     l4681 031E  
                   l4673 02F2                     l4665 02D0                     l4657 0292  
                   l4649 026F                     l4833 068D                     l4585 010A  
                   l4577 00F3                     l4569 00DC                     l4497 16D3  
                   l4489 16BD                     l4593 011E                     l3961 0CEC  
                   l3939 1479                     l3891 1405                     l3859 0C1F  
                   l3867 13F1                     l3883 0CC2                     l3875 0CA2  
                   l4851 06E0                     l4843 06BE                     l4827 067B  
                   l4819 0649                     l4771 053D                     l4763 051F  
                   l4755 04E3                     l4747 04C1                     l4739 048B  
                   l4691 0364                     l4683 0326                     l4675 02FB  
                   l4667 02D8                     l4659 029B                     l4835 06AC  
                   l4595 0125                     l4587 010F                     l4579 00F9  
                   l4499 16DB                     l3971 0CF4                     l3963 0CEE  
                   l3955 0CE3                     l3893 1406                     l3885 0CC8  
                   l3877 0CA8                     l3869 0C8B                     l4861 06F8  
                   l4853 06E4                     l4845 06CB                     l4837 06B2  
                   l4829 0683                     l4781 057F                     l4773 0543  
                   l4765 0525                     l4757 04F4                     l4749 04C7  
                   l4693 0388                     l4685 032F                     l4677 030C  
                   l4669 02E1                     l4597 012D                     l4589 0115  
                   l3981 0D06                     l3973 0CF7                     l3965 0CF1  
                   l3957 0CE7                     l3895 140B                     l3887 0CD2  
                   l3879 0CB2                     l4871 071E                     l4863 06FC  
                   l4855 06E8                     l4847 06CF                     l4839 06B6  
                   l4791 05BB                     l4783 0589                     l4775 054C  
                   l4767 052E                     l4759 050F                     l4695 038E  
                   l4687 0338                     l4679 0315                     l4599 0175  
                   l3991 0D0D                     l3983 0D09                     l3975 0CF8  
                   l3967 0CF2                     l3959 0CE8                     l3897 1410  
                   l3889 0CD8                     l4881 0736                     l4873 0722  
                   l4865 0709                     l4849 06D3                     l4857 06F0  
                   l4793 05C4                     l4785 0592                     l4777 0570  
                   l4769 0534                     l4697 0397                     l3993 0D0E  
                   l3985 0D0A                     l3977 0CFC                     l3969 0CF3  
                   l3899 1415                     l4891 075C                     l4883 073A  
                   l4875 0726                     l4867 070D                     l4859 06F4  
                   l4795 05CE                     l4787 05A3                     l4779 0576  
                   l4699 03A1                     l3995 0D13                     l3987 0D0B  
                   l3979 0D03                     ?_isr 0070                     l4893 0760  
                   l4885 0747                     l4869 0711                     l4877 072E  
                   l4797 05D7                     l4789 05B5                     l3997 0D14  
                   l3989 0D0C                     l4895 0764                     l4887 074B  
                   l4879 0732                     l4983 0695                     l4799 05E8  
                   l3999 0D15                     l4985 0FB2                     l4889 074F  
                   l4987 1486                     STR_1 0AF7                     STR_2 0B79  
                   STR_3 0B99                     STR_4 0B18                     STR_5 0A23  
                   STR_6 0A48                     STR_7 09D8                     STR_8 0869  
                   STR_9 0BE1                     _T0IF 005A                     u2200 0E59  
                   u2201 0E58                     u2210 0E64                     u2211 0E63  
                   u2300 0EC2                     u2220 0E6F                     u2301 0EC1  
                   u2221 0E6E                     u2310 0ECC                     u2230 0E7A  
                   u2311 0ECB                     u2231 0E79                     u2400 0F17  
                   u2320 0ED3                     u2240 0E85                     u2401 0F16  
                   u2321 0ED2                     u2241 0E84                     u2410 0F21  
                   u2330 0EDD                     u2250 0E90                     u2170 0C44  
                   u2411 0F20                     u2331 0EDC                     u2251 0E8F  
                   u2171 0C43                     u2500 0F6C                     u2420 0F28  
                   u2340 0EE4                     u2260 0E9B                     u2180 0E43  
                   u2501 0F6B                     u2421 0F27                     u2341 0EE3  
                   u2261 0E9A                     u2181 0E42                     u2510 0F76  
                   u2430 0F32                     u2350 0EEE                     u2270 0EA6  
                   u2190 0E4E                     u2511 0F75                     u2431 0F31  
                   u2351 0EED                     u2271 0EA5                     u2191 0E4D  
                   u2520 0F7D                     u2440 0F39                     u2360 0EF5  
                   u2280 0EB1                     u5000 1653                     u2521 0F7C  
                   u2441 0F38                     u2361 0EF4                     u2281 0EB0  
                   u5001 1652                     u2530 0F87                     u2450 0F43  
                   u2370 0EFF                     u2290 0EBB                     u5010 1659  
                   u2531 0F86                     u2451 0F42                     u2371 0EFE  
                   u2291 0EBA                     u5011 1658                     u2540 0F8E  
                   u2460 0F4A                     u2380 0F06                     u4300 1401  
                   u5100 16A6                     u5020 1662                     u2541 0F8D  
                   u2461 0F49                     u2381 0F05                     u4301 1400  
                   u5101 16A5                     u5021 1661                     u2550 0F98  
                   u2470 0F54                     u2390 0F10                     u4310 0C91  
                   u5110 16AC                     u5030 1668                     u2551 0F97  
                   u2471 0F53                     u2391 0F0F                     u4311 0C90  
                   u5111 16AB                     u5031 1667                     u2640 0C58  
                   u2560 0F9F                     u2480 0F5B                     u4320 0C98  
                   u5200 0038                     u5120 16B7                     u5040 1673  
                   u4400 0DEE                     u2641 0C57                     u2561 0F9E  
                   u2481 0F5A                     u4321 0C97                     u5201 0037  
                   u5121 16B6                     u5041 1672                     u4401 0DED  
                   u2650 0C60                     u2570 0FA9                     u2490 0F65  
                   u4330 0CA8                     u5210 003E                     u5130 16BD  
                   u5050 1679                     u4410 0DF3                     u2651 0C5F  
                   u2571 0FA8                     u2491 0F64                     u4331 0CA7  
                   u5211 003D                     u5131 16BC                     u5051 1678  
                   u4411 0DF2                     u2660 0C6B                     u4340 0CB8  
                   u5300 008D                     u5220 0049                     u5140 16C8  
                   u5060 1684                     u4500 14FF                     u4420 0E0D  
                   u2661 0C6A                     u4341 0CB7                     u5301 008C  
                   u5221 0048                     u5141 16C7                     u5061 1683  
                   u4501 14FE                     u4421 0E0C                     u2670 0C76  
                   u4350 0CC8                     u5310 0093                     u5230 004F  
                   u5150 16CE                     u5070 168A                     u4510 1504  
                   u4430 0E12                     u2671 0C75                     u4351 0CC7  
                   u5311 0092                     u5231 004E                     u5151 16CD  
                   u5071 1689                     u6007 1780                     u4511 1503  
                   u4431 0E11                     u2680 0C81                     u4360 0CD8  
                   u5400 00E2                     u5320 009E                     u5240 005A  
                   u5160 16DB                     u5080 1695                     u4600 155E  
                   u4520 150A                     u4440 0E18                     u2681 0C80  
                   u4361 0CD7                     u6017 0122                     u5401 00E1  
                   u5321 009D                     u5241 0059                     u5161 16D8  
                   u5081 1694                     u4601 155D                     u4521 1509  
                   u4441 0E17                     u4290 0C1F                     u5410 00E8  
                   u5330 00A4                     u5250 0060                     u5170 16E1  
                   u5090 169B                     u4610 1563                     u4530 150F  
                   u4450 0E1D                     u4370 0DDD                     u4291 0C1E  
                   u5411 00E7                     u5331 00A3                     u5251 005F  
                   u5171 16E0                     u5091 169A                     u4611 1562  
                   u4531 150E                     u4451 0E1C                     u4371 0DDA  
                   u5500 03D3                     u5420 00F3                     u5340 00AF  
                   u5260 006B                     u5180 0027                     u4700 15D3  
                   u4620 157D                     u4540 1529                     u4460 14D5  
                   u4380 0DE3                     u5501 03D2                     u5421 00F2  
                   u5341 00AE                     u5261 006A                     u5181 0026  
                   u4701 15D0                     u4621 157C                     u4541 1528  
                   u4461 0E38                     u4381 0DE2                     u5510 0421  
                   u5430 00F9                     u5350 00B5                     u5270 0071  
                   u5190 002D                     u4710 16E6                     u4630 1582  
                   u4550 152E                     u4470 14DA                     u4390 0DE8  
                   u5511 0420                     u5431 00F8                     u5351 00B4  
                   u5271 0070                     u5191 002C                     u4711 15D9  
                   u4631 1581                     u4551 152D                     u4471 14D9  
                   u4391 0DE7                     u5600 0543                     u5520 0431  
                   u5440 0104                     u5360 00C0                     u5280 007C  
                   u4800 1769                     u4720 16EC                     u4640 1588  
                   u4560 1534                     u4480 14E0                     u5601 0542  
                   u5521 0430                     u5441 0103                     u5361 00BF  
                   u5281 007B                     u4801 1768                     u4721 16EB  
                   u4641 1587                     u4561 1533                     u4481 14DF  
                   u5610 0576                     u5530 0440                     u5450 010A  
                   u5370 00C6                     u5290 0082                     u4810 178F  
                   u4730 16F1                     u4650 158D                     u4570 1539  
                   u4490 14E5                     u5611 0575                     u5531 043F  
                   u5451 0109                     u5371 00C5                     u5291 0081  
                   u4811 178E                     u4731 16F0                     u4651 158C  
                   u4571 1538                     u4491 14E4                     u5700 06CB  
                   u5620 05BB                     u5540 044F                     u5460 0115  
                   u5380 00D1                     u4900 15EF                     u4820 1794  
                   u4740 170A                     u4660 15A7                     u4580 1553  
                   u5701 06CA                     u5621 05BA                     u5541 044E  
                   u5461 0114                     u5381 00D0                     u4901 15EE  
                   u4821 1793                     u4741 1709                     u4661 15A6  
                   u4581 1552                     u5710 06CF                     u5630 0609  
                   u5550 0482                     u5470 012D                     u5390 00D7  
                   u4910 15F7                     u4830 17AC                     u4750 170E  
                   u4670 15AC                     u4590 1558                     u5711 06CE  
                   u5631 0608                     u5551 0481                     u5471 012C  
                   u5391 00D6                     u4911 15F6                     u4831 17AB  
                   u4751 170D                     u4671 15AB                     u4591 1557  
                   u5800 070D                     u5720 06D3                     u5640 0619  
                   u5560 04C7                     u5480 017C                     u4920 15FD  
                   u4840 17B1                     u4760 1713                     u4680 15B2  
                   u5801 070C                     u5721 06D2                     u5641 0618  
                   u5561 04C6                     u5481 017B                     u4921 15FC  
                   u4841 17B0                     u4761 1712                     u4681 15B1  
                   u5810 0711                     u5730 06E0                     u5650 0628  
                   u5570 0515                     u5490 038E                     u4930 1608  
                   u4850 17C9                     u4770 173A                     u4690 15B7  
                   u5811 0710                     u5731 06DF                     u5651 0627  
                   u5571 0514                     u5491 038D                     u4931 1607  
                   u4851 17C8                     u4771 1739                     u4691 15B6  
                   u5900 074F                     u5820 071E                     u5740 06E4  
                   u5660 0637                     u5580 0525                     u4940 160E  
                   u4860 17CE                     u4780 173F                     u5901 074E  
                   u5821 071D                     u5741 06E3                     u5661 0636  
                   u5581 0524                     u4941 160D                     u4861 17CD  
                   u4781 173E                     u5910 075C                     u5830 0722  
                   u5750 06E8                     u5670 06B6                     u5590 0534  
                   u4950 1619                     u4870 17E6                     u4790 1764  
                   u5911 075B                     u5831 0721                     u5751 06E7  
                   u5671 06B5                     u5591 0533                     u4951 1618  
                   u4871 17E5                     u4791 1763                     u5920 0760  
                   u5840 0726                     u5760 06F4                     u5680 06BA  
                   u4960 161F                     u4880 15DC                     u5921 075F  
                   u5841 0725                     u5761 06F3                     u5681 06B9  
                   u4961 161E                     u4881 17FD                     u5930 0764  
                   u5850 0732                     u5770 06F8                     u5690 06BE  
                   u4970 162A                     u4890 15E5                     u5931 0763  
                   u5851 0731                     u5771 06F7                     u5691 06BD  
                   u4971 1629                     u4891 15E4                     u5860 0736  
                   u5780 06FC                     u4980 163F                     u5861 0735  
                   u5781 06FB                     u4981 163C                     u5870 073A  
                   u5790 0709                     u4990 1649                     u5871 0739  
                   u5791 0708                     u4991 1648                     u5880 0747  
                   u5881 0746                     u5890 074B                     u5891 074A  
                   u5947 0D00                     u5957 171C                     u5967 172C  
                   u5977 1746                     u5987 1756                     u5997 1770  
                   _TMR0 0001                     _main 0CE3                     _hora 007A  
                   _mins 003F                     btemp 007E                     start 000C  
          ?_ReadToEEPROM 0070   __size_of_WriteToEEPROM 002D                    ??_isr 0070  
                  ?_main 0070                    _EEADR 010D                    STR_10 0BF6  
                  _EEDAT 010C                    STR_11 0BFE                    STR_12 0B39  
                  STR_20 0AD5                    STR_21 0BE1                    STR_13 0BE1  
                  STR_30 0BF6                    STR_22 0BF6                    STR_14 0BF6  
                  STR_31 0BFE                    STR_23 0BFE                    STR_15 0BFE  
                  STR_32 0AD5                    STR_24 0B39                    STR_40 0B59  
                  STR_16 0B59                    STR_41 0BE1                    STR_33 0BE1  
                  STR_25 0BE1                    STR_17 0BE1                    STR_50 0A1F  
                  STR_42 0BF6                    STR_34 0BF6                    STR_26 0BF6  
                  STR_18 0BF6                    STR_43 0BFE                    STR_35 0BFE  
                  STR_27 0BFE                    STR_19 0BFE                    STR_51 092F  
                  STR_44 0AD5                    STR_36 0B39                    STR_28 0B59  
                  STR_60 08FE                    STR_52 09FE                    STR_61 08CD  
                  STR_37 0BE1                    STR_29 0BE1                    STR_53 0C05  
                  STR_45 09B0                    STR_62 0A1F                    STR_70 0BB8  
                  STR_54 0C05                    STR_38 0BF6                    STR_46 0800  
                  STR_63 0A1F                    STR_71 0988                    STR_39 0BFE  
                  STR_55 095C                    STR_47 08FE                    STR_80 0A1F  
                  STR_64 092F                    STR_48 08CD                    STR_56 089C  
                  STR_72 0835                    STR_49 0A1F                    STR_65 09FE  
                  STR_73 08FE                    STR_81 095C                    STR_57 0BB8  
                  STR_66 0A1F                    STR_82 089C                    STR_74 08CD  
                  STR_90 0C09                    STR_58 0988                    STR_75 0A1F  
                  STR_67 0A1F                    STR_83 0BB8                    STR_59 0800  
                  STR_91 0C0B                    STR_76 0A1F                    STR_68 095C  
                  STR_92 0C08                    STR_84 0A6C                    STR_77 092F  
                  STR_69 089C                    STR_93 0C0E                    STR_85 0BEC  
                  STR_78 09FE                    STR_94 0C11                    STR_86 0A8F  
                  STR_79 0A1F                    STR_87 0BEC                    STR_88 0AB2  
                  STR_89 0BD3                    _ANSEL 0188                    i1l260 07E4  
                  i1l258 07B1                    _RCREG 001A                    _TMR1H 000F  
                  _TMR1L 000E                    _SPBRG 0099                    _PORTA 0005  
                  _PORTB 0006                    _PORTC 0007                    _PORTD 0008  
                  _PORTE 0009                    _TRISA 0085                    _TRISB 0086  
                  _TRISD 0088                    _TRISE 0089                    _TXREG 0019  
                  _conth 0040                    _contm 0041                    _horas 003E  
                  _valor 005B         __end_of_USART_Rx 0C18         __end_of_USART_Tx 0C24  
           USART_Tx@data 0073                    pclath 000A                    status 0003  
                  wtemp0 007E           ??_ReadToEEPROM 0073          __initialization 000F  
           __end_of_main 0773                   ??_main 005D              ?_CharToNumH 0073  
            ?_CharToNumM 0073            _WriteToEEPROM 0C24                   _ADRESH 001E  
                 _EECON2 018D                   _ANSELH 0189                   i1l2811 0773  
                 i1l2821 07AD                   i1l2813 0779                   i1l2831 07DC  
                 i1l2823 07AE                   i1l2815 0787                   i1l2833 07DD  
                 i1l2825 07AF                   i1l2817 07AB                   i1l2835 07E0  
                 i1l2827 07B7                   i1l2819 07AC                   i1l2837 07E3  
                 i1l2829 07DB                   u270_20 0787                   u270_21 0786  
                 u271_20 07B7                   u271_21 07B6                   u269_20 0779  
                 u269_21 0778                   _TMR1IE 0460                   _TMR1IF 0060  
                 _SPBRGH 009A       __size_of_SendCharH 01C5       __size_of_SendCharM 005B  
                 _escala 0078                   _minuto 0079                   _prueba 0028  
            SendCharH@in 0075              SendCharM@in 005C                   saved_w 007E  
         ?_WriteToEEPROM 0073         ReadToEEPROM@addr 0074         ReadToEEPROM@dato 0075  
__end_of__initialization 001D           __pcstackCOMMON 0070      __size_of_CharToNumH 00D3  
    __size_of_CharToNumM 0037                ?_USART_Rx 0070                ?_USART_Tx 0070  
         _OPTION_REGbits 0081     __end_of_ReadToEEPROM 13DC        __end_of_SendCharH 1000  
      __end_of_SendCharM 0CE3               __pbssBANK0 0020               _me_1_us1_h 0053  
             _me_1_us2_h 0050               _me_1_us1_m 004A               _me_1_us3_h 004D  
             _me_1_us2_m 0047               _me_1_us3_m 0044               _me_2_us1_h 0052  
             _me_2_us2_h 004F               _me_2_us1_m 0049               _me_2_us3_h 004C  
             _me_2_us2_m 0046               _me_2_us3_m 0043               _me_3_us1_h 0051  
             _me_3_us2_h 004E               _me_3_us1_m 0048               _me_3_us3_h 004B  
             _me_3_us2_m 0045               _me_3_us3_m 0042               __pmaintext 0CE3  
             __pintentry 0004               ??_USART_Rx 0073               ??_USART_Tx 0073  
                _RB0_old 0027          ??_WriteToEEPROM 0074                  _RB1_old 0026  
                _RB2_old 0025                  _RB5_old 0024                  _RB6_old 0023  
                _RB7_old 0022               __stringtab 07EB               _hora_nueva 0077  
             _hora_user1 0056               _hora_user2 0055               _hora_user3 0054  
                _activa1 003D                  _activa2 003C                  _activa3 003B  
                __ptext1 0C24                  __ptext2 0C14                  __ptext3 0C88  
                __ptext4 13DC                  __ptext5 0C18                  __ptext6 0E3B  
                __ptext7 13CB                  __ptext8 0C51                  __ptext9 1402  
              _T1CONbits 0010             __size_of_isr 0078                  _ventana 005A  
           ??_CharToNumH 0074             ??_CharToNumM 0074                  clrloop0 13C4  
    CharToNumH@hora_user 0073     end_of_initialization 001D             CharToNumH@in 005C  
           CharToNumM@in 0075                _RCSTAbits 0018                  psplit$0 A0017  
                psplit$1 170018                  psplit$2 180019                  psplit$3 19001A  
           __pstringtext 0800       __end_of_CharToNumH 14D5       __end_of_CharToNumM 0C88  
  __size_of_ReadToEEPROM 0011     pnum$maintext_split_1 0017     pnum$maintext_split_2 0018  
   pnum$maintext_split_3 0019     pnum$maintext_split_4 001A            ?_USART_Cadena 0074  
              _TXSTAbits 0098             _ReadToEEPROM 13CB             _medicamento1 0076  
           _medicamento2 0021             _medicamento3 0020              _BAUDCTLbits 0187  
      __size_of_USART_Rx 0004        __size_of_USART_Tx 000C      start_initialization 000F  
            __end_of_isr 07EB           ??_USART_Cadena 0076                _SendCharH 0E3B  
              _SendCharM 0C88              __pbssCOMMON 0076                ___latbits 0002  
          __pcstackBANK0 005C              _me_1_us1_th 003A              _me_1_us1_tm 0031  
            _me_1_us2_th 0037              _me_1_us2_tm 002E              _me_1_us3_th 0034  
            _me_1_us3_tm 002B              _me_2_us1_th 0039              _me_2_us1_tm 0030  
            _me_2_us2_th 0036              _me_2_us2_tm 002D              _me_2_us3_th 0033  
            _me_2_us3_tm 002A              _me_3_us1_th 0038              _me_3_us1_tm 002F  
            _me_3_us2_th 0035              _me_3_us2_tm 002C              _me_3_us3_th 0032  
            _me_3_us3_tm 0029               ?_SendCharH 0070               ?_SendCharM 0070  
              __pstrings 07EB    __end_of_WriteToEEPROM 0C51                _min_user1 0059  
              _min_user2 0058                _min_user3 0057        interrupt_function 0004  
              clear_ram0 13C3                 _PIE1bits 008C                 _PIR1bits 000C  
               _PIR2bits 000D          USART_Cadena@str 0074     __end_of_USART_Cadena 1402  
               _USART_Rx 0C14                 _USART_Tx 0C18               _ADCON0bits 001F  
            __stringbase 07FD               _ADCON1bits 009F                 _WPUBbits 0095  
            ??_SendCharH 0073              ??_SendCharM 0076               _EECON1bits 018C  
           pnum$maintext 000A       __end_of__stringtab 07FD                 __ptext10 0773  
          __size_of_main FA90        WriteToEEPROM@addr 0073        WriteToEEPROM@dato 0074  
             _INTCONbits 000B            CharToNumM@her 0073                 intlevel1 0000  
              stringcode 07F5    __size_of_USART_Cadena 0026               _OSCCONbits 008F  
               stringtab 07EB             _USART_Cadena 13DC  
