

Microchip MPLAB XC8 Assembler V2.31 build 20201012212115 
                                                                                               Thu May 27 10:12:54 2021

Microchip MPLAB XC8 C Compiler v2.31 (Free license) build 20201012212115 Og1 
     1                           	processor	16F887
     2                           	pagewidth 120
     3                           	opt	flic
     4                           	psect	strings,global,class=STRING,delta=2,noexec
     5                           	psect	stringtext,global,reloc=256,class=STRCODE,delta=2,noexec
     6                           	psect	cinit,global,class=CODE,merge=1,delta=2
     7                           	psect	bssCOMMON,global,class=COMMON,space=1,delta=1,noexec
     8                           	psect	bssBANK0,global,class=BANK0,space=1,delta=1,noexec
     9                           	psect	cstackCOMMON,global,class=COMMON,space=1,delta=1,noexec
    10                           	psect	cstackBANK0,global,class=BANK0,space=1,delta=1,noexec
    11                           	psect	maintext,global,class=CODE,split=1,delta=2
    12                           	psect	text1,local,class=CODE,merge=1,delta=2
    13                           	psect	text2,local,class=CODE,merge=1,delta=2
    14                           	psect	text3,local,class=CODE,merge=1,delta=2
    15                           	psect	text4,local,class=CODE,merge=1,delta=2
    16                           	psect	intentry,global,class=CODE,delta=2
    17                           	psect	config,global,abs,ovrld,class=CONFIG,space=4,delta=2,noexec
    18                           	psect	maintext_split_1,global,class=CODE,split=1,delta=2
    19                           	psect	maintext_split_2,global,class=CODE,split=1,delta=2
    20                           	psect	maintext_split_3,global,class=CODE,split=1,delta=2
    21                           	psect	maintext_split_4,global,class=CODE,split=1,delta=2
    22                           	psect	maintext_split_5,global,class=CODE,split=1,delta=2
    23                           	psect	maintext_split_6,global,class=CODE,split=1,delta=2
    24                           	psect	maintext_split_7,global,class=CODE,split=1,delta=2
    25                           	psect	maintext_split_8,global,class=CODE,split=1,delta=2
    26                           	dabs	1,0x7E,2
    27  0000                     
    28                           ; Version 2.20
    29                           ; Generated 12/02/2020 GMT
    30                           ; 
    31                           ; Copyright © 2020, Microchip Technology Inc. and its subsidiaries ("Microchip")
    32                           ; All rights reserved.
    33                           ; 
    34                           ; This software is developed by Microchip Technology Inc. and its subsidiaries ("Microch
      +                          ip").
    35                           ; 
    36                           ; Redistribution and use in source and binary forms, with or without modification, are
    37                           ; permitted provided that the following conditions are met:
    38                           ; 
    39                           ;     1. Redistributions of source code must retain the above copyright notice, this lis
      +                          t of
    40                           ;        conditions and the following disclaimer.
    41                           ; 
    42                           ;     2. Redistributions in binary form must reproduce the above copyright notice, this 
      +                          list
    43                           ;        of conditions and the following disclaimer in the documentation and/or other
    44                           ;        materials provided with the distribution.
    45                           ; 
    46                           ;     3. Microchip's name may not be used to endorse or promote products derived from th
      +                          is
    47                           ;        software without specific prior written permission.
    48                           ; 
    49                           ; THIS SOFTWARE IS PROVIDED BY MICROCHIP "AS IS" AND ANY EXPRESS OR IMPLIED WARRANTIES,
    50                           ; INCLUDING, BUT NOT LIMITED TO, THE IMPLIED WARRANTIES OF MERCHANTABILITY AND FITNESS F
      +                          OR
    51                           ; PURPOSE ARE DISCLAIMED.  IN NO EVENT SHALL MICROCHIP BE LIABLE FOR ANY DIRECT, INDIREC
      +                          T,
    52                           ; INCIDENTAL, SPECIAL, EXEMPLARY, OR CONSEQUENTIAL DAMAGES (INCLUDING BUT NOT LIMITED TO
    53                           ; PROCUREMENT OF SUBSTITUTE GOODS OR SERVICES; LOSS OF USE, DATA OR PROFITS; OR BUSINESS
    54                           ; INTERRUPTION) HOWSOEVER CAUSED AND ON ANY THEORY OF LIABILITY, WHETHER IN CONTRACT, ST
      +                          RICT
    55                           ; LIABILITY, OR TORT (INCLUDING NEGLIGENCE OR OTHERWISE) ARISING IN ANY WAY OUT OF THE U
      +                          SE OF
    56                           ; THIS SOFTWARE, EVEN IF ADVISED OF THE POSSIBILITY OF SUCH DAMAGE.
    57                           ; 
    58                           ; 
    59                           ; Code-generator required, PIC16F887 Definitions
    60                           ; 
    61                           ; SFR Addresses
    62  0000                     	;# 
    63  0001                     	;# 
    64  0002                     	;# 
    65  0003                     	;# 
    66  0004                     	;# 
    67  0005                     	;# 
    68  0006                     	;# 
    69  0007                     	;# 
    70  0008                     	;# 
    71  0009                     	;# 
    72  000A                     	;# 
    73  000B                     	;# 
    74  000C                     	;# 
    75  000D                     	;# 
    76  000E                     	;# 
    77  000E                     	;# 
    78  000F                     	;# 
    79  0010                     	;# 
    80  0011                     	;# 
    81  0012                     	;# 
    82  0013                     	;# 
    83  0014                     	;# 
    84  0015                     	;# 
    85  0015                     	;# 
    86  0016                     	;# 
    87  0017                     	;# 
    88  0018                     	;# 
    89  0019                     	;# 
    90  001A                     	;# 
    91  001B                     	;# 
    92  001B                     	;# 
    93  001C                     	;# 
    94  001D                     	;# 
    95  001E                     	;# 
    96  001F                     	;# 
    97  0081                     	;# 
    98  0085                     	;# 
    99  0086                     	;# 
   100  0087                     	;# 
   101  0088                     	;# 
   102  0089                     	;# 
   103  008C                     	;# 
   104  008D                     	;# 
   105  008E                     	;# 
   106  008F                     	;# 
   107  0090                     	;# 
   108  0091                     	;# 
   109  0092                     	;# 
   110  0093                     	;# 
   111  0093                     	;# 
   112  0093                     	;# 
   113  0094                     	;# 
   114  0095                     	;# 
   115  0096                     	;# 
   116  0097                     	;# 
   117  0098                     	;# 
   118  0099                     	;# 
   119  009A                     	;# 
   120  009B                     	;# 
   121  009C                     	;# 
   122  009D                     	;# 
   123  009E                     	;# 
   124  009F                     	;# 
   125  0105                     	;# 
   126  0107                     	;# 
   127  0108                     	;# 
   128  0109                     	;# 
   129  010C                     	;# 
   130  010C                     	;# 
   131  010D                     	;# 
   132  010E                     	;# 
   133  010F                     	;# 
   134  0185                     	;# 
   135  0187                     	;# 
   136  0188                     	;# 
   137  0189                     	;# 
   138  018C                     	;# 
   139  018D                     	;# 
   140  0000                     	;# 
   141  0001                     	;# 
   142  0002                     	;# 
   143  0003                     	;# 
   144  0004                     	;# 
   145  0005                     	;# 
   146  0006                     	;# 
   147  0007                     	;# 
   148  0008                     	;# 
   149  0009                     	;# 
   150  000A                     	;# 
   151  000B                     	;# 
   152  000C                     	;# 
   153  000D                     	;# 
   154  000E                     	;# 
   155  000E                     	;# 
   156  000F                     	;# 
   157  0010                     	;# 
   158  0011                     	;# 
   159  0012                     	;# 
   160  0013                     	;# 
   161  0014                     	;# 
   162  0015                     	;# 
   163  0015                     	;# 
   164  0016                     	;# 
   165  0017                     	;# 
   166  0018                     	;# 
   167  0019                     	;# 
   168  001A                     	;# 
   169  001B                     	;# 
   170  001B                     	;# 
   171  001C                     	;# 
   172  001D                     	;# 
   173  001E                     	;# 
   174  001F                     	;# 
   175  0081                     	;# 
   176  0085                     	;# 
   177  0086                     	;# 
   178  0087                     	;# 
   179  0088                     	;# 
   180  0089                     	;# 
   181  008C                     	;# 
   182  008D                     	;# 
   183  008E                     	;# 
   184  008F                     	;# 
   185  0090                     	;# 
   186  0091                     	;# 
   187  0092                     	;# 
   188  0093                     	;# 
   189  0093                     	;# 
   190  0093                     	;# 
   191  0094                     	;# 
   192  0095                     	;# 
   193  0096                     	;# 
   194  0097                     	;# 
   195  0098                     	;# 
   196  0099                     	;# 
   197  009A                     	;# 
   198  009B                     	;# 
   199  009C                     	;# 
   200  009D                     	;# 
   201  009E                     	;# 
   202  009F                     	;# 
   203  0105                     	;# 
   204  0107                     	;# 
   205  0108                     	;# 
   206  0109                     	;# 
   207  010C                     	;# 
   208  010C                     	;# 
   209  010D                     	;# 
   210  010E                     	;# 
   211  010F                     	;# 
   212  0185                     	;# 
   213  0187                     	;# 
   214  0188                     	;# 
   215  0189                     	;# 
   216  018C                     	;# 
   217  018D                     	;# 
   218  001A                     _RCREG	set	26
   219  0019                     _TXREG	set	25
   220  000C                     _PIR1bits	set	12
   221  001E                     _ADRESH	set	30
   222  0009                     _PORTE	set	9
   223  0008                     _PORTD	set	8
   224  0007                     _PORTC	set	7
   225  0006                     _PORTB	set	6
   226  0005                     _PORTA	set	5
   227  000B                     _INTCONbits	set	11
   228  0018                     _RCSTAbits	set	24
   229  0001                     _TMR0	set	1
   230  001F                     _ADCON0bits	set	31
   231  0035                     _RB5	set	53
   232  0036                     _RB6	set	54
   233  0037                     _RB7	set	55
   234  0042                     _RD2	set	66
   235  0032                     _RB2	set	50
   236  0041                     _RD1	set	65
   237  0031                     _RB1	set	49
   238  0040                     _RD0	set	64
   239  0030                     _RB0	set	48
   240  005A                     _T0IF	set	90
   241  009A                     _SPBRGH	set	154
   242  0099                     _SPBRG	set	153
   243  0098                     _TXSTAbits	set	152
   244  008F                     _OSCCONbits	set	143
   245  0095                     _WPUBbits	set	149
   246  0081                     _OPTION_REGbits	set	129
   247  009F                     _ADCON1bits	set	159
   248  0089                     _TRISE	set	137
   249  0088                     _TRISD	set	136
   250  0086                     _TRISB	set	134
   251  0085                     _TRISA	set	133
   252  0187                     _BAUDCTLbits	set	391
   253  0189                     _ANSELH	set	393
   254  0188                     _ANSEL	set	392
   255                           
   256                           	psect	strings
   257  07CB                     __pstrings:
   258  07CB                     stringtab:
   259  07CB                     __stringtab:
   260                           
   261                           ;	String table - string pointers are 2 bytes each
   262  07CB  1BFF               	btfsc	btemp+1,7
   263  07CC  2FD5               	ljmp	stringcode
   264  07CD  1383               	bcf	3,7
   265  07CE  187F               	btfsc	btemp+1,0
   266  07CF  1783               	bsf	3,7
   267  07D0  0800               	movf	0,w
   268  07D1  0A84               	incf	4,f
   269  07D2  1903               	skipnz
   270  07D3  0AFF               	incf	btemp+1,f
   271  07D4  0008               	return
   272  07D5                     stringcode:
   273  07D5  087F               	movf	btemp+1,w
   274  07D6  397F               	andlw	127
   275  07D7  008A               	movwf	10
   276  07D8  0804               	movf	4,w
   277  07D9  0A84               	incf	4,f
   278  07DA  1903               	skipnz
   279  07DB  0AFF               	incf	btemp+1,f
   280  07DC  0082               	movwf	2
   281  07DD                     __stringbase:
   282  07DD                     __end_of__stringtab:
   283                           
   284                           	psect	stringtext
   285  0800                     __pstringtext:
   286  0800                     STR_36:
   287  0800  3420               	retlw	32	;' '
   288  0801  3461               	retlw	97	;'a'
   289  0802  342E               	retlw	46	;'.'
   290  0803  3430               	retlw	48	;'0'
   291  0804  3420               	retlw	32	;' '
   292  0805  3420               	retlw	32	;' '
   293  0806  3462               	retlw	98	;'b'
   294  0807  342E               	retlw	46	;'.'
   295  0808  3431               	retlw	49	;'1'
   296  0809  3420               	retlw	32	;' '
   297  080A  3420               	retlw	32	;' '
   298  080B  3420               	retlw	32	;' '
   299  080C  3463               	retlw	99	;'c'
   300  080D  342E               	retlw	46	;'.'
   301  080E  3432               	retlw	50	;'2'
   302  080F  3420               	retlw	32	;' '
   303  0810  3420               	retlw	32	;' '
   304  0811  3420               	retlw	32	;' '
   305  0812  3464               	retlw	100	;'d'
   306  0813  342E               	retlw	46	;'.'
   307  0814  3433               	retlw	51	;'3'
   308  0815  3420               	retlw	32	;' '
   309  0816  3420               	retlw	32	;' '
   310  0817  3420               	retlw	32	;' '
   311  0818  3465               	retlw	101	;'e'
   312  0819  342E               	retlw	46	;'.'
   313  081A  3434               	retlw	52	;'4'
   314  081B  3420               	retlw	32	;' '
   315  081C  3420               	retlw	32	;' '
   316  081D  3420               	retlw	32	;' '
   317  081E  3466               	retlw	102	;'f'
   318  081F  342E               	retlw	46	;'.'
   319  0820  3435               	retlw	53	;'5'
   320  0821  3420               	retlw	32	;' '
   321  0822  3420               	retlw	32	;' '
   322  0823  3420               	retlw	32	;' '
   323  0824  3467               	retlw	103	;'g'
   324  0825  342E               	retlw	46	;'.'
   325  0826  3436               	retlw	54	;'6'
   326  0827  3420               	retlw	32	;' '
   327  0828  3420               	retlw	32	;' '
   328  0829  3420               	retlw	32	;' '
   329  082A  3468               	retlw	104	;'h'
   330  082B  342E               	retlw	46	;'.'
   331  082C  3437               	retlw	55	;'7'
   332  082D  3420               	retlw	32	;' '
   333  082E  3420               	retlw	32	;' '
   334  082F  3469               	retlw	105	;'i'
   335  0830  342E               	retlw	46	;'.'
   336  0831  3438               	retlw	56	;'8'
   337  0832  340D               	retlw	13
   338  0833  3400               	retlw	0
   339  0834                     STR_46:
   340  0834  3420               	retlw	32	;' '
   341  0835  3470               	retlw	112	;'p'
   342  0836  3472               	retlw	114	;'r'
   343  0837  3465               	retlw	101	;'e'
   344  0838  3473               	retlw	115	;'s'
   345  0839  3469               	retlw	105	;'i'
   346  083A  346F               	retlw	111	;'o'
   347  083B  346E               	retlw	110	;'n'
   348  083C  3465               	retlw	101	;'e'
   349  083D  3420               	retlw	32	;' '
   350  083E  3465               	retlw	101	;'e'
   351  083F  346C               	retlw	108	;'l'
   352  0840  3420               	retlw	32	;' '
   353  0841  346E               	retlw	110	;'n'
   354  0842  34C3               	retlw	-61
   355  0843  34BA               	retlw	-70
   356  0844  346D               	retlw	109	;'m'
   357  0845  3465               	retlw	101	;'e'
   358  0846  3472               	retlw	114	;'r'
   359  0847  346F               	retlw	111	;'o'
   360  0848  3420               	retlw	32	;' '
   361  0849  3464               	retlw	100	;'d'
   362  084A  3465               	retlw	101	;'e'
   363  084B  3420               	retlw	32	;' '
   364  084C  346D               	retlw	109	;'m'
   365  084D  3465               	retlw	101	;'e'
   366  084E  3464               	retlw	100	;'d'
   367  084F  3469               	retlw	105	;'i'
   368  0850  3463               	retlw	99	;'c'
   369  0851  3461               	retlw	97	;'a'
   370  0852  346D               	retlw	109	;'m'
   371  0853  3465               	retlw	101	;'e'
   372  0854  346E               	retlw	110	;'n'
   373  0855  3474               	retlw	116	;'t'
   374  0856  346F               	retlw	111	;'o'
   375  0857  3420               	retlw	32	;' '
   376  0858  3461               	retlw	97	;'a'
   377  0859  3420               	retlw	32	;' '
   378  085A  3467               	retlw	103	;'g'
   379  085B  3475               	retlw	117	;'u'
   380  085C  3461               	retlw	97	;'a'
   381  085D  3472               	retlw	114	;'r'
   382  085E  3464               	retlw	100	;'d'
   383  085F  3461               	retlw	97	;'a'
   384  0860  3472               	retlw	114	;'r'
   385  0861  3420               	retlw	32	;' '
   386  0862  340D               	retlw	13
   387  0863  3400               	retlw	0
   388  0864                     STR_38:
   389  0864  3472               	retlw	114	;'r'
   390  0865  342E               	retlw	46	;'.'
   391  0866  3431               	retlw	49	;'1'
   392  0867  3437               	retlw	55	;'7'
   393  0868  3420               	retlw	32	;' '
   394  0869  3420               	retlw	32	;' '
   395  086A  3473               	retlw	115	;'s'
   396  086B  342E               	retlw	46	;'.'
   397  086C  3431               	retlw	49	;'1'
   398  086D  3438               	retlw	56	;'8'
   399  086E  3420               	retlw	32	;' '
   400  086F  3420               	retlw	32	;' '
   401  0870  3474               	retlw	116	;'t'
   402  0871  342E               	retlw	46	;'.'
   403  0872  3431               	retlw	49	;'1'
   404  0873  3439               	retlw	57	;'9'
   405  0874  3420               	retlw	32	;' '
   406  0875  3420               	retlw	32	;' '
   407  0876  3475               	retlw	117	;'u'
   408  0877  342E               	retlw	46	;'.'
   409  0878  3432               	retlw	50	;'2'
   410  0879  3430               	retlw	48	;'0'
   411  087A  3420               	retlw	32	;' '
   412  087B  3420               	retlw	32	;' '
   413  087C  3476               	retlw	118	;'v'
   414  087D  342E               	retlw	46	;'.'
   415  087E  3432               	retlw	50	;'2'
   416  087F  3431               	retlw	49	;'1'
   417  0880  3420               	retlw	32	;' '
   418  0881  3420               	retlw	32	;' '
   419  0882  3477               	retlw	119	;'w'
   420  0883  342E               	retlw	46	;'.'
   421  0884  3432               	retlw	50	;'2'
   422  0885  3432               	retlw	50	;'2'
   423  0886  3420               	retlw	32	;' '
   424  0887  3420               	retlw	32	;' '
   425  0888  3478               	retlw	120	;'x'
   426  0889  342E               	retlw	46	;'.'
   427  088A  3432               	retlw	50	;'2'
   428  088B  3433               	retlw	51	;'3'
   429  088C  3420               	retlw	32	;' '
   430  088D  3420               	retlw	32	;' '
   431  088E  3479               	retlw	121	;'y'
   432  088F  342E               	retlw	46	;'.'
   433  0890  3432               	retlw	50	;'2'
   434  0891  3434               	retlw	52	;'4'
   435  0892  340D               	retlw	13
   436  0893  3400               	retlw	0
   437  0894                     STR_37:
   438  0894  3420               	retlw	32	;' '
   439  0895  346A               	retlw	106	;'j'
   440  0896  342E               	retlw	46	;'.'
   441  0897  3439               	retlw	57	;'9'
   442  0898  3420               	retlw	32	;' '
   443  0899  3420               	retlw	32	;' '
   444  089A  346B               	retlw	107	;'k'
   445  089B  342E               	retlw	46	;'.'
   446  089C  3431               	retlw	49	;'1'
   447  089D  3430               	retlw	48	;'0'
   448  089E  3420               	retlw	32	;' '
   449  089F  3420               	retlw	32	;' '
   450  08A0  346C               	retlw	108	;'l'
   451  08A1  342E               	retlw	46	;'.'
   452  08A2  3431               	retlw	49	;'1'
   453  08A3  3431               	retlw	49	;'1'
   454  08A4  3420               	retlw	32	;' '
   455  08A5  3420               	retlw	32	;' '
   456  08A6  346D               	retlw	109	;'m'
   457  08A7  342E               	retlw	46	;'.'
   458  08A8  3431               	retlw	49	;'1'
   459  08A9  3432               	retlw	50	;'2'
   460  08AA  3420               	retlw	32	;' '
   461  08AB  3420               	retlw	32	;' '
   462  08AC  346E               	retlw	110	;'n'
   463  08AD  342E               	retlw	46	;'.'
   464  08AE  3431               	retlw	49	;'1'
   465  08AF  3433               	retlw	51	;'3'
   466  08B0  3420               	retlw	32	;' '
   467  08B1  3420               	retlw	32	;' '
   468  08B2  346F               	retlw	111	;'o'
   469  08B3  342E               	retlw	46	;'.'
   470  08B4  3431               	retlw	49	;'1'
   471  08B5  3434               	retlw	52	;'4'
   472  08B6  3420               	retlw	32	;' '
   473  08B7  3420               	retlw	32	;' '
   474  08B8  3470               	retlw	112	;'p'
   475  08B9  342E               	retlw	46	;'.'
   476  08BA  3431               	retlw	49	;'1'
   477  08BB  3435               	retlw	53	;'5'
   478  08BC  3420               	retlw	32	;' '
   479  08BD  3420               	retlw	32	;' '
   480  08BE  3471               	retlw	113	;'q'
   481  08BF  342E               	retlw	46	;'.'
   482  08C0  3431               	retlw	49	;'1'
   483  08C1  3436               	retlw	54	;'6'
   484  08C2  340D               	retlw	13
   485  08C3  3400               	retlw	0
   486  08C4                     STR_41:
   487  08C4  3420               	retlw	32	;' '
   488  08C5  3449               	retlw	73	;'I'
   489  08C6  346E               	retlw	110	;'n'
   490  08C7  3467               	retlw	103	;'g'
   491  08C8  3472               	retlw	114	;'r'
   492  08C9  3465               	retlw	101	;'e'
   493  08CA  3473               	retlw	115	;'s'
   494  08CB  34C3               	retlw	-61
   495  08CC  34A1               	retlw	-95
   496  08CD  3420               	retlw	32	;' '
   497  08CE  346C               	retlw	108	;'l'
   498  08CF  3461               	retlw	97	;'a'
   499  08D0  3420               	retlw	32	;' '
   500  08D1  346C               	retlw	108	;'l'
   501  08D2  3465               	retlw	101	;'e'
   502  08D3  3474               	retlw	116	;'t'
   503  08D4  3472               	retlw	114	;'r'
   504  08D5  3461               	retlw	97	;'a'
   505  08D6  3420               	retlw	32	;' '
   506  08D7  3464               	retlw	100	;'d'
   507  08D8  3465               	retlw	101	;'e'
   508  08D9  3420               	retlw	32	;' '
   509  08DA  346C               	retlw	108	;'l'
   510  08DB  346F               	retlw	111	;'o'
   511  08DC  3473               	retlw	115	;'s'
   512  08DD  3420               	retlw	32	;' '
   513  08DE  346D               	retlw	109	;'m'
   514  08DF  3469               	retlw	105	;'i'
   515  08E0  346E               	retlw	110	;'n'
   516  08E1  3475               	retlw	117	;'u'
   517  08E2  3474               	retlw	116	;'t'
   518  08E3  346F               	retlw	111	;'o'
   519  08E4  3473               	retlw	115	;'s'
   520  08E5  3420               	retlw	32	;' '
   521  08E6  346E               	retlw	110	;'n'
   522  08E7  3475               	retlw	117	;'u'
   523  08E8  3465               	retlw	101	;'e'
   524  08E9  3476               	retlw	118	;'v'
   525  08EA  346F               	retlw	111	;'o'
   526  08EB  3473               	retlw	115	;'s'
   527  08EC  3420               	retlw	32	;' '
   528  08ED  3420               	retlw	32	;' '
   529  08EE  340D               	retlw	13
   530  08EF  3400               	retlw	0
   531  08F0                     STR_45:
   532  08F0  3420               	retlw	32	;' '
   533  08F1  3441               	retlw	65	;'A'
   534  08F2  3463               	retlw	99	;'c'
   535  08F3  3474               	retlw	116	;'t'
   536  08F4  3475               	retlw	117	;'u'
   537  08F5  3461               	retlw	97	;'a'
   538  08F6  346C               	retlw	108	;'l'
   539  08F7  346D               	retlw	109	;'m'
   540  08F8  3465               	retlw	101	;'e'
   541  08F9  346E               	retlw	110	;'n'
   542  08FA  3474               	retlw	116	;'t'
   543  08FB  3465               	retlw	101	;'e'
   544  08FC  3420               	retlw	32	;' '
   545  08FD  3473               	retlw	115	;'s'
   546  08FE  3465               	retlw	101	;'e'
   547  08FF  3420               	retlw	32	;' '
   548  0900  3463               	retlw	99	;'c'
   549  0901  3475               	retlw	117	;'u'
   550  0902  3465               	retlw	101	;'e'
   551  0903  346E               	retlw	110	;'n'
   552  0904  3474               	retlw	116	;'t'
   553  0905  3461               	retlw	97	;'a'
   554  0906  3420               	retlw	32	;' '
   555  0907  3463               	retlw	99	;'c'
   556  0908  346F               	retlw	111	;'o'
   557  0909  346E               	retlw	110	;'n'
   558  090A  3420               	retlw	32	;' '
   559  090B  3433               	retlw	51	;'3'
   560  090C  3420               	retlw	32	;' '
   561  090D  346D               	retlw	109	;'m'
   562  090E  3465               	retlw	101	;'e'
   563  090F  3464               	retlw	100	;'d'
   564  0910  3469               	retlw	105	;'i'
   565  0911  3463               	retlw	99	;'c'
   566  0912  3461               	retlw	97	;'a'
   567  0913  346D               	retlw	109	;'m'
   568  0914  3465               	retlw	101	;'e'
   569  0915  346E               	retlw	110	;'n'
   570  0916  3474               	retlw	116	;'t'
   571  0917  346F               	retlw	111	;'o'
   572  0918  3473               	retlw	115	;'s'
   573  0919  340D               	retlw	13
   574  091A  3400               	retlw	0
   575  091B                     STR_35:
   576  091B  3420               	retlw	32	;' '
   577  091C  3449               	retlw	73	;'I'
   578  091D  346E               	retlw	110	;'n'
   579  091E  3467               	retlw	103	;'g'
   580  091F  3472               	retlw	114	;'r'
   581  0920  3465               	retlw	101	;'e'
   582  0921  3473               	retlw	115	;'s'
   583  0922  34C3               	retlw	-61
   584  0923  34A1               	retlw	-95
   585  0924  3420               	retlw	32	;' '
   586  0925  346C               	retlw	108	;'l'
   587  0926  3461               	retlw	97	;'a'
   588  0927  3420               	retlw	32	;' '
   589  0928  346C               	retlw	108	;'l'
   590  0929  3465               	retlw	101	;'e'
   591  092A  3474               	retlw	116	;'t'
   592  092B  3472               	retlw	114	;'r'
   593  092C  3461               	retlw	97	;'a'
   594  092D  3420               	retlw	32	;' '
   595  092E  3464               	retlw	100	;'d'
   596  092F  3465               	retlw	101	;'e'
   597  0930  3420               	retlw	32	;' '
   598  0931  346C               	retlw	108	;'l'
   599  0932  3461               	retlw	97	;'a'
   600  0933  3420               	retlw	32	;' '
   601  0934  346E               	retlw	110	;'n'
   602  0935  3475               	retlw	117	;'u'
   603  0936  3465               	retlw	101	;'e'
   604  0937  3476               	retlw	118	;'v'
   605  0938  3461               	retlw	97	;'a'
   606  0939  3420               	retlw	32	;' '
   607  093A  3468               	retlw	104	;'h'
   608  093B  346F               	retlw	111	;'o'
   609  093C  3472               	retlw	114	;'r'
   610  093D  3461               	retlw	97	;'a'
   611  093E  3420               	retlw	32	;' '
   612  093F  3420               	retlw	32	;' '
   613  0940  340D               	retlw	13
   614  0941  3400               	retlw	0
   615  0942                     STR_7:
   616  0942  3436               	retlw	54	;'6'
   617  0943  3429               	retlw	41	;')'
   618  0944  3420               	retlw	32	;' '
   619  0945  344D               	retlw	77	;'M'
   620  0946  346F               	retlw	111	;'o'
   621  0947  3464               	retlw	100	;'d'
   622  0948  3469               	retlw	105	;'i'
   623  0949  3466               	retlw	102	;'f'
   624  094A  3469               	retlw	105	;'i'
   625  094B  3463               	retlw	99	;'c'
   626  094C  3461               	retlw	97	;'a'
   627  094D  3472               	retlw	114	;'r'
   628  094E  3420               	retlw	32	;' '
   629  094F  3468               	retlw	104	;'h'
   630  0950  346F               	retlw	111	;'o'
   631  0951  3472               	retlw	114	;'r'
   632  0952  3461               	retlw	97	;'a'
   633  0953  3472               	retlw	114	;'r'
   634  0954  3469               	retlw	105	;'i'
   635  0955  346F               	retlw	111	;'o'
   636  0956  3420               	retlw	32	;' '
   637  0957  3475               	retlw	117	;'u'
   638  0958  3473               	retlw	115	;'s'
   639  0959  3475               	retlw	117	;'u'
   640  095A  3461               	retlw	97	;'a'
   641  095B  3472               	retlw	114	;'r'
   642  095C  3469               	retlw	105	;'i'
   643  095D  346F               	retlw	111	;'o'
   644  095E  3420               	retlw	32	;' '
   645  095F  3474               	retlw	116	;'t'
   646  0960  3472               	retlw	114	;'r'
   647  0961  3465               	retlw	101	;'e'
   648  0962  3473               	retlw	115	;'s'
   649  0963  3420               	retlw	32	;' '
   650  0964  340D               	retlw	13
   651  0965  340D               	retlw	13
   652  0966  3400               	retlw	0
   653  0967                     STR_42:
   654  0967  3420               	retlw	32	;' '
   655  0968  3461               	retlw	97	;'a'
   656  0969  342E               	retlw	46	;'.'
   657  096A  3430               	retlw	48	;'0'
   658  096B  3420               	retlw	32	;' '
   659  096C  3420               	retlw	32	;' '
   660  096D  3462               	retlw	98	;'b'
   661  096E  342E               	retlw	46	;'.'
   662  096F  3431               	retlw	49	;'1'
   663  0970  3435               	retlw	53	;'5'
   664  0971  3420               	retlw	32	;' '
   665  0972  3420               	retlw	32	;' '
   666  0973  3420               	retlw	32	;' '
   667  0974  3463               	retlw	99	;'c'
   668  0975  342E               	retlw	46	;'.'
   669  0976  3433               	retlw	51	;'3'
   670  0977  3430               	retlw	48	;'0'
   671  0978  3420               	retlw	32	;' '
   672  0979  3420               	retlw	32	;' '
   673  097A  3420               	retlw	32	;' '
   674  097B  3464               	retlw	100	;'d'
   675  097C  342E               	retlw	46	;'.'
   676  097D  3434               	retlw	52	;'4'
   677  097E  3435               	retlw	53	;'5'
   678  097F  3420               	retlw	32	;' '
   679  0980  3420               	retlw	32	;' '
   680  0981  3420               	retlw	32	;' '
   681  0982  3465               	retlw	101	;'e'
   682  0983  342E               	retlw	46	;'.'
   683  0984  3435               	retlw	53	;'5'
   684  0985  3435               	retlw	53	;'5'
   685  0986  3420               	retlw	32	;' '
   686  0987  3420               	retlw	32	;' '
   687  0988  3420               	retlw	32	;' '
   688  0989  340D               	retlw	13
   689  098A  3400               	retlw	0
   690  098B                     STR_5:
   691  098B  3434               	retlw	52	;'4'
   692  098C  3429               	retlw	41	;')'
   693  098D  3420               	retlw	32	;' '
   694  098E  344D               	retlw	77	;'M'
   695  098F  346F               	retlw	111	;'o'
   696  0990  3464               	retlw	100	;'d'
   697  0991  3469               	retlw	105	;'i'
   698  0992  3466               	retlw	102	;'f'
   699  0993  3469               	retlw	105	;'i'
   700  0994  3463               	retlw	99	;'c'
   701  0995  3461               	retlw	97	;'a'
   702  0996  3472               	retlw	114	;'r'
   703  0997  3420               	retlw	32	;' '
   704  0998  3468               	retlw	104	;'h'
   705  0999  346F               	retlw	111	;'o'
   706  099A  3472               	retlw	114	;'r'
   707  099B  3461               	retlw	97	;'a'
   708  099C  3472               	retlw	114	;'r'
   709  099D  3469               	retlw	105	;'i'
   710  099E  346F               	retlw	111	;'o'
   711  099F  3420               	retlw	32	;' '
   712  09A0  3475               	retlw	117	;'u'
   713  09A1  3473               	retlw	115	;'s'
   714  09A2  3475               	retlw	117	;'u'
   715  09A3  3461               	retlw	97	;'a'
   716  09A4  3472               	retlw	114	;'r'
   717  09A5  3469               	retlw	105	;'i'
   718  09A6  346F               	retlw	111	;'o'
   719  09A7  3420               	retlw	32	;' '
   720  09A8  3475               	retlw	117	;'u'
   721  09A9  346E               	retlw	110	;'n'
   722  09AA  346F               	retlw	111	;'o'
   723  09AB  3420               	retlw	32	;' '
   724  09AC  340D               	retlw	13
   725  09AD  3400               	retlw	0
   726  09AE                     STR_6:
   727  09AE  3435               	retlw	53	;'5'
   728  09AF  3429               	retlw	41	;')'
   729  09B0  3420               	retlw	32	;' '
   730  09B1  344D               	retlw	77	;'M'
   731  09B2  346F               	retlw	111	;'o'
   732  09B3  3464               	retlw	100	;'d'
   733  09B4  3469               	retlw	105	;'i'
   734  09B5  3466               	retlw	102	;'f'
   735  09B6  3469               	retlw	105	;'i'
   736  09B7  3463               	retlw	99	;'c'
   737  09B8  3461               	retlw	97	;'a'
   738  09B9  3472               	retlw	114	;'r'
   739  09BA  3420               	retlw	32	;' '
   740  09BB  3468               	retlw	104	;'h'
   741  09BC  346F               	retlw	111	;'o'
   742  09BD  3472               	retlw	114	;'r'
   743  09BE  3461               	retlw	97	;'a'
   744  09BF  3472               	retlw	114	;'r'
   745  09C0  3469               	retlw	105	;'i'
   746  09C1  346F               	retlw	111	;'o'
   747  09C2  3420               	retlw	32	;' '
   748  09C3  3475               	retlw	117	;'u'
   749  09C4  3473               	retlw	115	;'s'
   750  09C5  3475               	retlw	117	;'u'
   751  09C6  3461               	retlw	97	;'a'
   752  09C7  3472               	retlw	114	;'r'
   753  09C8  3469               	retlw	105	;'i'
   754  09C9  346F               	retlw	111	;'o'
   755  09CA  3420               	retlw	32	;' '
   756  09CB  3464               	retlw	100	;'d'
   757  09CC  346F               	retlw	111	;'o'
   758  09CD  3473               	retlw	115	;'s'
   759  09CE  340D               	retlw	13
   760  09CF  3400               	retlw	0
   761  09D0                     STR_16:
   762  09D0  3420               	retlw	32	;' '
   763  09D1  346D               	retlw	109	;'m'
   764  09D2  3469               	retlw	105	;'i'
   765  09D3  346E               	retlw	110	;'n'
   766  09D4  3473               	retlw	115	;'s'
   767  09D5  342E               	retlw	46	;'.'
   768  09D6  3420               	retlw	32	;' '
   769  09D7  3470               	retlw	112	;'p'
   770  09D8  3461               	retlw	97	;'a'
   771  09D9  3472               	retlw	114	;'r'
   772  09DA  3461               	retlw	97	;'a'
   773  09DB  3420               	retlw	32	;' '
   774  09DC  3465               	retlw	101	;'e'
   775  09DD  346C               	retlw	108	;'l'
   776  09DE  3420               	retlw	32	;' '
   777  09DF  346D               	retlw	109	;'m'
   778  09E0  3465               	retlw	101	;'e'
   779  09E1  3464               	retlw	100	;'d'
   780  09E2  3469               	retlw	105	;'i'
   781  09E3  3463               	retlw	99	;'c'
   782  09E4  3461               	retlw	97	;'a'
   783  09E5  346D               	retlw	109	;'m'
   784  09E6  3465               	retlw	101	;'e'
   785  09E7  346E               	retlw	110	;'n'
   786  09E8  3474               	retlw	116	;'t'
   787  09E9  346F               	retlw	111	;'o'
   788  09EA  3420               	retlw	32	;' '
   789  09EB  3420               	retlw	32	;' '
   790  09EC  340D               	retlw	13
   791  09ED  340D               	retlw	13
   792  09EE  3400               	retlw	0
   793  09EF                     STR_1:
   794  09EF  340D               	retlw	13
   795  09F0  3420               	retlw	32	;' '
   796  09F1  3451               	retlw	81	;'Q'
   797  09F2  3475               	retlw	117	;'u'
   798  09F3  3465               	retlw	101	;'e'
   799  09F4  3420               	retlw	32	;' '
   800  09F5  3461               	retlw	97	;'a'
   801  09F6  3463               	retlw	99	;'c'
   802  09F7  3463               	retlw	99	;'c'
   803  09F8  3469               	retlw	105	;'i'
   804  09F9  346F               	retlw	111	;'o'
   805  09FA  346E               	retlw	110	;'n'
   806  09FB  3420               	retlw	32	;' '
   807  09FC  3464               	retlw	100	;'d'
   808  09FD  3465               	retlw	101	;'e'
   809  09FE  3473               	retlw	115	;'s'
   810  09FF  3465               	retlw	101	;'e'
   811  0A00  3461               	retlw	97	;'a'
   812  0A01  3420               	retlw	32	;' '
   813  0A02  3465               	retlw	101	;'e'
   814  0A03  346A               	retlw	106	;'j'
   815  0A04  3465               	retlw	101	;'e'
   816  0A05  3463               	retlw	99	;'c'
   817  0A06  3475               	retlw	117	;'u'
   818  0A07  3474               	retlw	116	;'t'
   819  0A08  3461               	retlw	97	;'a'
   820  0A09  3472               	retlw	114	;'r'
   821  0A0A  343F               	retlw	63	;'?'
   822  0A0B  3420               	retlw	32	;' '
   823  0A0C  340D               	retlw	13
   824  0A0D  3400               	retlw	0
   825  0A0E                     STR_4:
   826  0A0E  3433               	retlw	51	;'3'
   827  0A0F  3429               	retlw	41	;')'
   828  0A10  3420               	retlw	32	;' '
   829  0A11  3476               	retlw	118	;'v'
   830  0A12  3465               	retlw	101	;'e'
   831  0A13  3472               	retlw	114	;'r'
   832  0A14  3420               	retlw	32	;' '
   833  0A15  3464               	retlw	100	;'d'
   834  0A16  3461               	retlw	97	;'a'
   835  0A17  3474               	retlw	116	;'t'
   836  0A18  346F               	retlw	111	;'o'
   837  0A19  3473               	retlw	115	;'s'
   838  0A1A  3420               	retlw	32	;' '
   839  0A1B  3464               	retlw	100	;'d'
   840  0A1C  3465               	retlw	101	;'e'
   841  0A1D  3420               	retlw	32	;' '
   842  0A1E  3475               	retlw	117	;'u'
   843  0A1F  3473               	retlw	115	;'s'
   844  0A20  3475               	retlw	117	;'u'
   845  0A21  3461               	retlw	97	;'a'
   846  0A22  3472               	retlw	114	;'r'
   847  0A23  3469               	retlw	105	;'i'
   848  0A24  346F               	retlw	111	;'o'
   849  0A25  3420               	retlw	32	;' '
   850  0A26  3474               	retlw	116	;'t'
   851  0A27  3472               	retlw	114	;'r'
   852  0A28  3465               	retlw	101	;'e'
   853  0A29  3473               	retlw	115	;'s'
   854  0A2A  3420               	retlw	32	;' '
   855  0A2B  340D               	retlw	13
   856  0A2C  3400               	retlw	0
   857  0A2D                     STR_2:
   858  0A2D  3431               	retlw	49	;'1'
   859  0A2E  3429               	retlw	41	;')'
   860  0A2F  3420               	retlw	32	;' '
   861  0A30  3476               	retlw	118	;'v'
   862  0A31  3465               	retlw	101	;'e'
   863  0A32  3472               	retlw	114	;'r'
   864  0A33  3420               	retlw	32	;' '
   865  0A34  3464               	retlw	100	;'d'
   866  0A35  3461               	retlw	97	;'a'
   867  0A36  3474               	retlw	116	;'t'
   868  0A37  346F               	retlw	111	;'o'
   869  0A38  3473               	retlw	115	;'s'
   870  0A39  3420               	retlw	32	;' '
   871  0A3A  3464               	retlw	100	;'d'
   872  0A3B  3465               	retlw	101	;'e'
   873  0A3C  3420               	retlw	32	;' '
   874  0A3D  3475               	retlw	117	;'u'
   875  0A3E  3473               	retlw	115	;'s'
   876  0A3F  3475               	retlw	117	;'u'
   877  0A40  3461               	retlw	97	;'a'
   878  0A41  3472               	retlw	114	;'r'
   879  0A42  3469               	retlw	105	;'i'
   880  0A43  346F               	retlw	111	;'o'
   881  0A44  3420               	retlw	32	;' '
   882  0A45  3475               	retlw	117	;'u'
   883  0A46  346E               	retlw	110	;'n'
   884  0A47  346F               	retlw	111	;'o'
   885  0A48  3420               	retlw	32	;' '
   886  0A49  340D               	retlw	13
   887  0A4A  3400               	retlw	0
   888  0A4B                     STR_3:
   889  0A4B  3432               	retlw	50	;'2'
   890  0A4C  3429               	retlw	41	;')'
   891  0A4D  3420               	retlw	32	;' '
   892  0A4E  3476               	retlw	118	;'v'
   893  0A4F  3465               	retlw	101	;'e'
   894  0A50  3472               	retlw	114	;'r'
   895  0A51  3420               	retlw	32	;' '
   896  0A52  3464               	retlw	100	;'d'
   897  0A53  3461               	retlw	97	;'a'
   898  0A54  3474               	retlw	116	;'t'
   899  0A55  346F               	retlw	111	;'o'
   900  0A56  3473               	retlw	115	;'s'
   901  0A57  3420               	retlw	32	;' '
   902  0A58  3464               	retlw	100	;'d'
   903  0A59  3465               	retlw	101	;'e'
   904  0A5A  3420               	retlw	32	;' '
   905  0A5B  3475               	retlw	117	;'u'
   906  0A5C  3473               	retlw	115	;'s'
   907  0A5D  3475               	retlw	117	;'u'
   908  0A5E  3461               	retlw	97	;'a'
   909  0A5F  3472               	retlw	114	;'r'
   910  0A60  3469               	retlw	105	;'i'
   911  0A61  346F               	retlw	111	;'o'
   912  0A62  3420               	retlw	32	;' '
   913  0A63  3464               	retlw	100	;'d'
   914  0A64  346F               	retlw	111	;'o'
   915  0A65  3473               	retlw	115	;'s'
   916  0A66  340D               	retlw	13
   917  0A67  3400               	retlw	0
   918  0A68                     STR_47:
   919  0A68  3420               	retlw	32	;' '
   920  0A69  3431               	retlw	49	;'1'
   921  0A6A  342E               	retlw	46	;'.'
   922  0A6B  3441               	retlw	65	;'A'
   923  0A6C  3446               	retlw	70	;'F'
   924  0A6D  3443               	retlw	67	;'C'
   925  0A6E  3420               	retlw	32	;' '
   926  0A6F  3420               	retlw	32	;' '
   927  0A70  3420               	retlw	32	;' '
   928  0A71  3420               	retlw	32	;' '
   929  0A72  3432               	retlw	50	;'2'
   930  0A73  342E               	retlw	46	;'.'
   931  0A74  3446               	retlw	70	;'F'
   932  0A75  3446               	retlw	70	;'F'
   933  0A76  3454               	retlw	84	;'T'
   934  0A77  3420               	retlw	32	;' '
   935  0A78  3420               	retlw	32	;' '
   936  0A79  3420               	retlw	32	;' '
   937  0A7A  3433               	retlw	51	;'3'
   938  0A7B  342E               	retlw	46	;'.'
   939  0A7C  3444               	retlw	68	;'D'
   940  0A7D  3448               	retlw	72	;'H'
   941  0A7E  344C               	retlw	76	;'L'
   942  0A7F  3420               	retlw	32	;' '
   943  0A80  340D               	retlw	13
   944  0A81  3400               	retlw	0
   945  0A82                     STR_8:
   946  0A82  3420               	retlw	32	;' '
   947  0A83  3445               	retlw	69	;'E'
   948  0A84  3473               	retlw	115	;'s'
   949  0A85  3470               	retlw	112	;'p'
   950  0A86  3465               	retlw	101	;'e'
   951  0A87  3472               	retlw	114	;'r'
   952  0A88  3461               	retlw	97	;'a'
   953  0A89  3472               	retlw	114	;'r'
   954  0A8A  3420               	retlw	32	;' '
   955  0A8B  3420               	retlw	32	;' '
   956  0A8C  3400               	retlw	0
   957  0A8D                     STR_9:
   958  0A8D  3420               	retlw	32	;' '
   959  0A8E  3448               	retlw	72	;'H'
   960  0A8F  346F               	retlw	111	;'o'
   961  0A90  3472               	retlw	114	;'r'
   962  0A91  3461               	retlw	97	;'a'
   963  0A92  3473               	retlw	115	;'s'
   964  0A93  3420               	retlw	32	;' '
   965  0A94  3400               	retlw	0
   966  0A95                     STR_10:
   967  0A95  3420               	retlw	32	;' '
   968  0A96  3463               	retlw	99	;'c'
   969  0A97  346F               	retlw	111	;'o'
   970  0A98  346E               	retlw	110	;'n'
   971  0A99  3420               	retlw	32	;' '
   972  0A9A  3420               	retlw	32	;' '
   973  0A9B  3400               	retlw	0
   974  0A9C                     STR_13:
   975  0A9C  3433               	retlw	51	;'3'
   976  0A9D  3430               	retlw	48	;'0'
   977  0A9E  3400               	retlw	0
   978  0A9F                     STR_15:
   979  0A9F  3436               	retlw	54	;'6'
   980  0AA0  3430               	retlw	48	;'0'
   981  0AA1  3400               	retlw	0
   982  0AA2                     STR_12:
   983  0AA2  3431               	retlw	49	;'1'
   984  0AA3  3435               	retlw	53	;'5'
   985  0AA4  3400               	retlw	0
   986  0AA5                     STR_14:
   987  0AA5  3434               	retlw	52	;'4'
   988  0AA6  3435               	retlw	53	;'5'
   989  0AA7  3400               	retlw	0
   990  09D0                     
   991                           	psect	cinit
   992  000F                     start_initialization:	
   993                           ; #config settings
   994                           
   995  000F                     __initialization:
   996                           
   997                           ; Clear objects allocated to COMMON
   998  000F  01F0               	clrf	__pbssCOMMON& (0+127)
   999  0010  01F1               	clrf	(__pbssCOMMON+1)& (0+127)
  1000  0011  01F2               	clrf	(__pbssCOMMON+2)& (0+127)
  1001  0012  01F3               	clrf	(__pbssCOMMON+3)& (0+127)
  1002  0013  01F4               	clrf	(__pbssCOMMON+4)& (0+127)
  1003  0014  01F5               	clrf	(__pbssCOMMON+5)& (0+127)
  1004  0015  01F6               	clrf	(__pbssCOMMON+6)& (0+127)
  1005                           
  1006                           ; Clear objects allocated to BANK0
  1007  0016  1283               	bcf	3,5	;RP0=0, select bank0
  1008  0017  1303               	bcf	3,6	;RP1=0, select bank0
  1009  0018  01A0               	clrf	__pbssBANK0& (0+127)
  1010  0019  01A1               	clrf	(__pbssBANK0+1)& (0+127)
  1011  001A  01A2               	clrf	(__pbssBANK0+2)& (0+127)
  1012  001B  01A3               	clrf	(__pbssBANK0+3)& (0+127)
  1013  001C  01A4               	clrf	(__pbssBANK0+4)& (0+127)
  1014  001D  01A5               	clrf	(__pbssBANK0+5)& (0+127)
  1015  001E  01A6               	clrf	(__pbssBANK0+6)& (0+127)
  1016  001F  01A7               	clrf	(__pbssBANK0+7)& (0+127)
  1017  0020  01A8               	clrf	(__pbssBANK0+8)& (0+127)
  1018  0021  01A9               	clrf	(__pbssBANK0+9)& (0+127)
  1019  0022  01AA               	clrf	(__pbssBANK0+10)& (0+127)
  1020  0023  01AB               	clrf	(__pbssBANK0+11)& (0+127)
  1021  0024  01AC               	clrf	(__pbssBANK0+12)& (0+127)
  1022  0025  01AD               	clrf	(__pbssBANK0+13)& (0+127)
  1023  0026                     end_of_initialization:	
  1024                           ;End of C runtime variable initialization code
  1025                           
  1026  0026                     __end_of__initialization:
  1027  0026  0183               	clrf	3
  1028  0027  160A  118A  2DD0   	ljmp	_main	;jump to C main() function
  1029                           
  1030                           	psect	bssCOMMON
  1031  0070                     __pbssCOMMON:
  1032  0070                     _hora_nueva:
  1033  0070                     	ds	1
  1034  0071                     _min_user3:
  1035  0071                     	ds	1
  1036  0072                     _min_user2:
  1037  0072                     	ds	1
  1038  0073                     _min_user1:
  1039  0073                     	ds	1
  1040  0074                     _escala:
  1041  0074                     	ds	1
  1042  0075                     _minuto:
  1043  0075                     	ds	1
  1044  0076                     _hora:
  1045  0076                     	ds	1
  1046                           
  1047                           	psect	bssBANK0
  1048  0020                     __pbssBANK0:
  1049  0020                     _me_3_us3:
  1050  0020                     	ds	1
  1051  0021                     _me_2_us3:
  1052  0021                     	ds	1
  1053  0022                     _me_1_us3:
  1054  0022                     	ds	1
  1055  0023                     _me_3_us2:
  1056  0023                     	ds	1
  1057  0024                     _me_2_us2:
  1058  0024                     	ds	1
  1059  0025                     _me_1_us2:
  1060  0025                     	ds	1
  1061  0026                     _me_3_us1:
  1062  0026                     	ds	1
  1063  0027                     _me_2_us1:
  1064  0027                     	ds	1
  1065  0028                     _me_1_us1:
  1066  0028                     	ds	1
  1067  0029                     _hora_user3:
  1068  0029                     	ds	1
  1069  002A                     _hora_user2:
  1070  002A                     	ds	1
  1071  002B                     _hora_user1:
  1072  002B                     	ds	1
  1073  002C                     _ventana:
  1074  002C                     	ds	1
  1075  002D                     _valor:
  1076  002D                     	ds	1
  1077                           
  1078                           	psect	cstackCOMMON
  1079  0077                     __pcstackCOMMON:
  1080  0077                     ?_USART_Rx:
  1081  0077                     ?_isr:	
  1082                           ; 1 bytes @ 0x0
  1083                           
  1084  0077                     ??_isr:	
  1085                           ; 1 bytes @ 0x0
  1086                           
  1087  0077                     ?_main:	
  1088                           ; 1 bytes @ 0x0
  1089                           
  1090  0077                     ?_USART_Tx:	
  1091                           ; 1 bytes @ 0x0
  1092                           
  1093                           
  1094                           ; 1 bytes @ 0x0
  1095  0077                     	ds	2
  1096  0079                     ??_USART_Rx:
  1097  0079                     ??_USART_Tx:	
  1098                           ; 1 bytes @ 0x2
  1099                           
  1100  0079                     USART_Tx@data:	
  1101                           ; 1 bytes @ 0x2
  1102                           
  1103                           
  1104                           ; 1 bytes @ 0x2
  1105  0079                     	ds	1
  1106  007A                     ?_USART_Cadena:
  1107  007A                     USART_Cadena@str:	
  1108                           ; 1 bytes @ 0x3
  1109                           
  1110                           
  1111                           ; 2 bytes @ 0x3
  1112  007A                     	ds	2
  1113  007C                     ??_USART_Cadena:
  1114                           
  1115                           	psect	cstackBANK0
  1116  002E                     __pcstackBANK0:	
  1117                           ; 1 bytes @ 0x5
  1118                           
  1119  002E                     ??_main:
  1120                           
  1121                           ; 1 bytes @ 0x0
  1122  002E                     	ds	2
  1123                           
  1124                           	psect	maintext
  1125  15D0                     __pmaintext:	
  1126 ;;
  1127 ;;Main: autosize = 0, tempsize = 2, incstack = 0, save=0
  1128 ;;
  1129 ;; *************** function _main *****************
  1130 ;; Defined at:
  1131 ;;		line 69 in file "PROYECTO.c"
  1132 ;; Parameters:    Size  Location     Type
  1133 ;;		None
  1134 ;; Auto vars:     Size  Location     Type
  1135 ;;		None
  1136 ;; Return value:  Size  Location     Type
  1137 ;;                  1    wreg      void 
  1138 ;; Registers used:
  1139 ;;		wreg, fsr0l, fsr0h, status,2, status,0, btemp+1, pclath, cstack
  1140 ;; Tracked objects:
  1141 ;;		On entry : B00/0
  1142 ;;		On exit  : 0/0
  1143 ;;		Unchanged: 0/0
  1144 ;; Data sizes:     COMMON   BANK0   BANK1   BANK3   BANK2
  1145 ;;      Params:         0       0       0       0       0
  1146 ;;      Locals:         0       0       0       0       0
  1147 ;;      Temps:          0       2       0       0       0
  1148 ;;      Totals:         0       2       0       0       0
  1149 ;;Total ram usage:        2 bytes
  1150 ;; Hardware stack levels required when called:    3
  1151 ;; This function calls:
  1152 ;;		_USART_Cadena
  1153 ;;		_USART_Rx
  1154 ;; This function is called by:
  1155 ;;		Startup code after reset
  1156 ;; This function uses a non-reentrant model
  1157 ;;
  1158                           
  1159                           
  1160                           ;psect for function _main
  1161  15D0                     _main:
  1162  15D0                     l4003:	
  1163                           ;incstack = 0
  1164                           ; Regs used in _main: [wreg-fsr0h+status,2+status,0+btemp+1+pclath+cstack]
  1165                           
  1166                           
  1167                           ;PROYECTO.c: 70:     ANSEL = 0x00;
  1168  15D0  1683               	bsf	3,5	;RP0=1, select bank3
  1169  15D1  1703               	bsf	3,6	;RP1=1, select bank3
  1170  15D2  0188               	clrf	8	;volatile
  1171                           
  1172                           ;PROYECTO.c: 71:     ANSELH = 0x00;
  1173  15D3  0189               	clrf	9	;volatile
  1174                           
  1175                           ;PROYECTO.c: 73:     TRISA = 0x00;
  1176  15D4  1683               	bsf	3,5	;RP0=1, select bank1
  1177  15D5  1303               	bcf	3,6	;RP1=0, select bank1
  1178  15D6  0185               	clrf	5	;volatile
  1179  15D7                     l4005:
  1180                           
  1181                           ;PROYECTO.c: 74:     TRISB = 0xff;
  1182  15D7  30FF               	movlw	255
  1183  15D8  0086               	movwf	6	;volatile
  1184  15D9                     l4007:
  1185                           
  1186                           ;PROYECTO.c: 75:     TRISD = 0x00;
  1187  15D9  0188               	clrf	8	;volatile
  1188                           
  1189                           ;PROYECTO.c: 76:     TRISE = 0b0011;
  1190  15DA  3003               	movlw	3
  1191  15DB  0089               	movwf	9	;volatile
  1192  15DC                     l4009:
  1193                           
  1194                           ;PROYECTO.c: 79:     ADCON1bits.ADFM = 0;
  1195  15DC  139F               	bcf	31,7	;volatile
  1196  15DD                     l4011:
  1197                           
  1198                           ;PROYECTO.c: 80:     ADCON1bits.VCFG0 = 0;
  1199  15DD  121F               	bcf	31,4	;volatile
  1200  15DE                     l4013:
  1201                           
  1202                           ;PROYECTO.c: 81:     ADCON1bits.VCFG1 = 0;
  1203  15DE  129F               	bcf	31,5	;volatile
  1204  15DF                     l4015:
  1205                           
  1206                           ;PROYECTO.c: 82:     ADCON0bits.ADCS0 = 1;
  1207  15DF  1283               	bcf	3,5	;RP0=0, select bank0
  1208  15E0  1303               	bcf	3,6	;RP1=0, select bank0
  1209  15E1  171F               	bsf	31,6	;volatile
  1210  15E2                     l4017:
  1211                           
  1212                           ;PROYECTO.c: 83:     ADCON0bits.ADCS1 = 0;
  1213  15E2  139F               	bcf	31,7	;volatile
  1214  15E3                     l4019:
  1215                           
  1216                           ;PROYECTO.c: 84:     ADCON0bits.CHS = 5;
  1217  15E3  081F               	movf	31,w	;volatile
  1218  15E4  39C3               	andlw	-61
  1219  15E5  3814               	iorlw	20
  1220  15E6  009F               	movwf	31	;volatile
  1221  15E7                     l4021:
  1222                           
  1223                           ;PROYECTO.c: 85:     _delay((unsigned long)((100)*(4000000/4000000.0)));
  1224  15E7  3020               	movlw	32
  1225  15E8  1283               	bcf	3,5	;RP0=0, select bank0
  1226  15E9  1303               	bcf	3,6	;RP1=0, select bank0
  1227  15EA  00AE               	movwf	??_main
  1228  15EB                     u9147:
  1229  15EB  0BAE               	decfsz	??_main,f
  1230  15EC  2DEB               	goto	u9147
  1231  15ED  0000               	nop
  1232  15EE                     l4023:
  1233                           
  1234                           ;PROYECTO.c: 86:     ADCON0bits.ADON = 1;
  1235  15EE  1283               	bcf	3,5	;RP0=0, select bank0
  1236  15EF  1303               	bcf	3,6	;RP1=0, select bank0
  1237  15F0  141F               	bsf	31,0	;volatile
  1238  15F1                     l4025:
  1239                           
  1240                           ;PROYECTO.c: 88:     OPTION_REGbits.nRBPU = 0;
  1241  15F1  1683               	bsf	3,5	;RP0=1, select bank1
  1242  15F2  1303               	bcf	3,6	;RP1=0, select bank1
  1243  15F3  1381               	bcf	1,7	;volatile
  1244  15F4                     l4027:
  1245                           
  1246                           ;PROYECTO.c: 89:     WPUBbits.WPUB0 = 1;
  1247  15F4  1415               	bsf	21,0	;volatile
  1248  15F5                     l4029:
  1249                           
  1250                           ;PROYECTO.c: 90:     WPUBbits.WPUB1 = 1;
  1251  15F5  1495               	bsf	21,1	;volatile
  1252  15F6                     l4031:
  1253                           
  1254                           ;PROYECTO.c: 91:     WPUBbits.WPUB2 = 1;
  1255  15F6  1515               	bsf	21,2	;volatile
  1256  15F7                     l4033:
  1257                           
  1258                           ;PROYECTO.c: 92:     WPUBbits.WPUB5 = 1;
  1259  15F7  1695               	bsf	21,5	;volatile
  1260  15F8                     l4035:
  1261                           
  1262                           ;PROYECTO.c: 93:     WPUBbits.WPUB6 = 1;
  1263  15F8  1715               	bsf	21,6	;volatile
  1264  15F9                     l4037:
  1265                           
  1266                           ;PROYECTO.c: 94:     WPUBbits.WPUB7 = 1;
  1267  15F9  1795               	bsf	21,7	;volatile
  1268                           
  1269                           ;PROYECTO.c: 97:     OSCCONbits.IRCF = 0b110;
  1270  15FA  080F               	movf	15,w	;volatile
  1271  15FB  398F               	andlw	-113
  1272  15FC  3860               	iorlw	96
  1273  15FD  008F               	movwf	15	;volatile
  1274  15FE                     l4039:
  1275                           
  1276                           ;PROYECTO.c: 98:     OSCCONbits.SCS = 1;
  1277  15FE  140F               	bsf	15,0	;volatile
  1278  15FF                     l4041:
  1279                           
  1280                           ;PROYECTO.c: 101:     OPTION_REGbits.T0CS = 0;
  1281  15FF  1281               	bcf	1,5	;volatile
  1282  1600                     l4043:
  1283                           
  1284                           ;PROYECTO.c: 102:     OPTION_REGbits.PSA = 0;
  1285  1600  1181               	bcf	1,3	;volatile
  1286                           
  1287                           ;PROYECTO.c: 103:     OPTION_REGbits.PS = 0b111;
  1288  1601  3007               	movlw	7
  1289  1602  0481               	iorwf	1,f	;volatile
  1290  1603                     l4045:
  1291                           
  1292                           ;PROYECTO.c: 104:     TMR0 = 78;
  1293  1603  304E               	movlw	78
  1294  1604  1283               	bcf	3,5	;RP0=0, select bank0
  1295  1605  1303               	bcf	3,6	;RP1=0, select bank0
  1296  1606  0081               	movwf	1	;volatile
  1297  1607                     l4047:
  1298                           
  1299                           ;PROYECTO.c: 107:     TXSTAbits.SYNC = 0;
  1300  1607  1683               	bsf	3,5	;RP0=1, select bank1
  1301  1608  1303               	bcf	3,6	;RP1=0, select bank1
  1302  1609  1218               	bcf	24,4	;volatile
  1303  160A                     l4049:
  1304                           
  1305                           ;PROYECTO.c: 108:     TXSTAbits.BRGH = 1;
  1306  160A  1518               	bsf	24,2	;volatile
  1307  160B                     l4051:
  1308                           
  1309                           ;PROYECTO.c: 109:     BAUDCTLbits.BRG16 = 1;
  1310  160B  1683               	bsf	3,5	;RP0=1, select bank3
  1311  160C  1703               	bsf	3,6	;RP1=1, select bank3
  1312  160D  1587               	bsf	7,3	;volatile
  1313  160E                     l4053:
  1314                           
  1315                           ;PROYECTO.c: 111:     SPBRG = 103;
  1316  160E  3067               	movlw	103
  1317  160F  1683               	bsf	3,5	;RP0=1, select bank1
  1318  1610  1303               	bcf	3,6	;RP1=0, select bank1
  1319  1611  0099               	movwf	25	;volatile
  1320  1612                     l4055:
  1321                           
  1322                           ;PROYECTO.c: 112:     SPBRGH = 0;
  1323  1612  019A               	clrf	26	;volatile
  1324  1613                     l4057:
  1325                           
  1326                           ;PROYECTO.c: 114:     RCSTAbits.SPEN = 1;
  1327  1613  1283               	bcf	3,5	;RP0=0, select bank0
  1328  1614  1303               	bcf	3,6	;RP1=0, select bank0
  1329  1615  1798               	bsf	24,7	;volatile
  1330  1616                     l4059:
  1331                           
  1332                           ;PROYECTO.c: 115:     RCSTAbits.RX9 = 0;
  1333  1616  1318               	bcf	24,6	;volatile
  1334  1617                     l4061:
  1335                           
  1336                           ;PROYECTO.c: 116:     RCSTAbits.CREN = 1;
  1337  1617  1618               	bsf	24,4	;volatile
  1338  1618                     l4063:
  1339                           
  1340                           ;PROYECTO.c: 117:     TXSTAbits.TXEN = 1;
  1341  1618  1683               	bsf	3,5	;RP0=1, select bank1
  1342  1619  1303               	bcf	3,6	;RP1=0, select bank1
  1343  161A  1698               	bsf	24,5	;volatile
  1344  161B                     l4065:
  1345                           
  1346                           ;PROYECTO.c: 119:     INTCONbits.GIE = 1;
  1347  161B  178B               	bsf	11,7	;volatile
  1348  161C                     l4067:
  1349                           
  1350                           ;PROYECTO.c: 120:     INTCONbits.T0IE = 0;
  1351  161C  128B               	bcf	11,5	;volatile
  1352  161D                     l4069:
  1353                           
  1354                           ;PROYECTO.c: 121:     INTCONbits.T0IF = 0;
  1355  161D  110B               	bcf	11,2	;volatile
  1356  161E                     l4071:
  1357                           
  1358                           ;PROYECTO.c: 125:     ADCON0bits.GO = 1;
  1359  161E  1283               	bcf	3,5	;RP0=0, select bank0
  1360  161F  1303               	bcf	3,6	;RP1=0, select bank0
  1361  1620  149F               	bsf	31,1	;volatile
  1362  1621                     l4073:
  1363                           
  1364                           ;PROYECTO.c: 127:     PORTA = 0;
  1365  1621  0185               	clrf	5	;volatile
  1366  1622                     l4075:
  1367                           
  1368                           ;PROYECTO.c: 128:     PORTB = 0;
  1369  1622  0186               	clrf	6	;volatile
  1370  1623                     l4077:
  1371                           
  1372                           ;PROYECTO.c: 129:     PORTC = 0;
  1373  1623  0187               	clrf	7	;volatile
  1374  1624                     l4079:
  1375                           
  1376                           ;PROYECTO.c: 130:     PORTD = 0;
  1377  1624  0188               	clrf	8	;volatile
  1378  1625                     l4081:
  1379                           
  1380                           ;PROYECTO.c: 131:     PORTE = 0;
  1381  1625  0189               	clrf	9	;volatile
  1382  1626                     l4083:
  1383                           
  1384                           ;PROYECTO.c: 133:     ventana = 1;
  1385  1626  01AC               	clrf	_ventana
  1386  1627  0AAC               	incf	_ventana,f
  1387  1628                     l4085:
  1388                           
  1389                           ;PROYECTO.c: 137:        if (T0IF == 1) {
  1390  1628  1D0B               	btfss	11,2	;volatile
  1391  1629  2E2B               	goto	u6111
  1392  162A  2E2C               	goto	u6110
  1393  162B                     u6111:
  1394  162B  2E81               	goto	l4123
  1395  162C                     u6110:
  1396  162C                     l4087:
  1397                           
  1398                           ;PROYECTO.c: 138:             if(!RB0){
  1399  162C  1806               	btfsc	6,0	;volatile
  1400  162D  2E2F               	goto	u6121
  1401  162E  2E30               	goto	u6120
  1402  162F                     u6121:
  1403  162F  2E42               	goto	l134
  1404  1630                     u6120:
  1405  1630                     l4089:
  1406                           
  1407                           ;PROYECTO.c: 139:                 RD0 = 1;
  1408  1630  1408               	bsf	8,0	;volatile
  1409  1631                     l4091:
  1410                           
  1411                           ;PROYECTO.c: 140:                 _delay((unsigned long)((2)*(4000000/4000.0)));
  1412  1631  3003               	movlw	3
  1413  1632  1283               	bcf	3,5	;RP0=0, select bank0
  1414  1633  1303               	bcf	3,6	;RP1=0, select bank0
  1415  1634  00AF               	movwf	??_main+1
  1416  1635  3097               	movlw	151
  1417  1636  00AE               	movwf	??_main
  1418  1637                     u9157:
  1419  1637  0BAE               	decfsz	??_main,f
  1420  1638  2E37               	goto	u9157
  1421  1639  0BAF               	decfsz	??_main+1,f
  1422  163A  2E37               	goto	u9157
  1423  163B                     l4093:
  1424                           
  1425                           ;PROYECTO.c: 141:                 RD0 = 0;
  1426  163B  1283               	bcf	3,5	;RP0=0, select bank0
  1427  163C  1303               	bcf	3,6	;RP1=0, select bank0
  1428  163D  1008               	bcf	8,0	;volatile
  1429                           
  1430                           ;PROYECTO.c: 142:                 TMR0 = 70;
  1431  163E  3046               	movlw	70
  1432  163F  0081               	movwf	1	;volatile
  1433  1640                     l4095:
  1434                           
  1435                           ;PROYECTO.c: 143:                 INTCONbits.T0IF = 0;
  1436  1640  110B               	bcf	11,2	;volatile
  1437                           
  1438                           ;PROYECTO.c: 144:             }
  1439  1641  2E81               	goto	l4123
  1440  1642                     l134:	
  1441                           ;PROYECTO.c: 145:             else if(!RB1){
  1442                           
  1443  1642  1886               	btfsc	6,1	;volatile
  1444  1643  2E45               	goto	u6131
  1445  1644  2E46               	goto	u6130
  1446  1645                     u6131:
  1447  1645  2E58               	goto	l136
  1448  1646                     u6130:
  1449  1646                     l4097:
  1450                           
  1451                           ;PROYECTO.c: 146:                 RD1 = 1;
  1452  1646  1488               	bsf	8,1	;volatile
  1453  1647                     l4099:
  1454                           
  1455                           ;PROYECTO.c: 147:                 _delay((unsigned long)((2)*(4000000/4000.0)));
  1456  1647  3003               	movlw	3
  1457  1648  1283               	bcf	3,5	;RP0=0, select bank0
  1458  1649  1303               	bcf	3,6	;RP1=0, select bank0
  1459  164A  00AF               	movwf	??_main+1
  1460  164B  3097               	movlw	151
  1461  164C  00AE               	movwf	??_main
  1462  164D                     u9167:
  1463  164D  0BAE               	decfsz	??_main,f
  1464  164E  2E4D               	goto	u9167
  1465  164F  0BAF               	decfsz	??_main+1,f
  1466  1650  2E4D               	goto	u9167
  1467  1651                     l4101:
  1468                           
  1469                           ;PROYECTO.c: 148:                 RD1 = 0;
  1470  1651  1283               	bcf	3,5	;RP0=0, select bank0
  1471  1652  1303               	bcf	3,6	;RP1=0, select bank0
  1472  1653  1088               	bcf	8,1	;volatile
  1473                           
  1474                           ;PROYECTO.c: 149:                 TMR0 = 70;
  1475  1654  3046               	movlw	70
  1476  1655  0081               	movwf	1	;volatile
  1477  1656                     l4103:
  1478                           
  1479                           ;PROYECTO.c: 150:                 INTCONbits.T0IF = 0;
  1480  1656  110B               	bcf	11,2	;volatile
  1481                           
  1482                           ;PROYECTO.c: 151:             }
  1483  1657  2E81               	goto	l4123
  1484  1658                     l136:	
  1485                           ;PROYECTO.c: 152:             else if(!RB2){
  1486                           
  1487  1658  1906               	btfsc	6,2	;volatile
  1488  1659  2E5B               	goto	u6141
  1489  165A  2E5C               	goto	u6140
  1490  165B                     u6141:
  1491  165B  2E6E               	goto	l138
  1492  165C                     u6140:
  1493  165C                     l4105:
  1494                           
  1495                           ;PROYECTO.c: 153:                 RD2 = 1;
  1496  165C  1508               	bsf	8,2	;volatile
  1497  165D                     l4107:
  1498                           
  1499                           ;PROYECTO.c: 154:                 _delay((unsigned long)((2)*(4000000/4000.0)));
  1500  165D  3003               	movlw	3
  1501  165E  1283               	bcf	3,5	;RP0=0, select bank0
  1502  165F  1303               	bcf	3,6	;RP1=0, select bank0
  1503  1660  00AF               	movwf	??_main+1
  1504  1661  3097               	movlw	151
  1505  1662  00AE               	movwf	??_main
  1506  1663                     u9177:
  1507  1663  0BAE               	decfsz	??_main,f
  1508  1664  2E63               	goto	u9177
  1509  1665  0BAF               	decfsz	??_main+1,f
  1510  1666  2E63               	goto	u9177
  1511  1667                     l4109:
  1512                           
  1513                           ;PROYECTO.c: 155:                 RD2 = 0;
  1514  1667  1283               	bcf	3,5	;RP0=0, select bank0
  1515  1668  1303               	bcf	3,6	;RP1=0, select bank0
  1516  1669  1108               	bcf	8,2	;volatile
  1517                           
  1518                           ;PROYECTO.c: 156:                 TMR0 = 70;
  1519  166A  3046               	movlw	70
  1520  166B  0081               	movwf	1	;volatile
  1521  166C                     l4111:
  1522                           
  1523                           ;PROYECTO.c: 157:                 INTCONbits.T0IF = 0;
  1524  166C  110B               	bcf	11,2	;volatile
  1525                           
  1526                           ;PROYECTO.c: 158:             }
  1527  166D  2E81               	goto	l4123
  1528  166E                     l138:	
  1529                           ;PROYECTO.c: 159:             else{
  1530                           
  1531                           
  1532                           ;PROYECTO.c: 160:                 RD0 = 1;
  1533  166E  1408               	bsf	8,0	;volatile
  1534                           
  1535                           ;PROYECTO.c: 161:                 RD1 = 1;
  1536  166F  1488               	bsf	8,1	;volatile
  1537                           
  1538                           ;PROYECTO.c: 162:                 RD2 = 1;
  1539  1670  1508               	bsf	8,2	;volatile
  1540  1671                     l4113:
  1541                           
  1542                           ;PROYECTO.c: 163:                 _delay((unsigned long)((1)*(4000000/4000.0)));
  1543  1671  30C7               	movlw	199
  1544  1672  1283               	bcf	3,5	;RP0=0, select bank0
  1545  1673  1303               	bcf	3,6	;RP1=0, select bank0
  1546  1674  00AE               	movwf	??_main
  1547  1675                     u9187:
  1548  1675  2E76               	nop2
  1549  1676  0BAE               	decfsz	??_main,f
  1550  1677  2E75               	goto	u9187
  1551  1678  2E79               	nop2
  1552  1679                     l4115:
  1553                           
  1554                           ;PROYECTO.c: 164:                 RD1 = 0;
  1555  1679  1283               	bcf	3,5	;RP0=0, select bank0
  1556  167A  1303               	bcf	3,6	;RP1=0, select bank0
  1557  167B  1088               	bcf	8,1	;volatile
  1558  167C                     l4117:
  1559                           
  1560                           ;PROYECTO.c: 165:                 RD2 = 0;
  1561  167C  1108               	bcf	8,2	;volatile
  1562  167D                     l4119:
  1563                           
  1564                           ;PROYECTO.c: 166:                 RD0 = 0;
  1565  167D  1008               	bcf	8,0	;volatile
  1566                           
  1567                           ;PROYECTO.c: 167:                 TMR0 = 74;
  1568  167E  304A               	movlw	74
  1569  167F  0081               	movwf	1	;volatile
  1570  1680                     l4121:
  1571                           
  1572                           ;PROYECTO.c: 168:                 INTCONbits.T0IF = 0;
  1573  1680  110B               	bcf	11,2	;volatile
  1574  1681                     l4123:
  1575                           
  1576                           ;PROYECTO.c: 172:        if(ADCON0bits.GO == 0){
  1577  1681  189F               	btfsc	31,1	;volatile
  1578  1682  2E84               	goto	u6151
  1579  1683  2E87               	goto	u6150
  1580  1684                     u6151:
  1581  1684  160A  118A  2D76   	goto	l140
  1582  1687                     u6150:
  1583  1687                     l4125:
  1584                           
  1585                           ;PROYECTO.c: 174:             if(ADCON0bits.CHS == 6){
  1586  1687  0C1F               	rrf	31,w	;volatile
  1587  1688  00AE               	movwf	??_main
  1588  1689  0C2E               	rrf	??_main,w
  1589  168A  390F               	andlw	15
  1590  168B  3A06               	xorlw	6
  1591  168C  1D03               	skipz
  1592  168D  2E8F               	goto	u6161
  1593  168E  2E92               	goto	u6160
  1594  168F                     u6161:
  1595  168F  160A  118A  2BBD   	goto	l4155
  1596  1692                     u6160:
  1597  1692                     l4127:
  1598                           
  1599                           ;PROYECTO.c: 175:                 escala = ADRESH;
  1600  1692  081E               	movf	30,w	;volatile
  1601  1693  00AE               	movwf	??_main
  1602  1694  082E               	movf	??_main,w
  1603  1695  00F4               	movwf	_escala
  1604                           
  1605                           ;PROYECTO.c: 176:                 if (escala >= 0 && escala <=42){
  1606  1696  302B               	movlw	43
  1607  1697  0274               	subwf	_escala,w
  1608  1698  1803               	skipnc
  1609  1699  2E9B               	goto	u6171
  1610  169A  2E9C               	goto	u6170
  1611  169B                     u6171:
  1612  169B  2E9E               	goto	l4131
  1613  169C                     u6170:
  1614  169C                     l4129:
  1615                           
  1616                           ;PROYECTO.c: 177:                     minuto = 0;
  1617  169C  01F5               	clrf	_minuto
  1618                           
  1619                           ;PROYECTO.c: 178:                 }else if(escala >= 43 && escala <= 84 ){
  1620  169D  2EDC               	goto	l4153
  1621  169E                     l4131:
  1622  169E  302B               	movlw	43
  1623  169F  0274               	subwf	_escala,w
  1624  16A0  1C03               	skipc
  1625  16A1  2EA3               	goto	u6181
  1626  16A2  2EA4               	goto	u6180
  1627  16A3                     u6181:
  1628  16A3  2EAF               	goto	l4137
  1629  16A4                     u6180:
  1630  16A4                     l4133:
  1631  16A4  3055               	movlw	85
  1632  16A5  0274               	subwf	_escala,w
  1633  16A6  1803               	skipnc
  1634  16A7  2EA9               	goto	u6191
  1635  16A8  2EAA               	goto	u6190
  1636  16A9                     u6191:
  1637  16A9  2EAF               	goto	l4137
  1638  16AA                     u6190:
  1639  16AA                     l4135:
  1640                           
  1641                           ;PROYECTO.c: 179:                     minuto = 15;
  1642  16AA  300F               	movlw	15
  1643  16AB  00AE               	movwf	??_main
  1644  16AC  082E               	movf	??_main,w
  1645  16AD  00F5               	movwf	_minuto
  1646                           
  1647                           ;PROYECTO.c: 180:                 }else if(escala >= 85 && escala <= 126 ){
  1648  16AE  2EDC               	goto	l4153
  1649  16AF                     l4137:
  1650  16AF  3055               	movlw	85
  1651  16B0  0274               	subwf	_escala,w
  1652  16B1  1C03               	skipc
  1653  16B2  2EB4               	goto	u6201
  1654  16B3  2EB5               	goto	u6200
  1655  16B4                     u6201:
  1656  16B4  2EC0               	goto	l4143
  1657  16B5                     u6200:
  1658  16B5                     l4139:
  1659  16B5  307F               	movlw	127
  1660  16B6  0274               	subwf	_escala,w
  1661  16B7  1803               	skipnc
  1662  16B8  2EBA               	goto	u6211
  1663  16B9  2EBB               	goto	u6210
  1664  16BA                     u6211:
  1665  16BA  2EC0               	goto	l4143
  1666  16BB                     u6210:
  1667  16BB                     l4141:
  1668                           
  1669                           ;PROYECTO.c: 181:                     minuto = 30;
  1670  16BB  301E               	movlw	30
  1671  16BC  00AE               	movwf	??_main
  1672  16BD  082E               	movf	??_main,w
  1673  16BE  00F5               	movwf	_minuto
  1674                           
  1675                           ;PROYECTO.c: 182:                 }else if(escala >= 127 && escala <= 168 ){
  1676  16BF  2EDC               	goto	l4153
  1677  16C0                     l4143:
  1678  16C0  307F               	movlw	127
  1679  16C1  0274               	subwf	_escala,w
  1680  16C2  1C03               	skipc
  1681  16C3  2EC5               	goto	u6221
  1682  16C4  2EC6               	goto	u6220
  1683  16C5                     u6221:
  1684  16C5  2ED1               	goto	l4149
  1685  16C6                     u6220:
  1686  16C6                     l4145:
  1687  16C6  30A9               	movlw	169
  1688  16C7  0274               	subwf	_escala,w
  1689  16C8  1803               	skipnc
  1690  16C9  2ECB               	goto	u6231
  1691  16CA  2ECC               	goto	u6230
  1692  16CB                     u6231:
  1693  16CB  2ED1               	goto	l4149
  1694  16CC                     u6230:
  1695  16CC                     l4147:
  1696                           
  1697                           ;PROYECTO.c: 183:                     minuto = 45;
  1698  16CC  302D               	movlw	45
  1699  16CD  00AE               	movwf	??_main
  1700  16CE  082E               	movf	??_main,w
  1701  16CF  00F5               	movwf	_minuto
  1702                           
  1703                           ;PROYECTO.c: 184:                 }else if(escala >= 210 && escala <= 255 ){
  1704  16D0  2EDC               	goto	l4153
  1705  16D1                     l4149:
  1706  16D1  30D2               	movlw	210
  1707  16D2  0274               	subwf	_escala,w
  1708  16D3  1C03               	skipc
  1709  16D4  2ED6               	goto	u6241
  1710  16D5  2ED7               	goto	u6240
  1711  16D6                     u6241:
  1712  16D6  2EDC               	goto	l145
  1713  16D7                     u6240:
  1714  16D7                     l4151:
  1715                           
  1716                           ;PROYECTO.c: 185:                     minuto = 60;
  1717  16D7  303C               	movlw	60
  1718  16D8  00AE               	movwf	??_main
  1719  16D9  082E               	movf	??_main,w
  1720  16DA  00F5               	movwf	_minuto
  1721  16DB  2EDC               	goto	l4153
  1722  16DC                     l145:
  1723  16DC                     l4153:
  1724                           
  1725                           ;PROYECTO.c: 188:                 ADCON0bits.CHS = 5;
  1726  16DC  081F               	movf	31,w	;volatile
  1727  16DD  39C3               	andlw	-61
  1728  16DE  3814               	iorlw	20
  1729  16DF  009F               	movwf	31	;volatile
  1730                           
  1731                           ;PROYECTO.c: 189:             }
  1732  16E0  160A  118A  2D6C   	goto	l4305
  1733                           
  1734                           	psect	text1
  1735  07F0                     __ptext1:	
  1736 ;; *************** function _USART_Rx *****************
  1737 ;; Defined at:
  1738 ;;		line 1107 in file "PROYECTO.c"
  1739 ;; Parameters:    Size  Location     Type
  1740 ;;		None
  1741 ;; Auto vars:     Size  Location     Type
  1742 ;;		None
  1743 ;; Return value:  Size  Location     Type
  1744 ;;                  1    wreg      unsigned char 
  1745 ;; Registers used:
  1746 ;;		wreg
  1747 ;; Tracked objects:
  1748 ;;		On entry : 0/0
  1749 ;;		On exit  : 0/0
  1750 ;;		Unchanged: 0/0
  1751 ;; Data sizes:     COMMON   BANK0   BANK1   BANK3   BANK2
  1752 ;;      Params:         0       0       0       0       0
  1753 ;;      Locals:         0       0       0       0       0
  1754 ;;      Temps:          0       0       0       0       0
  1755 ;;      Totals:         0       0       0       0       0
  1756 ;;Total ram usage:        0 bytes
  1757 ;; Hardware stack levels used:    1
  1758 ;; Hardware stack levels required when called:    1
  1759 ;; This function calls:
  1760 ;;		Nothing
  1761 ;; This function is called by:
  1762 ;;		_main
  1763 ;; This function uses a non-reentrant model
  1764 ;;
  1765                           
  1766                           
  1767                           ;psect for function _USART_Rx
  1768  07F0                     _USART_Rx:
  1769  07F0                     l2765:	
  1770                           ;incstack = 0
  1771                           ; Regs used in _USART_Rx: [wreg]
  1772                           
  1773                           
  1774                           ;PROYECTO.c: 1108:     return RCREG;
  1775  07F0  1283               	bcf	3,5	;RP0=0, select bank0
  1776  07F1  1303               	bcf	3,6	;RP1=0, select bank0
  1777  07F2  081A               	movf	26,w	;volatile
  1778  07F3                     l905:
  1779  07F3  0008               	return
  1780  07F4                     __end_of_USART_Rx:
  1781                           
  1782                           	psect	text2
  1783  07A5                     __ptext2:	
  1784 ;; *************** function _USART_Cadena *****************
  1785 ;; Defined at:
  1786 ;;		line 1111 in file "PROYECTO.c"
  1787 ;; Parameters:    Size  Location     Type
  1788 ;;  str             2    3[COMMON] PTR unsigned char 
  1789 ;;		 -> STR_67(3), STR_66(3), STR_65(36), STR_64(44), 
  1790 ;;		 -> STR_63(3), STR_62(3), STR_61(48), STR_60(48), 
  1791 ;;		 -> STR_59(52), STR_58(39), STR_57(3), STR_56(3), 
  1792 ;;		 -> STR_55(36), STR_54(44), STR_53(3), STR_52(3), 
  1793 ;;		 -> STR_51(48), STR_50(48), STR_49(52), STR_48(39), 
  1794 ;;		 -> STR_47(26), STR_46(48), STR_45(43), STR_44(3), 
  1795 ;;		 -> STR_43(3), STR_42(36), STR_41(44), STR_40(3), 
  1796 ;;		 -> STR_39(3), STR_38(48), STR_37(48), STR_36(52), 
  1797 ;;		 -> STR_35(39), STR_34(31), STR_33(3), STR_32(3), 
  1798 ;;		 -> STR_31(3), STR_30(3), STR_29(2), STR_28(7), 
  1799 ;;		 -> STR_27(8), STR_26(11), STR_25(31), STR_24(3), 
  1800 ;;		 -> STR_23(3), STR_22(3), STR_21(3), STR_20(2), 
  1801 ;;		 -> STR_19(7), STR_18(8), STR_17(11), STR_16(31), 
  1802 ;;		 -> STR_15(3), STR_14(3), STR_13(3), STR_12(3), 
  1803 ;;		 -> STR_11(2), STR_10(7), STR_9(8), STR_8(11), 
  1804 ;;		 -> STR_7(37), STR_6(34), STR_5(35), STR_4(31), 
  1805 ;;		 -> STR_3(29), STR_2(30), STR_1(31), 
  1806 ;; Auto vars:     Size  Location     Type
  1807 ;;		None
  1808 ;; Return value:  Size  Location     Type
  1809 ;;                  1    wreg      void 
  1810 ;; Registers used:
  1811 ;;		wreg, fsr0l, fsr0h, status,2, status,0, btemp+1, pclath, cstack
  1812 ;; Tracked objects:
  1813 ;;		On entry : 0/0
  1814 ;;		On exit  : 0/0
  1815 ;;		Unchanged: 0/0
  1816 ;; Data sizes:     COMMON   BANK0   BANK1   BANK3   BANK2
  1817 ;;      Params:         2       0       0       0       0
  1818 ;;      Locals:         0       0       0       0       0
  1819 ;;      Temps:          0       0       0       0       0
  1820 ;;      Totals:         2       0       0       0       0
  1821 ;;Total ram usage:        2 bytes
  1822 ;; Hardware stack levels used:    1
  1823 ;; Hardware stack levels required when called:    2
  1824 ;; This function calls:
  1825 ;;		_USART_Tx
  1826 ;; This function is called by:
  1827 ;;		_main
  1828 ;; This function uses a non-reentrant model
  1829 ;;
  1830                           
  1831                           
  1832                           ;psect for function _USART_Cadena
  1833  07A5                     _USART_Cadena:
  1834  07A5                     l2757:	
  1835                           ;incstack = 0
  1836                           ; Regs used in _USART_Cadena: [wreg-fsr0h+status,2+status,0+btemp+1+pclath+cstack]
  1837                           
  1838                           
  1839                           ;PROYECTO.c: 1112:     while(*str != '\0'){
  1840  07A5  2FBA               	goto	l2763
  1841  07A6                     l2759:
  1842                           
  1843                           ;PROYECTO.c: 1113:         USART_Tx(*str);
  1844  07A6  087B               	movf	USART_Cadena@str+1,w
  1845  07A7  00FF               	movwf	btemp+1
  1846  07A8  087A               	movf	USART_Cadena@str,w
  1847  07A9  0084               	movwf	4
  1848  07AA  120A  118A  27CB  120A  118A  	fcall	stringtab
  1849  07AF  120A  118A  27DD  120A  118A  	fcall	_USART_Tx
  1850  07B4                     l2761:
  1851                           
  1852                           ;PROYECTO.c: 1114:         str++;
  1853  07B4  3001               	movlw	1
  1854  07B5  07FA               	addwf	USART_Cadena@str,f
  1855  07B6  1803               	skipnc
  1856  07B7  0AFB               	incf	USART_Cadena@str+1,f
  1857  07B8  3000               	movlw	0
  1858  07B9  07FB               	addwf	USART_Cadena@str+1,f
  1859  07BA                     l2763:
  1860                           
  1861                           ;PROYECTO.c: 1112:     while(*str != '\0'){
  1862  07BA  087B               	movf	USART_Cadena@str+1,w
  1863  07BB  1283               	bcf	3,5	;RP0=0, select bank0
  1864  07BC  1303               	bcf	3,6	;RP1=0, select bank0
  1865  07BD  00FF               	movwf	btemp+1
  1866  07BE  087A               	movf	USART_Cadena@str,w
  1867  07BF  0084               	movwf	4
  1868  07C0  120A  118A  27CB  120A  118A  	fcall	stringtab
  1869  07C5  3A00               	xorlw	0
  1870  07C6  1D03               	skipz
  1871  07C7  2FC9               	goto	u3071
  1872  07C8  2FCA               	goto	u3070
  1873  07C9                     u3071:
  1874  07C9  2FA6               	goto	l2759
  1875  07CA                     u3070:
  1876  07CA                     l911:
  1877  07CA  0008               	return
  1878  07CB                     __end_of_USART_Cadena:
  1879                           
  1880                           	psect	text3
  1881  07DD                     __ptext3:	
  1882 ;; *************** function _USART_Tx *****************
  1883 ;; Defined at:
  1884 ;;		line 1102 in file "PROYECTO.c"
  1885 ;; Parameters:    Size  Location     Type
  1886 ;;  data            1    wreg     unsigned char 
  1887 ;; Auto vars:     Size  Location     Type
  1888 ;;  data            1    2[COMMON] unsigned char 
  1889 ;; Return value:  Size  Location     Type
  1890 ;;                  1    wreg      void 
  1891 ;; Registers used:
  1892 ;;		wreg
  1893 ;; Tracked objects:
  1894 ;;		On entry : 0/0
  1895 ;;		On exit  : 0/0
  1896 ;;		Unchanged: 0/0
  1897 ;; Data sizes:     COMMON   BANK0   BANK1   BANK3   BANK2
  1898 ;;      Params:         0       0       0       0       0
  1899 ;;      Locals:         1       0       0       0       0
  1900 ;;      Temps:          0       0       0       0       0
  1901 ;;      Totals:         1       0       0       0       0
  1902 ;;Total ram usage:        1 bytes
  1903 ;; Hardware stack levels used:    1
  1904 ;; Hardware stack levels required when called:    1
  1905 ;; This function calls:
  1906 ;;		Nothing
  1907 ;; This function is called by:
  1908 ;;		_USART_Cadena
  1909 ;; This function uses a non-reentrant model
  1910 ;;
  1911                           
  1912                           
  1913                           ;psect for function _USART_Tx
  1914  07DD                     _USART_Tx:
  1915                           
  1916                           ;incstack = 0
  1917                           ; Regs used in _USART_Tx: [wreg]
  1918                           ;USART_Tx@data stored from wreg
  1919  07DD  00F9               	movwf	USART_Tx@data
  1920  07DE                     l2753:
  1921  07DE                     l899:	
  1922                           ;PROYECTO.c: 1103:     while(TXSTAbits.TRMT == 0);
  1923                           
  1924  07DE  1683               	bsf	3,5	;RP0=1, select bank1
  1925  07DF  1303               	bcf	3,6	;RP1=0, select bank1
  1926  07E0  1C98               	btfss	24,1	;volatile
  1927  07E1  2FE3               	goto	u3061
  1928  07E2  2FE4               	goto	u3060
  1929  07E3                     u3061:
  1930  07E3  2FDE               	goto	l899
  1931  07E4                     u3060:
  1932  07E4                     l2755:
  1933                           
  1934                           ;PROYECTO.c: 1104:     TXREG = data;
  1935  07E4  0879               	movf	USART_Tx@data,w
  1936  07E5  1283               	bcf	3,5	;RP0=0, select bank0
  1937  07E6  1303               	bcf	3,6	;RP1=0, select bank0
  1938  07E7  0099               	movwf	25	;volatile
  1939  07E8                     l902:
  1940  07E8  0008               	return
  1941  07E9                     __end_of_USART_Tx:
  1942                           
  1943                           	psect	text4
  1944  07E9                     __ptext4:	
  1945 ;; *************** function _isr *****************
  1946 ;; Defined at:
  1947 ;;		line 63 in file "PROYECTO.c"
  1948 ;; Parameters:    Size  Location     Type
  1949 ;;		None
  1950 ;; Auto vars:     Size  Location     Type
  1951 ;;		None
  1952 ;; Return value:  Size  Location     Type
  1953 ;;                  1    wreg      void 
  1954 ;; Registers used:
  1955 ;;		None
  1956 ;; Tracked objects:
  1957 ;;		On entry : 0/0
  1958 ;;		On exit  : 0/0
  1959 ;;		Unchanged: 0/0
  1960 ;; Data sizes:     COMMON   BANK0   BANK1   BANK3   BANK2
  1961 ;;      Params:         0       0       0       0       0
  1962 ;;      Locals:         0       0       0       0       0
  1963 ;;      Temps:          2       0       0       0       0
  1964 ;;      Totals:         2       0       0       0       0
  1965 ;;Total ram usage:        2 bytes
  1966 ;; Hardware stack levels used:    1
  1967 ;; This function calls:
  1968 ;;		Nothing
  1969 ;; This function is called by:
  1970 ;;		Interrupt level 1
  1971 ;; This function uses a non-reentrant model
  1972 ;;
  1973                           
  1974                           
  1975                           ;psect for function _isr
  1976  07E9                     _isr:
  1977  07E9                     i1l127:
  1978  07E9  0878               	movf	??_isr+1,w
  1979  07EA  008A               	movwf	10
  1980  07EB  0E77               	swapf	??_isr,w
  1981  07EC  0083               	movwf	3
  1982  07ED  0EFE               	swapf	btemp,f
  1983  07EE  0E7E               	swapf	btemp,w
  1984  07EF  0009               	retfie
  1985  07F0                     __end_of_isr:
  1986  007E                     btemp	set	126	;btemp
  1987  007E                     wtemp0	set	126
  1988                           
  1989                           	psect	intentry
  1990  0004                     __pintentry:	
  1991                           ;incstack = 0
  1992                           ; Regs used in _isr: []
  1993                           
  1994  0004                     interrupt_function:
  1995  007E                     saved_w	set	btemp
  1996  0004  00FE               	movwf	btemp
  1997  0005  0E03               	swapf	3,w
  1998  0006  00F7               	movwf	??_isr
  1999  0007  080A               	movf	10,w
  2000  0008  00F8               	movwf	??_isr+1
  2001  0009  120A  118A  2FE9   	ljmp	_isr
  2002                           
  2003                           	psect	config
  2004                           
  2005                           ;Config register CONFIG1 @ 0x2007
  2006                           ;	Oscillator Selection bits
  2007                           ;	FOSC = INTRC_NOCLKOUT, INTOSCIO oscillator: I/O function on RA6/OSC2/CLKOUT pin, I/O f
      +                          unction on RA7/OSC1/CLKIN
  2008                           ;	Watchdog Timer Enable bit
  2009                           ;	WDTE = OFF, WDT disabled and can be enabled by SWDTEN bit of the WDTCON register
  2010                           ;	Power-up Timer Enable bit
  2011                           ;	PWRTE = OFF, PWRT disabled
  2012                           ;	RE3/MCLR pin function select bit
  2013                           ;	MCLRE = OFF, RE3/MCLR pin function is digital input, MCLR internally tied to VDD
  2014                           ;	Code Protection bit
  2015                           ;	CP = OFF, Program memory code protection is disabled
  2016                           ;	Data Code Protection bit
  2017                           ;	CPD = OFF, Data memory code protection is disabled
  2018                           ;	Brown Out Reset Selection bits
  2019                           ;	BOREN = OFF, BOR disabled
  2020                           ;	Internal External Switchover bit
  2021                           ;	IESO = OFF, Internal/External Switchover mode is disabled
  2022                           ;	Fail-Safe Clock Monitor Enabled bit
  2023                           ;	FCMEN = OFF, Fail-Safe Clock Monitor is disabled
  2024                           ;	Low Voltage Programming Enable bit
  2025                           ;	LVP = ON, RB3/PGM pin has PGM function, low voltage programming enabled
  2026                           ;	In-Circuit Debugger Mode bit
  2027                           ;	DEBUG = 0x1, unprogrammed default
  2028  2007                     	org	8199
  2029  2007  30D4               	dw	12500
  2030                           
  2031                           ;Config register CONFIG2 @ 0x2008
  2032                           ;	Brown-out Reset Selection bit
  2033                           ;	BOR4V = BOR40V, Brown-out Reset set to 4.0V
  2034                           ;	Flash Program Memory Self Write Enable bits
  2035                           ;	WRT = OFF, Write protection off
  2036  2008                     	org	8200
  2037  2008  3FFF               	dw	16383
  2038                           
  2039                           	psect	maintext_split_1
  2040  13BD                     l4155:
  2041  13BD  0C1F               	rrf	31,w	;volatile
  2042  13BE  00AE               	movwf	??_main
  2043  13BF  0C2E               	rrf	??_main,w
  2044  13C0  390F               	andlw	15
  2045  13C1  3A05               	xorlw	5
  2046  13C2  1D03               	skipz
  2047  13C3  2BC5               	goto	u6251
  2048  13C4  2BC8               	goto	u6250
  2049  13C5                     u6251:
  2050  13C5  160A  118A  2D6C   	goto	l4305
  2051  13C8                     u6250:
  2052  13C8                     l4157:
  2053                           
  2054                           ;PROYECTO.c: 191:                 escala = ADRESH;
  2055  13C8  081E               	movf	30,w	;volatile
  2056  13C9  00AE               	movwf	??_main
  2057  13CA  082E               	movf	??_main,w
  2058  13CB  00F4               	movwf	_escala
  2059                           
  2060                           ;PROYECTO.c: 192:                 if (escala >= 0 && escala <=10 ){
  2061  13CC  300B               	movlw	11
  2062  13CD  0274               	subwf	_escala,w
  2063  13CE  1803               	skipnc
  2064  13CF  2BD1               	goto	u6261
  2065  13D0  2BD2               	goto	u6260
  2066  13D1                     u6261:
  2067  13D1  2BD6               	goto	l4161
  2068  13D2                     u6260:
  2069  13D2                     l4159:
  2070                           
  2071                           ;PROYECTO.c: 193:                     hora = 0;
  2072  13D2  01F6               	clrf	_hora
  2073  13D3                     L1:
  2074                           
  2075                           ;PROYECTO.c: 194:                 }else if(escala >= 11 && escala <=20 ){
  2076  13D3  160A  118A  2D68   	goto	l4303
  2077  13D6                     l4161:
  2078  13D6  300B               	movlw	11
  2079  13D7  0274               	subwf	_escala,w
  2080  13D8  1C03               	skipc
  2081  13D9  2BDB               	goto	u6271
  2082  13DA  2BDC               	goto	u6270
  2083  13DB                     u6271:
  2084  13DB  2BE5               	goto	l4167
  2085  13DC                     u6270:
  2086  13DC                     l4163:
  2087  13DC  3015               	movlw	21
  2088  13DD  0274               	subwf	_escala,w
  2089  13DE  1803               	skipnc
  2090  13DF  2BE1               	goto	u6281
  2091  13E0  2BE2               	goto	u6280
  2092  13E1                     u6281:
  2093  13E1  2BE5               	goto	l4167
  2094  13E2                     u6280:
  2095  13E2                     l4165:
  2096                           
  2097                           ;PROYECTO.c: 195:                     hora = 1;
  2098  13E2  01F6               	clrf	_hora
  2099  13E3  0AF6               	incf	_hora,f
  2100                           
  2101                           ;PROYECTO.c: 196:                 }else if(escala >= 21 && escala <=30 ){
  2102  13E4  2BD3               	goto	L1
  2103  13E5                     l4167:
  2104  13E5  3015               	movlw	21
  2105  13E6  0274               	subwf	_escala,w
  2106  13E7  1C03               	skipc
  2107  13E8  2BEA               	goto	u6291
  2108  13E9  2BEB               	goto	u6290
  2109  13EA                     u6291:
  2110  13EA  2BF6               	goto	l4173
  2111  13EB                     u6290:
  2112  13EB                     l4169:
  2113  13EB  301F               	movlw	31
  2114  13EC  0274               	subwf	_escala,w
  2115  13ED  1803               	skipnc
  2116  13EE  2BF0               	goto	u6301
  2117  13EF  2BF1               	goto	u6300
  2118  13F0                     u6301:
  2119  13F0  2BF6               	goto	l4173
  2120  13F1                     u6300:
  2121  13F1                     l4171:
  2122                           
  2123                           ;PROYECTO.c: 197:                     hora = 2;
  2124  13F1  3002               	movlw	2
  2125  13F2  00AE               	movwf	??_main
  2126  13F3  082E               	movf	??_main,w
  2127  13F4  00F6               	movwf	_hora
  2128                           
  2129                           ;PROYECTO.c: 198:                 }else if(escala >= 31 && escala <=40 ){
  2130  13F5  2BD3               	goto	L1
  2131  13F6                     l4173:
  2132  13F6  301F               	movlw	31
  2133  13F7  0274               	subwf	_escala,w
  2134  13F8  1C03               	skipc
  2135  13F9  2BFB               	goto	u6311
  2136  13FA  2BFC               	goto	u6310
  2137  13FB                     u6311:
  2138  13FB  2C07               	goto	l4179
  2139  13FC                     u6310:
  2140  13FC                     l4175:
  2141  13FC  3029               	movlw	41
  2142  13FD  0274               	subwf	_escala,w
  2143  13FE  1803               	skipnc
  2144  13FF  2C01               	goto	u6321
  2145  1400  2C02               	goto	u6320
  2146  1401                     u6321:
  2147  1401  2C07               	goto	l4179
  2148  1402                     u6320:
  2149  1402                     l4177:
  2150                           
  2151                           ;PROYECTO.c: 199:                     hora = 3;
  2152  1402  3003               	movlw	3
  2153  1403  00AE               	movwf	??_main
  2154  1404  082E               	movf	??_main,w
  2155  1405  00F6               	movwf	_hora
  2156                           
  2157                           ;PROYECTO.c: 200:                 }else if(escala >= 41 && escala <=50 ){
  2158  1406  2BD3               	goto	L1
  2159  1407                     l4179:
  2160  1407  3029               	movlw	41
  2161  1408  0274               	subwf	_escala,w
  2162  1409  1C03               	skipc
  2163  140A  2C0C               	goto	u6331
  2164  140B  2C0D               	goto	u6330
  2165  140C                     u6331:
  2166  140C  2C18               	goto	l4185
  2167  140D                     u6330:
  2168  140D                     l4181:
  2169  140D  3033               	movlw	51
  2170  140E  0274               	subwf	_escala,w
  2171  140F  1803               	skipnc
  2172  1410  2C12               	goto	u6341
  2173  1411  2C13               	goto	u6340
  2174  1412                     u6341:
  2175  1412  2C18               	goto	l4185
  2176  1413                     u6340:
  2177  1413                     l4183:
  2178                           
  2179                           ;PROYECTO.c: 201:                     hora = 4;
  2180  1413  3004               	movlw	4
  2181  1414  00AE               	movwf	??_main
  2182  1415  082E               	movf	??_main,w
  2183  1416  00F6               	movwf	_hora
  2184                           
  2185                           ;PROYECTO.c: 202:                 }else if(escala >= 51 && escala <=60 ){
  2186  1417  2BD3               	goto	L1
  2187  1418                     l4185:
  2188  1418  3033               	movlw	51
  2189  1419  0274               	subwf	_escala,w
  2190  141A  1C03               	skipc
  2191  141B  2C1D               	goto	u6351
  2192  141C  2C1E               	goto	u6350
  2193  141D                     u6351:
  2194  141D  2C29               	goto	l4191
  2195  141E                     u6350:
  2196  141E                     l4187:
  2197  141E  303D               	movlw	61
  2198  141F  0274               	subwf	_escala,w
  2199  1420  1803               	skipnc
  2200  1421  2C23               	goto	u6361
  2201  1422  2C24               	goto	u6360
  2202  1423                     u6361:
  2203  1423  2C29               	goto	l4191
  2204  1424                     u6360:
  2205  1424                     l4189:
  2206                           
  2207                           ;PROYECTO.c: 203:                     hora = 5;
  2208  1424  3005               	movlw	5
  2209  1425  00AE               	movwf	??_main
  2210  1426  082E               	movf	??_main,w
  2211  1427  00F6               	movwf	_hora
  2212                           
  2213                           ;PROYECTO.c: 204:                 }else if(escala >= 61 && escala <=70 ){
  2214  1428  2BD3               	goto	L1
  2215  1429                     l4191:
  2216  1429  303D               	movlw	61
  2217  142A  0274               	subwf	_escala,w
  2218  142B  1C03               	skipc
  2219  142C  2C2E               	goto	u6371
  2220  142D  2C2F               	goto	u6370
  2221  142E                     u6371:
  2222  142E  2C3A               	goto	l4197
  2223  142F                     u6370:
  2224  142F                     l4193:
  2225  142F  3047               	movlw	71
  2226  1430  0274               	subwf	_escala,w
  2227  1431  1803               	skipnc
  2228  1432  2C34               	goto	u6381
  2229  1433  2C35               	goto	u6380
  2230  1434                     u6381:
  2231  1434  2C3A               	goto	l4197
  2232  1435                     u6380:
  2233  1435                     l4195:
  2234                           
  2235                           ;PROYECTO.c: 205:                     hora = 6;
  2236  1435  3006               	movlw	6
  2237  1436  00AE               	movwf	??_main
  2238  1437  082E               	movf	??_main,w
  2239  1438  00F6               	movwf	_hora
  2240                           
  2241                           ;PROYECTO.c: 206:                 }else if(escala >= 71 && escala <=80 ){
  2242  1439  2BD3               	goto	L1
  2243  143A                     l4197:
  2244  143A  3047               	movlw	71
  2245  143B  0274               	subwf	_escala,w
  2246  143C  1C03               	skipc
  2247  143D  2C3F               	goto	u6391
  2248  143E  2C40               	goto	u6390
  2249  143F                     u6391:
  2250  143F  2C4B               	goto	l4203
  2251  1440                     u6390:
  2252  1440                     l4199:
  2253  1440  3051               	movlw	81
  2254  1441  0274               	subwf	_escala,w
  2255  1442  1803               	skipnc
  2256  1443  2C45               	goto	u6401
  2257  1444  2C46               	goto	u6400
  2258  1445                     u6401:
  2259  1445  2C4B               	goto	l4203
  2260  1446                     u6400:
  2261  1446                     l4201:
  2262                           
  2263                           ;PROYECTO.c: 207:                     hora = 7;
  2264  1446  3007               	movlw	7
  2265  1447  00AE               	movwf	??_main
  2266  1448  082E               	movf	??_main,w
  2267  1449  00F6               	movwf	_hora
  2268                           
  2269                           ;PROYECTO.c: 208:                 }else if(escala >= 81 && escala <=90 ){
  2270  144A  2BD3               	goto	L1
  2271  144B                     l4203:
  2272  144B  3051               	movlw	81
  2273  144C  0274               	subwf	_escala,w
  2274  144D  1C03               	skipc
  2275  144E  2C50               	goto	u6411
  2276  144F  2C51               	goto	u6410
  2277  1450                     u6411:
  2278  1450  2C5C               	goto	l4209
  2279  1451                     u6410:
  2280  1451                     l4205:
  2281  1451  305B               	movlw	91
  2282  1452  0274               	subwf	_escala,w
  2283  1453  1803               	skipnc
  2284  1454  2C56               	goto	u6421
  2285  1455  2C57               	goto	u6420
  2286  1456                     u6421:
  2287  1456  2C5C               	goto	l4209
  2288  1457                     u6420:
  2289  1457                     l4207:
  2290                           
  2291                           ;PROYECTO.c: 209:                     hora = 8;
  2292  1457  3008               	movlw	8
  2293  1458  00AE               	movwf	??_main
  2294  1459  082E               	movf	??_main,w
  2295  145A  00F6               	movwf	_hora
  2296                           
  2297                           ;PROYECTO.c: 210:                 }else if(escala >= 91 && escala <=100 ){
  2298  145B  2BD3               	goto	L1
  2299  145C                     l4209:
  2300  145C  305B               	movlw	91
  2301  145D  0274               	subwf	_escala,w
  2302  145E  1C03               	skipc
  2303  145F  2C61               	goto	u6431
  2304  1460  2C62               	goto	u6430
  2305  1461                     u6431:
  2306  1461  2C6D               	goto	l4215
  2307  1462                     u6430:
  2308  1462                     l4211:
  2309  1462  3065               	movlw	101
  2310  1463  0274               	subwf	_escala,w
  2311  1464  1803               	skipnc
  2312  1465  2C67               	goto	u6441
  2313  1466  2C68               	goto	u6440
  2314  1467                     u6441:
  2315  1467  2C6D               	goto	l4215
  2316  1468                     u6440:
  2317  1468                     l4213:
  2318                           
  2319                           ;PROYECTO.c: 211:                     hora = 9;
  2320  1468  3009               	movlw	9
  2321  1469  00AE               	movwf	??_main
  2322  146A  082E               	movf	??_main,w
  2323  146B  00F6               	movwf	_hora
  2324                           
  2325                           ;PROYECTO.c: 212:                 }else if(escala >= 101&& escala <=110 ){
  2326  146C  2BD3               	goto	L1
  2327  146D                     l4215:
  2328  146D  3065               	movlw	101
  2329  146E  0274               	subwf	_escala,w
  2330  146F  1C03               	skipc
  2331  1470  2C72               	goto	u6451
  2332  1471  2C73               	goto	u6450
  2333  1472                     u6451:
  2334  1472  2C7E               	goto	l4221
  2335  1473                     u6450:
  2336  1473                     l4217:
  2337  1473  306F               	movlw	111
  2338  1474  0274               	subwf	_escala,w
  2339  1475  1803               	skipnc
  2340  1476  2C78               	goto	u6461
  2341  1477  2C79               	goto	u6460
  2342  1478                     u6461:
  2343  1478  2C7E               	goto	l4221
  2344  1479                     u6460:
  2345  1479                     l4219:
  2346                           
  2347                           ;PROYECTO.c: 213:                     hora = 10;
  2348  1479  300A               	movlw	10
  2349  147A  00AE               	movwf	??_main
  2350  147B  082E               	movf	??_main,w
  2351  147C  00F6               	movwf	_hora
  2352                           
  2353                           ;PROYECTO.c: 214:                 }else if(escala >= 111 && escala <=120 ){
  2354  147D  2BD3               	goto	L1
  2355  147E                     l4221:
  2356  147E  306F               	movlw	111
  2357  147F  0274               	subwf	_escala,w
  2358  1480  1C03               	skipc
  2359  1481  2C83               	goto	u6471
  2360  1482  2C84               	goto	u6470
  2361  1483                     u6471:
  2362  1483  2C8F               	goto	l4227
  2363  1484                     u6470:
  2364  1484                     l4223:
  2365  1484  3079               	movlw	121
  2366  1485  0274               	subwf	_escala,w
  2367  1486  1803               	skipnc
  2368  1487  2C89               	goto	u6481
  2369  1488  2C8A               	goto	u6480
  2370  1489                     u6481:
  2371  1489  2C8F               	goto	l4227
  2372  148A                     u6480:
  2373  148A                     l4225:
  2374                           
  2375                           ;PROYECTO.c: 215:                     hora = 11;
  2376  148A  300B               	movlw	11
  2377  148B  00AE               	movwf	??_main
  2378  148C  082E               	movf	??_main,w
  2379  148D  00F6               	movwf	_hora
  2380                           
  2381                           ;PROYECTO.c: 216:                 }else if(escala >= 121 && escala <=130 ){
  2382  148E  2BD3               	goto	L1
  2383  148F                     l4227:
  2384  148F  3079               	movlw	121
  2385  1490  0274               	subwf	_escala,w
  2386  1491  1C03               	skipc
  2387  1492  2C94               	goto	u6491
  2388  1493  2C95               	goto	u6490
  2389  1494                     u6491:
  2390  1494  2CA0               	goto	l4233
  2391  1495                     u6490:
  2392  1495                     l4229:
  2393  1495  3083               	movlw	131
  2394  1496  0274               	subwf	_escala,w
  2395  1497  1803               	skipnc
  2396  1498  2C9A               	goto	u6501
  2397  1499  2C9B               	goto	u6500
  2398  149A                     u6501:
  2399  149A  2CA0               	goto	l4233
  2400  149B                     u6500:
  2401  149B                     l4231:
  2402                           
  2403                           ;PROYECTO.c: 217:                     hora = 12;
  2404  149B  300C               	movlw	12
  2405  149C  00AE               	movwf	??_main
  2406  149D  082E               	movf	??_main,w
  2407  149E  00F6               	movwf	_hora
  2408                           
  2409                           ;PROYECTO.c: 218:                 }else if(escala >= 131 && escala <=140 ){
  2410  149F  2BD3               	goto	L1
  2411  14A0                     l4233:
  2412  14A0  3083               	movlw	131
  2413  14A1  0274               	subwf	_escala,w
  2414  14A2  1C03               	skipc
  2415  14A3  2CA5               	goto	u6511
  2416  14A4  2CA6               	goto	u6510
  2417  14A5                     u6511:
  2418  14A5  2CB1               	goto	l4239
  2419  14A6                     u6510:
  2420  14A6                     l4235:
  2421  14A6  308D               	movlw	141
  2422  14A7  0274               	subwf	_escala,w
  2423  14A8  1803               	skipnc
  2424  14A9  2CAB               	goto	u6521
  2425  14AA  2CAC               	goto	u6520
  2426  14AB                     u6521:
  2427  14AB  2CB1               	goto	l4239
  2428  14AC                     u6520:
  2429  14AC                     l4237:
  2430                           
  2431                           ;PROYECTO.c: 219:                     hora = 13;
  2432  14AC  300D               	movlw	13
  2433  14AD  00AE               	movwf	??_main
  2434  14AE  082E               	movf	??_main,w
  2435  14AF  00F6               	movwf	_hora
  2436                           
  2437                           ;PROYECTO.c: 220:                 }else if(escala >= 141 && escala <=150 ){
  2438  14B0  2BD3               	goto	L1
  2439  14B1                     l4239:
  2440  14B1  308D               	movlw	141
  2441  14B2  0274               	subwf	_escala,w
  2442  14B3  1C03               	skipc
  2443  14B4  2CB6               	goto	u6531
  2444  14B5  2CB9               	goto	u6530
  2445  14B6                     u6531:
  2446  14B6  160A  118A  2CC4   	goto	l4245
  2447  14B9                     u6530:
  2448  14B9                     l4241:
  2449  14B9  3097               	movlw	151
  2450  14BA  0274               	subwf	_escala,w
  2451  14BB  1803               	skipnc
  2452  14BC  2CBE               	goto	u6541
  2453  14BD  2CBF               	goto	u6540
  2454  14BE                     u6541:
  2455  14BE  2CB6               	goto	u6531
  2456  14BF                     u6540:
  2457  14BF                     l4243:
  2458                           
  2459                           ;PROYECTO.c: 221:                     hora = 14;
  2460  14BF  300E               	movlw	14
  2461  14C0  00AE               	movwf	??_main
  2462  14C1  082E               	movf	??_main,w
  2463  14C2  00F6               	movwf	_hora
  2464                           
  2465                           ;PROYECTO.c: 222:                 }else if(escala >= 151 && escala <=160 ){
  2466  14C3  2BD3               	goto	L1
  2467                           
  2468                           	psect	maintext_split_2
  2469  14C4                     l4245:
  2470  14C4  3097               	movlw	151
  2471  14C5  0274               	subwf	_escala,w
  2472  14C6  1C03               	skipc
  2473  14C7  2CC9               	goto	u6551
  2474  14C8  2CCA               	goto	u6550
  2475  14C9                     u6551:
  2476  14C9  2CD5               	goto	l4251
  2477  14CA                     u6550:
  2478  14CA                     l4247:
  2479  14CA  30A1               	movlw	161
  2480  14CB  0274               	subwf	_escala,w
  2481  14CC  1803               	skipnc
  2482  14CD  2CCF               	goto	u6561
  2483  14CE  2CD0               	goto	u6560
  2484  14CF                     u6561:
  2485  14CF  2CD5               	goto	l4251
  2486  14D0                     u6560:
  2487  14D0                     l4249:
  2488                           
  2489                           ;PROYECTO.c: 223:                     hora = 15;
  2490  14D0  300F               	movlw	15
  2491  14D1  00AE               	movwf	??_main
  2492  14D2  082E               	movf	??_main,w
  2493  14D3  00F6               	movwf	_hora
  2494                           
  2495                           ;PROYECTO.c: 224:                 }else if(escala >= 161 && escala <=170 ){
  2496  14D4  2D68               	goto	l4303
  2497  14D5                     l4251:
  2498  14D5  30A1               	movlw	161
  2499  14D6  0274               	subwf	_escala,w
  2500  14D7  1C03               	skipc
  2501  14D8  2CDA               	goto	u6571
  2502  14D9  2CDB               	goto	u6570
  2503  14DA                     u6571:
  2504  14DA  2CE6               	goto	l4257
  2505  14DB                     u6570:
  2506  14DB                     l4253:
  2507  14DB  30AB               	movlw	171
  2508  14DC  0274               	subwf	_escala,w
  2509  14DD  1803               	skipnc
  2510  14DE  2CE0               	goto	u6581
  2511  14DF  2CE1               	goto	u6580
  2512  14E0                     u6581:
  2513  14E0  2CE6               	goto	l4257
  2514  14E1                     u6580:
  2515  14E1                     l4255:
  2516                           
  2517                           ;PROYECTO.c: 225:                     hora = 16;
  2518  14E1  3010               	movlw	16
  2519  14E2  00AE               	movwf	??_main
  2520  14E3  082E               	movf	??_main,w
  2521  14E4  00F6               	movwf	_hora
  2522                           
  2523                           ;PROYECTO.c: 226:                 }else if(escala >= 171 && escala <=180 ){
  2524  14E5  2D68               	goto	l4303
  2525  14E6                     l4257:
  2526  14E6  30AB               	movlw	171
  2527  14E7  0274               	subwf	_escala,w
  2528  14E8  1C03               	skipc
  2529  14E9  2CEB               	goto	u6591
  2530  14EA  2CEC               	goto	u6590
  2531  14EB                     u6591:
  2532  14EB  2CF7               	goto	l4263
  2533  14EC                     u6590:
  2534  14EC                     l4259:
  2535  14EC  30B5               	movlw	181
  2536  14ED  0274               	subwf	_escala,w
  2537  14EE  1803               	skipnc
  2538  14EF  2CF1               	goto	u6601
  2539  14F0  2CF2               	goto	u6600
  2540  14F1                     u6601:
  2541  14F1  2CF7               	goto	l4263
  2542  14F2                     u6600:
  2543  14F2                     l4261:
  2544                           
  2545                           ;PROYECTO.c: 227:                     hora = 17;
  2546  14F2  3011               	movlw	17
  2547  14F3  00AE               	movwf	??_main
  2548  14F4  082E               	movf	??_main,w
  2549  14F5  00F6               	movwf	_hora
  2550                           
  2551                           ;PROYECTO.c: 228:                 }else if(escala >= 181 && escala <=190 ){
  2552  14F6  2D68               	goto	l4303
  2553  14F7                     l4263:
  2554  14F7  30B5               	movlw	181
  2555  14F8  0274               	subwf	_escala,w
  2556  14F9  1C03               	skipc
  2557  14FA  2CFC               	goto	u6611
  2558  14FB  2CFD               	goto	u6610
  2559  14FC                     u6611:
  2560  14FC  2D08               	goto	l4269
  2561  14FD                     u6610:
  2562  14FD                     l4265:
  2563  14FD  30BF               	movlw	191
  2564  14FE  0274               	subwf	_escala,w
  2565  14FF  1803               	skipnc
  2566  1500  2D02               	goto	u6621
  2567  1501  2D03               	goto	u6620
  2568  1502                     u6621:
  2569  1502  2D08               	goto	l4269
  2570  1503                     u6620:
  2571  1503                     l4267:
  2572                           
  2573                           ;PROYECTO.c: 229:                     hora = 18;
  2574  1503  3012               	movlw	18
  2575  1504  00AE               	movwf	??_main
  2576  1505  082E               	movf	??_main,w
  2577  1506  00F6               	movwf	_hora
  2578                           
  2579                           ;PROYECTO.c: 230:                 }else if(escala >= 191 && escala <=200 ){
  2580  1507  2D68               	goto	l4303
  2581  1508                     l4269:
  2582  1508  30BF               	movlw	191
  2583  1509  0274               	subwf	_escala,w
  2584  150A  1C03               	skipc
  2585  150B  2D0D               	goto	u6631
  2586  150C  2D0E               	goto	u6630
  2587  150D                     u6631:
  2588  150D  2D19               	goto	l4275
  2589  150E                     u6630:
  2590  150E                     l4271:
  2591  150E  30C9               	movlw	201
  2592  150F  0274               	subwf	_escala,w
  2593  1510  1803               	skipnc
  2594  1511  2D13               	goto	u6641
  2595  1512  2D14               	goto	u6640
  2596  1513                     u6641:
  2597  1513  2D19               	goto	l4275
  2598  1514                     u6640:
  2599  1514                     l4273:
  2600                           
  2601                           ;PROYECTO.c: 231:                     hora = 19;
  2602  1514  3013               	movlw	19
  2603  1515  00AE               	movwf	??_main
  2604  1516  082E               	movf	??_main,w
  2605  1517  00F6               	movwf	_hora
  2606                           
  2607                           ;PROYECTO.c: 232:                 }else if(escala >= 201&& escala <=210 ){
  2608  1518  2D68               	goto	l4303
  2609  1519                     l4275:
  2610  1519  30C9               	movlw	201
  2611  151A  0274               	subwf	_escala,w
  2612  151B  1C03               	skipc
  2613  151C  2D1E               	goto	u6651
  2614  151D  2D1F               	goto	u6650
  2615  151E                     u6651:
  2616  151E  2D2A               	goto	l4281
  2617  151F                     u6650:
  2618  151F                     l4277:
  2619  151F  30D3               	movlw	211
  2620  1520  0274               	subwf	_escala,w
  2621  1521  1803               	skipnc
  2622  1522  2D24               	goto	u6661
  2623  1523  2D25               	goto	u6660
  2624  1524                     u6661:
  2625  1524  2D2A               	goto	l4281
  2626  1525                     u6660:
  2627  1525                     l4279:
  2628                           
  2629                           ;PROYECTO.c: 233:                     hora = 20;
  2630  1525  3014               	movlw	20
  2631  1526  00AE               	movwf	??_main
  2632  1527  082E               	movf	??_main,w
  2633  1528  00F6               	movwf	_hora
  2634                           
  2635                           ;PROYECTO.c: 234:                 }else if(escala >= 211 && escala <=220 ){
  2636  1529  2D68               	goto	l4303
  2637  152A                     l4281:
  2638  152A  30D3               	movlw	211
  2639  152B  0274               	subwf	_escala,w
  2640  152C  1C03               	skipc
  2641  152D  2D2F               	goto	u6671
  2642  152E  2D30               	goto	u6670
  2643  152F                     u6671:
  2644  152F  2D3B               	goto	l4287
  2645  1530                     u6670:
  2646  1530                     l4283:
  2647  1530  30DD               	movlw	221
  2648  1531  0274               	subwf	_escala,w
  2649  1532  1803               	skipnc
  2650  1533  2D35               	goto	u6681
  2651  1534  2D36               	goto	u6680
  2652  1535                     u6681:
  2653  1535  2D3B               	goto	l4287
  2654  1536                     u6680:
  2655  1536                     l4285:
  2656                           
  2657                           ;PROYECTO.c: 235:                     hora = 21;
  2658  1536  3015               	movlw	21
  2659  1537  00AE               	movwf	??_main
  2660  1538  082E               	movf	??_main,w
  2661  1539  00F6               	movwf	_hora
  2662                           
  2663                           ;PROYECTO.c: 236:                 }else if(escala >= 221 && escala <=230 ){
  2664  153A  2D68               	goto	l4303
  2665  153B                     l4287:
  2666  153B  30DD               	movlw	221
  2667  153C  0274               	subwf	_escala,w
  2668  153D  1C03               	skipc
  2669  153E  2D40               	goto	u6691
  2670  153F  2D41               	goto	u6690
  2671  1540                     u6691:
  2672  1540  2D4C               	goto	l4293
  2673  1541                     u6690:
  2674  1541                     l4289:
  2675  1541  30E7               	movlw	231
  2676  1542  0274               	subwf	_escala,w
  2677  1543  1803               	skipnc
  2678  1544  2D46               	goto	u6701
  2679  1545  2D47               	goto	u6700
  2680  1546                     u6701:
  2681  1546  2D4C               	goto	l4293
  2682  1547                     u6700:
  2683  1547                     l4291:
  2684                           
  2685                           ;PROYECTO.c: 237:                     hora = 22;
  2686  1547  3016               	movlw	22
  2687  1548  00AE               	movwf	??_main
  2688  1549  082E               	movf	??_main,w
  2689  154A  00F6               	movwf	_hora
  2690                           
  2691                           ;PROYECTO.c: 238:                 }else if(escala >= 231 && escala <=240 ){
  2692  154B  2D68               	goto	l4303
  2693  154C                     l4293:
  2694  154C  30E7               	movlw	231
  2695  154D  0274               	subwf	_escala,w
  2696  154E  1C03               	skipc
  2697  154F  2D51               	goto	u6711
  2698  1550  2D52               	goto	u6710
  2699  1551                     u6711:
  2700  1551  2D5D               	goto	l4299
  2701  1552                     u6710:
  2702  1552                     l4295:
  2703  1552  30F1               	movlw	241
  2704  1553  0274               	subwf	_escala,w
  2705  1554  1803               	skipnc
  2706  1555  2D57               	goto	u6721
  2707  1556  2D58               	goto	u6720
  2708  1557                     u6721:
  2709  1557  2D5D               	goto	l4299
  2710  1558                     u6720:
  2711  1558                     l4297:
  2712                           
  2713                           ;PROYECTO.c: 239:                     hora = 23;
  2714  1558  3017               	movlw	23
  2715  1559  00AE               	movwf	??_main
  2716  155A  082E               	movf	??_main,w
  2717  155B  00F6               	movwf	_hora
  2718                           
  2719                           ;PROYECTO.c: 240:                 }else if(escala >= 241 && escala <=255 ){
  2720  155C  2D68               	goto	l4303
  2721  155D                     l4299:
  2722  155D  30F1               	movlw	241
  2723  155E  0274               	subwf	_escala,w
  2724  155F  1C03               	skipc
  2725  1560  2D62               	goto	u6731
  2726  1561  2D63               	goto	u6730
  2727  1562                     u6731:
  2728  1562  2D68               	goto	l196
  2729  1563                     u6730:
  2730  1563                     l4301:
  2731                           
  2732                           ;PROYECTO.c: 241:                     hora = 24;
  2733  1563  3018               	movlw	24
  2734  1564  00AE               	movwf	??_main
  2735  1565  082E               	movf	??_main,w
  2736  1566  00F6               	movwf	_hora
  2737  1567  2D68               	goto	l4303
  2738  1568                     l196:
  2739  1568                     l4303:
  2740                           
  2741                           ;PROYECTO.c: 244:                 ADCON0bits.CHS = 6;
  2742  1568  081F               	movf	31,w	;volatile
  2743  1569  39C3               	andlw	-61
  2744  156A  3818               	iorlw	24
  2745  156B  009F               	movwf	31	;volatile
  2746  156C                     l4305:
  2747                           
  2748                           ;PROYECTO.c: 246:             _delay((unsigned long)((50)*(4000000/4000000.0)));
  2749  156C  300F               	movlw	15
  2750  156D  1283               	bcf	3,5	;RP0=0, select bank0
  2751  156E  1303               	bcf	3,6	;RP1=0, select bank0
  2752  156F  00AE               	movwf	??_main
  2753  1570                     u9197:
  2754  1570  0BAE               	decfsz	??_main,f
  2755  1571  2D70               	goto	u9197
  2756  1572  2D73               	nop2
  2757  1573                     l4307:
  2758                           
  2759                           ;PROYECTO.c: 248:             ADCON0bits.GO = 1;
  2760  1573  1283               	bcf	3,5	;RP0=0, select bank0
  2761  1574  1303               	bcf	3,6	;RP1=0, select bank0
  2762  1575  149F               	bsf	31,1	;volatile
  2763  1576                     l140:	
  2764                           ;PROYECTO.c: 249:         }
  2765                           
  2766                           
  2767                           ;PROYECTO.c: 251:        if(ventana == 1){
  2768  1576  032C               	decf	_ventana,w
  2769  1577  1D03               	btfss	3,2
  2770  1578  2D7A               	goto	u6741
  2771  1579  2D7B               	goto	u6740
  2772  157A                     u6741:
  2773  157A  2DBD               	goto	l4313
  2774  157B                     u6740:
  2775  157B                     l4309:
  2776                           
  2777                           ;PROYECTO.c: 253:            USART_Cadena("\r Que accion desea ejecutar? \r");
  2778  157B  30EF               	movlw	low (STR_1| (0+32768))
  2779  157C  00FA               	movwf	USART_Cadena@str
  2780  157D  3089               	movlw	high (STR_1| (0+32768))
  2781  157E  00FB               	movwf	USART_Cadena@str+1
  2782  157F  120A  118A  27A5  160A  118A  	fcall	_USART_Cadena
  2783                           
  2784                           ;PROYECTO.c: 254:            USART_Cadena("1) ver datos de usuario uno \r");
  2785  1584  302D               	movlw	low (STR_2| (0+32768))
  2786  1585  00FA               	movwf	USART_Cadena@str
  2787  1586  308A               	movlw	high (STR_2| (0+32768))
  2788  1587  00FB               	movwf	USART_Cadena@str+1
  2789  1588  120A  118A  27A5  160A  118A  	fcall	_USART_Cadena
  2790                           
  2791                           ;PROYECTO.c: 255:            USART_Cadena("2) ver datos de usuario dos\r");
  2792  158D  304B               	movlw	low (STR_3| (0+32768))
  2793  158E  00FA               	movwf	USART_Cadena@str
  2794  158F  308A               	movlw	high (STR_3| (0+32768))
  2795  1590  00FB               	movwf	USART_Cadena@str+1
  2796  1591  120A  118A  27A5  160A  118A  	fcall	_USART_Cadena
  2797                           
  2798                           ;PROYECTO.c: 256:            USART_Cadena("3) ver datos de usuario tres \r");
  2799  1596  300E               	movlw	low (STR_4| (0+32768))
  2800  1597  00FA               	movwf	USART_Cadena@str
  2801  1598  308A               	movlw	high (STR_4| (0+32768))
  2802  1599  00FB               	movwf	USART_Cadena@str+1
  2803  159A  120A  118A  27A5  160A  118A  	fcall	_USART_Cadena
  2804                           
  2805                           ;PROYECTO.c: 257:            USART_Cadena("4) Modificar horario usuario uno \r");
  2806  159F  308B               	movlw	low (STR_5| (0+32768))
  2807  15A0  00FA               	movwf	USART_Cadena@str
  2808  15A1  3089               	movlw	high (STR_5| (0+32768))
  2809  15A2  00FB               	movwf	USART_Cadena@str+1
  2810  15A3  120A  118A  27A5  160A  118A  	fcall	_USART_Cadena
  2811                           
  2812                           ;PROYECTO.c: 258:            USART_Cadena("5) Modificar horario usuario dos\r");
  2813  15A8  30AE               	movlw	low (STR_6| (0+32768))
  2814  15A9  00FA               	movwf	USART_Cadena@str
  2815  15AA  3089               	movlw	high (STR_6| (0+32768))
  2816  15AB  00FB               	movwf	USART_Cadena@str+1
  2817  15AC  120A  118A  27A5  160A  118A  	fcall	_USART_Cadena
  2818                           
  2819                           ;PROYECTO.c: 259:            USART_Cadena("6) Modificar horario usuario tres \r\r");
  2820  15B1  3042               	movlw	low (STR_7| (0+32768))
  2821  15B2  00FA               	movwf	USART_Cadena@str
  2822  15B3  3089               	movlw	high (STR_7| (0+32768))
  2823  15B4  00FB               	movwf	USART_Cadena@str+1
  2824  15B5  120A  118A  27A5  160A  118A  	fcall	_USART_Cadena
  2825  15BA                     l4311:
  2826                           
  2827                           ;PROYECTO.c: 260:            ventana = 0;
  2828  15BA  1283               	bcf	3,5	;RP0=0, select bank0
  2829  15BB  1303               	bcf	3,6	;RP1=0, select bank0
  2830  15BC  01AC               	clrf	_ventana
  2831  15BD                     l4313:
  2832                           
  2833                           ;PROYECTO.c: 263:        if (PIR1bits.RCIF == 1){
  2834  15BD  1E8C               	btfss	12,5	;volatile
  2835  15BE  2DC0               	goto	u6751
  2836  15BF  2DC3               	goto	u6750
  2837  15C0                     u6751:
  2838  15C0  120A  118A  2F49   	goto	l5077
  2839  15C3                     u6750:
  2840  15C3                     l4315:
  2841                           
  2842                           ;PROYECTO.c: 264:            valor = USART_Rx();
  2843  15C3  120A  118A  27F0  160A  118A  	fcall	_USART_Rx
  2844  15C8  1283               	bcf	3,5	;RP0=0, select bank0
  2845  15C9  1303               	bcf	3,6	;RP1=0, select bank0
  2846  15CA  00AE               	movwf	??_main
  2847  15CB  082E               	movf	??_main,w
  2848  15CC  00AD               	movwf	_valor
  2849  15CD                     l4317:
  2850                           
  2851                           ;PROYECTO.c: 265:            ventana = 1;
  2852  15CD  01AC               	clrf	_ventana
  2853  15CE  0AAC               	incf	_ventana,f
  2854  15CF  2DC0               	goto	u6751
  2855                           
  2856                           	psect	maintext_split_3
  2857  0EC9                     l4319:
  2858                           
  2859                           ;PROYECTO.c: 270:                 USART_Cadena(" Esperar  ");
  2860  0EC9  3082               	movlw	low (STR_8| (0+32768))
  2861  0ECA  00FA               	movwf	USART_Cadena@str
  2862  0ECB  308A               	movlw	high (STR_8| (0+32768))
  2863  0ECC  00FB               	movwf	USART_Cadena@str+1
  2864  0ECD  120A  118A  27A5  120A  158A  	fcall	_USART_Cadena
  2865                           
  2866                           ;PROYECTO.c: 271:                 switch(hora_user1){
  2867  0ED2  120A  158A  2B86   	goto	l4403
  2868  0ED5                     l208:
  2869  0ED5  1683               	bsf	3,5	;RP0=1, select bank1
  2870  0ED6  1303               	bcf	3,6	;RP1=0, select bank1
  2871  0ED7  1C98               	btfss	24,1	;volatile
  2872  0ED8  2EDA               	goto	u6761
  2873  0ED9  2EDB               	goto	u6760
  2874  0EDA                     u6761:
  2875  0EDA  2ED5               	goto	l208
  2876  0EDB                     u6760:
  2877  0EDB                     l4321:
  2878                           
  2879                           ;PROYECTO.c: 274:                         TXREG = 48;
  2880  0EDB  3030               	movlw	48
  2881  0EDC  1283               	bcf	3,5	;RP0=0, select bank0
  2882  0EDD  1303               	bcf	3,6	;RP1=0, select bank0
  2883  0EDE  0099               	movwf	25	;volatile
  2884  0EDF                     L2:
  2885                           
  2886                           ;PROYECTO.c: 275:                     break;
  2887  0EDF  120A  158A  2BE1   	goto	l4405
  2888  0EE2                     l213:
  2889  0EE2  1683               	bsf	3,5	;RP0=1, select bank1
  2890  0EE3  1303               	bcf	3,6	;RP1=0, select bank1
  2891  0EE4  1C98               	btfss	24,1	;volatile
  2892  0EE5  2EE7               	goto	u6771
  2893  0EE6  2EE8               	goto	u6770
  2894  0EE7                     u6771:
  2895  0EE7  2EE2               	goto	l213
  2896  0EE8                     u6770:
  2897  0EE8                     l4323:
  2898                           
  2899                           ;PROYECTO.c: 279:                         TXREG = 49;
  2900  0EE8  3031               	movlw	49
  2901  0EE9  1283               	bcf	3,5	;RP0=0, select bank0
  2902  0EEA  1303               	bcf	3,6	;RP1=0, select bank0
  2903  0EEB  0099               	movwf	25	;volatile
  2904                           
  2905                           ;PROYECTO.c: 280:                     break;
  2906  0EEC  2EDF               	goto	L2
  2907  0EED                     l217:
  2908  0EED  1683               	bsf	3,5	;RP0=1, select bank1
  2909  0EEE  1303               	bcf	3,6	;RP1=0, select bank1
  2910  0EEF  1C98               	btfss	24,1	;volatile
  2911  0EF0  2EF2               	goto	u6781
  2912  0EF1  2EF3               	goto	u6780
  2913  0EF2                     u6781:
  2914  0EF2  2EED               	goto	l217
  2915  0EF3                     u6780:
  2916  0EF3                     l4325:
  2917                           
  2918                           ;PROYECTO.c: 284:                         TXREG = 50;
  2919  0EF3  3032               	movlw	50
  2920  0EF4  1283               	bcf	3,5	;RP0=0, select bank0
  2921  0EF5  1303               	bcf	3,6	;RP1=0, select bank0
  2922  0EF6  0099               	movwf	25	;volatile
  2923                           
  2924                           ;PROYECTO.c: 285:                     break;
  2925  0EF7  2EDF               	goto	L2
  2926  0EF8                     l221:
  2927  0EF8  1683               	bsf	3,5	;RP0=1, select bank1
  2928  0EF9  1303               	bcf	3,6	;RP1=0, select bank1
  2929  0EFA  1C98               	btfss	24,1	;volatile
  2930  0EFB  2EFD               	goto	u6791
  2931  0EFC  2EFE               	goto	u6790
  2932  0EFD                     u6791:
  2933  0EFD  2EF8               	goto	l221
  2934  0EFE                     u6790:
  2935  0EFE                     l4327:
  2936                           
  2937                           ;PROYECTO.c: 289:                         TXREG = 51;
  2938  0EFE  3033               	movlw	51
  2939  0EFF  1283               	bcf	3,5	;RP0=0, select bank0
  2940  0F00  1303               	bcf	3,6	;RP1=0, select bank0
  2941  0F01  0099               	movwf	25	;volatile
  2942                           
  2943                           ;PROYECTO.c: 290:                     break;
  2944  0F02  2EDF               	goto	L2
  2945  0F03                     l225:
  2946  0F03  1683               	bsf	3,5	;RP0=1, select bank1
  2947  0F04  1303               	bcf	3,6	;RP1=0, select bank1
  2948  0F05  1C98               	btfss	24,1	;volatile
  2949  0F06  2F08               	goto	u6801
  2950  0F07  2F09               	goto	u6800
  2951  0F08                     u6801:
  2952  0F08  2F03               	goto	l225
  2953  0F09                     u6800:
  2954  0F09                     l4329:
  2955                           
  2956                           ;PROYECTO.c: 294:                         TXREG = 52;
  2957  0F09  3034               	movlw	52
  2958  0F0A  1283               	bcf	3,5	;RP0=0, select bank0
  2959  0F0B  1303               	bcf	3,6	;RP1=0, select bank0
  2960  0F0C  0099               	movwf	25	;volatile
  2961                           
  2962                           ;PROYECTO.c: 295:                     break;
  2963  0F0D  2EDF               	goto	L2
  2964  0F0E                     l229:
  2965  0F0E  1683               	bsf	3,5	;RP0=1, select bank1
  2966  0F0F  1303               	bcf	3,6	;RP1=0, select bank1
  2967  0F10  1C98               	btfss	24,1	;volatile
  2968  0F11  2F13               	goto	u6811
  2969  0F12  2F14               	goto	u6810
  2970  0F13                     u6811:
  2971  0F13  2F0E               	goto	l229
  2972  0F14                     u6810:
  2973  0F14                     l4331:
  2974                           
  2975                           ;PROYECTO.c: 299:                         TXREG = 53;
  2976  0F14  3035               	movlw	53
  2977  0F15  1283               	bcf	3,5	;RP0=0, select bank0
  2978  0F16  1303               	bcf	3,6	;RP1=0, select bank0
  2979  0F17  0099               	movwf	25	;volatile
  2980                           
  2981                           ;PROYECTO.c: 300:                     break;
  2982  0F18  2EDF               	goto	L2
  2983  0F19                     l233:
  2984  0F19  1683               	bsf	3,5	;RP0=1, select bank1
  2985  0F1A  1303               	bcf	3,6	;RP1=0, select bank1
  2986  0F1B  1C98               	btfss	24,1	;volatile
  2987  0F1C  2F1E               	goto	u6821
  2988  0F1D  2F1F               	goto	u6820
  2989  0F1E                     u6821:
  2990  0F1E  2F19               	goto	l233
  2991  0F1F                     u6820:
  2992  0F1F                     l4333:
  2993                           
  2994                           ;PROYECTO.c: 304:                         TXREG = 54;
  2995  0F1F  3036               	movlw	54
  2996  0F20  1283               	bcf	3,5	;RP0=0, select bank0
  2997  0F21  1303               	bcf	3,6	;RP1=0, select bank0
  2998  0F22  0099               	movwf	25	;volatile
  2999                           
  3000                           ;PROYECTO.c: 305:                     break;
  3001  0F23  2EDF               	goto	L2
  3002  0F24                     l237:
  3003  0F24  1683               	bsf	3,5	;RP0=1, select bank1
  3004  0F25  1303               	bcf	3,6	;RP1=0, select bank1
  3005  0F26  1C98               	btfss	24,1	;volatile
  3006  0F27  2F29               	goto	u6831
  3007  0F28  2F2A               	goto	u6830
  3008  0F29                     u6831:
  3009  0F29  2F24               	goto	l237
  3010  0F2A                     u6830:
  3011  0F2A                     l4335:
  3012                           
  3013                           ;PROYECTO.c: 309:                         TXREG = 55;
  3014  0F2A  3037               	movlw	55
  3015  0F2B  1283               	bcf	3,5	;RP0=0, select bank0
  3016  0F2C  1303               	bcf	3,6	;RP1=0, select bank0
  3017  0F2D  0099               	movwf	25	;volatile
  3018                           
  3019                           ;PROYECTO.c: 310:                     break;
  3020  0F2E  2EDF               	goto	L2
  3021  0F2F                     l241:
  3022  0F2F  1683               	bsf	3,5	;RP0=1, select bank1
  3023  0F30  1303               	bcf	3,6	;RP1=0, select bank1
  3024  0F31  1C98               	btfss	24,1	;volatile
  3025  0F32  2F34               	goto	u6841
  3026  0F33  2F35               	goto	u6840
  3027  0F34                     u6841:
  3028  0F34  2F2F               	goto	l241
  3029  0F35                     u6840:
  3030  0F35                     l4337:
  3031                           
  3032                           ;PROYECTO.c: 314:                         TXREG = 56;
  3033  0F35  3038               	movlw	56
  3034  0F36  1283               	bcf	3,5	;RP0=0, select bank0
  3035  0F37  1303               	bcf	3,6	;RP1=0, select bank0
  3036  0F38  0099               	movwf	25	;volatile
  3037                           
  3038                           ;PROYECTO.c: 315:                     break;
  3039  0F39  2EDF               	goto	L2
  3040  0F3A                     l245:
  3041  0F3A  1683               	bsf	3,5	;RP0=1, select bank1
  3042  0F3B  1303               	bcf	3,6	;RP1=0, select bank1
  3043  0F3C  1C98               	btfss	24,1	;volatile
  3044  0F3D  2F3F               	goto	u6851
  3045  0F3E  2F40               	goto	u6850
  3046  0F3F                     u6851:
  3047  0F3F  2F3A               	goto	l245
  3048  0F40                     u6850:
  3049  0F40                     l4339:
  3050                           
  3051                           ;PROYECTO.c: 319:                         TXREG = 57;
  3052  0F40  3039               	movlw	57
  3053  0F41  1283               	bcf	3,5	;RP0=0, select bank0
  3054  0F42  1303               	bcf	3,6	;RP1=0, select bank0
  3055  0F43  0099               	movwf	25	;volatile
  3056                           
  3057                           ;PROYECTO.c: 320:                     break;
  3058  0F44  2EDF               	goto	L2
  3059  0F45                     l249:
  3060  0F45  1683               	bsf	3,5	;RP0=1, select bank1
  3061  0F46  1303               	bcf	3,6	;RP1=0, select bank1
  3062  0F47  1C98               	btfss	24,1	;volatile
  3063  0F48  2F4A               	goto	u6861
  3064  0F49  2F4B               	goto	u6860
  3065  0F4A                     u6861:
  3066  0F4A  2F45               	goto	l249
  3067  0F4B                     u6860:
  3068  0F4B                     l4341:
  3069                           
  3070                           ;PROYECTO.c: 324:                         TXREG = 49;
  3071  0F4B  3031               	movlw	49
  3072  0F4C  1283               	bcf	3,5	;RP0=0, select bank0
  3073  0F4D  1303               	bcf	3,6	;RP1=0, select bank0
  3074  0F4E  0099               	movwf	25	;volatile
  3075  0F4F                     l252:	
  3076                           ;PROYECTO.c: 325:                         while(TXSTAbits.TRMT == 0);
  3077                           
  3078  0F4F  1683               	bsf	3,5	;RP0=1, select bank1
  3079  0F50  1303               	bcf	3,6	;RP1=0, select bank1
  3080  0F51  1C98               	btfss	24,1	;volatile
  3081  0F52  2F54               	goto	u6871
  3082  0F53  2F55               	goto	u6870
  3083  0F54                     u6871:
  3084  0F54  2F4F               	goto	l252
  3085  0F55                     u6870:
  3086  0F55  2EDB               	goto	l4321
  3087  0F56                     l256:
  3088  0F56  1683               	bsf	3,5	;RP0=1, select bank1
  3089  0F57  1303               	bcf	3,6	;RP1=0, select bank1
  3090  0F58  1C98               	btfss	24,1	;volatile
  3091  0F59  2F5B               	goto	u6881
  3092  0F5A  2F5C               	goto	u6880
  3093  0F5B                     u6881:
  3094  0F5B  2F56               	goto	l256
  3095  0F5C                     u6880:
  3096  0F5C                     l4345:
  3097                           
  3098                           ;PROYECTO.c: 331:                         TXREG = 49;
  3099  0F5C  3031               	movlw	49
  3100  0F5D  1283               	bcf	3,5	;RP0=0, select bank0
  3101  0F5E  1303               	bcf	3,6	;RP1=0, select bank0
  3102  0F5F  0099               	movwf	25	;volatile
  3103  0F60                     l259:	
  3104                           ;PROYECTO.c: 332:                         while(TXSTAbits.TRMT == 0);
  3105                           
  3106  0F60  1683               	bsf	3,5	;RP0=1, select bank1
  3107  0F61  1303               	bcf	3,6	;RP1=0, select bank1
  3108  0F62  1C98               	btfss	24,1	;volatile
  3109  0F63  2F65               	goto	u6891
  3110  0F64  2F66               	goto	u6890
  3111  0F65                     u6891:
  3112  0F65  2F60               	goto	l259
  3113  0F66                     u6890:
  3114  0F66  2EE8               	goto	l4323
  3115  0F67                     l263:
  3116  0F67  1683               	bsf	3,5	;RP0=1, select bank1
  3117  0F68  1303               	bcf	3,6	;RP1=0, select bank1
  3118  0F69  1C98               	btfss	24,1	;volatile
  3119  0F6A  2F6C               	goto	u6901
  3120  0F6B  2F6D               	goto	u6900
  3121  0F6C                     u6901:
  3122  0F6C  2F67               	goto	l263
  3123  0F6D                     u6900:
  3124  0F6D                     l4349:
  3125                           
  3126                           ;PROYECTO.c: 338:                         TXREG = 49;
  3127  0F6D  3031               	movlw	49
  3128  0F6E  1283               	bcf	3,5	;RP0=0, select bank0
  3129  0F6F  1303               	bcf	3,6	;RP1=0, select bank0
  3130  0F70  0099               	movwf	25	;volatile
  3131  0F71                     l266:	
  3132                           ;PROYECTO.c: 339:                         while(TXSTAbits.TRMT == 0);
  3133                           
  3134  0F71  1683               	bsf	3,5	;RP0=1, select bank1
  3135  0F72  1303               	bcf	3,6	;RP1=0, select bank1
  3136  0F73  1C98               	btfss	24,1	;volatile
  3137  0F74  2F76               	goto	u6911
  3138  0F75  2F77               	goto	u6910
  3139  0F76                     u6911:
  3140  0F76  2F71               	goto	l266
  3141  0F77                     u6910:
  3142  0F77  2EF3               	goto	l4325
  3143  0F78                     l270:
  3144  0F78  1683               	bsf	3,5	;RP0=1, select bank1
  3145  0F79  1303               	bcf	3,6	;RP1=0, select bank1
  3146  0F7A  1C98               	btfss	24,1	;volatile
  3147  0F7B  2F7D               	goto	u6921
  3148  0F7C  2F7E               	goto	u6920
  3149  0F7D                     u6921:
  3150  0F7D  2F78               	goto	l270
  3151  0F7E                     u6920:
  3152  0F7E                     l4353:
  3153                           
  3154                           ;PROYECTO.c: 345:                         TXREG = 49;
  3155  0F7E  3031               	movlw	49
  3156  0F7F  1283               	bcf	3,5	;RP0=0, select bank0
  3157  0F80  1303               	bcf	3,6	;RP1=0, select bank0
  3158  0F81  0099               	movwf	25	;volatile
  3159  0F82                     l273:	
  3160                           ;PROYECTO.c: 346:                         while(TXSTAbits.TRMT == 0);
  3161                           
  3162  0F82  1683               	bsf	3,5	;RP0=1, select bank1
  3163  0F83  1303               	bcf	3,6	;RP1=0, select bank1
  3164  0F84  1C98               	btfss	24,1	;volatile
  3165  0F85  2F87               	goto	u6931
  3166  0F86  2F88               	goto	u6930
  3167  0F87                     u6931:
  3168  0F87  2F82               	goto	l273
  3169  0F88                     u6930:
  3170  0F88  2EFE               	goto	l4327
  3171  0F89                     l277:
  3172  0F89  1683               	bsf	3,5	;RP0=1, select bank1
  3173  0F8A  1303               	bcf	3,6	;RP1=0, select bank1
  3174  0F8B  1C98               	btfss	24,1	;volatile
  3175  0F8C  2F8E               	goto	u6941
  3176  0F8D  2F8F               	goto	u6940
  3177  0F8E                     u6941:
  3178  0F8E  2F89               	goto	l277
  3179  0F8F                     u6940:
  3180  0F8F                     l4357:
  3181                           
  3182                           ;PROYECTO.c: 352:                         TXREG = 49;
  3183  0F8F  3031               	movlw	49
  3184  0F90  1283               	bcf	3,5	;RP0=0, select bank0
  3185  0F91  1303               	bcf	3,6	;RP1=0, select bank0
  3186  0F92  0099               	movwf	25	;volatile
  3187  0F93                     l280:	
  3188                           ;PROYECTO.c: 353:                         while(TXSTAbits.TRMT == 0);
  3189                           
  3190  0F93  1683               	bsf	3,5	;RP0=1, select bank1
  3191  0F94  1303               	bcf	3,6	;RP1=0, select bank1
  3192  0F95  1C98               	btfss	24,1	;volatile
  3193  0F96  2F98               	goto	u6951
  3194  0F97  2F99               	goto	u6950
  3195  0F98                     u6951:
  3196  0F98  2F93               	goto	l280
  3197  0F99                     u6950:
  3198  0F99  2F09               	goto	l4329
  3199  0F9A                     l284:
  3200  0F9A  1683               	bsf	3,5	;RP0=1, select bank1
  3201  0F9B  1303               	bcf	3,6	;RP1=0, select bank1
  3202  0F9C  1C98               	btfss	24,1	;volatile
  3203  0F9D  2F9F               	goto	u6961
  3204  0F9E  2FA0               	goto	u6960
  3205  0F9F                     u6961:
  3206  0F9F  2F9A               	goto	l284
  3207  0FA0                     u6960:
  3208  0FA0                     l4361:
  3209                           
  3210                           ;PROYECTO.c: 359:                         TXREG = 49;
  3211  0FA0  3031               	movlw	49
  3212  0FA1  1283               	bcf	3,5	;RP0=0, select bank0
  3213  0FA2  1303               	bcf	3,6	;RP1=0, select bank0
  3214  0FA3  0099               	movwf	25	;volatile
  3215  0FA4                     l287:	
  3216                           ;PROYECTO.c: 360:                         while(TXSTAbits.TRMT == 0);
  3217                           
  3218  0FA4  1683               	bsf	3,5	;RP0=1, select bank1
  3219  0FA5  1303               	bcf	3,6	;RP1=0, select bank1
  3220  0FA6  1C98               	btfss	24,1	;volatile
  3221  0FA7  2FA9               	goto	u6971
  3222  0FA8  2FAA               	goto	u6970
  3223  0FA9                     u6971:
  3224  0FA9  2FA4               	goto	l287
  3225  0FAA                     u6970:
  3226  0FAA  2F14               	goto	l4331
  3227  0FAB                     l291:
  3228  0FAB  1683               	bsf	3,5	;RP0=1, select bank1
  3229  0FAC  1303               	bcf	3,6	;RP1=0, select bank1
  3230  0FAD  1C98               	btfss	24,1	;volatile
  3231  0FAE  2FB0               	goto	u6981
  3232  0FAF  2FB1               	goto	u6980
  3233  0FB0                     u6981:
  3234  0FB0  2FAB               	goto	l291
  3235  0FB1                     u6980:
  3236  0FB1                     l4365:
  3237                           
  3238                           ;PROYECTO.c: 366:                         TXREG = 49;
  3239  0FB1  3031               	movlw	49
  3240  0FB2  1283               	bcf	3,5	;RP0=0, select bank0
  3241  0FB3  1303               	bcf	3,6	;RP1=0, select bank0
  3242  0FB4  0099               	movwf	25	;volatile
  3243  0FB5                     l294:	
  3244                           ;PROYECTO.c: 367:                         while(TXSTAbits.TRMT == 0);
  3245                           
  3246  0FB5  1683               	bsf	3,5	;RP0=1, select bank1
  3247  0FB6  1303               	bcf	3,6	;RP1=0, select bank1
  3248  0FB7  1C98               	btfss	24,1	;volatile
  3249  0FB8  2FBA               	goto	u6991
  3250  0FB9  2FBB               	goto	u6990
  3251  0FBA                     u6991:
  3252  0FBA  2FB5               	goto	l294
  3253  0FBB                     u6990:
  3254  0FBB  2F1F               	goto	l4333
  3255  0FBC                     l298:
  3256  0FBC  1683               	bsf	3,5	;RP0=1, select bank1
  3257  0FBD  1303               	bcf	3,6	;RP1=0, select bank1
  3258  0FBE  1C98               	btfss	24,1	;volatile
  3259  0FBF  2FC1               	goto	u7001
  3260  0FC0  2FC2               	goto	u7000
  3261  0FC1                     u7001:
  3262  0FC1  2FBC               	goto	l298
  3263  0FC2                     u7000:
  3264  0FC2                     l4369:
  3265                           
  3266                           ;PROYECTO.c: 373:                         TXREG = 49;
  3267  0FC2  3031               	movlw	49
  3268  0FC3  1283               	bcf	3,5	;RP0=0, select bank0
  3269  0FC4  1303               	bcf	3,6	;RP1=0, select bank0
  3270  0FC5  0099               	movwf	25	;volatile
  3271  0FC6                     l301:	
  3272                           ;PROYECTO.c: 374:                         while(TXSTAbits.TRMT == 0);
  3273                           
  3274  0FC6  1683               	bsf	3,5	;RP0=1, select bank1
  3275  0FC7  1303               	bcf	3,6	;RP1=0, select bank1
  3276  0FC8  1C98               	btfss	24,1	;volatile
  3277  0FC9  2FCB               	goto	u7011
  3278  0FCA  2FCC               	goto	u7010
  3279  0FCB                     u7011:
  3280  0FCB  2FC6               	goto	l301
  3281  0FCC                     u7010:
  3282  0FCC  2F2A               	goto	l4335
  3283  0FCD                     l305:
  3284  0FCD  1683               	bsf	3,5	;RP0=1, select bank1
  3285  0FCE  1303               	bcf	3,6	;RP1=0, select bank1
  3286  0FCF  1C98               	btfss	24,1	;volatile
  3287  0FD0  2FD2               	goto	u7021
  3288  0FD1  2FD3               	goto	u7020
  3289  0FD2                     u7021:
  3290  0FD2  2FCD               	goto	l305
  3291  0FD3                     u7020:
  3292  0FD3                     l4373:
  3293                           
  3294                           ;PROYECTO.c: 380:                         TXREG = 49;
  3295  0FD3  3031               	movlw	49
  3296  0FD4  1283               	bcf	3,5	;RP0=0, select bank0
  3297  0FD5  1303               	bcf	3,6	;RP1=0, select bank0
  3298  0FD6  0099               	movwf	25	;volatile
  3299  0FD7                     l308:	
  3300                           ;PROYECTO.c: 381:                         while(TXSTAbits.TRMT == 0);
  3301                           
  3302  0FD7  1683               	bsf	3,5	;RP0=1, select bank1
  3303  0FD8  1303               	bcf	3,6	;RP1=0, select bank1
  3304  0FD9  1C98               	btfss	24,1	;volatile
  3305  0FDA  2FDC               	goto	u7031
  3306  0FDB  2FDD               	goto	u7030
  3307  0FDC                     u7031:
  3308  0FDC  2FD7               	goto	l308
  3309  0FDD                     u7030:
  3310  0FDD  2F35               	goto	l4337
  3311  0FDE                     l312:
  3312  0FDE  1683               	bsf	3,5	;RP0=1, select bank1
  3313  0FDF  1303               	bcf	3,6	;RP1=0, select bank1
  3314  0FE0  1C98               	btfss	24,1	;volatile
  3315  0FE1  2FE3               	goto	u7041
  3316  0FE2  2FE4               	goto	u7040
  3317  0FE3                     u7041:
  3318  0FE3  2FDE               	goto	l312
  3319  0FE4                     u7040:
  3320  0FE4                     l4377:
  3321                           
  3322                           ;PROYECTO.c: 387:                         TXREG = 49;
  3323  0FE4  3031               	movlw	49
  3324  0FE5  1283               	bcf	3,5	;RP0=0, select bank0
  3325  0FE6  1303               	bcf	3,6	;RP1=0, select bank0
  3326  0FE7  0099               	movwf	25	;volatile
  3327  0FE8                     l315:	
  3328                           ;PROYECTO.c: 388:                         while(TXSTAbits.TRMT == 0);
  3329                           
  3330  0FE8  1683               	bsf	3,5	;RP0=1, select bank1
  3331  0FE9  1303               	bcf	3,6	;RP1=0, select bank1
  3332  0FEA  1C98               	btfss	24,1	;volatile
  3333  0FEB  2FED               	goto	u7051
  3334  0FEC  2FEE               	goto	u7050
  3335  0FED                     u7051:
  3336  0FED  2FE8               	goto	l315
  3337  0FEE                     u7050:
  3338  0FEE  2F40               	goto	l4339
  3339  0FEF                     l319:
  3340  0FEF  1683               	bsf	3,5	;RP0=1, select bank1
  3341  0FF0  1303               	bcf	3,6	;RP1=0, select bank1
  3342  0FF1  1C98               	btfss	24,1	;volatile
  3343  0FF2  2FF4               	goto	u7061
  3344  0FF3  2FF5               	goto	u7060
  3345  0FF4                     u7061:
  3346  0FF4  2FEF               	goto	l319
  3347  0FF5                     u7060:
  3348  0FF5                     l4381:
  3349                           
  3350                           ;PROYECTO.c: 394:                         TXREG = 50;
  3351  0FF5  3032               	movlw	50
  3352  0FF6  1283               	bcf	3,5	;RP0=0, select bank0
  3353  0FF7  1303               	bcf	3,6	;RP1=0, select bank0
  3354  0FF8  0099               	movwf	25	;volatile
  3355  0FF9                     l322:	
  3356                           ;PROYECTO.c: 395:                         while(TXSTAbits.TRMT == 0);
  3357                           
  3358  0FF9  1683               	bsf	3,5	;RP0=1, select bank1
  3359  0FFA  1303               	bcf	3,6	;RP1=0, select bank1
  3360  0FFB  1C98               	btfss	24,1	;volatile
  3361  0FFC  2FFE               	goto	u7071
  3362  0FFD  2FFF               	goto	u7070
  3363  0FFE                     u7071:
  3364  0FFE  2FF9               	goto	l322
  3365  0FFF                     u7070:
  3366  0FFF  2EDB               	goto	l4321
  3367                           
  3368                           	psect	maintext_split_4
  3369  0B3A                     l326:
  3370  0B3A  1683               	bsf	3,5	;RP0=1, select bank1
  3371  0B3B  1303               	bcf	3,6	;RP1=0, select bank1
  3372  0B3C  1C98               	btfss	24,1	;volatile
  3373  0B3D  2B3F               	goto	u7081
  3374  0B3E  2B40               	goto	u7080
  3375  0B3F                     u7081:
  3376  0B3F  2B3A               	goto	l326
  3377  0B40                     u7080:
  3378  0B40                     l4385:
  3379                           
  3380                           ;PROYECTO.c: 401:                         TXREG = 50;
  3381  0B40  3032               	movlw	50
  3382  0B41  1283               	bcf	3,5	;RP0=0, select bank0
  3383  0B42  1303               	bcf	3,6	;RP1=0, select bank0
  3384  0B43  0099               	movwf	25	;volatile
  3385  0B44                     l329:	
  3386                           ;PROYECTO.c: 402:                         while(TXSTAbits.TRMT == 0);
  3387                           
  3388  0B44  1683               	bsf	3,5	;RP0=1, select bank1
  3389  0B45  1303               	bcf	3,6	;RP1=0, select bank1
  3390  0B46  1C98               	btfss	24,1	;volatile
  3391  0B47  2B49               	goto	u7091
  3392  0B48  2B4A               	goto	u7090
  3393  0B49                     u7091:
  3394  0B49  2B44               	goto	l329
  3395  0B4A                     u7090:
  3396  0B4A  120A  158A  2EE8   	goto	l4323
  3397  0B4D                     l333:
  3398  0B4D  1683               	bsf	3,5	;RP0=1, select bank1
  3399  0B4E  1303               	bcf	3,6	;RP1=0, select bank1
  3400  0B4F  1C98               	btfss	24,1	;volatile
  3401  0B50  2B52               	goto	u7101
  3402  0B51  2B53               	goto	u7100
  3403  0B52                     u7101:
  3404  0B52  2B4D               	goto	l333
  3405  0B53                     u7100:
  3406  0B53                     l4389:
  3407                           
  3408                           ;PROYECTO.c: 408:                         TXREG = 50;
  3409  0B53  3032               	movlw	50
  3410  0B54  1283               	bcf	3,5	;RP0=0, select bank0
  3411  0B55  1303               	bcf	3,6	;RP1=0, select bank0
  3412  0B56  0099               	movwf	25	;volatile
  3413  0B57                     l336:	
  3414                           ;PROYECTO.c: 409:                         while(TXSTAbits.TRMT == 0);
  3415                           
  3416  0B57  1683               	bsf	3,5	;RP0=1, select bank1
  3417  0B58  1303               	bcf	3,6	;RP1=0, select bank1
  3418  0B59  1C98               	btfss	24,1	;volatile
  3419  0B5A  2B5C               	goto	u7111
  3420  0B5B  2B5D               	goto	u7110
  3421  0B5C                     u7111:
  3422  0B5C  2B57               	goto	l336
  3423  0B5D                     u7110:
  3424  0B5D  120A  158A  2EF3   	goto	l4325
  3425  0B60                     l340:
  3426  0B60  1683               	bsf	3,5	;RP0=1, select bank1
  3427  0B61  1303               	bcf	3,6	;RP1=0, select bank1
  3428  0B62  1C98               	btfss	24,1	;volatile
  3429  0B63  2B65               	goto	u7121
  3430  0B64  2B66               	goto	u7120
  3431  0B65                     u7121:
  3432  0B65  2B60               	goto	l340
  3433  0B66                     u7120:
  3434  0B66                     l4393:
  3435                           
  3436                           ;PROYECTO.c: 415:                         TXREG = 50;
  3437  0B66  3032               	movlw	50
  3438  0B67  1283               	bcf	3,5	;RP0=0, select bank0
  3439  0B68  1303               	bcf	3,6	;RP1=0, select bank0
  3440  0B69  0099               	movwf	25	;volatile
  3441  0B6A                     l343:	
  3442                           ;PROYECTO.c: 416:                         while(TXSTAbits.TRMT == 0);
  3443                           
  3444  0B6A  1683               	bsf	3,5	;RP0=1, select bank1
  3445  0B6B  1303               	bcf	3,6	;RP1=0, select bank1
  3446  0B6C  1C98               	btfss	24,1	;volatile
  3447  0B6D  2B6F               	goto	u7131
  3448  0B6E  2B70               	goto	u7130
  3449  0B6F                     u7131:
  3450  0B6F  2B6A               	goto	l343
  3451  0B70                     u7130:
  3452  0B70  120A  158A  2EFE   	goto	l4327
  3453  0B73                     l347:
  3454  0B73  1683               	bsf	3,5	;RP0=1, select bank1
  3455  0B74  1303               	bcf	3,6	;RP1=0, select bank1
  3456  0B75  1C98               	btfss	24,1	;volatile
  3457  0B76  2B78               	goto	u7141
  3458  0B77  2B79               	goto	u7140
  3459  0B78                     u7141:
  3460  0B78  2B73               	goto	l347
  3461  0B79                     u7140:
  3462  0B79                     l4397:
  3463                           
  3464                           ;PROYECTO.c: 422:                         TXREG = 50;
  3465  0B79  3032               	movlw	50
  3466  0B7A  1283               	bcf	3,5	;RP0=0, select bank0
  3467  0B7B  1303               	bcf	3,6	;RP1=0, select bank0
  3468  0B7C  0099               	movwf	25	;volatile
  3469  0B7D                     l350:	
  3470                           ;PROYECTO.c: 423:                         while(TXSTAbits.TRMT == 0);
  3471                           
  3472  0B7D  1683               	bsf	3,5	;RP0=1, select bank1
  3473  0B7E  1303               	bcf	3,6	;RP1=0, select bank1
  3474  0B7F  1C98               	btfss	24,1	;volatile
  3475  0B80  2B82               	goto	u7151
  3476  0B81  2B83               	goto	u7150
  3477  0B82                     u7151:
  3478  0B82  2B7D               	goto	l350
  3479  0B83                     u7150:
  3480  0B83  120A  158A  2F09   	goto	l4329
  3481  0B86                     l4403:
  3482  0B86  1283               	bcf	3,5	;RP0=0, select bank0
  3483  0B87  1303               	bcf	3,6	;RP1=0, select bank0
  3484  0B88  082B               	movf	_hora_user1,w
  3485  0B89  00AE               	movwf	??_main
  3486  0B8A  01AF               	clrf	??_main+1
  3487                           
  3488                           ; Switch on 2 bytes has been partitioned into a top level switch of size 1, and 1 sub-sw
      +                          itches
  3489                           ; Switch size 1, requested type "simple"
  3490                           ; Number of cases is 1, Range of values is 0 to 0
  3491                           ; switch strategies available:
  3492                           ; Name         Instructions Cycles
  3493                           ; simple_byte            4     3 (average)
  3494                           ; direct_byte           11     8 (fixed)
  3495                           ; jumptable            260     6 (fixed)
  3496                           ;	Chosen strategy is simple_byte
  3497  0B8B  082F               	movf	??_main+1,w
  3498  0B8C  3A00               	xorlw	0	; case 0
  3499  0B8D  1903               	skipnz
  3500  0B8E  2B90               	goto	l5237
  3501  0B8F  2BE1               	goto	l4405
  3502  0B90                     l5237:
  3503                           
  3504                           ; Switch size 1, requested type "simple"
  3505                           ; Number of cases is 25, Range of values is 0 to 24
  3506                           ; switch strategies available:
  3507                           ; Name         Instructions Cycles
  3508                           ; simple_byte           76    39 (average)
  3509                           ; direct_byte           83     8 (fixed)
  3510                           ; jumptable            260     6 (fixed)
  3511                           ;	Chosen strategy is simple_byte
  3512  0B90  082E               	movf	??_main,w
  3513  0B91  3A00               	xorlw	0	; case 0
  3514  0B92  120A  158A  1903   	skipnz
  3515  0B95  2ED5               	goto	l208
  3516  0B96  3A01               	xorlw	1	; case 1
  3517  0B97  1903               	skipnz
  3518  0B98  2EE2               	goto	l213
  3519  0B99  3A03               	xorlw	3	; case 2
  3520  0B9A  1903               	skipnz
  3521  0B9B  2EED               	goto	l217
  3522  0B9C  3A01               	xorlw	1	; case 3
  3523  0B9D  1903               	skipnz
  3524  0B9E  2EF8               	goto	l221
  3525  0B9F  3A07               	xorlw	7	; case 4
  3526  0BA0  1903               	skipnz
  3527  0BA1  2F03               	goto	l225
  3528  0BA2  3A01               	xorlw	1	; case 5
  3529  0BA3  1903               	skipnz
  3530  0BA4  2F0E               	goto	l229
  3531  0BA5  3A03               	xorlw	3	; case 6
  3532  0BA6  1903               	skipnz
  3533  0BA7  2F19               	goto	l233
  3534  0BA8  3A01               	xorlw	1	; case 7
  3535  0BA9  1903               	skipnz
  3536  0BAA  2F24               	goto	l237
  3537  0BAB  3A0F               	xorlw	15	; case 8
  3538  0BAC  1903               	skipnz
  3539  0BAD  2F2F               	goto	l241
  3540  0BAE  3A01               	xorlw	1	; case 9
  3541  0BAF  1903               	skipnz
  3542  0BB0  2F3A               	goto	l245
  3543  0BB1  3A03               	xorlw	3	; case 10
  3544  0BB2  1903               	skipnz
  3545  0BB3  2F45               	goto	l249
  3546  0BB4  3A01               	xorlw	1	; case 11
  3547  0BB5  1903               	skipnz
  3548  0BB6  2F56               	goto	l256
  3549  0BB7  3A07               	xorlw	7	; case 12
  3550  0BB8  1903               	skipnz
  3551  0BB9  2F67               	goto	l263
  3552  0BBA  3A01               	xorlw	1	; case 13
  3553  0BBB  1903               	skipnz
  3554  0BBC  2F78               	goto	l270
  3555  0BBD  3A03               	xorlw	3	; case 14
  3556  0BBE  1903               	skipnz
  3557  0BBF  2F89               	goto	l277
  3558  0BC0  3A01               	xorlw	1	; case 15
  3559  0BC1  1903               	skipnz
  3560  0BC2  2F9A               	goto	l284
  3561  0BC3  3A1F               	xorlw	31	; case 16
  3562  0BC4  1903               	skipnz
  3563  0BC5  2FAB               	goto	l291
  3564  0BC6  3A01               	xorlw	1	; case 17
  3565  0BC7  1903               	skipnz
  3566  0BC8  2FBC               	goto	l298
  3567  0BC9  3A03               	xorlw	3	; case 18
  3568  0BCA  1903               	skipnz
  3569  0BCB  2FCD               	goto	l305
  3570  0BCC  3A01               	xorlw	1	; case 19
  3571  0BCD  1903               	skipnz
  3572  0BCE  2FDE  120A  158A   	goto	l312
  3573  0BD1  3A07               	xorlw	7	; case 20
  3574  0BD2  1903               	skipnz
  3575  0BD3  2C58               	goto	L7
  3576  0BD4  3A01               	xorlw	1	; case 21
  3577  0BD5  1903               	skipnz
  3578  0BD6  2B3A               	goto	l326
  3579  0BD7  3A03               	xorlw	3	; case 22
  3580  0BD8  1903               	skipnz
  3581  0BD9  2B4D               	goto	l333
  3582  0BDA  3A01               	xorlw	1	; case 23
  3583  0BDB  1903               	skipnz
  3584  0BDC  2B60               	goto	l340
  3585  0BDD  3A0F               	xorlw	15	; case 24
  3586  0BDE  1903               	skipnz
  3587  0BDF  2B73               	goto	l347
  3588  0BE0  2BE1               	goto	l4405
  3589  0BE1                     l4405:
  3590                           
  3591                           ;PROYECTO.c: 428:                 USART_Cadena(" Horas ");
  3592  0BE1  308D               	movlw	low (STR_9| (0+32768))
  3593  0BE2  00FA               	movwf	USART_Cadena@str
  3594  0BE3  308A               	movlw	high (STR_9| (0+32768))
  3595  0BE4  00FB               	movwf	USART_Cadena@str+1
  3596  0BE5  120A  118A  27A5  120A  158A  	fcall	_USART_Cadena
  3597                           
  3598                           ;PROYECTO.c: 429:                 USART_Cadena(" con  ");
  3599  0BEA  3095               	movlw	low (STR_10| (0+32768))
  3600  0BEB  00FA               	movwf	USART_Cadena@str
  3601  0BEC  308A               	movlw	high (STR_10| (0+32768))
  3602  0BED  00FB               	movwf	USART_Cadena@str+1
  3603  0BEE  120A  118A  27A5  120A  158A  	fcall	_USART_Cadena
  3604  0BF3                     l353:	
  3605                           ;PROYECTO.c: 430:                 while(TXSTAbits.TRMT == 0);
  3606                           
  3607  0BF3  1683               	bsf	3,5	;RP0=1, select bank1
  3608  0BF4  1303               	bcf	3,6	;RP1=0, select bank1
  3609  0BF5  1C98               	btfss	24,1	;volatile
  3610  0BF6  2BF8               	goto	u7161
  3611  0BF7  2BF9               	goto	u7160
  3612  0BF8                     u7161:
  3613  0BF8  2BF3               	goto	l353
  3614  0BF9                     u7160:
  3615  0BF9                     l4407:
  3616                           
  3617                           ;PROYECTO.c: 431:                 if(min_user1 == 0) {
  3618  0BF9  0873               	movf	_min_user1,w
  3619  0BFA  1D03               	btfss	3,2
  3620  0BFB  2BFD               	goto	u7171
  3621  0BFC  2BFE               	goto	u7170
  3622  0BFD                     u7171:
  3623  0BFD  2C08               	goto	l4411
  3624  0BFE                     u7170:
  3625  0BFE                     l4409:
  3626                           
  3627                           ;PROYECTO.c: 432:                     USART_Cadena("0");
  3628  0BFE  309D               	movlw	low ((STR_13+1)| (0+32768))
  3629  0BFF  00FA               	movwf	USART_Cadena@str
  3630  0C00  308A               	movlw	high ((STR_13+1)| (0+32768))
  3631  0C01  00FB               	movwf	USART_Cadena@str+1
  3632  0C02  120A  118A  27A5  120A  158A  	fcall	_USART_Cadena
  3633                           
  3634                           ;PROYECTO.c: 433:                 }else if (min_user1 == 15){
  3635  0C07  2C48               	goto	l357
  3636  0C08                     l4411:
  3637  0C08  300F               	movlw	15
  3638  0C09  0673               	xorwf	_min_user1,w
  3639  0C0A  1D03               	btfss	3,2
  3640  0C0B  2C0D               	goto	u7181
  3641  0C0C  2C0E               	goto	u7180
  3642  0C0D                     u7181:
  3643  0C0D  2C18               	goto	l4415
  3644  0C0E                     u7180:
  3645  0C0E                     l4413:
  3646                           
  3647                           ;PROYECTO.c: 434:                     USART_Cadena("15");
  3648  0C0E  30A2               	movlw	low (STR_12| (0+32768))
  3649  0C0F  00FA               	movwf	USART_Cadena@str
  3650  0C10  308A               	movlw	high (STR_12| (0+32768))
  3651  0C11  00FB               	movwf	USART_Cadena@str+1
  3652  0C12  120A  118A  27A5  120A  158A  	fcall	_USART_Cadena
  3653                           
  3654                           ;PROYECTO.c: 435:                 }else if (min_user1 == 30){
  3655  0C17  2C48               	goto	l357
  3656  0C18                     l4415:
  3657  0C18  301E               	movlw	30
  3658  0C19  0673               	xorwf	_min_user1,w
  3659  0C1A  1D03               	btfss	3,2
  3660  0C1B  2C1D               	goto	u7191
  3661  0C1C  2C1E               	goto	u7190
  3662  0C1D                     u7191:
  3663  0C1D  2C28               	goto	l4419
  3664  0C1E                     u7190:
  3665  0C1E                     l4417:
  3666                           
  3667                           ;PROYECTO.c: 436:                     USART_Cadena("30");
  3668  0C1E  309C               	movlw	low (STR_13| (0+32768))
  3669  0C1F  00FA               	movwf	USART_Cadena@str
  3670  0C20  308A               	movlw	high (STR_13| (0+32768))
  3671  0C21  00FB               	movwf	USART_Cadena@str+1
  3672  0C22  120A  118A  27A5  120A  158A  	fcall	_USART_Cadena
  3673                           
  3674                           ;PROYECTO.c: 437:                 }else if (min_user1 == 45){
  3675  0C27  2C48               	goto	l357
  3676  0C28                     l4419:
  3677  0C28  302D               	movlw	45
  3678  0C29  0673               	xorwf	_min_user1,w
  3679  0C2A  1D03               	btfss	3,2
  3680  0C2B  2C2D               	goto	u7201
  3681  0C2C  2C2E               	goto	u7200
  3682  0C2D                     u7201:
  3683  0C2D  2C38               	goto	l4423
  3684  0C2E                     u7200:
  3685  0C2E                     l4421:
  3686                           
  3687                           ;PROYECTO.c: 438:                     USART_Cadena("45");
  3688  0C2E  30A5               	movlw	low (STR_14| (0+32768))
  3689  0C2F  00FA               	movwf	USART_Cadena@str
  3690  0C30  308A               	movlw	high (STR_14| (0+32768))
  3691  0C31  00FB               	movwf	USART_Cadena@str+1
  3692  0C32  120A  118A  27A5  120A  158A  	fcall	_USART_Cadena
  3693                           
  3694                           ;PROYECTO.c: 439:                 }else if (min_user1 == 60){
  3695  0C37  2C48               	goto	l357
  3696  0C38                     l4423:
  3697  0C38  303C               	movlw	60
  3698  0C39  0673               	xorwf	_min_user1,w
  3699  0C3A  1D03               	btfss	3,2
  3700  0C3B  2C3D               	goto	u7211
  3701  0C3C  2C3E               	goto	u7210
  3702  0C3D                     u7211:
  3703  0C3D  2C48               	goto	l361
  3704  0C3E                     u7210:
  3705  0C3E                     l4425:
  3706                           
  3707                           ;PROYECTO.c: 440:                     USART_Cadena("60");
  3708  0C3E  309F               	movlw	low (STR_15| (0+32768))
  3709  0C3F  00FA               	movwf	USART_Cadena@str
  3710  0C40  308A               	movlw	high (STR_15| (0+32768))
  3711  0C41  00FB               	movwf	USART_Cadena@str+1
  3712  0C42  120A  118A  27A5  120A  158A  	fcall	_USART_Cadena
  3713  0C47  2C48               	goto	l357
  3714  0C48                     l361:
  3715  0C48                     l357:
  3716                           
  3717                           ;PROYECTO.c: 442:                 USART_Cadena(" mins. para el medicamento  \r\r");
  3718  0C48  30D0               	movlw	low (STR_16| (0+32768))
  3719  0C49  00FA               	movwf	USART_Cadena@str
  3720  0C4A  3089               	movlw	high (STR_16| (0+32768))
  3721  0C4B  00FB               	movwf	USART_Cadena@str+1
  3722  0C4C  120A  118A  27A5  120A  158A  	fcall	_USART_Cadena
  3723  0C51                     l4427:
  3724                           
  3725                           ;PROYECTO.c: 443:                 ventana = 1;
  3726  0C51  1283               	bcf	3,5	;RP0=0, select bank0
  3727  0C52  1303               	bcf	3,6	;RP1=0, select bank0
  3728  0C53  01AC               	clrf	_ventana
  3729  0C54  0AAC               	incf	_ventana,f
  3730                           
  3731                           ;PROYECTO.c: 444:                 break;
  3732  0C55  120A  118A  2F65   	goto	l5079
  3733  0C58                     L7:
  3734  0C58                     L6:
  3735  0C58  120A  118A  2F93   	ljmp	L3
  3736                           
  3737                           	psect	maintext_split_5
  3738  0D92                     l4429:
  3739                           
  3740                           ;PROYECTO.c: 447:                 USART_Cadena(" Esperar  ");
  3741  0D92  3082               	movlw	low (STR_8| (0+32768))
  3742  0D93  00FA               	movwf	USART_Cadena@str
  3743  0D94  308A               	movlw	high (STR_8| (0+32768))
  3744  0D95  00FB               	movwf	USART_Cadena@str+1
  3745  0D96  120A  118A  27A5  120A  158A  	fcall	_USART_Cadena
  3746                           
  3747                           ;PROYECTO.c: 448:                 switch(hora_user2){
  3748  0D9B  160A  118A  2F2F   	goto	l4513
  3749  0D9E                     l369:
  3750  0D9E  1683               	bsf	3,5	;RP0=1, select bank1
  3751  0D9F  1303               	bcf	3,6	;RP1=0, select bank1
  3752  0DA0  1C98               	btfss	24,1	;volatile
  3753  0DA1  2DA3               	goto	u7221
  3754  0DA2  2DA4               	goto	u7220
  3755  0DA3                     u7221:
  3756  0DA3  2D9E               	goto	l369
  3757  0DA4                     u7220:
  3758  0DA4                     l4431:
  3759                           
  3760                           ;PROYECTO.c: 451:                         TXREG = 48;
  3761  0DA4  3030               	movlw	48
  3762  0DA5  1283               	bcf	3,5	;RP0=0, select bank0
  3763  0DA6  1303               	bcf	3,6	;RP1=0, select bank0
  3764  0DA7  0099               	movwf	25	;volatile
  3765  0DA8                     L8:
  3766                           
  3767                           ;PROYECTO.c: 452:                     break;
  3768  0DA8  160A  118A  2F8A   	goto	l4515
  3769  0DAB                     l374:
  3770  0DAB  1683               	bsf	3,5	;RP0=1, select bank1
  3771  0DAC  1303               	bcf	3,6	;RP1=0, select bank1
  3772  0DAD  1C98               	btfss	24,1	;volatile
  3773  0DAE  2DB0               	goto	u7231
  3774  0DAF  2DB1               	goto	u7230
  3775  0DB0                     u7231:
  3776  0DB0  2DAB               	goto	l374
  3777  0DB1                     u7230:
  3778  0DB1                     l4433:
  3779                           
  3780                           ;PROYECTO.c: 456:                         TXREG = 49;
  3781  0DB1  3031               	movlw	49
  3782  0DB2  1283               	bcf	3,5	;RP0=0, select bank0
  3783  0DB3  1303               	bcf	3,6	;RP1=0, select bank0
  3784  0DB4  0099               	movwf	25	;volatile
  3785                           
  3786                           ;PROYECTO.c: 457:                     break;
  3787  0DB5  2DA8               	goto	L8
  3788  0DB6                     l378:
  3789  0DB6  1683               	bsf	3,5	;RP0=1, select bank1
  3790  0DB7  1303               	bcf	3,6	;RP1=0, select bank1
  3791  0DB8  1C98               	btfss	24,1	;volatile
  3792  0DB9  2DBB               	goto	u7241
  3793  0DBA  2DBC               	goto	u7240
  3794  0DBB                     u7241:
  3795  0DBB  2DB6               	goto	l378
  3796  0DBC                     u7240:
  3797  0DBC                     l4435:
  3798                           
  3799                           ;PROYECTO.c: 461:                         TXREG = 50;
  3800  0DBC  3032               	movlw	50
  3801  0DBD  1283               	bcf	3,5	;RP0=0, select bank0
  3802  0DBE  1303               	bcf	3,6	;RP1=0, select bank0
  3803  0DBF  0099               	movwf	25	;volatile
  3804                           
  3805                           ;PROYECTO.c: 462:                     break;
  3806  0DC0  2DA8               	goto	L8
  3807  0DC1                     l382:
  3808  0DC1  1683               	bsf	3,5	;RP0=1, select bank1
  3809  0DC2  1303               	bcf	3,6	;RP1=0, select bank1
  3810  0DC3  1C98               	btfss	24,1	;volatile
  3811  0DC4  2DC6               	goto	u7251
  3812  0DC5  2DC7               	goto	u7250
  3813  0DC6                     u7251:
  3814  0DC6  2DC1               	goto	l382
  3815  0DC7                     u7250:
  3816  0DC7                     l4437:
  3817                           
  3818                           ;PROYECTO.c: 466:                         TXREG = 51;
  3819  0DC7  3033               	movlw	51
  3820  0DC8  1283               	bcf	3,5	;RP0=0, select bank0
  3821  0DC9  1303               	bcf	3,6	;RP1=0, select bank0
  3822  0DCA  0099               	movwf	25	;volatile
  3823                           
  3824                           ;PROYECTO.c: 467:                     break;
  3825  0DCB  2DA8               	goto	L8
  3826  0DCC                     l386:
  3827  0DCC  1683               	bsf	3,5	;RP0=1, select bank1
  3828  0DCD  1303               	bcf	3,6	;RP1=0, select bank1
  3829  0DCE  1C98               	btfss	24,1	;volatile
  3830  0DCF  2DD1               	goto	u7261
  3831  0DD0  2DD2               	goto	u7260
  3832  0DD1                     u7261:
  3833  0DD1  2DCC               	goto	l386
  3834  0DD2                     u7260:
  3835  0DD2                     l4439:
  3836                           
  3837                           ;PROYECTO.c: 471:                         TXREG = 52;
  3838  0DD2  3034               	movlw	52
  3839  0DD3  1283               	bcf	3,5	;RP0=0, select bank0
  3840  0DD4  1303               	bcf	3,6	;RP1=0, select bank0
  3841  0DD5  0099               	movwf	25	;volatile
  3842                           
  3843                           ;PROYECTO.c: 472:                     break;
  3844  0DD6  2DA8               	goto	L8
  3845  0DD7                     l390:
  3846  0DD7  1683               	bsf	3,5	;RP0=1, select bank1
  3847  0DD8  1303               	bcf	3,6	;RP1=0, select bank1
  3848  0DD9  1C98               	btfss	24,1	;volatile
  3849  0DDA  2DDC               	goto	u7271
  3850  0DDB  2DDD               	goto	u7270
  3851  0DDC                     u7271:
  3852  0DDC  2DD7               	goto	l390
  3853  0DDD                     u7270:
  3854  0DDD                     l4441:
  3855                           
  3856                           ;PROYECTO.c: 476:                         TXREG = 53;
  3857  0DDD  3035               	movlw	53
  3858  0DDE  1283               	bcf	3,5	;RP0=0, select bank0
  3859  0DDF  1303               	bcf	3,6	;RP1=0, select bank0
  3860  0DE0  0099               	movwf	25	;volatile
  3861                           
  3862                           ;PROYECTO.c: 477:                     break;
  3863  0DE1  2DA8               	goto	L8
  3864  0DE2                     l394:
  3865  0DE2  1683               	bsf	3,5	;RP0=1, select bank1
  3866  0DE3  1303               	bcf	3,6	;RP1=0, select bank1
  3867  0DE4  1C98               	btfss	24,1	;volatile
  3868  0DE5  2DE7               	goto	u7281
  3869  0DE6  2DE8               	goto	u7280
  3870  0DE7                     u7281:
  3871  0DE7  2DE2               	goto	l394
  3872  0DE8                     u7280:
  3873  0DE8                     l4443:
  3874                           
  3875                           ;PROYECTO.c: 481:                         TXREG = 54;
  3876  0DE8  3036               	movlw	54
  3877  0DE9  1283               	bcf	3,5	;RP0=0, select bank0
  3878  0DEA  1303               	bcf	3,6	;RP1=0, select bank0
  3879  0DEB  0099               	movwf	25	;volatile
  3880                           
  3881                           ;PROYECTO.c: 482:                     break;
  3882  0DEC  2DA8               	goto	L8
  3883  0DED                     l398:
  3884  0DED  1683               	bsf	3,5	;RP0=1, select bank1
  3885  0DEE  1303               	bcf	3,6	;RP1=0, select bank1
  3886  0DEF  1C98               	btfss	24,1	;volatile
  3887  0DF0  2DF2               	goto	u7291
  3888  0DF1  2DF3               	goto	u7290
  3889  0DF2                     u7291:
  3890  0DF2  2DED               	goto	l398
  3891  0DF3                     u7290:
  3892  0DF3                     l4445:
  3893                           
  3894                           ;PROYECTO.c: 486:                         TXREG = 55;
  3895  0DF3  3037               	movlw	55
  3896  0DF4  1283               	bcf	3,5	;RP0=0, select bank0
  3897  0DF5  1303               	bcf	3,6	;RP1=0, select bank0
  3898  0DF6  0099               	movwf	25	;volatile
  3899                           
  3900                           ;PROYECTO.c: 487:                     break;
  3901  0DF7  2DA8               	goto	L8
  3902  0DF8                     l402:
  3903  0DF8  1683               	bsf	3,5	;RP0=1, select bank1
  3904  0DF9  1303               	bcf	3,6	;RP1=0, select bank1
  3905  0DFA  1C98               	btfss	24,1	;volatile
  3906  0DFB  2DFD               	goto	u7301
  3907  0DFC  2DFE               	goto	u7300
  3908  0DFD                     u7301:
  3909  0DFD  2DF8               	goto	l402
  3910  0DFE                     u7300:
  3911  0DFE                     l4447:
  3912                           
  3913                           ;PROYECTO.c: 491:                         TXREG = 56;
  3914  0DFE  3038               	movlw	56
  3915  0DFF  1283               	bcf	3,5	;RP0=0, select bank0
  3916  0E00  1303               	bcf	3,6	;RP1=0, select bank0
  3917  0E01  0099               	movwf	25	;volatile
  3918                           
  3919                           ;PROYECTO.c: 492:                     break;
  3920  0E02  2DA8               	goto	L8
  3921  0E03                     l406:
  3922  0E03  1683               	bsf	3,5	;RP0=1, select bank1
  3923  0E04  1303               	bcf	3,6	;RP1=0, select bank1
  3924  0E05  1C98               	btfss	24,1	;volatile
  3925  0E06  2E08               	goto	u7311
  3926  0E07  2E09               	goto	u7310
  3927  0E08                     u7311:
  3928  0E08  2E03               	goto	l406
  3929  0E09                     u7310:
  3930  0E09                     l4449:
  3931                           
  3932                           ;PROYECTO.c: 496:                         TXREG = 57;
  3933  0E09  3039               	movlw	57
  3934  0E0A  1283               	bcf	3,5	;RP0=0, select bank0
  3935  0E0B  1303               	bcf	3,6	;RP1=0, select bank0
  3936  0E0C  0099               	movwf	25	;volatile
  3937                           
  3938                           ;PROYECTO.c: 497:                     break;
  3939  0E0D  2DA8               	goto	L8
  3940  0E0E                     l410:
  3941  0E0E  1683               	bsf	3,5	;RP0=1, select bank1
  3942  0E0F  1303               	bcf	3,6	;RP1=0, select bank1
  3943  0E10  1C98               	btfss	24,1	;volatile
  3944  0E11  2E13               	goto	u7321
  3945  0E12  2E14               	goto	u7320
  3946  0E13                     u7321:
  3947  0E13  2E0E               	goto	l410
  3948  0E14                     u7320:
  3949  0E14                     l4451:
  3950                           
  3951                           ;PROYECTO.c: 501:                         TXREG = 49;
  3952  0E14  3031               	movlw	49
  3953  0E15  1283               	bcf	3,5	;RP0=0, select bank0
  3954  0E16  1303               	bcf	3,6	;RP1=0, select bank0
  3955  0E17  0099               	movwf	25	;volatile
  3956  0E18                     l413:	
  3957                           ;PROYECTO.c: 502:                         while(TXSTAbits.TRMT == 0);
  3958                           
  3959  0E18  1683               	bsf	3,5	;RP0=1, select bank1
  3960  0E19  1303               	bcf	3,6	;RP1=0, select bank1
  3961  0E1A  1C98               	btfss	24,1	;volatile
  3962  0E1B  2E1D               	goto	u7331
  3963  0E1C  2E1E               	goto	u7330
  3964  0E1D                     u7331:
  3965  0E1D  2E18               	goto	l413
  3966  0E1E                     u7330:
  3967  0E1E  2DA4               	goto	l4431
  3968  0E1F                     l417:
  3969  0E1F  1683               	bsf	3,5	;RP0=1, select bank1
  3970  0E20  1303               	bcf	3,6	;RP1=0, select bank1
  3971  0E21  1C98               	btfss	24,1	;volatile
  3972  0E22  2E24               	goto	u7341
  3973  0E23  2E25               	goto	u7340
  3974  0E24                     u7341:
  3975  0E24  2E1F               	goto	l417
  3976  0E25                     u7340:
  3977  0E25                     l4455:
  3978                           
  3979                           ;PROYECTO.c: 508:                         TXREG = 49;
  3980  0E25  3031               	movlw	49
  3981  0E26  1283               	bcf	3,5	;RP0=0, select bank0
  3982  0E27  1303               	bcf	3,6	;RP1=0, select bank0
  3983  0E28  0099               	movwf	25	;volatile
  3984  0E29                     l420:	
  3985                           ;PROYECTO.c: 509:                         while(TXSTAbits.TRMT == 0);
  3986                           
  3987  0E29  1683               	bsf	3,5	;RP0=1, select bank1
  3988  0E2A  1303               	bcf	3,6	;RP1=0, select bank1
  3989  0E2B  1C98               	btfss	24,1	;volatile
  3990  0E2C  2E2E               	goto	u7351
  3991  0E2D  2E2F               	goto	u7350
  3992  0E2E                     u7351:
  3993  0E2E  2E29               	goto	l420
  3994  0E2F                     u7350:
  3995  0E2F  2DB1               	goto	l4433
  3996  0E30                     l424:
  3997  0E30  1683               	bsf	3,5	;RP0=1, select bank1
  3998  0E31  1303               	bcf	3,6	;RP1=0, select bank1
  3999  0E32  1C98               	btfss	24,1	;volatile
  4000  0E33  2E35               	goto	u7361
  4001  0E34  2E36               	goto	u7360
  4002  0E35                     u7361:
  4003  0E35  2E30               	goto	l424
  4004  0E36                     u7360:
  4005  0E36                     l4459:
  4006                           
  4007                           ;PROYECTO.c: 515:                         TXREG = 49;
  4008  0E36  3031               	movlw	49
  4009  0E37  1283               	bcf	3,5	;RP0=0, select bank0
  4010  0E38  1303               	bcf	3,6	;RP1=0, select bank0
  4011  0E39  0099               	movwf	25	;volatile
  4012  0E3A                     l427:	
  4013                           ;PROYECTO.c: 516:                         while(TXSTAbits.TRMT == 0);
  4014                           
  4015  0E3A  1683               	bsf	3,5	;RP0=1, select bank1
  4016  0E3B  1303               	bcf	3,6	;RP1=0, select bank1
  4017  0E3C  1C98               	btfss	24,1	;volatile
  4018  0E3D  2E3F               	goto	u7371
  4019  0E3E  2E40               	goto	u7370
  4020  0E3F                     u7371:
  4021  0E3F  2E3A               	goto	l427
  4022  0E40                     u7370:
  4023  0E40  2DBC               	goto	l4435
  4024  0E41                     l431:
  4025  0E41  1683               	bsf	3,5	;RP0=1, select bank1
  4026  0E42  1303               	bcf	3,6	;RP1=0, select bank1
  4027  0E43  1C98               	btfss	24,1	;volatile
  4028  0E44  2E46               	goto	u7381
  4029  0E45  2E47               	goto	u7380
  4030  0E46                     u7381:
  4031  0E46  2E41               	goto	l431
  4032  0E47                     u7380:
  4033  0E47                     l4463:
  4034                           
  4035                           ;PROYECTO.c: 522:                         TXREG = 49;
  4036  0E47  3031               	movlw	49
  4037  0E48  1283               	bcf	3,5	;RP0=0, select bank0
  4038  0E49  1303               	bcf	3,6	;RP1=0, select bank0
  4039  0E4A  0099               	movwf	25	;volatile
  4040  0E4B                     l434:	
  4041                           ;PROYECTO.c: 523:                         while(TXSTAbits.TRMT == 0);
  4042                           
  4043  0E4B  1683               	bsf	3,5	;RP0=1, select bank1
  4044  0E4C  1303               	bcf	3,6	;RP1=0, select bank1
  4045  0E4D  1C98               	btfss	24,1	;volatile
  4046  0E4E  2E50               	goto	u7391
  4047  0E4F  2E51               	goto	u7390
  4048  0E50                     u7391:
  4049  0E50  2E4B               	goto	l434
  4050  0E51                     u7390:
  4051  0E51  2DC7               	goto	l4437
  4052  0E52                     l438:
  4053  0E52  1683               	bsf	3,5	;RP0=1, select bank1
  4054  0E53  1303               	bcf	3,6	;RP1=0, select bank1
  4055  0E54  1C98               	btfss	24,1	;volatile
  4056  0E55  2E57               	goto	u7401
  4057  0E56  2E58               	goto	u7400
  4058  0E57                     u7401:
  4059  0E57  2E52               	goto	l438
  4060  0E58                     u7400:
  4061  0E58                     l4467:
  4062                           
  4063                           ;PROYECTO.c: 529:                         TXREG = 49;
  4064  0E58  3031               	movlw	49
  4065  0E59  1283               	bcf	3,5	;RP0=0, select bank0
  4066  0E5A  1303               	bcf	3,6	;RP1=0, select bank0
  4067  0E5B  0099               	movwf	25	;volatile
  4068  0E5C                     l441:	
  4069                           ;PROYECTO.c: 530:                         while(TXSTAbits.TRMT == 0);
  4070                           
  4071  0E5C  1683               	bsf	3,5	;RP0=1, select bank1
  4072  0E5D  1303               	bcf	3,6	;RP1=0, select bank1
  4073  0E5E  1C98               	btfss	24,1	;volatile
  4074  0E5F  2E61               	goto	u7411
  4075  0E60  2E62               	goto	u7410
  4076  0E61                     u7411:
  4077  0E61  2E5C               	goto	l441
  4078  0E62                     u7410:
  4079  0E62  2DD2               	goto	l4439
  4080  0E63                     l445:
  4081  0E63  1683               	bsf	3,5	;RP0=1, select bank1
  4082  0E64  1303               	bcf	3,6	;RP1=0, select bank1
  4083  0E65  1C98               	btfss	24,1	;volatile
  4084  0E66  2E68               	goto	u7421
  4085  0E67  2E69               	goto	u7420
  4086  0E68                     u7421:
  4087  0E68  2E63               	goto	l445
  4088  0E69                     u7420:
  4089  0E69                     l4471:
  4090                           
  4091                           ;PROYECTO.c: 536:                         TXREG = 49;
  4092  0E69  3031               	movlw	49
  4093  0E6A  1283               	bcf	3,5	;RP0=0, select bank0
  4094  0E6B  1303               	bcf	3,6	;RP1=0, select bank0
  4095  0E6C  0099               	movwf	25	;volatile
  4096  0E6D                     l448:	
  4097                           ;PROYECTO.c: 537:                         while(TXSTAbits.TRMT == 0);
  4098                           
  4099  0E6D  1683               	bsf	3,5	;RP0=1, select bank1
  4100  0E6E  1303               	bcf	3,6	;RP1=0, select bank1
  4101  0E6F  1C98               	btfss	24,1	;volatile
  4102  0E70  2E72               	goto	u7431
  4103  0E71  2E73               	goto	u7430
  4104  0E72                     u7431:
  4105  0E72  2E6D               	goto	l448
  4106  0E73                     u7430:
  4107  0E73  2DDD               	goto	l4441
  4108  0E74                     l452:
  4109  0E74  1683               	bsf	3,5	;RP0=1, select bank1
  4110  0E75  1303               	bcf	3,6	;RP1=0, select bank1
  4111  0E76  1C98               	btfss	24,1	;volatile
  4112  0E77  2E79               	goto	u7441
  4113  0E78  2E7A               	goto	u7440
  4114  0E79                     u7441:
  4115  0E79  2E74               	goto	l452
  4116  0E7A                     u7440:
  4117  0E7A                     l4475:
  4118                           
  4119                           ;PROYECTO.c: 543:                         TXREG = 49;
  4120  0E7A  3031               	movlw	49
  4121  0E7B  1283               	bcf	3,5	;RP0=0, select bank0
  4122  0E7C  1303               	bcf	3,6	;RP1=0, select bank0
  4123  0E7D  0099               	movwf	25	;volatile
  4124  0E7E                     l455:	
  4125                           ;PROYECTO.c: 544:                         while(TXSTAbits.TRMT == 0);
  4126                           
  4127  0E7E  1683               	bsf	3,5	;RP0=1, select bank1
  4128  0E7F  1303               	bcf	3,6	;RP1=0, select bank1
  4129  0E80  1C98               	btfss	24,1	;volatile
  4130  0E81  2E83               	goto	u7451
  4131  0E82  2E84               	goto	u7450
  4132  0E83                     u7451:
  4133  0E83  2E7E               	goto	l455
  4134  0E84                     u7450:
  4135  0E84  2DE8               	goto	l4443
  4136  0E85                     l459:
  4137  0E85  1683               	bsf	3,5	;RP0=1, select bank1
  4138  0E86  1303               	bcf	3,6	;RP1=0, select bank1
  4139  0E87  1C98               	btfss	24,1	;volatile
  4140  0E88  2E8A               	goto	u7461
  4141  0E89  2E8B               	goto	u7460
  4142  0E8A                     u7461:
  4143  0E8A  2E85               	goto	l459
  4144  0E8B                     u7460:
  4145  0E8B                     l4479:
  4146                           
  4147                           ;PROYECTO.c: 550:                         TXREG = 49;
  4148  0E8B  3031               	movlw	49
  4149  0E8C  1283               	bcf	3,5	;RP0=0, select bank0
  4150  0E8D  1303               	bcf	3,6	;RP1=0, select bank0
  4151  0E8E  0099               	movwf	25	;volatile
  4152  0E8F                     l462:	
  4153                           ;PROYECTO.c: 551:                         while(TXSTAbits.TRMT == 0);
  4154                           
  4155  0E8F  1683               	bsf	3,5	;RP0=1, select bank1
  4156  0E90  1303               	bcf	3,6	;RP1=0, select bank1
  4157  0E91  1C98               	btfss	24,1	;volatile
  4158  0E92  2E94               	goto	u7471
  4159  0E93  2E95               	goto	u7470
  4160  0E94                     u7471:
  4161  0E94  2E8F               	goto	l462
  4162  0E95                     u7470:
  4163  0E95  2DF3               	goto	l4445
  4164  0E96                     l466:
  4165  0E96  1683               	bsf	3,5	;RP0=1, select bank1
  4166  0E97  1303               	bcf	3,6	;RP1=0, select bank1
  4167  0E98  1C98               	btfss	24,1	;volatile
  4168  0E99  2E9B               	goto	u7481
  4169  0E9A  2E9C               	goto	u7480
  4170  0E9B                     u7481:
  4171  0E9B  2E96               	goto	l466
  4172  0E9C                     u7480:
  4173  0E9C                     l4483:
  4174                           
  4175                           ;PROYECTO.c: 557:                         TXREG = 49;
  4176  0E9C  3031               	movlw	49
  4177  0E9D  1283               	bcf	3,5	;RP0=0, select bank0
  4178  0E9E  1303               	bcf	3,6	;RP1=0, select bank0
  4179  0E9F  0099               	movwf	25	;volatile
  4180  0EA0                     l469:	
  4181                           ;PROYECTO.c: 558:                         while(TXSTAbits.TRMT == 0);
  4182                           
  4183  0EA0  1683               	bsf	3,5	;RP0=1, select bank1
  4184  0EA1  1303               	bcf	3,6	;RP1=0, select bank1
  4185  0EA2  1C98               	btfss	24,1	;volatile
  4186  0EA3  2EA5               	goto	u7491
  4187  0EA4  2EA6               	goto	u7490
  4188  0EA5                     u7491:
  4189  0EA5  2EA0               	goto	l469
  4190  0EA6                     u7490:
  4191  0EA6  2DFE               	goto	l4447
  4192  0EA7                     l473:
  4193  0EA7  1683               	bsf	3,5	;RP0=1, select bank1
  4194  0EA8  1303               	bcf	3,6	;RP1=0, select bank1
  4195  0EA9  1C98               	btfss	24,1	;volatile
  4196  0EAA  2EAC               	goto	u7501
  4197  0EAB  2EAD               	goto	u7500
  4198  0EAC                     u7501:
  4199  0EAC  2EA7               	goto	l473
  4200  0EAD                     u7500:
  4201  0EAD                     l4487:
  4202                           
  4203                           ;PROYECTO.c: 564:                         TXREG = 49;
  4204  0EAD  3031               	movlw	49
  4205  0EAE  1283               	bcf	3,5	;RP0=0, select bank0
  4206  0EAF  1303               	bcf	3,6	;RP1=0, select bank0
  4207  0EB0  0099               	movwf	25	;volatile
  4208  0EB1                     l476:	
  4209                           ;PROYECTO.c: 565:                         while(TXSTAbits.TRMT == 0);
  4210                           
  4211  0EB1  1683               	bsf	3,5	;RP0=1, select bank1
  4212  0EB2  1303               	bcf	3,6	;RP1=0, select bank1
  4213  0EB3  1C98               	btfss	24,1	;volatile
  4214  0EB4  2EB6               	goto	u7511
  4215  0EB5  2EB7               	goto	u7510
  4216  0EB6                     u7511:
  4217  0EB6  2EB1               	goto	l476
  4218  0EB7                     u7510:
  4219  0EB7  2E09               	goto	l4449
  4220  0EB8                     l480:
  4221  0EB8  1683               	bsf	3,5	;RP0=1, select bank1
  4222  0EB9  1303               	bcf	3,6	;RP1=0, select bank1
  4223  0EBA  1C98               	btfss	24,1	;volatile
  4224  0EBB  2EBD               	goto	u7521
  4225  0EBC  2EBE               	goto	u7520
  4226  0EBD                     u7521:
  4227  0EBD  2EB8               	goto	l480
  4228  0EBE                     u7520:
  4229  0EBE                     l4491:
  4230                           
  4231                           ;PROYECTO.c: 571:                         TXREG = 50;
  4232  0EBE  3032               	movlw	50
  4233  0EBF  1283               	bcf	3,5	;RP0=0, select bank0
  4234  0EC0  1303               	bcf	3,6	;RP1=0, select bank0
  4235  0EC1  0099               	movwf	25	;volatile
  4236  0EC2                     l483:	
  4237                           ;PROYECTO.c: 572:                         while(TXSTAbits.TRMT == 0);
  4238                           
  4239  0EC2  1683               	bsf	3,5	;RP0=1, select bank1
  4240  0EC3  1303               	bcf	3,6	;RP1=0, select bank1
  4241  0EC4  1C98               	btfss	24,1	;volatile
  4242  0EC5  2EC7               	goto	u7531
  4243  0EC6  2EC8               	goto	u7530
  4244  0EC7                     u7531:
  4245  0EC7  2EC2               	goto	l483
  4246  0EC8                     u7530:
  4247  0EC8  2DA4               	goto	l4431
  4248                           
  4249                           	psect	maintext_split_6
  4250  16E3                     l487:
  4251  16E3  1683               	bsf	3,5	;RP0=1, select bank1
  4252  16E4  1303               	bcf	3,6	;RP1=0, select bank1
  4253  16E5  1C98               	btfss	24,1	;volatile
  4254  16E6  2EE8               	goto	u7541
  4255  16E7  2EE9               	goto	u7540
  4256  16E8                     u7541:
  4257  16E8  2EE3               	goto	l487
  4258  16E9                     u7540:
  4259  16E9                     l4495:
  4260                           
  4261                           ;PROYECTO.c: 578:                         TXREG = 50;
  4262  16E9  3032               	movlw	50
  4263  16EA  1283               	bcf	3,5	;RP0=0, select bank0
  4264  16EB  1303               	bcf	3,6	;RP1=0, select bank0
  4265  16EC  0099               	movwf	25	;volatile
  4266  16ED                     l490:	
  4267                           ;PROYECTO.c: 579:                         while(TXSTAbits.TRMT == 0);
  4268                           
  4269  16ED  1683               	bsf	3,5	;RP0=1, select bank1
  4270  16EE  1303               	bcf	3,6	;RP1=0, select bank1
  4271  16EF  1C98               	btfss	24,1	;volatile
  4272  16F0  2EF2               	goto	u7551
  4273  16F1  2EF3               	goto	u7550
  4274  16F2                     u7551:
  4275  16F2  2EED               	goto	l490
  4276  16F3                     u7550:
  4277  16F3  120A  158A  2DB1   	goto	l4433
  4278  16F6                     l494:
  4279  16F6  1683               	bsf	3,5	;RP0=1, select bank1
  4280  16F7  1303               	bcf	3,6	;RP1=0, select bank1
  4281  16F8  1C98               	btfss	24,1	;volatile
  4282  16F9  2EFB               	goto	u7561
  4283  16FA  2EFC               	goto	u7560
  4284  16FB                     u7561:
  4285  16FB  2EF6               	goto	l494
  4286  16FC                     u7560:
  4287  16FC                     l4499:
  4288                           
  4289                           ;PROYECTO.c: 585:                         TXREG = 50;
  4290  16FC  3032               	movlw	50
  4291  16FD  1283               	bcf	3,5	;RP0=0, select bank0
  4292  16FE  1303               	bcf	3,6	;RP1=0, select bank0
  4293  16FF  0099               	movwf	25	;volatile
  4294  1700                     l497:	
  4295                           ;PROYECTO.c: 586:                         while(TXSTAbits.TRMT == 0);
  4296                           
  4297  1700  1683               	bsf	3,5	;RP0=1, select bank1
  4298  1701  1303               	bcf	3,6	;RP1=0, select bank1
  4299  1702  1C98               	btfss	24,1	;volatile
  4300  1703  2F05               	goto	u7571
  4301  1704  2F06               	goto	u7570
  4302  1705                     u7571:
  4303  1705  2F00               	goto	l497
  4304  1706                     u7570:
  4305  1706  120A  158A  2DBC   	goto	l4435
  4306  1709                     l501:
  4307  1709  1683               	bsf	3,5	;RP0=1, select bank1
  4308  170A  1303               	bcf	3,6	;RP1=0, select bank1
  4309  170B  1C98               	btfss	24,1	;volatile
  4310  170C  2F0E               	goto	u7581
  4311  170D  2F0F               	goto	u7580
  4312  170E                     u7581:
  4313  170E  2F09               	goto	l501
  4314  170F                     u7580:
  4315  170F                     l4503:
  4316                           
  4317                           ;PROYECTO.c: 592:                         TXREG = 50;
  4318  170F  3032               	movlw	50
  4319  1710  1283               	bcf	3,5	;RP0=0, select bank0
  4320  1711  1303               	bcf	3,6	;RP1=0, select bank0
  4321  1712  0099               	movwf	25	;volatile
  4322  1713                     l504:	
  4323                           ;PROYECTO.c: 593:                         while(TXSTAbits.TRMT == 0);
  4324                           
  4325  1713  1683               	bsf	3,5	;RP0=1, select bank1
  4326  1714  1303               	bcf	3,6	;RP1=0, select bank1
  4327  1715  1C98               	btfss	24,1	;volatile
  4328  1716  2F18               	goto	u7591
  4329  1717  2F19               	goto	u7590
  4330  1718                     u7591:
  4331  1718  2F13               	goto	l504
  4332  1719                     u7590:
  4333  1719  120A  158A  2DC7   	goto	l4437
  4334  171C                     l508:
  4335  171C  1683               	bsf	3,5	;RP0=1, select bank1
  4336  171D  1303               	bcf	3,6	;RP1=0, select bank1
  4337  171E  1C98               	btfss	24,1	;volatile
  4338  171F  2F21               	goto	u7601
  4339  1720  2F22               	goto	u7600
  4340  1721                     u7601:
  4341  1721  2F1C               	goto	l508
  4342  1722                     u7600:
  4343  1722                     l4507:
  4344                           
  4345                           ;PROYECTO.c: 599:                         TXREG = 50;
  4346  1722  3032               	movlw	50
  4347  1723  1283               	bcf	3,5	;RP0=0, select bank0
  4348  1724  1303               	bcf	3,6	;RP1=0, select bank0
  4349  1725  0099               	movwf	25	;volatile
  4350  1726                     l511:	
  4351                           ;PROYECTO.c: 600:                         while(TXSTAbits.TRMT == 0);
  4352                           
  4353  1726  1683               	bsf	3,5	;RP0=1, select bank1
  4354  1727  1303               	bcf	3,6	;RP1=0, select bank1
  4355  1728  1C98               	btfss	24,1	;volatile
  4356  1729  2F2B               	goto	u7611
  4357  172A  2F2C               	goto	u7610
  4358  172B                     u7611:
  4359  172B  2F26               	goto	l511
  4360  172C                     u7610:
  4361  172C  120A  158A  2DD2   	goto	l4439
  4362  172F                     l4513:
  4363  172F  1283               	bcf	3,5	;RP0=0, select bank0
  4364  1730  1303               	bcf	3,6	;RP1=0, select bank0
  4365  1731  082A               	movf	_hora_user2,w
  4366  1732  00AE               	movwf	??_main
  4367  1733  01AF               	clrf	??_main+1
  4368                           
  4369                           ; Switch on 2 bytes has been partitioned into a top level switch of size 1, and 1 sub-sw
      +                          itches
  4370                           ; Switch size 1, requested type "simple"
  4371                           ; Number of cases is 1, Range of values is 0 to 0
  4372                           ; switch strategies available:
  4373                           ; Name         Instructions Cycles
  4374                           ; simple_byte            4     3 (average)
  4375                           ; direct_byte           11     8 (fixed)
  4376                           ; jumptable            260     6 (fixed)
  4377                           ;	Chosen strategy is simple_byte
  4378  1734  082F               	movf	??_main+1,w
  4379  1735  3A00               	xorlw	0	; case 0
  4380  1736  1903               	skipnz
  4381  1737  2F39               	goto	l5239
  4382  1738  2F8A               	goto	l4515
  4383  1739                     l5239:
  4384                           
  4385                           ; Switch size 1, requested type "simple"
  4386                           ; Number of cases is 25, Range of values is 0 to 24
  4387                           ; switch strategies available:
  4388                           ; Name         Instructions Cycles
  4389                           ; simple_byte           76    39 (average)
  4390                           ; direct_byte           83     8 (fixed)
  4391                           ; jumptable            260     6 (fixed)
  4392                           ;	Chosen strategy is simple_byte
  4393  1739  082E               	movf	??_main,w
  4394  173A  3A00               	xorlw	0	; case 0
  4395  173B  120A  158A  1903   	skipnz
  4396  173E  2D9E               	goto	l369
  4397  173F  3A01               	xorlw	1	; case 1
  4398  1740  1903               	skipnz
  4399  1741  2DAB               	goto	l374
  4400  1742  3A03               	xorlw	3	; case 2
  4401  1743  1903               	skipnz
  4402  1744  2DB6               	goto	l378
  4403  1745  3A01               	xorlw	1	; case 3
  4404  1746  1903               	skipnz
  4405  1747  2DC1               	goto	l382
  4406  1748  3A07               	xorlw	7	; case 4
  4407  1749  1903               	skipnz
  4408  174A  2DCC               	goto	l386
  4409  174B  3A01               	xorlw	1	; case 5
  4410  174C  1903               	skipnz
  4411  174D  2DD7               	goto	l390
  4412  174E  3A03               	xorlw	3	; case 6
  4413  174F  1903               	skipnz
  4414  1750  2DE2               	goto	l394
  4415  1751  3A01               	xorlw	1	; case 7
  4416  1752  1903               	skipnz
  4417  1753  2DED               	goto	l398
  4418  1754  3A0F               	xorlw	15	; case 8
  4419  1755  1903               	skipnz
  4420  1756  2DF8               	goto	l402
  4421  1757  3A01               	xorlw	1	; case 9
  4422  1758  1903               	skipnz
  4423  1759  2E03               	goto	l406
  4424  175A  3A03               	xorlw	3	; case 10
  4425  175B  1903               	skipnz
  4426  175C  2E0E               	goto	l410
  4427  175D  3A01               	xorlw	1	; case 11
  4428  175E  1903               	skipnz
  4429  175F  2E1F               	goto	l417
  4430  1760  3A07               	xorlw	7	; case 12
  4431  1761  1903               	skipnz
  4432  1762  2E30               	goto	l424
  4433  1763  3A01               	xorlw	1	; case 13
  4434  1764  1903               	skipnz
  4435  1765  2E41               	goto	l431
  4436  1766  3A03               	xorlw	3	; case 14
  4437  1767  1903               	skipnz
  4438  1768  2E52               	goto	l438
  4439  1769  3A01               	xorlw	1	; case 15
  4440  176A  1903               	skipnz
  4441  176B  2E63               	goto	l445
  4442  176C  3A1F               	xorlw	31	; case 16
  4443  176D  1903               	skipnz
  4444  176E  2E74               	goto	l452
  4445  176F  3A01               	xorlw	1	; case 17
  4446  1770  1903               	skipnz
  4447  1771  2E85               	goto	l459
  4448  1772  3A03               	xorlw	3	; case 18
  4449  1773  1903               	skipnz
  4450  1774  2E96               	goto	l466
  4451  1775  3A01               	xorlw	1	; case 19
  4452  1776  1903               	skipnz
  4453  1777  2EA7  160A  118A   	goto	l473
  4454  177A  3A07               	xorlw	7	; case 20
  4455  177B  1903               	skipnz
  4456  177C  2FFD               	goto	L14
  4457  177D  3A01               	xorlw	1	; case 21
  4458  177E  1903               	skipnz
  4459  177F  2EE3               	goto	l487
  4460  1780  3A03               	xorlw	3	; case 22
  4461  1781  1903               	skipnz
  4462  1782  2EF6               	goto	l494
  4463  1783  3A01               	xorlw	1	; case 23
  4464  1784  1903               	skipnz
  4465  1785  2F09               	goto	l501
  4466  1786  3A0F               	xorlw	15	; case 24
  4467  1787  1903               	skipnz
  4468  1788  2F1C               	goto	l508
  4469  1789  2F8A               	goto	l4515
  4470  178A                     l4515:
  4471                           
  4472                           ;PROYECTO.c: 605:                 USART_Cadena(" Horas ");
  4473  178A  308D               	movlw	low (STR_9| (0+32768))
  4474  178B  00FA               	movwf	USART_Cadena@str
  4475  178C  308A               	movlw	high (STR_9| (0+32768))
  4476  178D  00FB               	movwf	USART_Cadena@str+1
  4477  178E  120A  118A  27A5  160A  118A  	fcall	_USART_Cadena
  4478                           
  4479                           ;PROYECTO.c: 606:                 USART_Cadena(" con  ");
  4480  1793  3095               	movlw	low (STR_10| (0+32768))
  4481  1794  00FA               	movwf	USART_Cadena@str
  4482  1795  308A               	movlw	high (STR_10| (0+32768))
  4483  1796  00FB               	movwf	USART_Cadena@str+1
  4484  1797  120A  118A  27A5  160A  118A  	fcall	_USART_Cadena
  4485  179C                     l514:	
  4486                           ;PROYECTO.c: 607:                 while(TXSTAbits.TRMT == 0);
  4487                           
  4488  179C  1683               	bsf	3,5	;RP0=1, select bank1
  4489  179D  1303               	bcf	3,6	;RP1=0, select bank1
  4490  179E  1C98               	btfss	24,1	;volatile
  4491  179F  2FA1               	goto	u7621
  4492  17A0  2FA2               	goto	u7620
  4493  17A1                     u7621:
  4494  17A1  2F9C               	goto	l514
  4495  17A2                     u7620:
  4496  17A2                     l4517:
  4497                           
  4498                           ;PROYECTO.c: 608:                 if(min_user2 == 0) {
  4499  17A2  0872               	movf	_min_user2,w
  4500  17A3  1D03               	btfss	3,2
  4501  17A4  2FA6               	goto	u7631
  4502  17A5  2FA7               	goto	u7630
  4503  17A6                     u7631:
  4504  17A6  2FB1               	goto	l4521
  4505  17A7                     u7630:
  4506  17A7                     l4519:
  4507                           
  4508                           ;PROYECTO.c: 609:                     USART_Cadena("0");
  4509  17A7  309D               	movlw	low ((STR_13+1)| (0+32768))
  4510  17A8  00FA               	movwf	USART_Cadena@str
  4511  17A9  308A               	movlw	high ((STR_13+1)| (0+32768))
  4512  17AA  00FB               	movwf	USART_Cadena@str+1
  4513  17AB  120A  118A  27A5  160A  118A  	fcall	_USART_Cadena
  4514                           
  4515                           ;PROYECTO.c: 610:                 }else if (min_user2 == 15){
  4516  17B0  2FF1               	goto	l518
  4517  17B1                     l4521:
  4518  17B1  300F               	movlw	15
  4519  17B2  0672               	xorwf	_min_user2,w
  4520  17B3  1D03               	btfss	3,2
  4521  17B4  2FB6               	goto	u7641
  4522  17B5  2FB7               	goto	u7640
  4523  17B6                     u7641:
  4524  17B6  2FC1               	goto	l4525
  4525  17B7                     u7640:
  4526  17B7                     l4523:
  4527                           
  4528                           ;PROYECTO.c: 611:                     USART_Cadena("15");
  4529  17B7  30A2               	movlw	low (STR_12| (0+32768))
  4530  17B8  00FA               	movwf	USART_Cadena@str
  4531  17B9  308A               	movlw	high (STR_12| (0+32768))
  4532  17BA  00FB               	movwf	USART_Cadena@str+1
  4533  17BB  120A  118A  27A5  160A  118A  	fcall	_USART_Cadena
  4534                           
  4535                           ;PROYECTO.c: 612:                 }else if (min_user2 == 30){
  4536  17C0  2FF1               	goto	l518
  4537  17C1                     l4525:
  4538  17C1  301E               	movlw	30
  4539  17C2  0672               	xorwf	_min_user2,w
  4540  17C3  1D03               	btfss	3,2
  4541  17C4  2FC6               	goto	u7651
  4542  17C5  2FC7               	goto	u7650
  4543  17C6                     u7651:
  4544  17C6  2FD1               	goto	l4529
  4545  17C7                     u7650:
  4546  17C7                     l4527:
  4547                           
  4548                           ;PROYECTO.c: 613:                     USART_Cadena("30");
  4549  17C7  309C               	movlw	low (STR_13| (0+32768))
  4550  17C8  00FA               	movwf	USART_Cadena@str
  4551  17C9  308A               	movlw	high (STR_13| (0+32768))
  4552  17CA  00FB               	movwf	USART_Cadena@str+1
  4553  17CB  120A  118A  27A5  160A  118A  	fcall	_USART_Cadena
  4554                           
  4555                           ;PROYECTO.c: 614:                 }else if (min_user2 == 45){
  4556  17D0  2FF1               	goto	l518
  4557  17D1                     l4529:
  4558  17D1  302D               	movlw	45
  4559  17D2  0672               	xorwf	_min_user2,w
  4560  17D3  1D03               	btfss	3,2
  4561  17D4  2FD6               	goto	u7661
  4562  17D5  2FD7               	goto	u7660
  4563  17D6                     u7661:
  4564  17D6  2FE1               	goto	l4533
  4565  17D7                     u7660:
  4566  17D7                     l4531:
  4567                           
  4568                           ;PROYECTO.c: 615:                     USART_Cadena("45");
  4569  17D7  30A5               	movlw	low (STR_14| (0+32768))
  4570  17D8  00FA               	movwf	USART_Cadena@str
  4571  17D9  308A               	movlw	high (STR_14| (0+32768))
  4572  17DA  00FB               	movwf	USART_Cadena@str+1
  4573  17DB  120A  118A  27A5  160A  118A  	fcall	_USART_Cadena
  4574                           
  4575                           ;PROYECTO.c: 616:                 }else if (min_user2 == 60){
  4576  17E0  2FF1               	goto	l518
  4577  17E1                     l4533:
  4578  17E1  303C               	movlw	60
  4579  17E2  0672               	xorwf	_min_user2,w
  4580  17E3  1D03               	btfss	3,2
  4581  17E4  2FE6               	goto	u7671
  4582  17E5  2FE7               	goto	u7670
  4583  17E6                     u7671:
  4584  17E6  2FF1               	goto	l522
  4585  17E7                     u7670:
  4586  17E7                     l4535:
  4587                           
  4588                           ;PROYECTO.c: 617:                     USART_Cadena("60");
  4589  17E7  309F               	movlw	low (STR_15| (0+32768))
  4590  17E8  00FA               	movwf	USART_Cadena@str
  4591  17E9  308A               	movlw	high (STR_15| (0+32768))
  4592  17EA  00FB               	movwf	USART_Cadena@str+1
  4593  17EB  120A  118A  27A5  160A  118A  	fcall	_USART_Cadena
  4594  17F0  2FF1               	goto	l518
  4595  17F1                     l522:
  4596  17F1                     l518:
  4597                           
  4598                           ;PROYECTO.c: 619:                 USART_Cadena(" mins. para el medicamento  \r\r");
  4599  17F1  30D0               	movlw	low (STR_16| (0+32768))
  4600  17F2  00FA               	movwf	USART_Cadena@str
  4601  17F3  3089               	movlw	high (STR_16| (0+32768))
  4602  17F4  00FB               	movwf	USART_Cadena@str+1
  4603  17F5  120A  118A  27A5  160A  118A  	fcall	_USART_Cadena
  4604  17FA  120A  118A  2B38   	goto	l745
  4605  17FD                     L14:
  4606  17FD                     L13:
  4607  17FD  120A  118A  2F99   	ljmp	L10
  4608                           
  4609                           	psect	maintext_split_7
  4610  0C5B                     l4539:
  4611                           
  4612                           ;PROYECTO.c: 624:                 USART_Cadena(" Esperar  ");
  4613  0C5B  3082               	movlw	low (STR_8| (0+32768))
  4614  0C5C  00FA               	movwf	USART_Cadena@str
  4615  0C5D  308A               	movlw	high (STR_8| (0+32768))
  4616  0C5E  00FB               	movwf	USART_Cadena@str+1
  4617  0C5F  120A  118A  27A5  120A  158A  	fcall	_USART_Cadena
  4618                           
  4619                           ;PROYECTO.c: 625:                 switch(hora_user3){
  4620  0C64  120A  118A  2876   	goto	l4623
  4621  0C67                     l529:
  4622  0C67  1683               	bsf	3,5	;RP0=1, select bank1
  4623  0C68  1303               	bcf	3,6	;RP1=0, select bank1
  4624  0C69  1C98               	btfss	24,1	;volatile
  4625  0C6A  2C6C               	goto	u7681
  4626  0C6B  2C6D               	goto	u7680
  4627  0C6C                     u7681:
  4628  0C6C  2C67               	goto	l529
  4629  0C6D                     u7680:
  4630  0C6D                     l4541:
  4631                           
  4632                           ;PROYECTO.c: 628:                         TXREG = 48;
  4633  0C6D  3030               	movlw	48
  4634  0C6E  1283               	bcf	3,5	;RP0=0, select bank0
  4635  0C6F  1303               	bcf	3,6	;RP1=0, select bank0
  4636  0C70  0099               	movwf	25	;volatile
  4637  0C71                     L15:
  4638                           
  4639                           ;PROYECTO.c: 629:                     break;
  4640  0C71  120A  118A  28D1   	goto	l4625
  4641  0C74                     l534:
  4642  0C74  1683               	bsf	3,5	;RP0=1, select bank1
  4643  0C75  1303               	bcf	3,6	;RP1=0, select bank1
  4644  0C76  1C98               	btfss	24,1	;volatile
  4645  0C77  2C79               	goto	u7691
  4646  0C78  2C7A               	goto	u7690
  4647  0C79                     u7691:
  4648  0C79  2C74               	goto	l534
  4649  0C7A                     u7690:
  4650  0C7A                     l4543:
  4651                           
  4652                           ;PROYECTO.c: 633:                         TXREG = 49;
  4653  0C7A  3031               	movlw	49
  4654  0C7B  1283               	bcf	3,5	;RP0=0, select bank0
  4655  0C7C  1303               	bcf	3,6	;RP1=0, select bank0
  4656  0C7D  0099               	movwf	25	;volatile
  4657                           
  4658                           ;PROYECTO.c: 634:                     break;
  4659  0C7E  2C71               	goto	L15
  4660  0C7F                     l538:
  4661  0C7F  1683               	bsf	3,5	;RP0=1, select bank1
  4662  0C80  1303               	bcf	3,6	;RP1=0, select bank1
  4663  0C81  1C98               	btfss	24,1	;volatile
  4664  0C82  2C84               	goto	u7701
  4665  0C83  2C85               	goto	u7700
  4666  0C84                     u7701:
  4667  0C84  2C7F               	goto	l538
  4668  0C85                     u7700:
  4669  0C85                     l4545:
  4670                           
  4671                           ;PROYECTO.c: 638:                         TXREG = 50;
  4672  0C85  3032               	movlw	50
  4673  0C86  1283               	bcf	3,5	;RP0=0, select bank0
  4674  0C87  1303               	bcf	3,6	;RP1=0, select bank0
  4675  0C88  0099               	movwf	25	;volatile
  4676                           
  4677                           ;PROYECTO.c: 639:                     break;
  4678  0C89  2C71               	goto	L15
  4679  0C8A                     l542:
  4680  0C8A  1683               	bsf	3,5	;RP0=1, select bank1
  4681  0C8B  1303               	bcf	3,6	;RP1=0, select bank1
  4682  0C8C  1C98               	btfss	24,1	;volatile
  4683  0C8D  2C8F               	goto	u7711
  4684  0C8E  2C90               	goto	u7710
  4685  0C8F                     u7711:
  4686  0C8F  2C8A               	goto	l542
  4687  0C90                     u7710:
  4688  0C90                     l4547:
  4689                           
  4690                           ;PROYECTO.c: 643:                         TXREG = 51;
  4691  0C90  3033               	movlw	51
  4692  0C91  1283               	bcf	3,5	;RP0=0, select bank0
  4693  0C92  1303               	bcf	3,6	;RP1=0, select bank0
  4694  0C93  0099               	movwf	25	;volatile
  4695                           
  4696                           ;PROYECTO.c: 644:                     break;
  4697  0C94  2C71               	goto	L15
  4698  0C95                     l546:
  4699  0C95  1683               	bsf	3,5	;RP0=1, select bank1
  4700  0C96  1303               	bcf	3,6	;RP1=0, select bank1
  4701  0C97  1C98               	btfss	24,1	;volatile
  4702  0C98  2C9A               	goto	u7721
  4703  0C99  2C9B               	goto	u7720
  4704  0C9A                     u7721:
  4705  0C9A  2C95               	goto	l546
  4706  0C9B                     u7720:
  4707  0C9B                     l4549:
  4708                           
  4709                           ;PROYECTO.c: 648:                         TXREG = 52;
  4710  0C9B  3034               	movlw	52
  4711  0C9C  1283               	bcf	3,5	;RP0=0, select bank0
  4712  0C9D  1303               	bcf	3,6	;RP1=0, select bank0
  4713  0C9E  0099               	movwf	25	;volatile
  4714                           
  4715                           ;PROYECTO.c: 649:                     break;
  4716  0C9F  2C71               	goto	L15
  4717  0CA0                     l550:
  4718  0CA0  1683               	bsf	3,5	;RP0=1, select bank1
  4719  0CA1  1303               	bcf	3,6	;RP1=0, select bank1
  4720  0CA2  1C98               	btfss	24,1	;volatile
  4721  0CA3  2CA5               	goto	u7731
  4722  0CA4  2CA6               	goto	u7730
  4723  0CA5                     u7731:
  4724  0CA5  2CA0               	goto	l550
  4725  0CA6                     u7730:
  4726  0CA6                     l4551:
  4727                           
  4728                           ;PROYECTO.c: 653:                         TXREG = 53;
  4729  0CA6  3035               	movlw	53
  4730  0CA7  1283               	bcf	3,5	;RP0=0, select bank0
  4731  0CA8  1303               	bcf	3,6	;RP1=0, select bank0
  4732  0CA9  0099               	movwf	25	;volatile
  4733                           
  4734                           ;PROYECTO.c: 654:                     break;
  4735  0CAA  2C71               	goto	L15
  4736  0CAB                     l554:
  4737  0CAB  1683               	bsf	3,5	;RP0=1, select bank1
  4738  0CAC  1303               	bcf	3,6	;RP1=0, select bank1
  4739  0CAD  1C98               	btfss	24,1	;volatile
  4740  0CAE  2CB0               	goto	u7741
  4741  0CAF  2CB1               	goto	u7740
  4742  0CB0                     u7741:
  4743  0CB0  2CAB               	goto	l554
  4744  0CB1                     u7740:
  4745  0CB1                     l4553:
  4746                           
  4747                           ;PROYECTO.c: 658:                         TXREG = 54;
  4748  0CB1  3036               	movlw	54
  4749  0CB2  1283               	bcf	3,5	;RP0=0, select bank0
  4750  0CB3  1303               	bcf	3,6	;RP1=0, select bank0
  4751  0CB4  0099               	movwf	25	;volatile
  4752                           
  4753                           ;PROYECTO.c: 659:                     break;
  4754  0CB5  2C71               	goto	L15
  4755  0CB6                     l558:
  4756  0CB6  1683               	bsf	3,5	;RP0=1, select bank1
  4757  0CB7  1303               	bcf	3,6	;RP1=0, select bank1
  4758  0CB8  1C98               	btfss	24,1	;volatile
  4759  0CB9  2CBB               	goto	u7751
  4760  0CBA  2CBC               	goto	u7750
  4761  0CBB                     u7751:
  4762  0CBB  2CB6               	goto	l558
  4763  0CBC                     u7750:
  4764  0CBC                     l4555:
  4765                           
  4766                           ;PROYECTO.c: 663:                         TXREG = 55;
  4767  0CBC  3037               	movlw	55
  4768  0CBD  1283               	bcf	3,5	;RP0=0, select bank0
  4769  0CBE  1303               	bcf	3,6	;RP1=0, select bank0
  4770  0CBF  0099               	movwf	25	;volatile
  4771                           
  4772                           ;PROYECTO.c: 664:                     break;
  4773  0CC0  2C71               	goto	L15
  4774  0CC1                     l562:
  4775  0CC1  1683               	bsf	3,5	;RP0=1, select bank1
  4776  0CC2  1303               	bcf	3,6	;RP1=0, select bank1
  4777  0CC3  1C98               	btfss	24,1	;volatile
  4778  0CC4  2CC6               	goto	u7761
  4779  0CC5  2CC7               	goto	u7760
  4780  0CC6                     u7761:
  4781  0CC6  2CC1               	goto	l562
  4782  0CC7                     u7760:
  4783  0CC7                     l4557:
  4784                           
  4785                           ;PROYECTO.c: 668:                         TXREG = 56;
  4786  0CC7  3038               	movlw	56
  4787  0CC8  1283               	bcf	3,5	;RP0=0, select bank0
  4788  0CC9  1303               	bcf	3,6	;RP1=0, select bank0
  4789  0CCA  0099               	movwf	25	;volatile
  4790                           
  4791                           ;PROYECTO.c: 669:                     break;
  4792  0CCB  2C71               	goto	L15
  4793  0CCC                     l566:
  4794  0CCC  1683               	bsf	3,5	;RP0=1, select bank1
  4795  0CCD  1303               	bcf	3,6	;RP1=0, select bank1
  4796  0CCE  1C98               	btfss	24,1	;volatile
  4797  0CCF  2CD1               	goto	u7771
  4798  0CD0  2CD2               	goto	u7770
  4799  0CD1                     u7771:
  4800  0CD1  2CCC               	goto	l566
  4801  0CD2                     u7770:
  4802  0CD2                     l4559:
  4803                           
  4804                           ;PROYECTO.c: 673:                         TXREG = 57;
  4805  0CD2  3039               	movlw	57
  4806  0CD3  1283               	bcf	3,5	;RP0=0, select bank0
  4807  0CD4  1303               	bcf	3,6	;RP1=0, select bank0
  4808  0CD5  0099               	movwf	25	;volatile
  4809                           
  4810                           ;PROYECTO.c: 674:                     break;
  4811  0CD6  2C71               	goto	L15
  4812  0CD7                     l570:
  4813  0CD7  1683               	bsf	3,5	;RP0=1, select bank1
  4814  0CD8  1303               	bcf	3,6	;RP1=0, select bank1
  4815  0CD9  1C98               	btfss	24,1	;volatile
  4816  0CDA  2CDC               	goto	u7781
  4817  0CDB  2CDD               	goto	u7780
  4818  0CDC                     u7781:
  4819  0CDC  2CD7               	goto	l570
  4820  0CDD                     u7780:
  4821  0CDD                     l4561:
  4822                           
  4823                           ;PROYECTO.c: 678:                         TXREG = 49;
  4824  0CDD  3031               	movlw	49
  4825  0CDE  1283               	bcf	3,5	;RP0=0, select bank0
  4826  0CDF  1303               	bcf	3,6	;RP1=0, select bank0
  4827  0CE0  0099               	movwf	25	;volatile
  4828  0CE1                     l573:	
  4829                           ;PROYECTO.c: 679:                         while(TXSTAbits.TRMT == 0);
  4830                           
  4831  0CE1  1683               	bsf	3,5	;RP0=1, select bank1
  4832  0CE2  1303               	bcf	3,6	;RP1=0, select bank1
  4833  0CE3  1C98               	btfss	24,1	;volatile
  4834  0CE4  2CE6               	goto	u7791
  4835  0CE5  2CE7               	goto	u7790
  4836  0CE6                     u7791:
  4837  0CE6  2CE1               	goto	l573
  4838  0CE7                     u7790:
  4839  0CE7  2C6D               	goto	l4541
  4840  0CE8                     l577:
  4841  0CE8  1683               	bsf	3,5	;RP0=1, select bank1
  4842  0CE9  1303               	bcf	3,6	;RP1=0, select bank1
  4843  0CEA  1C98               	btfss	24,1	;volatile
  4844  0CEB  2CED               	goto	u7801
  4845  0CEC  2CEE               	goto	u7800
  4846  0CED                     u7801:
  4847  0CED  2CE8               	goto	l577
  4848  0CEE                     u7800:
  4849  0CEE                     l4565:
  4850                           
  4851                           ;PROYECTO.c: 685:                         TXREG = 49;
  4852  0CEE  3031               	movlw	49
  4853  0CEF  1283               	bcf	3,5	;RP0=0, select bank0
  4854  0CF0  1303               	bcf	3,6	;RP1=0, select bank0
  4855  0CF1  0099               	movwf	25	;volatile
  4856  0CF2                     l580:	
  4857                           ;PROYECTO.c: 686:                         while(TXSTAbits.TRMT == 0);
  4858                           
  4859  0CF2  1683               	bsf	3,5	;RP0=1, select bank1
  4860  0CF3  1303               	bcf	3,6	;RP1=0, select bank1
  4861  0CF4  1C98               	btfss	24,1	;volatile
  4862  0CF5  2CF7               	goto	u7811
  4863  0CF6  2CF8               	goto	u7810
  4864  0CF7                     u7811:
  4865  0CF7  2CF2               	goto	l580
  4866  0CF8                     u7810:
  4867  0CF8  2C7A               	goto	l4543
  4868  0CF9                     l584:
  4869  0CF9  1683               	bsf	3,5	;RP0=1, select bank1
  4870  0CFA  1303               	bcf	3,6	;RP1=0, select bank1
  4871  0CFB  1C98               	btfss	24,1	;volatile
  4872  0CFC  2CFE               	goto	u7821
  4873  0CFD  2CFF               	goto	u7820
  4874  0CFE                     u7821:
  4875  0CFE  2CF9               	goto	l584
  4876  0CFF                     u7820:
  4877  0CFF                     l4569:
  4878                           
  4879                           ;PROYECTO.c: 692:                         TXREG = 49;
  4880  0CFF  3031               	movlw	49
  4881  0D00  1283               	bcf	3,5	;RP0=0, select bank0
  4882  0D01  1303               	bcf	3,6	;RP1=0, select bank0
  4883  0D02  0099               	movwf	25	;volatile
  4884  0D03                     l587:	
  4885                           ;PROYECTO.c: 693:                         while(TXSTAbits.TRMT == 0);
  4886                           
  4887  0D03  1683               	bsf	3,5	;RP0=1, select bank1
  4888  0D04  1303               	bcf	3,6	;RP1=0, select bank1
  4889  0D05  1C98               	btfss	24,1	;volatile
  4890  0D06  2D08               	goto	u7831
  4891  0D07  2D09               	goto	u7830
  4892  0D08                     u7831:
  4893  0D08  2D03               	goto	l587
  4894  0D09                     u7830:
  4895  0D09  2C85               	goto	l4545
  4896  0D0A                     l591:
  4897  0D0A  1683               	bsf	3,5	;RP0=1, select bank1
  4898  0D0B  1303               	bcf	3,6	;RP1=0, select bank1
  4899  0D0C  1C98               	btfss	24,1	;volatile
  4900  0D0D  2D0F               	goto	u7841
  4901  0D0E  2D10               	goto	u7840
  4902  0D0F                     u7841:
  4903  0D0F  2D0A               	goto	l591
  4904  0D10                     u7840:
  4905  0D10                     l4573:
  4906                           
  4907                           ;PROYECTO.c: 699:                         TXREG = 49;
  4908  0D10  3031               	movlw	49
  4909  0D11  1283               	bcf	3,5	;RP0=0, select bank0
  4910  0D12  1303               	bcf	3,6	;RP1=0, select bank0
  4911  0D13  0099               	movwf	25	;volatile
  4912  0D14                     l594:	
  4913                           ;PROYECTO.c: 700:                         while(TXSTAbits.TRMT == 0);
  4914                           
  4915  0D14  1683               	bsf	3,5	;RP0=1, select bank1
  4916  0D15  1303               	bcf	3,6	;RP1=0, select bank1
  4917  0D16  1C98               	btfss	24,1	;volatile
  4918  0D17  2D19               	goto	u7851
  4919  0D18  2D1A               	goto	u7850
  4920  0D19                     u7851:
  4921  0D19  2D14               	goto	l594
  4922  0D1A                     u7850:
  4923  0D1A  2C90               	goto	l4547
  4924  0D1B                     l598:
  4925  0D1B  1683               	bsf	3,5	;RP0=1, select bank1
  4926  0D1C  1303               	bcf	3,6	;RP1=0, select bank1
  4927  0D1D  1C98               	btfss	24,1	;volatile
  4928  0D1E  2D20               	goto	u7861
  4929  0D1F  2D21               	goto	u7860
  4930  0D20                     u7861:
  4931  0D20  2D1B               	goto	l598
  4932  0D21                     u7860:
  4933  0D21                     l4577:
  4934                           
  4935                           ;PROYECTO.c: 706:                         TXREG = 49;
  4936  0D21  3031               	movlw	49
  4937  0D22  1283               	bcf	3,5	;RP0=0, select bank0
  4938  0D23  1303               	bcf	3,6	;RP1=0, select bank0
  4939  0D24  0099               	movwf	25	;volatile
  4940  0D25                     l601:	
  4941                           ;PROYECTO.c: 707:                         while(TXSTAbits.TRMT == 0);
  4942                           
  4943  0D25  1683               	bsf	3,5	;RP0=1, select bank1
  4944  0D26  1303               	bcf	3,6	;RP1=0, select bank1
  4945  0D27  1C98               	btfss	24,1	;volatile
  4946  0D28  2D2A               	goto	u7871
  4947  0D29  2D2B               	goto	u7870
  4948  0D2A                     u7871:
  4949  0D2A  2D25               	goto	l601
  4950  0D2B                     u7870:
  4951  0D2B  2C9B               	goto	l4549
  4952  0D2C                     l605:
  4953  0D2C  1683               	bsf	3,5	;RP0=1, select bank1
  4954  0D2D  1303               	bcf	3,6	;RP1=0, select bank1
  4955  0D2E  1C98               	btfss	24,1	;volatile
  4956  0D2F  2D31               	goto	u7881
  4957  0D30  2D32               	goto	u7880
  4958  0D31                     u7881:
  4959  0D31  2D2C               	goto	l605
  4960  0D32                     u7880:
  4961  0D32                     l4581:
  4962                           
  4963                           ;PROYECTO.c: 713:                         TXREG = 49;
  4964  0D32  3031               	movlw	49
  4965  0D33  1283               	bcf	3,5	;RP0=0, select bank0
  4966  0D34  1303               	bcf	3,6	;RP1=0, select bank0
  4967  0D35  0099               	movwf	25	;volatile
  4968  0D36                     l608:	
  4969                           ;PROYECTO.c: 714:                         while(TXSTAbits.TRMT == 0);
  4970                           
  4971  0D36  1683               	bsf	3,5	;RP0=1, select bank1
  4972  0D37  1303               	bcf	3,6	;RP1=0, select bank1
  4973  0D38  1C98               	btfss	24,1	;volatile
  4974  0D39  2D3B               	goto	u7891
  4975  0D3A  2D3C               	goto	u7890
  4976  0D3B                     u7891:
  4977  0D3B  2D36               	goto	l608
  4978  0D3C                     u7890:
  4979  0D3C  2CA6               	goto	l4551
  4980  0D3D                     l612:
  4981  0D3D  1683               	bsf	3,5	;RP0=1, select bank1
  4982  0D3E  1303               	bcf	3,6	;RP1=0, select bank1
  4983  0D3F  1C98               	btfss	24,1	;volatile
  4984  0D40  2D42               	goto	u7901
  4985  0D41  2D43               	goto	u7900
  4986  0D42                     u7901:
  4987  0D42  2D3D               	goto	l612
  4988  0D43                     u7900:
  4989  0D43                     l4585:
  4990                           
  4991                           ;PROYECTO.c: 720:                         TXREG = 49;
  4992  0D43  3031               	movlw	49
  4993  0D44  1283               	bcf	3,5	;RP0=0, select bank0
  4994  0D45  1303               	bcf	3,6	;RP1=0, select bank0
  4995  0D46  0099               	movwf	25	;volatile
  4996  0D47                     l615:	
  4997                           ;PROYECTO.c: 721:                         while(TXSTAbits.TRMT == 0);
  4998                           
  4999  0D47  1683               	bsf	3,5	;RP0=1, select bank1
  5000  0D48  1303               	bcf	3,6	;RP1=0, select bank1
  5001  0D49  1C98               	btfss	24,1	;volatile
  5002  0D4A  2D4C               	goto	u7911
  5003  0D4B  2D4D               	goto	u7910
  5004  0D4C                     u7911:
  5005  0D4C  2D47               	goto	l615
  5006  0D4D                     u7910:
  5007  0D4D  2CB1               	goto	l4553
  5008  0D4E                     l619:
  5009  0D4E  1683               	bsf	3,5	;RP0=1, select bank1
  5010  0D4F  1303               	bcf	3,6	;RP1=0, select bank1
  5011  0D50  1C98               	btfss	24,1	;volatile
  5012  0D51  2D53               	goto	u7921
  5013  0D52  2D54               	goto	u7920
  5014  0D53                     u7921:
  5015  0D53  2D4E               	goto	l619
  5016  0D54                     u7920:
  5017  0D54                     l4589:
  5018                           
  5019                           ;PROYECTO.c: 727:                         TXREG = 49;
  5020  0D54  3031               	movlw	49
  5021  0D55  1283               	bcf	3,5	;RP0=0, select bank0
  5022  0D56  1303               	bcf	3,6	;RP1=0, select bank0
  5023  0D57  0099               	movwf	25	;volatile
  5024  0D58                     l622:	
  5025                           ;PROYECTO.c: 728:                         while(TXSTAbits.TRMT == 0);
  5026                           
  5027  0D58  1683               	bsf	3,5	;RP0=1, select bank1
  5028  0D59  1303               	bcf	3,6	;RP1=0, select bank1
  5029  0D5A  1C98               	btfss	24,1	;volatile
  5030  0D5B  2D5D               	goto	u7931
  5031  0D5C  2D5E               	goto	u7930
  5032  0D5D                     u7931:
  5033  0D5D  2D58               	goto	l622
  5034  0D5E                     u7930:
  5035  0D5E  2CBC               	goto	l4555
  5036  0D5F                     l626:
  5037  0D5F  1683               	bsf	3,5	;RP0=1, select bank1
  5038  0D60  1303               	bcf	3,6	;RP1=0, select bank1
  5039  0D61  1C98               	btfss	24,1	;volatile
  5040  0D62  2D64               	goto	u7941
  5041  0D63  2D65               	goto	u7940
  5042  0D64                     u7941:
  5043  0D64  2D5F               	goto	l626
  5044  0D65                     u7940:
  5045  0D65                     l4593:
  5046                           
  5047                           ;PROYECTO.c: 734:                         TXREG = 49;
  5048  0D65  3031               	movlw	49
  5049  0D66  1283               	bcf	3,5	;RP0=0, select bank0
  5050  0D67  1303               	bcf	3,6	;RP1=0, select bank0
  5051  0D68  0099               	movwf	25	;volatile
  5052  0D69                     l629:	
  5053                           ;PROYECTO.c: 735:                         while(TXSTAbits.TRMT == 0);
  5054                           
  5055  0D69  1683               	bsf	3,5	;RP0=1, select bank1
  5056  0D6A  1303               	bcf	3,6	;RP1=0, select bank1
  5057  0D6B  1C98               	btfss	24,1	;volatile
  5058  0D6C  2D6E               	goto	u7951
  5059  0D6D  2D6F               	goto	u7950
  5060  0D6E                     u7951:
  5061  0D6E  2D69               	goto	l629
  5062  0D6F                     u7950:
  5063  0D6F  2CC7               	goto	l4557
  5064  0D70                     l633:
  5065  0D70  1683               	bsf	3,5	;RP0=1, select bank1
  5066  0D71  1303               	bcf	3,6	;RP1=0, select bank1
  5067  0D72  1C98               	btfss	24,1	;volatile
  5068  0D73  2D75               	goto	u7961
  5069  0D74  2D76               	goto	u7960
  5070  0D75                     u7961:
  5071  0D75  2D70               	goto	l633
  5072  0D76                     u7960:
  5073  0D76                     l4597:
  5074                           
  5075                           ;PROYECTO.c: 741:                         TXREG = 49;
  5076  0D76  3031               	movlw	49
  5077  0D77  1283               	bcf	3,5	;RP0=0, select bank0
  5078  0D78  1303               	bcf	3,6	;RP1=0, select bank0
  5079  0D79  0099               	movwf	25	;volatile
  5080  0D7A                     l636:	
  5081                           ;PROYECTO.c: 742:                         while(TXSTAbits.TRMT == 0);
  5082                           
  5083  0D7A  1683               	bsf	3,5	;RP0=1, select bank1
  5084  0D7B  1303               	bcf	3,6	;RP1=0, select bank1
  5085  0D7C  1C98               	btfss	24,1	;volatile
  5086  0D7D  2D7F               	goto	u7971
  5087  0D7E  2D80               	goto	u7970
  5088  0D7F                     u7971:
  5089  0D7F  2D7A               	goto	l636
  5090  0D80                     u7970:
  5091  0D80  2CD2               	goto	l4559
  5092  0D81                     l640:
  5093  0D81  1683               	bsf	3,5	;RP0=1, select bank1
  5094  0D82  1303               	bcf	3,6	;RP1=0, select bank1
  5095  0D83  1C98               	btfss	24,1	;volatile
  5096  0D84  2D86               	goto	u7981
  5097  0D85  2D87               	goto	u7980
  5098  0D86                     u7981:
  5099  0D86  2D81               	goto	l640
  5100  0D87                     u7980:
  5101  0D87                     l4601:
  5102                           
  5103                           ;PROYECTO.c: 748:                         TXREG = 50;
  5104  0D87  3032               	movlw	50
  5105  0D88  1283               	bcf	3,5	;RP0=0, select bank0
  5106  0D89  1303               	bcf	3,6	;RP1=0, select bank0
  5107  0D8A  0099               	movwf	25	;volatile
  5108  0D8B                     l643:	
  5109                           ;PROYECTO.c: 749:                         while(TXSTAbits.TRMT == 0);
  5110                           
  5111  0D8B  1683               	bsf	3,5	;RP0=1, select bank1
  5112  0D8C  1303               	bcf	3,6	;RP1=0, select bank1
  5113  0D8D  1C98               	btfss	24,1	;volatile
  5114  0D8E  2D90               	goto	u7991
  5115  0D8F  2D91               	goto	u7990
  5116  0D90                     u7991:
  5117  0D90  2D8B               	goto	l643
  5118  0D91                     u7990:
  5119  0D91  2C6D               	goto	l4541
  5120                           
  5121                           	psect	maintext_split_8
  5122  002A                     l647:
  5123  002A  1683               	bsf	3,5	;RP0=1, select bank1
  5124  002B  1303               	bcf	3,6	;RP1=0, select bank1
  5125  002C  1C98               	btfss	24,1	;volatile
  5126  002D  282F               	goto	u8001
  5127  002E  2830               	goto	u8000
  5128  002F                     u8001:
  5129  002F  282A               	goto	l647
  5130  0030                     u8000:
  5131  0030                     l4605:
  5132                           
  5133                           ;PROYECTO.c: 755:                         TXREG = 50;
  5134  0030  3032               	movlw	50
  5135  0031  1283               	bcf	3,5	;RP0=0, select bank0
  5136  0032  1303               	bcf	3,6	;RP1=0, select bank0
  5137  0033  0099               	movwf	25	;volatile
  5138  0034                     l650:	
  5139                           ;PROYECTO.c: 756:                         while(TXSTAbits.TRMT == 0);
  5140                           
  5141  0034  1683               	bsf	3,5	;RP0=1, select bank1
  5142  0035  1303               	bcf	3,6	;RP1=0, select bank1
  5143  0036  1C98               	btfss	24,1	;volatile
  5144  0037  2839               	goto	u8011
  5145  0038  283A               	goto	u8010
  5146  0039                     u8011:
  5147  0039  2834               	goto	l650
  5148  003A                     u8010:
  5149  003A  120A  158A  2C7A   	goto	l4543
  5150  003D                     l654:
  5151  003D  1683               	bsf	3,5	;RP0=1, select bank1
  5152  003E  1303               	bcf	3,6	;RP1=0, select bank1
  5153  003F  1C98               	btfss	24,1	;volatile
  5154  0040  2842               	goto	u8021
  5155  0041  2843               	goto	u8020
  5156  0042                     u8021:
  5157  0042  283D               	goto	l654
  5158  0043                     u8020:
  5159  0043                     l4609:
  5160                           
  5161                           ;PROYECTO.c: 762:                         TXREG = 50;
  5162  0043  3032               	movlw	50
  5163  0044  1283               	bcf	3,5	;RP0=0, select bank0
  5164  0045  1303               	bcf	3,6	;RP1=0, select bank0
  5165  0046  0099               	movwf	25	;volatile
  5166  0047                     l657:	
  5167                           ;PROYECTO.c: 763:                         while(TXSTAbits.TRMT == 0);
  5168                           
  5169  0047  1683               	bsf	3,5	;RP0=1, select bank1
  5170  0048  1303               	bcf	3,6	;RP1=0, select bank1
  5171  0049  1C98               	btfss	24,1	;volatile
  5172  004A  284C               	goto	u8031
  5173  004B  284D               	goto	u8030
  5174  004C                     u8031:
  5175  004C  2847               	goto	l657
  5176  004D                     u8030:
  5177  004D  120A  158A  2C85   	goto	l4545
  5178  0050                     l661:
  5179  0050  1683               	bsf	3,5	;RP0=1, select bank1
  5180  0051  1303               	bcf	3,6	;RP1=0, select bank1
  5181  0052  1C98               	btfss	24,1	;volatile
  5182  0053  2855               	goto	u8041
  5183  0054  2856               	goto	u8040
  5184  0055                     u8041:
  5185  0055  2850               	goto	l661
  5186  0056                     u8040:
  5187  0056                     l4613:
  5188                           
  5189                           ;PROYECTO.c: 769:                         TXREG = 50;
  5190  0056  3032               	movlw	50
  5191  0057  1283               	bcf	3,5	;RP0=0, select bank0
  5192  0058  1303               	bcf	3,6	;RP1=0, select bank0
  5193  0059  0099               	movwf	25	;volatile
  5194  005A                     l664:	
  5195                           ;PROYECTO.c: 770:                         while(TXSTAbits.TRMT == 0);
  5196                           
  5197  005A  1683               	bsf	3,5	;RP0=1, select bank1
  5198  005B  1303               	bcf	3,6	;RP1=0, select bank1
  5199  005C  1C98               	btfss	24,1	;volatile
  5200  005D  285F               	goto	u8051
  5201  005E  2860               	goto	u8050
  5202  005F                     u8051:
  5203  005F  285A               	goto	l664
  5204  0060                     u8050:
  5205  0060  120A  158A  2C90   	goto	l4547
  5206  0063                     l668:
  5207  0063  1683               	bsf	3,5	;RP0=1, select bank1
  5208  0064  1303               	bcf	3,6	;RP1=0, select bank1
  5209  0065  1C98               	btfss	24,1	;volatile
  5210  0066  2868               	goto	u8061
  5211  0067  2869               	goto	u8060
  5212  0068                     u8061:
  5213  0068  2863               	goto	l668
  5214  0069                     u8060:
  5215  0069                     l4617:
  5216                           
  5217                           ;PROYECTO.c: 776:                         TXREG = 50;
  5218  0069  3032               	movlw	50
  5219  006A  1283               	bcf	3,5	;RP0=0, select bank0
  5220  006B  1303               	bcf	3,6	;RP1=0, select bank0
  5221  006C  0099               	movwf	25	;volatile
  5222  006D                     l671:	
  5223                           ;PROYECTO.c: 777:                         while(TXSTAbits.TRMT == 0);
  5224                           
  5225  006D  1683               	bsf	3,5	;RP0=1, select bank1
  5226  006E  1303               	bcf	3,6	;RP1=0, select bank1
  5227  006F  1C98               	btfss	24,1	;volatile
  5228  0070  2872               	goto	u8071
  5229  0071  2873               	goto	u8070
  5230  0072                     u8071:
  5231  0072  286D               	goto	l671
  5232  0073                     u8070:
  5233  0073  120A  158A  2C9B   	goto	l4549
  5234  0076                     l4623:
  5235  0076  1283               	bcf	3,5	;RP0=0, select bank0
  5236  0077  1303               	bcf	3,6	;RP1=0, select bank0
  5237  0078  0829               	movf	_hora_user3,w
  5238  0079  00AE               	movwf	??_main
  5239  007A  01AF               	clrf	??_main+1
  5240                           
  5241                           ; Switch on 2 bytes has been partitioned into a top level switch of size 1, and 1 sub-sw
      +                          itches
  5242                           ; Switch size 1, requested type "simple"
  5243                           ; Number of cases is 1, Range of values is 0 to 0
  5244                           ; switch strategies available:
  5245                           ; Name         Instructions Cycles
  5246                           ; simple_byte            4     3 (average)
  5247                           ; direct_byte           11     8 (fixed)
  5248                           ; jumptable            260     6 (fixed)
  5249                           ;	Chosen strategy is simple_byte
  5250  007B  082F               	movf	??_main+1,w
  5251  007C  3A00               	xorlw	0	; case 0
  5252  007D  1903               	skipnz
  5253  007E  2880               	goto	l5241
  5254  007F  28D1               	goto	l4625
  5255  0080                     l5241:
  5256                           
  5257                           ; Switch size 1, requested type "simple"
  5258                           ; Number of cases is 25, Range of values is 0 to 24
  5259                           ; switch strategies available:
  5260                           ; Name         Instructions Cycles
  5261                           ; simple_byte           76    39 (average)
  5262                           ; direct_byte           83     8 (fixed)
  5263                           ; jumptable            260     6 (fixed)
  5264                           ;	Chosen strategy is simple_byte
  5265  0080  082E               	movf	??_main,w
  5266  0081  3A00               	xorlw	0	; case 0
  5267  0082  120A  158A  1903   	skipnz
  5268  0085  2C67               	goto	l529
  5269  0086  3A01               	xorlw	1	; case 1
  5270  0087  1903               	skipnz
  5271  0088  2C74               	goto	l534
  5272  0089  3A03               	xorlw	3	; case 2
  5273  008A  1903               	skipnz
  5274  008B  2C7F               	goto	l538
  5275  008C  3A01               	xorlw	1	; case 3
  5276  008D  1903               	skipnz
  5277  008E  2C8A               	goto	l542
  5278  008F  3A07               	xorlw	7	; case 4
  5279  0090  1903               	skipnz
  5280  0091  2C95               	goto	l546
  5281  0092  3A01               	xorlw	1	; case 5
  5282  0093  1903               	skipnz
  5283  0094  2CA0               	goto	l550
  5284  0095  3A03               	xorlw	3	; case 6
  5285  0096  1903               	skipnz
  5286  0097  2CAB               	goto	l554
  5287  0098  3A01               	xorlw	1	; case 7
  5288  0099  1903               	skipnz
  5289  009A  2CB6               	goto	l558
  5290  009B  3A0F               	xorlw	15	; case 8
  5291  009C  1903               	skipnz
  5292  009D  2CC1               	goto	l562
  5293  009E  3A01               	xorlw	1	; case 9
  5294  009F  1903               	skipnz
  5295  00A0  2CCC               	goto	l566
  5296  00A1  3A03               	xorlw	3	; case 10
  5297  00A2  1903               	skipnz
  5298  00A3  2CD7               	goto	l570
  5299  00A4  3A01               	xorlw	1	; case 11
  5300  00A5  1903               	skipnz
  5301  00A6  2CE8               	goto	l577
  5302  00A7  3A07               	xorlw	7	; case 12
  5303  00A8  1903               	skipnz
  5304  00A9  2CF9               	goto	l584
  5305  00AA  3A01               	xorlw	1	; case 13
  5306  00AB  1903               	skipnz
  5307  00AC  2D0A               	goto	l591
  5308  00AD  3A03               	xorlw	3	; case 14
  5309  00AE  1903               	skipnz
  5310  00AF  2D1B               	goto	l598
  5311  00B0  3A01               	xorlw	1	; case 15
  5312  00B1  1903               	skipnz
  5313  00B2  2D2C               	goto	l605
  5314  00B3  3A1F               	xorlw	31	; case 16
  5315  00B4  1903               	skipnz
  5316  00B5  2D3D               	goto	l612
  5317  00B6  3A01               	xorlw	1	; case 17
  5318  00B7  1903               	skipnz
  5319  00B8  2D4E               	goto	l619
  5320  00B9  3A03               	xorlw	3	; case 18
  5321  00BA  1903               	skipnz
  5322  00BB  2D5F               	goto	l626
  5323  00BC  3A01               	xorlw	1	; case 19
  5324  00BD  1903               	skipnz
  5325  00BE  2D70  120A  118A   	goto	l633
  5326  00C1  3A07               	xorlw	7	; case 20
  5327  00C2  1903               	skipnz
  5328  00C3  2F9F               	goto	L17
  5329  00C4  3A01               	xorlw	1	; case 21
  5330  00C5  1903               	skipnz
  5331  00C6  282A               	goto	l647
  5332  00C7  3A03               	xorlw	3	; case 22
  5333  00C8  1903               	skipnz
  5334  00C9  283D               	goto	l654
  5335  00CA  3A01               	xorlw	1	; case 23
  5336  00CB  1903               	skipnz
  5337  00CC  2850               	goto	l661
  5338  00CD  3A0F               	xorlw	15	; case 24
  5339  00CE  1903               	skipnz
  5340  00CF  2863               	goto	l668
  5341  00D0  28D1               	goto	l4625
  5342  00D1                     l4625:
  5343                           
  5344                           ;PROYECTO.c: 782:                 USART_Cadena(" Horas ");
  5345  00D1  308D               	movlw	low (STR_9| (0+32768))
  5346  00D2  00FA               	movwf	USART_Cadena@str
  5347  00D3  308A               	movlw	high (STR_9| (0+32768))
  5348  00D4  00FB               	movwf	USART_Cadena@str+1
  5349  00D5  120A  118A  27A5  120A  118A  	fcall	_USART_Cadena
  5350                           
  5351                           ;PROYECTO.c: 783:                 USART_Cadena(" con  ");
  5352  00DA  3095               	movlw	low (STR_10| (0+32768))
  5353  00DB  00FA               	movwf	USART_Cadena@str
  5354  00DC  308A               	movlw	high (STR_10| (0+32768))
  5355  00DD  00FB               	movwf	USART_Cadena@str+1
  5356  00DE  120A  118A  27A5  120A  118A  	fcall	_USART_Cadena
  5357  00E3                     l674:	
  5358                           ;PROYECTO.c: 784:                 while(TXSTAbits.TRMT == 0);
  5359                           
  5360  00E3  1683               	bsf	3,5	;RP0=1, select bank1
  5361  00E4  1303               	bcf	3,6	;RP1=0, select bank1
  5362  00E5  1C98               	btfss	24,1	;volatile
  5363  00E6  28E8               	goto	u8081
  5364  00E7  28E9               	goto	u8080
  5365  00E8                     u8081:
  5366  00E8  28E3               	goto	l674
  5367  00E9                     u8080:
  5368  00E9                     l4627:
  5369                           
  5370                           ;PROYECTO.c: 785:                 if(min_user3 == 0) {
  5371  00E9  0871               	movf	_min_user3,w
  5372  00EA  1D03               	btfss	3,2
  5373  00EB  28ED               	goto	u8091
  5374  00EC  28EE               	goto	u8090
  5375  00ED                     u8091:
  5376  00ED  28F8               	goto	l4631
  5377  00EE                     u8090:
  5378  00EE                     l4629:
  5379                           
  5380                           ;PROYECTO.c: 786:                     USART_Cadena("0");
  5381  00EE  309D               	movlw	low ((STR_13+1)| (0+32768))
  5382  00EF  00FA               	movwf	USART_Cadena@str
  5383  00F0  308A               	movlw	high ((STR_13+1)| (0+32768))
  5384  00F1  00FB               	movwf	USART_Cadena@str+1
  5385  00F2  120A  118A  27A5  120A  118A  	fcall	_USART_Cadena
  5386                           
  5387                           ;PROYECTO.c: 787:                 }else if (min_user3 == 15){
  5388  00F7  2938               	goto	l678
  5389  00F8                     l4631:
  5390  00F8  300F               	movlw	15
  5391  00F9  0671               	xorwf	_min_user3,w
  5392  00FA  1D03               	btfss	3,2
  5393  00FB  28FD               	goto	u8101
  5394  00FC  28FE               	goto	u8100
  5395  00FD                     u8101:
  5396  00FD  2908               	goto	l4635
  5397  00FE                     u8100:
  5398  00FE                     l4633:
  5399                           
  5400                           ;PROYECTO.c: 788:                     USART_Cadena("15");
  5401  00FE  30A2               	movlw	low (STR_12| (0+32768))
  5402  00FF  00FA               	movwf	USART_Cadena@str
  5403  0100  308A               	movlw	high (STR_12| (0+32768))
  5404  0101  00FB               	movwf	USART_Cadena@str+1
  5405  0102  120A  118A  27A5  120A  118A  	fcall	_USART_Cadena
  5406                           
  5407                           ;PROYECTO.c: 789:                 }else if (min_user3 == 30){
  5408  0107  2938               	goto	l678
  5409  0108                     l4635:
  5410  0108  301E               	movlw	30
  5411  0109  0671               	xorwf	_min_user3,w
  5412  010A  1D03               	btfss	3,2
  5413  010B  290D               	goto	u8111
  5414  010C  290E               	goto	u8110
  5415  010D                     u8111:
  5416  010D  2918               	goto	l4639
  5417  010E                     u8110:
  5418  010E                     l4637:
  5419                           
  5420                           ;PROYECTO.c: 790:                     USART_Cadena("30");
  5421  010E  309C               	movlw	low (STR_13| (0+32768))
  5422  010F  00FA               	movwf	USART_Cadena@str
  5423  0110  308A               	movlw	high (STR_13| (0+32768))
  5424  0111  00FB               	movwf	USART_Cadena@str+1
  5425  0112  120A  118A  27A5  120A  118A  	fcall	_USART_Cadena
  5426                           
  5427                           ;PROYECTO.c: 791:                 }else if (min_user3 == 45){
  5428  0117  2938               	goto	l678
  5429  0118                     l4639:
  5430  0118  302D               	movlw	45
  5431  0119  0671               	xorwf	_min_user3,w
  5432  011A  1D03               	btfss	3,2
  5433  011B  291D               	goto	u8121
  5434  011C  291E               	goto	u8120
  5435  011D                     u8121:
  5436  011D  2928               	goto	l4643
  5437  011E                     u8120:
  5438  011E                     l4641:
  5439                           
  5440                           ;PROYECTO.c: 792:                     USART_Cadena("45");
  5441  011E  30A5               	movlw	low (STR_14| (0+32768))
  5442  011F  00FA               	movwf	USART_Cadena@str
  5443  0120  308A               	movlw	high (STR_14| (0+32768))
  5444  0121  00FB               	movwf	USART_Cadena@str+1
  5445  0122  120A  118A  27A5  120A  118A  	fcall	_USART_Cadena
  5446                           
  5447                           ;PROYECTO.c: 793:                 }else if (min_user3 == 60){
  5448  0127  2938               	goto	l678
  5449  0128                     l4643:
  5450  0128  303C               	movlw	60
  5451  0129  0671               	xorwf	_min_user3,w
  5452  012A  1D03               	btfss	3,2
  5453  012B  292D               	goto	u8131
  5454  012C  292E               	goto	u8130
  5455  012D                     u8131:
  5456  012D  2938               	goto	l682
  5457  012E                     u8130:
  5458  012E                     l4645:
  5459                           
  5460                           ;PROYECTO.c: 794:                     USART_Cadena("60");
  5461  012E  309F               	movlw	low (STR_15| (0+32768))
  5462  012F  00FA               	movwf	USART_Cadena@str
  5463  0130  308A               	movlw	high (STR_15| (0+32768))
  5464  0131  00FB               	movwf	USART_Cadena@str+1
  5465  0132  120A  118A  27A5  120A  118A  	fcall	_USART_Cadena
  5466  0137  2938               	goto	l678
  5467  0138                     l682:
  5468  0138                     l678:
  5469                           
  5470                           ;PROYECTO.c: 796:                 USART_Cadena(" mins. para el medicamento  \r\r");
  5471  0138  30D0               	movlw	low (STR_16| (0+32768))
  5472  0139  00FA               	movwf	USART_Cadena@str
  5473  013A  3089               	movlw	high (STR_16| (0+32768))
  5474  013B  00FB               	movwf	USART_Cadena@str+1
  5475  013C  120A  118A  27A5  120A  118A  	fcall	_USART_Cadena
  5476  0141  2B38               	goto	l745
  5477  0142                     l4649:
  5478                           
  5479                           ;PROYECTO.c: 801:                 USART_Cadena(" Ingresá la letra de la nueva hora  \r"
      +                          );
  5480  0142  301B               	movlw	low (STR_35| (0+32768))
  5481  0143  00FA               	movwf	USART_Cadena@str
  5482  0144  3089               	movlw	high (STR_35| (0+32768))
  5483  0145  00FB               	movwf	USART_Cadena@str+1
  5484  0146  120A  118A  27A5  120A  118A  	fcall	_USART_Cadena
  5485                           
  5486                           ;PROYECTO.c: 802:                 USART_Cadena(" a.0  b.1   c.2   d.3   e.4   f.5   g.6 
      +                            h.7  i.8\r");
  5487  014B  3000               	movlw	low (STR_36| (0+32768))
  5488  014C  00FA               	movwf	USART_Cadena@str
  5489  014D  3088               	movlw	high (STR_36| (0+32768))
  5490  014E  00FB               	movwf	USART_Cadena@str+1
  5491  014F  120A  118A  27A5  120A  118A  	fcall	_USART_Cadena
  5492                           
  5493                           ;PROYECTO.c: 803:                 USART_Cadena(" j.9  k.10  l.11  m.12  n.13  o.14  p.15
      +                            q.16\r");
  5494  0154  3094               	movlw	low (STR_37| (0+32768))
  5495  0155  00FA               	movwf	USART_Cadena@str
  5496  0156  3088               	movlw	high (STR_37| (0+32768))
  5497  0157  00FB               	movwf	USART_Cadena@str+1
  5498  0158  120A  118A  27A5  120A  118A  	fcall	_USART_Cadena
  5499                           
  5500                           ;PROYECTO.c: 804:                 USART_Cadena("r.17  s.18  t.19  u.20  v.21  w.22  x.23
      +                            y.24\r");
  5501  015D  3064               	movlw	low (STR_38| (0+32768))
  5502  015E  00FA               	movwf	USART_Cadena@str
  5503  015F  3088               	movlw	high (STR_38| (0+32768))
  5504  0160  00FB               	movwf	USART_Cadena@str+1
  5505  0161  120A  118A  27A5  120A  118A  	fcall	_USART_Cadena
  5506  0166                     l4651:
  5507                           
  5508                           ;PROYECTO.c: 806:                     if (PIR1bits.RCIF == 1){
  5509  0166  1283               	bcf	3,5	;RP0=0, select bank0
  5510  0167  1303               	bcf	3,6	;RP1=0, select bank0
  5511  0168  1E8C               	btfss	12,5	;volatile
  5512  0169  296B               	goto	u8141
  5513  016A  296C               	goto	u8140
  5514  016B                     u8141:
  5515  016B  2966               	goto	l4651
  5516  016C                     u8140:
  5517  016C                     l4653:
  5518                           
  5519                           ;PROYECTO.c: 807:                         USART_Cadena(" \r");
  5520  016C  3088               	movlw	low ((STR_42+33)| (0+32768))
  5521  016D  00FA               	movwf	USART_Cadena@str
  5522  016E  3089               	movlw	high ((STR_42+33)| (0+32768))
  5523  016F  00FB               	movwf	USART_Cadena@str+1
  5524  0170  120A  118A  27A5  120A  118A  	fcall	_USART_Cadena
  5525  0175                     l4655:
  5526                           
  5527                           ;PROYECTO.c: 808:                         hora_nueva = USART_Rx();
  5528  0175  120A  118A  27F0  120A  118A  	fcall	_USART_Rx
  5529  017A  1283               	bcf	3,5	;RP0=0, select bank0
  5530  017B  1303               	bcf	3,6	;RP1=0, select bank0
  5531  017C  00AE               	movwf	??_main
  5532  017D  082E               	movf	??_main,w
  5533  017E  00F0               	movwf	_hora_nueva
  5534  017F                     l4657:
  5535                           
  5536                           ;PROYECTO.c: 809:                         USART_Cadena(" \r");
  5537  017F  3088               	movlw	low ((STR_42+33)| (0+32768))
  5538  0180  00FA               	movwf	USART_Cadena@str
  5539  0181  3089               	movlw	high ((STR_42+33)| (0+32768))
  5540  0182  00FB               	movwf	USART_Cadena@str+1
  5541  0183  120A  118A  27A5  120A  118A  	fcall	_USART_Cadena
  5542  0188                     l4659:
  5543                           
  5544                           ;PROYECTO.c: 810:                         if(hora_nueva == 'a'){
  5545  0188  3061               	movlw	97
  5546  0189  0670               	xorwf	_hora_nueva,w
  5547  018A  1D03               	btfss	3,2
  5548  018B  298D               	goto	u8151
  5549  018C  298E               	goto	u8150
  5550  018D                     u8151:
  5551  018D  2992               	goto	l4663
  5552  018E                     u8150:
  5553  018E                     l4661:
  5554                           
  5555                           ;PROYECTO.c: 811:                             hora_user1 = 0;
  5556  018E  1283               	bcf	3,5	;RP0=0, select bank0
  5557  018F  1303               	bcf	3,6	;RP1=0, select bank0
  5558  0190  01AB               	clrf	_hora_user1
  5559                           
  5560                           ;PROYECTO.c: 812:                         }else if(hora_nueva == 'b'){
  5561  0191  2AC8               	goto	l4759
  5562  0192                     l4663:
  5563  0192  3062               	movlw	98
  5564  0193  0670               	xorwf	_hora_nueva,w
  5565  0194  1D03               	btfss	3,2
  5566  0195  2997               	goto	u8161
  5567  0196  2998               	goto	u8160
  5568  0197                     u8161:
  5569  0197  299D               	goto	l4667
  5570  0198                     u8160:
  5571  0198                     l4665:
  5572                           
  5573                           ;PROYECTO.c: 813:                             hora_user1 = 1;
  5574  0198  1283               	bcf	3,5	;RP0=0, select bank0
  5575  0199  1303               	bcf	3,6	;RP1=0, select bank0
  5576  019A  01AB               	clrf	_hora_user1
  5577  019B  0AAB               	incf	_hora_user1,f
  5578                           
  5579                           ;PROYECTO.c: 814:                         }else if(hora_nueva == 'c'){
  5580  019C  2AC8               	goto	l4759
  5581  019D                     l4667:
  5582  019D  3063               	movlw	99
  5583  019E  0670               	xorwf	_hora_nueva,w
  5584  019F  1D03               	btfss	3,2
  5585  01A0  29A2               	goto	u8171
  5586  01A1  29A3               	goto	u8170
  5587  01A2                     u8171:
  5588  01A2  29AA               	goto	l4671
  5589  01A3                     u8170:
  5590  01A3                     l4669:
  5591                           
  5592                           ;PROYECTO.c: 815:                             hora_user1 = 2;
  5593  01A3  3002               	movlw	2
  5594  01A4  1283               	bcf	3,5	;RP0=0, select bank0
  5595  01A5  1303               	bcf	3,6	;RP1=0, select bank0
  5596  01A6  00AE               	movwf	??_main
  5597  01A7  082E               	movf	??_main,w
  5598  01A8  00AB               	movwf	_hora_user1
  5599                           
  5600                           ;PROYECTO.c: 816:                         }else if(hora_nueva == 'd'){
  5601  01A9  2AC8               	goto	l4759
  5602  01AA                     l4671:
  5603  01AA  3064               	movlw	100
  5604  01AB  0670               	xorwf	_hora_nueva,w
  5605  01AC  1D03               	btfss	3,2
  5606  01AD  29AF               	goto	u8181
  5607  01AE  29B0               	goto	u8180
  5608  01AF                     u8181:
  5609  01AF  29B7               	goto	l4675
  5610  01B0                     u8180:
  5611  01B0                     l4673:
  5612                           
  5613                           ;PROYECTO.c: 817:                             hora_user1 = 3;
  5614  01B0  3003               	movlw	3
  5615  01B1  1283               	bcf	3,5	;RP0=0, select bank0
  5616  01B2  1303               	bcf	3,6	;RP1=0, select bank0
  5617  01B3  00AE               	movwf	??_main
  5618  01B4  082E               	movf	??_main,w
  5619  01B5  00AB               	movwf	_hora_user1
  5620                           
  5621                           ;PROYECTO.c: 818:                         }else if(hora_nueva == 'e'){
  5622  01B6  2AC8               	goto	l4759
  5623  01B7                     l4675:
  5624  01B7  3065               	movlw	101
  5625  01B8  0670               	xorwf	_hora_nueva,w
  5626  01B9  1D03               	btfss	3,2
  5627  01BA  29BC               	goto	u8191
  5628  01BB  29BD               	goto	u8190
  5629  01BC                     u8191:
  5630  01BC  29C4               	goto	l4679
  5631  01BD                     u8190:
  5632  01BD                     l4677:
  5633                           
  5634                           ;PROYECTO.c: 819:                             hora_user1 = 4;
  5635  01BD  3004               	movlw	4
  5636  01BE  1283               	bcf	3,5	;RP0=0, select bank0
  5637  01BF  1303               	bcf	3,6	;RP1=0, select bank0
  5638  01C0  00AE               	movwf	??_main
  5639  01C1  082E               	movf	??_main,w
  5640  01C2  00AB               	movwf	_hora_user1
  5641                           
  5642                           ;PROYECTO.c: 820:                         }else if(hora_nueva == 'f'){
  5643  01C3  2AC8               	goto	l4759
  5644  01C4                     l4679:
  5645  01C4  3066               	movlw	102
  5646  01C5  0670               	xorwf	_hora_nueva,w
  5647  01C6  1D03               	btfss	3,2
  5648  01C7  29C9               	goto	u8201
  5649  01C8  29CA               	goto	u8200
  5650  01C9                     u8201:
  5651  01C9  29D1               	goto	l4683
  5652  01CA                     u8200:
  5653  01CA                     l4681:
  5654                           
  5655                           ;PROYECTO.c: 821:                             hora_user1 = 5;
  5656  01CA  3005               	movlw	5
  5657  01CB  1283               	bcf	3,5	;RP0=0, select bank0
  5658  01CC  1303               	bcf	3,6	;RP1=0, select bank0
  5659  01CD  00AE               	movwf	??_main
  5660  01CE  082E               	movf	??_main,w
  5661  01CF  00AB               	movwf	_hora_user1
  5662                           
  5663                           ;PROYECTO.c: 822:                         }else if(hora_nueva == 'g'){
  5664  01D0  2AC8               	goto	l4759
  5665  01D1                     l4683:
  5666  01D1  3067               	movlw	103
  5667  01D2  0670               	xorwf	_hora_nueva,w
  5668  01D3  1D03               	btfss	3,2
  5669  01D4  29D6               	goto	u8211
  5670  01D5  29D7               	goto	u8210
  5671  01D6                     u8211:
  5672  01D6  29DE               	goto	l4687
  5673  01D7                     u8210:
  5674  01D7                     l4685:
  5675                           
  5676                           ;PROYECTO.c: 823:                             hora_user1 = 6;
  5677  01D7  3006               	movlw	6
  5678  01D8  1283               	bcf	3,5	;RP0=0, select bank0
  5679  01D9  1303               	bcf	3,6	;RP1=0, select bank0
  5680  01DA  00AE               	movwf	??_main
  5681  01DB  082E               	movf	??_main,w
  5682  01DC  00AB               	movwf	_hora_user1
  5683                           
  5684                           ;PROYECTO.c: 824:                         }else if(hora_nueva == 'h'){
  5685  01DD  2AC8               	goto	l4759
  5686  01DE                     l4687:
  5687  01DE  3068               	movlw	104
  5688  01DF  0670               	xorwf	_hora_nueva,w
  5689  01E0  1D03               	btfss	3,2
  5690  01E1  29E3               	goto	u8221
  5691  01E2  29E4               	goto	u8220
  5692  01E3                     u8221:
  5693  01E3  29EB               	goto	l4691
  5694  01E4                     u8220:
  5695  01E4                     l4689:
  5696                           
  5697                           ;PROYECTO.c: 825:                             hora_user1 = 7;
  5698  01E4  3007               	movlw	7
  5699  01E5  1283               	bcf	3,5	;RP0=0, select bank0
  5700  01E6  1303               	bcf	3,6	;RP1=0, select bank0
  5701  01E7  00AE               	movwf	??_main
  5702  01E8  082E               	movf	??_main,w
  5703  01E9  00AB               	movwf	_hora_user1
  5704                           
  5705                           ;PROYECTO.c: 826:                         }else if(hora_nueva == 'i'){
  5706  01EA  2AC8               	goto	l4759
  5707  01EB                     l4691:
  5708  01EB  3069               	movlw	105
  5709  01EC  0670               	xorwf	_hora_nueva,w
  5710  01ED  1D03               	btfss	3,2
  5711  01EE  29F0               	goto	u8231
  5712  01EF  29F1               	goto	u8230
  5713  01F0                     u8231:
  5714  01F0  29F8               	goto	l4695
  5715  01F1                     u8230:
  5716  01F1                     l4693:
  5717                           
  5718                           ;PROYECTO.c: 827:                             hora_user1 = 8;
  5719  01F1  3008               	movlw	8
  5720  01F2  1283               	bcf	3,5	;RP0=0, select bank0
  5721  01F3  1303               	bcf	3,6	;RP1=0, select bank0
  5722  01F4  00AE               	movwf	??_main
  5723  01F5  082E               	movf	??_main,w
  5724  01F6  00AB               	movwf	_hora_user1
  5725                           
  5726                           ;PROYECTO.c: 828:                         }else if(hora_nueva == 'j'){
  5727  01F7  2AC8               	goto	l4759
  5728  01F8                     l4695:
  5729  01F8  306A               	movlw	106
  5730  01F9  0670               	xorwf	_hora_nueva,w
  5731  01FA  1D03               	btfss	3,2
  5732  01FB  29FD               	goto	u8241
  5733  01FC  29FE               	goto	u8240
  5734  01FD                     u8241:
  5735  01FD  2A05               	goto	l4699
  5736  01FE                     u8240:
  5737  01FE                     l4697:
  5738                           
  5739                           ;PROYECTO.c: 829:                             hora_user1 = 9;
  5740  01FE  3009               	movlw	9
  5741  01FF  1283               	bcf	3,5	;RP0=0, select bank0
  5742  0200  1303               	bcf	3,6	;RP1=0, select bank0
  5743  0201  00AE               	movwf	??_main
  5744  0202  082E               	movf	??_main,w
  5745  0203  00AB               	movwf	_hora_user1
  5746                           
  5747                           ;PROYECTO.c: 830:                         }else if(hora_nueva == 'k'){
  5748  0204  2AC8               	goto	l4759
  5749  0205                     l4699:
  5750  0205  306B               	movlw	107
  5751  0206  0670               	xorwf	_hora_nueva,w
  5752  0207  1D03               	btfss	3,2
  5753  0208  2A0A               	goto	u8251
  5754  0209  2A0B               	goto	u8250
  5755  020A                     u8251:
  5756  020A  2A12               	goto	l4703
  5757  020B                     u8250:
  5758  020B                     l4701:
  5759                           
  5760                           ;PROYECTO.c: 831:                             hora_user1 = 10;
  5761  020B  300A               	movlw	10
  5762  020C  1283               	bcf	3,5	;RP0=0, select bank0
  5763  020D  1303               	bcf	3,6	;RP1=0, select bank0
  5764  020E  00AE               	movwf	??_main
  5765  020F  082E               	movf	??_main,w
  5766  0210  00AB               	movwf	_hora_user1
  5767                           
  5768                           ;PROYECTO.c: 832:                         }else if(hora_nueva == 'l'){
  5769  0211  2AC8               	goto	l4759
  5770  0212                     l4703:
  5771  0212  306C               	movlw	108
  5772  0213  0670               	xorwf	_hora_nueva,w
  5773  0214  1D03               	btfss	3,2
  5774  0215  2A17               	goto	u8261
  5775  0216  2A18               	goto	u8260
  5776  0217                     u8261:
  5777  0217  2A1F               	goto	l4707
  5778  0218                     u8260:
  5779  0218                     l4705:
  5780                           
  5781                           ;PROYECTO.c: 833:                             hora_user1 = 11;
  5782  0218  300B               	movlw	11
  5783  0219  1283               	bcf	3,5	;RP0=0, select bank0
  5784  021A  1303               	bcf	3,6	;RP1=0, select bank0
  5785  021B  00AE               	movwf	??_main
  5786  021C  082E               	movf	??_main,w
  5787  021D  00AB               	movwf	_hora_user1
  5788                           
  5789                           ;PROYECTO.c: 834:                         }else if(hora_nueva == 'm'){
  5790  021E  2AC8               	goto	l4759
  5791  021F                     l4707:
  5792  021F  306D               	movlw	109
  5793  0220  0670               	xorwf	_hora_nueva,w
  5794  0221  1D03               	btfss	3,2
  5795  0222  2A24               	goto	u8271
  5796  0223  2A25               	goto	u8270
  5797  0224                     u8271:
  5798  0224  2A2C               	goto	l4711
  5799  0225                     u8270:
  5800  0225                     l4709:
  5801                           
  5802                           ;PROYECTO.c: 835:                             hora_user1 = 12;
  5803  0225  300C               	movlw	12
  5804  0226  1283               	bcf	3,5	;RP0=0, select bank0
  5805  0227  1303               	bcf	3,6	;RP1=0, select bank0
  5806  0228  00AE               	movwf	??_main
  5807  0229  082E               	movf	??_main,w
  5808  022A  00AB               	movwf	_hora_user1
  5809                           
  5810                           ;PROYECTO.c: 836:                         }else if(hora_nueva == 'n'){
  5811  022B  2AC8               	goto	l4759
  5812  022C                     l4711:
  5813  022C  306E               	movlw	110
  5814  022D  0670               	xorwf	_hora_nueva,w
  5815  022E  1D03               	btfss	3,2
  5816  022F  2A31               	goto	u8281
  5817  0230  2A32               	goto	u8280
  5818  0231                     u8281:
  5819  0231  2A39               	goto	l4715
  5820  0232                     u8280:
  5821  0232                     l4713:
  5822                           
  5823                           ;PROYECTO.c: 837:                             hora_user1 = 13;
  5824  0232  300D               	movlw	13
  5825  0233  1283               	bcf	3,5	;RP0=0, select bank0
  5826  0234  1303               	bcf	3,6	;RP1=0, select bank0
  5827  0235  00AE               	movwf	??_main
  5828  0236  082E               	movf	??_main,w
  5829  0237  00AB               	movwf	_hora_user1
  5830                           
  5831                           ;PROYECTO.c: 838:                         }else if(hora_nueva == 'o'){
  5832  0238  2AC8               	goto	l4759
  5833  0239                     l4715:
  5834  0239  306F               	movlw	111
  5835  023A  0670               	xorwf	_hora_nueva,w
  5836  023B  1D03               	btfss	3,2
  5837  023C  2A3E               	goto	u8291
  5838  023D  2A3F               	goto	u8290
  5839  023E                     u8291:
  5840  023E  2A46               	goto	l4719
  5841  023F                     u8290:
  5842  023F                     l4717:
  5843                           
  5844                           ;PROYECTO.c: 839:                             hora_user1 = 14;
  5845  023F  300E               	movlw	14
  5846  0240  1283               	bcf	3,5	;RP0=0, select bank0
  5847  0241  1303               	bcf	3,6	;RP1=0, select bank0
  5848  0242  00AE               	movwf	??_main
  5849  0243  082E               	movf	??_main,w
  5850  0244  00AB               	movwf	_hora_user1
  5851                           
  5852                           ;PROYECTO.c: 840:                         }else if(hora_nueva == 'p'){
  5853  0245  2AC8               	goto	l4759
  5854  0246                     l4719:
  5855  0246  3070               	movlw	112
  5856  0247  0670               	xorwf	_hora_nueva,w
  5857  0248  1D03               	btfss	3,2
  5858  0249  2A4B               	goto	u8301
  5859  024A  2A4C               	goto	u8300
  5860  024B                     u8301:
  5861  024B  2A53               	goto	l4723
  5862  024C                     u8300:
  5863  024C                     l4721:
  5864                           
  5865                           ;PROYECTO.c: 841:                             hora_user1 = 15;
  5866  024C  300F               	movlw	15
  5867  024D  1283               	bcf	3,5	;RP0=0, select bank0
  5868  024E  1303               	bcf	3,6	;RP1=0, select bank0
  5869  024F  00AE               	movwf	??_main
  5870  0250  082E               	movf	??_main,w
  5871  0251  00AB               	movwf	_hora_user1
  5872                           
  5873                           ;PROYECTO.c: 842:                         }else if(hora_nueva == 'q'){
  5874  0252  2AC8               	goto	l4759
  5875  0253                     l4723:
  5876  0253  3071               	movlw	113
  5877  0254  0670               	xorwf	_hora_nueva,w
  5878  0255  1D03               	btfss	3,2
  5879  0256  2A58               	goto	u8311
  5880  0257  2A59               	goto	u8310
  5881  0258                     u8311:
  5882  0258  2A60               	goto	l4727
  5883  0259                     u8310:
  5884  0259                     l4725:
  5885                           
  5886                           ;PROYECTO.c: 843:                             hora_user1 = 16;
  5887  0259  3010               	movlw	16
  5888  025A  1283               	bcf	3,5	;RP0=0, select bank0
  5889  025B  1303               	bcf	3,6	;RP1=0, select bank0
  5890  025C  00AE               	movwf	??_main
  5891  025D  082E               	movf	??_main,w
  5892  025E  00AB               	movwf	_hora_user1
  5893                           
  5894                           ;PROYECTO.c: 844:                         }else if(hora_nueva == 'r'){
  5895  025F  2AC8               	goto	l4759
  5896  0260                     l4727:
  5897  0260  3072               	movlw	114
  5898  0261  0670               	xorwf	_hora_nueva,w
  5899  0262  1D03               	btfss	3,2
  5900  0263  2A65               	goto	u8321
  5901  0264  2A66               	goto	u8320
  5902  0265                     u8321:
  5903  0265  2A6D               	goto	l4731
  5904  0266                     u8320:
  5905  0266                     l4729:
  5906                           
  5907                           ;PROYECTO.c: 845:                             hora_user1 = 17;
  5908  0266  3011               	movlw	17
  5909  0267  1283               	bcf	3,5	;RP0=0, select bank0
  5910  0268  1303               	bcf	3,6	;RP1=0, select bank0
  5911  0269  00AE               	movwf	??_main
  5912  026A  082E               	movf	??_main,w
  5913  026B  00AB               	movwf	_hora_user1
  5914                           
  5915                           ;PROYECTO.c: 846:                         }else if(hora_nueva == 's'){
  5916  026C  2AC8               	goto	l4759
  5917  026D                     l4731:
  5918  026D  3073               	movlw	115
  5919  026E  0670               	xorwf	_hora_nueva,w
  5920  026F  1D03               	btfss	3,2
  5921  0270  2A72               	goto	u8331
  5922  0271  2A73               	goto	u8330
  5923  0272                     u8331:
  5924  0272  2A7A               	goto	l4735
  5925  0273                     u8330:
  5926  0273                     l4733:
  5927                           
  5928                           ;PROYECTO.c: 847:                             hora_user1 = 18;
  5929  0273  3012               	movlw	18
  5930  0274  1283               	bcf	3,5	;RP0=0, select bank0
  5931  0275  1303               	bcf	3,6	;RP1=0, select bank0
  5932  0276  00AE               	movwf	??_main
  5933  0277  082E               	movf	??_main,w
  5934  0278  00AB               	movwf	_hora_user1
  5935                           
  5936                           ;PROYECTO.c: 848:                         }else if(hora_nueva == 't'){
  5937  0279  2AC8               	goto	l4759
  5938  027A                     l4735:
  5939  027A  3074               	movlw	116
  5940  027B  0670               	xorwf	_hora_nueva,w
  5941  027C  1D03               	btfss	3,2
  5942  027D  2A7F               	goto	u8341
  5943  027E  2A80               	goto	u8340
  5944  027F                     u8341:
  5945  027F  2A87               	goto	l4739
  5946  0280                     u8340:
  5947  0280                     l4737:
  5948                           
  5949                           ;PROYECTO.c: 849:                             hora_user1 = 19;
  5950  0280  3013               	movlw	19
  5951  0281  1283               	bcf	3,5	;RP0=0, select bank0
  5952  0282  1303               	bcf	3,6	;RP1=0, select bank0
  5953  0283  00AE               	movwf	??_main
  5954  0284  082E               	movf	??_main,w
  5955  0285  00AB               	movwf	_hora_user1
  5956                           
  5957                           ;PROYECTO.c: 850:                         }else if(hora_nueva == 'u'){
  5958  0286  2AC8               	goto	l4759
  5959  0287                     l4739:
  5960  0287  3075               	movlw	117
  5961  0288  0670               	xorwf	_hora_nueva,w
  5962  0289  1D03               	btfss	3,2
  5963  028A  2A8C               	goto	u8351
  5964  028B  2A8D               	goto	u8350
  5965  028C                     u8351:
  5966  028C  2A94               	goto	l4743
  5967  028D                     u8350:
  5968  028D                     l4741:
  5969                           
  5970                           ;PROYECTO.c: 851:                             hora_user1 = 20;
  5971  028D  3014               	movlw	20
  5972  028E  1283               	bcf	3,5	;RP0=0, select bank0
  5973  028F  1303               	bcf	3,6	;RP1=0, select bank0
  5974  0290  00AE               	movwf	??_main
  5975  0291  082E               	movf	??_main,w
  5976  0292  00AB               	movwf	_hora_user1
  5977                           
  5978                           ;PROYECTO.c: 852:                         }else if(hora_nueva == 'v'){
  5979  0293  2AC8               	goto	l4759
  5980  0294                     l4743:
  5981  0294  3076               	movlw	118
  5982  0295  0670               	xorwf	_hora_nueva,w
  5983  0296  1D03               	btfss	3,2
  5984  0297  2A99               	goto	u8361
  5985  0298  2A9A               	goto	u8360
  5986  0299                     u8361:
  5987  0299  2AA1               	goto	l4747
  5988  029A                     u8360:
  5989  029A                     l4745:
  5990                           
  5991                           ;PROYECTO.c: 853:                             hora_user1 = 21;
  5992  029A  3015               	movlw	21
  5993  029B  1283               	bcf	3,5	;RP0=0, select bank0
  5994  029C  1303               	bcf	3,6	;RP1=0, select bank0
  5995  029D  00AE               	movwf	??_main
  5996  029E  082E               	movf	??_main,w
  5997  029F  00AB               	movwf	_hora_user1
  5998                           
  5999                           ;PROYECTO.c: 854:                         }else if(hora_nueva == 'w'){
  6000  02A0  2AC8               	goto	l4759
  6001  02A1                     l4747:
  6002  02A1  3077               	movlw	119
  6003  02A2  0670               	xorwf	_hora_nueva,w
  6004  02A3  1D03               	btfss	3,2
  6005  02A4  2AA6               	goto	u8371
  6006  02A5  2AA7               	goto	u8370
  6007  02A6                     u8371:
  6008  02A6  2AAE               	goto	l4751
  6009  02A7                     u8370:
  6010  02A7                     l4749:
  6011                           
  6012                           ;PROYECTO.c: 855:                             hora_user1 = 22;
  6013  02A7  3016               	movlw	22
  6014  02A8  1283               	bcf	3,5	;RP0=0, select bank0
  6015  02A9  1303               	bcf	3,6	;RP1=0, select bank0
  6016  02AA  00AE               	movwf	??_main
  6017  02AB  082E               	movf	??_main,w
  6018  02AC  00AB               	movwf	_hora_user1
  6019                           
  6020                           ;PROYECTO.c: 856:                         }else if(hora_nueva == 'x'){
  6021  02AD  2AC8               	goto	l4759
  6022  02AE                     l4751:
  6023  02AE  3078               	movlw	120
  6024  02AF  0670               	xorwf	_hora_nueva,w
  6025  02B0  1D03               	btfss	3,2
  6026  02B1  2AB3               	goto	u8381
  6027  02B2  2AB4               	goto	u8380
  6028  02B3                     u8381:
  6029  02B3  2ABB               	goto	l4755
  6030  02B4                     u8380:
  6031  02B4                     l4753:
  6032                           
  6033                           ;PROYECTO.c: 857:                             hora_user1 = 23;
  6034  02B4  3017               	movlw	23
  6035  02B5  1283               	bcf	3,5	;RP0=0, select bank0
  6036  02B6  1303               	bcf	3,6	;RP1=0, select bank0
  6037  02B7  00AE               	movwf	??_main
  6038  02B8  082E               	movf	??_main,w
  6039  02B9  00AB               	movwf	_hora_user1
  6040                           
  6041                           ;PROYECTO.c: 858:                         }else if(hora_nueva == 'y'){
  6042  02BA  2AC8               	goto	l4759
  6043  02BB                     l4755:
  6044  02BB  3079               	movlw	121
  6045  02BC  0670               	xorwf	_hora_nueva,w
  6046  02BD  1D03               	btfss	3,2
  6047  02BE  2AC0               	goto	u8391
  6048  02BF  2AC1               	goto	u8390
  6049  02C0                     u8391:
  6050  02C0  2AC8               	goto	l732
  6051  02C1                     u8390:
  6052  02C1                     l4757:
  6053                           
  6054                           ;PROYECTO.c: 859:                             hora_user1 = 24;
  6055  02C1  3018               	movlw	24
  6056  02C2  1283               	bcf	3,5	;RP0=0, select bank0
  6057  02C3  1303               	bcf	3,6	;RP1=0, select bank0
  6058  02C4  00AE               	movwf	??_main
  6059  02C5  082E               	movf	??_main,w
  6060  02C6  00AB               	movwf	_hora_user1
  6061  02C7  2AC8               	goto	l4759
  6062  02C8                     l732:
  6063  02C8                     l4759:
  6064                           
  6065                           ;PROYECTO.c: 864:                 USART_Cadena(" Ingresá la letra de los minutos nuevos
      +                            \r");
  6066  02C8  30C4               	movlw	low (STR_41| (0+32768))
  6067  02C9  00FA               	movwf	USART_Cadena@str
  6068  02CA  3088               	movlw	high (STR_41| (0+32768))
  6069  02CB  00FB               	movwf	USART_Cadena@str+1
  6070  02CC  120A  118A  27A5  120A  118A  	fcall	_USART_Cadena
  6071                           
  6072                           ;PROYECTO.c: 865:                 USART_Cadena(" a.0  b.15   c.30   d.45   e.55   \r");
  6073  02D1  3067               	movlw	low (STR_42| (0+32768))
  6074  02D2  00FA               	movwf	USART_Cadena@str
  6075  02D3  3089               	movlw	high (STR_42| (0+32768))
  6076  02D4  00FB               	movwf	USART_Cadena@str+1
  6077  02D5  120A  118A  27A5  120A  118A  	fcall	_USART_Cadena
  6078  02DA                     l4761:
  6079                           
  6080                           ;PROYECTO.c: 867:                     if (PIR1bits.RCIF == 1){
  6081  02DA  1283               	bcf	3,5	;RP0=0, select bank0
  6082  02DB  1303               	bcf	3,6	;RP1=0, select bank0
  6083  02DC  1E8C               	btfss	12,5	;volatile
  6084  02DD  2ADF               	goto	u8401
  6085  02DE  2AE0               	goto	u8400
  6086  02DF                     u8401:
  6087  02DF  2B3B               	goto	l4789
  6088  02E0                     u8400:
  6089  02E0                     l4763:
  6090                           
  6091                           ;PROYECTO.c: 868:                         USART_Cadena(" \r");
  6092  02E0  3088               	movlw	low ((STR_42+33)| (0+32768))
  6093  02E1  00FA               	movwf	USART_Cadena@str
  6094  02E2  3089               	movlw	high ((STR_42+33)| (0+32768))
  6095  02E3  00FB               	movwf	USART_Cadena@str+1
  6096  02E4  120A  118A  27A5  120A  118A  	fcall	_USART_Cadena
  6097  02E9                     l4765:
  6098                           
  6099                           ;PROYECTO.c: 869:                         hora_nueva = USART_Rx();
  6100  02E9  120A  118A  27F0  120A  118A  	fcall	_USART_Rx
  6101  02EE  1283               	bcf	3,5	;RP0=0, select bank0
  6102  02EF  1303               	bcf	3,6	;RP1=0, select bank0
  6103  02F0  00AE               	movwf	??_main
  6104  02F1  082E               	movf	??_main,w
  6105  02F2  00F0               	movwf	_hora_nueva
  6106  02F3                     l4767:
  6107                           
  6108                           ;PROYECTO.c: 870:                         USART_Cadena(" \r");
  6109  02F3  3088               	movlw	low ((STR_42+33)| (0+32768))
  6110  02F4  00FA               	movwf	USART_Cadena@str
  6111  02F5  3089               	movlw	high ((STR_42+33)| (0+32768))
  6112  02F6  00FB               	movwf	USART_Cadena@str+1
  6113  02F7  120A  118A  27A5  120A  118A  	fcall	_USART_Cadena
  6114  02FC                     l4769:
  6115                           
  6116                           ;PROYECTO.c: 871:                         if(hora_nueva == 'a'){
  6117  02FC  3061               	movlw	97
  6118  02FD  0670               	xorwf	_hora_nueva,w
  6119  02FE  1D03               	btfss	3,2
  6120  02FF  2B01               	goto	u8411
  6121  0300  2B02               	goto	u8410
  6122  0301                     u8411:
  6123  0301  2B04               	goto	l4773
  6124  0302                     u8410:
  6125  0302                     l4771:
  6126                           
  6127                           ;PROYECTO.c: 872:                             min_user1 = 0;
  6128  0302  01F3               	clrf	_min_user1
  6129                           
  6130                           ;PROYECTO.c: 873:                         }else if(hora_nueva == 'b'){
  6131  0303  2B38               	goto	l745
  6132  0304                     l4773:
  6133  0304  3062               	movlw	98
  6134  0305  0670               	xorwf	_hora_nueva,w
  6135  0306  1D03               	btfss	3,2
  6136  0307  2B09               	goto	u8421
  6137  0308  2B0A               	goto	u8420
  6138  0309                     u8421:
  6139  0309  2B11               	goto	l4777
  6140  030A                     u8420:
  6141  030A                     l4775:
  6142                           
  6143                           ;PROYECTO.c: 874:                             min_user1 = 15;
  6144  030A  300F               	movlw	15
  6145  030B  1283               	bcf	3,5	;RP0=0, select bank0
  6146  030C  1303               	bcf	3,6	;RP1=0, select bank0
  6147  030D  00AE               	movwf	??_main
  6148  030E  082E               	movf	??_main,w
  6149  030F  00F3               	movwf	_min_user1
  6150                           
  6151                           ;PROYECTO.c: 875:                         }else if(hora_nueva == 'c'){
  6152  0310  2B38               	goto	l745
  6153  0311                     l4777:
  6154  0311  3063               	movlw	99
  6155  0312  0670               	xorwf	_hora_nueva,w
  6156  0313  1D03               	btfss	3,2
  6157  0314  2B16               	goto	u8431
  6158  0315  2B17               	goto	u8430
  6159  0316                     u8431:
  6160  0316  2B1E               	goto	l4781
  6161  0317                     u8430:
  6162  0317                     l4779:
  6163                           
  6164                           ;PROYECTO.c: 876:                             min_user1 = 30;
  6165  0317  301E               	movlw	30
  6166  0318  1283               	bcf	3,5	;RP0=0, select bank0
  6167  0319  1303               	bcf	3,6	;RP1=0, select bank0
  6168  031A  00AE               	movwf	??_main
  6169  031B  082E               	movf	??_main,w
  6170  031C  00F3               	movwf	_min_user1
  6171                           
  6172                           ;PROYECTO.c: 877:                         }else if(hora_nueva == 'd'){
  6173  031D  2B38               	goto	l745
  6174  031E                     l4781:
  6175  031E  3064               	movlw	100
  6176  031F  0670               	xorwf	_hora_nueva,w
  6177  0320  1D03               	btfss	3,2
  6178  0321  2B23               	goto	u8441
  6179  0322  2B24               	goto	u8440
  6180  0323                     u8441:
  6181  0323  2B2B               	goto	l4785
  6182  0324                     u8440:
  6183  0324                     l4783:
  6184                           
  6185                           ;PROYECTO.c: 878:                             min_user1 = 45;
  6186  0324  302D               	movlw	45
  6187  0325  1283               	bcf	3,5	;RP0=0, select bank0
  6188  0326  1303               	bcf	3,6	;RP1=0, select bank0
  6189  0327  00AE               	movwf	??_main
  6190  0328  082E               	movf	??_main,w
  6191  0329  00F3               	movwf	_min_user1
  6192                           
  6193                           ;PROYECTO.c: 879:                         }else if(hora_nueva == 'e'){
  6194  032A  2B38               	goto	l745
  6195  032B                     l4785:
  6196  032B  3065               	movlw	101
  6197  032C  0670               	xorwf	_hora_nueva,w
  6198  032D  1D03               	btfss	3,2
  6199  032E  2B30               	goto	u8451
  6200  032F  2B31               	goto	u8450
  6201  0330                     u8451:
  6202  0330  2B38               	goto	l745
  6203  0331                     u8450:
  6204  0331                     l4787:
  6205                           
  6206                           ;PROYECTO.c: 880:                             min_user1 = 55;
  6207  0331  3037               	movlw	55
  6208  0332  1283               	bcf	3,5	;RP0=0, select bank0
  6209  0333  1303               	bcf	3,6	;RP1=0, select bank0
  6210  0334  00AE               	movwf	??_main
  6211  0335  082E               	movf	??_main,w
  6212  0336  00F3               	movwf	_min_user1
  6213  0337  2B38               	goto	l745
  6214  0338                     l745:
  6215  0338  120A  158A  2C51   	goto	l4427
  6216  033B                     l4789:
  6217                           
  6218                           ;PROYECTO.c: 885:                 USART_Cadena(" Actualmente se cuenta con 3 medicamento
      +                          s\r");
  6219  033B  30F0               	movlw	low (STR_45| (0+32768))
  6220  033C  00FA               	movwf	USART_Cadena@str
  6221  033D  3088               	movlw	high (STR_45| (0+32768))
  6222  033E  00FB               	movwf	USART_Cadena@str+1
  6223  033F  120A  118A  27A5  120A  118A  	fcall	_USART_Cadena
  6224                           
  6225                           ;PROYECTO.c: 886:                 USART_Cadena(" presione el número de medicamento a gu
      +                          ardar \r");
  6226  0344  3034               	movlw	low (STR_46| (0+32768))
  6227  0345  00FA               	movwf	USART_Cadena@str
  6228  0346  3088               	movlw	high (STR_46| (0+32768))
  6229  0347  00FB               	movwf	USART_Cadena@str+1
  6230  0348  120A  118A  27A5  120A  118A  	fcall	_USART_Cadena
  6231                           
  6232                           ;PROYECTO.c: 887:                 USART_Cadena(" 1.AFC    2.FFT   3.DHL \r");
  6233  034D  3068               	movlw	low (STR_47| (0+32768))
  6234  034E  00FA               	movwf	USART_Cadena@str
  6235  034F  308A               	movlw	high (STR_47| (0+32768))
  6236  0350  00FB               	movwf	USART_Cadena@str+1
  6237  0351  120A  118A  27A5  120A  118A  	fcall	_USART_Cadena
  6238  0356                     l4791:
  6239                           
  6240                           ;PROYECTO.c: 889:                     if (PIR1bits.RCIF == 1){
  6241  0356  1283               	bcf	3,5	;RP0=0, select bank0
  6242  0357  1303               	bcf	3,6	;RP1=0, select bank0
  6243  0358  1E8C               	btfss	12,5	;volatile
  6244  0359  2B5B               	goto	u8461
  6245  035A  2B5C               	goto	u8460
  6246  035B                     u8461:
  6247  035B  2B56               	goto	l4791
  6248  035C                     u8460:
  6249  035C  2ADA               	goto	l4761
  6250  035D                     l4795:
  6251                           
  6252                           ;PROYECTO.c: 900:                 USART_Cadena(" Ingresá la letra de la nueva hora  \r"
      +                          );
  6253  035D  301B               	movlw	low (STR_35| (0+32768))
  6254  035E  00FA               	movwf	USART_Cadena@str
  6255  035F  3089               	movlw	high (STR_35| (0+32768))
  6256  0360  00FB               	movwf	USART_Cadena@str+1
  6257  0361  120A  118A  27A5  120A  118A  	fcall	_USART_Cadena
  6258                           
  6259                           ;PROYECTO.c: 901:                 USART_Cadena(" a.0  b.1   c.2   d.3   e.4   f.5   g.6 
      +                            h.7  i.8\r");
  6260  0366  3000               	movlw	low (STR_36| (0+32768))
  6261  0367  00FA               	movwf	USART_Cadena@str
  6262  0368  3088               	movlw	high (STR_36| (0+32768))
  6263  0369  00FB               	movwf	USART_Cadena@str+1
  6264  036A  120A  118A  27A5  120A  118A  	fcall	_USART_Cadena
  6265                           
  6266                           ;PROYECTO.c: 902:                 USART_Cadena(" j.9  k.10  l.11  m.12  n.13  o.14  p.15
      +                            q.16\r");
  6267  036F  3094               	movlw	low (STR_37| (0+32768))
  6268  0370  00FA               	movwf	USART_Cadena@str
  6269  0371  3088               	movlw	high (STR_37| (0+32768))
  6270  0372  00FB               	movwf	USART_Cadena@str+1
  6271  0373  120A  118A  27A5  120A  118A  	fcall	_USART_Cadena
  6272                           
  6273                           ;PROYECTO.c: 903:                 USART_Cadena("r.17  s.18  t.19  u.20  v.21  w.22  x.23
      +                            y.24\r");
  6274  0378  3064               	movlw	low (STR_38| (0+32768))
  6275  0379  00FA               	movwf	USART_Cadena@str
  6276  037A  3088               	movlw	high (STR_38| (0+32768))
  6277  037B  00FB               	movwf	USART_Cadena@str+1
  6278  037C  120A  118A  27A5  120A  118A  	fcall	_USART_Cadena
  6279  0381                     l4797:
  6280                           
  6281                           ;PROYECTO.c: 905:                     if (PIR1bits.RCIF == 1){
  6282  0381  1283               	bcf	3,5	;RP0=0, select bank0
  6283  0382  1303               	bcf	3,6	;RP1=0, select bank0
  6284  0383  1E8C               	btfss	12,5	;volatile
  6285  0384  2B86               	goto	u8471
  6286  0385  2B87               	goto	u8470
  6287  0386                     u8471:
  6288  0386  2B81               	goto	l4797
  6289  0387                     u8470:
  6290  0387                     l4799:
  6291                           
  6292                           ;PROYECTO.c: 906:                         USART_Cadena(" \r");
  6293  0387  3088               	movlw	low ((STR_42+33)| (0+32768))
  6294  0388  00FA               	movwf	USART_Cadena@str
  6295  0389  3089               	movlw	high ((STR_42+33)| (0+32768))
  6296  038A  00FB               	movwf	USART_Cadena@str+1
  6297  038B  120A  118A  27A5  120A  118A  	fcall	_USART_Cadena
  6298  0390                     l4801:
  6299                           
  6300                           ;PROYECTO.c: 907:                         hora_nueva = USART_Rx();
  6301  0390  120A  118A  27F0  120A  118A  	fcall	_USART_Rx
  6302  0395  1283               	bcf	3,5	;RP0=0, select bank0
  6303  0396  1303               	bcf	3,6	;RP1=0, select bank0
  6304  0397  00AE               	movwf	??_main
  6305  0398  082E               	movf	??_main,w
  6306  0399  00F0               	movwf	_hora_nueva
  6307  039A                     l4803:
  6308                           
  6309                           ;PROYECTO.c: 908:                         USART_Cadena(" \r");
  6310  039A  3088               	movlw	low ((STR_42+33)| (0+32768))
  6311  039B  00FA               	movwf	USART_Cadena@str
  6312  039C  3089               	movlw	high ((STR_42+33)| (0+32768))
  6313  039D  00FB               	movwf	USART_Cadena@str+1
  6314  039E  120A  118A  27A5  120A  118A  	fcall	_USART_Cadena
  6315  03A3                     l4805:
  6316                           
  6317                           ;PROYECTO.c: 909:                         if(hora_nueva == 'a'){
  6318  03A3  3061               	movlw	97
  6319  03A4  0670               	xorwf	_hora_nueva,w
  6320  03A5  1D03               	btfss	3,2
  6321  03A6  2BA8               	goto	u8481
  6322  03A7  2BA9               	goto	u8480
  6323  03A8                     u8481:
  6324  03A8  2BAD               	goto	l4809
  6325  03A9                     u8480:
  6326  03A9                     l4807:
  6327                           
  6328                           ;PROYECTO.c: 910:                             hora_user2 = 0;
  6329  03A9  1283               	bcf	3,5	;RP0=0, select bank0
  6330  03AA  1303               	bcf	3,6	;RP1=0, select bank0
  6331  03AB  01AA               	clrf	_hora_user2
  6332                           
  6333                           ;PROYECTO.c: 911:                         }else if(hora_nueva == 'b'){
  6334  03AC  2CE3               	goto	l4905
  6335  03AD                     l4809:
  6336  03AD  3062               	movlw	98
  6337  03AE  0670               	xorwf	_hora_nueva,w
  6338  03AF  1D03               	btfss	3,2
  6339  03B0  2BB2               	goto	u8491
  6340  03B1  2BB3               	goto	u8490
  6341  03B2                     u8491:
  6342  03B2  2BB8               	goto	l4813
  6343  03B3                     u8490:
  6344  03B3                     l4811:
  6345                           
  6346                           ;PROYECTO.c: 912:                             hora_user2 = 1;
  6347  03B3  1283               	bcf	3,5	;RP0=0, select bank0
  6348  03B4  1303               	bcf	3,6	;RP1=0, select bank0
  6349  03B5  01AA               	clrf	_hora_user2
  6350  03B6  0AAA               	incf	_hora_user2,f
  6351                           
  6352                           ;PROYECTO.c: 913:                         }else if(hora_nueva == 'c'){
  6353  03B7  2CE3               	goto	l4905
  6354  03B8                     l4813:
  6355  03B8  3063               	movlw	99
  6356  03B9  0670               	xorwf	_hora_nueva,w
  6357  03BA  1D03               	btfss	3,2
  6358  03BB  2BBD               	goto	u8501
  6359  03BC  2BBE               	goto	u8500
  6360  03BD                     u8501:
  6361  03BD  2BC5               	goto	l4817
  6362  03BE                     u8500:
  6363  03BE                     l4815:
  6364                           
  6365                           ;PROYECTO.c: 914:                             hora_user2 = 2;
  6366  03BE  3002               	movlw	2
  6367  03BF  1283               	bcf	3,5	;RP0=0, select bank0
  6368  03C0  1303               	bcf	3,6	;RP1=0, select bank0
  6369  03C1  00AE               	movwf	??_main
  6370  03C2  082E               	movf	??_main,w
  6371  03C3  00AA               	movwf	_hora_user2
  6372                           
  6373                           ;PROYECTO.c: 915:                         }else if(hora_nueva == 'd'){
  6374  03C4  2CE3               	goto	l4905
  6375  03C5                     l4817:
  6376  03C5  3064               	movlw	100
  6377  03C6  0670               	xorwf	_hora_nueva,w
  6378  03C7  1D03               	btfss	3,2
  6379  03C8  2BCA               	goto	u8511
  6380  03C9  2BCB               	goto	u8510
  6381  03CA                     u8511:
  6382  03CA  2BD2               	goto	l4821
  6383  03CB                     u8510:
  6384  03CB                     l4819:
  6385                           
  6386                           ;PROYECTO.c: 916:                             hora_user2 = 3;
  6387  03CB  3003               	movlw	3
  6388  03CC  1283               	bcf	3,5	;RP0=0, select bank0
  6389  03CD  1303               	bcf	3,6	;RP1=0, select bank0
  6390  03CE  00AE               	movwf	??_main
  6391  03CF  082E               	movf	??_main,w
  6392  03D0  00AA               	movwf	_hora_user2
  6393                           
  6394                           ;PROYECTO.c: 917:                         }else if(hora_nueva == 'e'){
  6395  03D1  2CE3               	goto	l4905
  6396  03D2                     l4821:
  6397  03D2  3065               	movlw	101
  6398  03D3  0670               	xorwf	_hora_nueva,w
  6399  03D4  1D03               	btfss	3,2
  6400  03D5  2BD7               	goto	u8521
  6401  03D6  2BD8               	goto	u8520
  6402  03D7                     u8521:
  6403  03D7  2BDF               	goto	l4825
  6404  03D8                     u8520:
  6405  03D8                     l4823:
  6406                           
  6407                           ;PROYECTO.c: 918:                             hora_user2 = 4;
  6408  03D8  3004               	movlw	4
  6409  03D9  1283               	bcf	3,5	;RP0=0, select bank0
  6410  03DA  1303               	bcf	3,6	;RP1=0, select bank0
  6411  03DB  00AE               	movwf	??_main
  6412  03DC  082E               	movf	??_main,w
  6413  03DD  00AA               	movwf	_hora_user2
  6414                           
  6415                           ;PROYECTO.c: 919:                         }else if(hora_nueva == 'f'){
  6416  03DE  2CE3               	goto	l4905
  6417  03DF                     l4825:
  6418  03DF  3066               	movlw	102
  6419  03E0  0670               	xorwf	_hora_nueva,w
  6420  03E1  1D03               	btfss	3,2
  6421  03E2  2BE4               	goto	u8531
  6422  03E3  2BE5               	goto	u8530
  6423  03E4                     u8531:
  6424  03E4  2BEC               	goto	l4829
  6425  03E5                     u8530:
  6426  03E5                     l4827:
  6427                           
  6428                           ;PROYECTO.c: 920:                             hora_user2 = 5;
  6429  03E5  3005               	movlw	5
  6430  03E6  1283               	bcf	3,5	;RP0=0, select bank0
  6431  03E7  1303               	bcf	3,6	;RP1=0, select bank0
  6432  03E8  00AE               	movwf	??_main
  6433  03E9  082E               	movf	??_main,w
  6434  03EA  00AA               	movwf	_hora_user2
  6435                           
  6436                           ;PROYECTO.c: 921:                         }else if(hora_nueva == 'g'){
  6437  03EB  2CE3               	goto	l4905
  6438  03EC                     l4829:
  6439  03EC  3067               	movlw	103
  6440  03ED  0670               	xorwf	_hora_nueva,w
  6441  03EE  1D03               	btfss	3,2
  6442  03EF  2BF1               	goto	u8541
  6443  03F0  2BF2               	goto	u8540
  6444  03F1                     u8541:
  6445  03F1  2BF9               	goto	l4833
  6446  03F2                     u8540:
  6447  03F2                     l4831:
  6448                           
  6449                           ;PROYECTO.c: 922:                             hora_user2 = 6;
  6450  03F2  3006               	movlw	6
  6451  03F3  1283               	bcf	3,5	;RP0=0, select bank0
  6452  03F4  1303               	bcf	3,6	;RP1=0, select bank0
  6453  03F5  00AE               	movwf	??_main
  6454  03F6  082E               	movf	??_main,w
  6455  03F7  00AA               	movwf	_hora_user2
  6456                           
  6457                           ;PROYECTO.c: 923:                         }else if(hora_nueva == 'h'){
  6458  03F8  2CE3               	goto	l4905
  6459  03F9                     l4833:
  6460  03F9  3068               	movlw	104
  6461  03FA  0670               	xorwf	_hora_nueva,w
  6462  03FB  1D03               	btfss	3,2
  6463  03FC  2BFE               	goto	u8551
  6464  03FD  2BFF               	goto	u8550
  6465  03FE                     u8551:
  6466  03FE  2C06               	goto	l4837
  6467  03FF                     u8550:
  6468  03FF                     l4835:
  6469                           
  6470                           ;PROYECTO.c: 924:                             hora_user2 = 7;
  6471  03FF  3007               	movlw	7
  6472  0400  1283               	bcf	3,5	;RP0=0, select bank0
  6473  0401  1303               	bcf	3,6	;RP1=0, select bank0
  6474  0402  00AE               	movwf	??_main
  6475  0403  082E               	movf	??_main,w
  6476  0404  00AA               	movwf	_hora_user2
  6477                           
  6478                           ;PROYECTO.c: 925:                         }else if(hora_nueva == 'i'){
  6479  0405  2CE3               	goto	l4905
  6480  0406                     l4837:
  6481  0406  3069               	movlw	105
  6482  0407  0670               	xorwf	_hora_nueva,w
  6483  0408  1D03               	btfss	3,2
  6484  0409  2C0B               	goto	u8561
  6485  040A  2C0C               	goto	u8560
  6486  040B                     u8561:
  6487  040B  2C13               	goto	l4841
  6488  040C                     u8560:
  6489  040C                     l4839:
  6490                           
  6491                           ;PROYECTO.c: 926:                             hora_user2 = 8;
  6492  040C  3008               	movlw	8
  6493  040D  1283               	bcf	3,5	;RP0=0, select bank0
  6494  040E  1303               	bcf	3,6	;RP1=0, select bank0
  6495  040F  00AE               	movwf	??_main
  6496  0410  082E               	movf	??_main,w
  6497  0411  00AA               	movwf	_hora_user2
  6498                           
  6499                           ;PROYECTO.c: 927:                         }else if(hora_nueva == 'j'){
  6500  0412  2CE3               	goto	l4905
  6501  0413                     l4841:
  6502  0413  306A               	movlw	106
  6503  0414  0670               	xorwf	_hora_nueva,w
  6504  0415  1D03               	btfss	3,2
  6505  0416  2C18               	goto	u8571
  6506  0417  2C19               	goto	u8570
  6507  0418                     u8571:
  6508  0418  2C20               	goto	l4845
  6509  0419                     u8570:
  6510  0419                     l4843:
  6511                           
  6512                           ;PROYECTO.c: 928:                             hora_user2 = 9;
  6513  0419  3009               	movlw	9
  6514  041A  1283               	bcf	3,5	;RP0=0, select bank0
  6515  041B  1303               	bcf	3,6	;RP1=0, select bank0
  6516  041C  00AE               	movwf	??_main
  6517  041D  082E               	movf	??_main,w
  6518  041E  00AA               	movwf	_hora_user2
  6519                           
  6520                           ;PROYECTO.c: 929:                         }else if(hora_nueva == 'k'){
  6521  041F  2CE3               	goto	l4905
  6522  0420                     l4845:
  6523  0420  306B               	movlw	107
  6524  0421  0670               	xorwf	_hora_nueva,w
  6525  0422  1D03               	btfss	3,2
  6526  0423  2C25               	goto	u8581
  6527  0424  2C26               	goto	u8580
  6528  0425                     u8581:
  6529  0425  2C2D               	goto	l4849
  6530  0426                     u8580:
  6531  0426                     l4847:
  6532                           
  6533                           ;PROYECTO.c: 930:                             hora_user2 = 10;
  6534  0426  300A               	movlw	10
  6535  0427  1283               	bcf	3,5	;RP0=0, select bank0
  6536  0428  1303               	bcf	3,6	;RP1=0, select bank0
  6537  0429  00AE               	movwf	??_main
  6538  042A  082E               	movf	??_main,w
  6539  042B  00AA               	movwf	_hora_user2
  6540                           
  6541                           ;PROYECTO.c: 931:                         }else if(hora_nueva == 'l'){
  6542  042C  2CE3               	goto	l4905
  6543  042D                     l4849:
  6544  042D  306C               	movlw	108
  6545  042E  0670               	xorwf	_hora_nueva,w
  6546  042F  1D03               	btfss	3,2
  6547  0430  2C32               	goto	u8591
  6548  0431  2C33               	goto	u8590
  6549  0432                     u8591:
  6550  0432  2C3A               	goto	l4853
  6551  0433                     u8590:
  6552  0433                     l4851:
  6553                           
  6554                           ;PROYECTO.c: 932:                             hora_user2 = 11;
  6555  0433  300B               	movlw	11
  6556  0434  1283               	bcf	3,5	;RP0=0, select bank0
  6557  0435  1303               	bcf	3,6	;RP1=0, select bank0
  6558  0436  00AE               	movwf	??_main
  6559  0437  082E               	movf	??_main,w
  6560  0438  00AA               	movwf	_hora_user2
  6561                           
  6562                           ;PROYECTO.c: 933:                         }else if(hora_nueva == 'm'){
  6563  0439  2CE3               	goto	l4905
  6564  043A                     l4853:
  6565  043A  306D               	movlw	109
  6566  043B  0670               	xorwf	_hora_nueva,w
  6567  043C  1D03               	btfss	3,2
  6568  043D  2C3F               	goto	u8601
  6569  043E  2C40               	goto	u8600
  6570  043F                     u8601:
  6571  043F  2C47               	goto	l4857
  6572  0440                     u8600:
  6573  0440                     l4855:
  6574                           
  6575                           ;PROYECTO.c: 934:                             hora_user2 = 12;
  6576  0440  300C               	movlw	12
  6577  0441  1283               	bcf	3,5	;RP0=0, select bank0
  6578  0442  1303               	bcf	3,6	;RP1=0, select bank0
  6579  0443  00AE               	movwf	??_main
  6580  0444  082E               	movf	??_main,w
  6581  0445  00AA               	movwf	_hora_user2
  6582                           
  6583                           ;PROYECTO.c: 935:                         }else if(hora_nueva == 'n'){
  6584  0446  2CE3               	goto	l4905
  6585  0447                     l4857:
  6586  0447  306E               	movlw	110
  6587  0448  0670               	xorwf	_hora_nueva,w
  6588  0449  1D03               	btfss	3,2
  6589  044A  2C4C               	goto	u8611
  6590  044B  2C4D               	goto	u8610
  6591  044C                     u8611:
  6592  044C  2C54               	goto	l4861
  6593  044D                     u8610:
  6594  044D                     l4859:
  6595                           
  6596                           ;PROYECTO.c: 936:                             hora_user2 = 13;
  6597  044D  300D               	movlw	13
  6598  044E  1283               	bcf	3,5	;RP0=0, select bank0
  6599  044F  1303               	bcf	3,6	;RP1=0, select bank0
  6600  0450  00AE               	movwf	??_main
  6601  0451  082E               	movf	??_main,w
  6602  0452  00AA               	movwf	_hora_user2
  6603                           
  6604                           ;PROYECTO.c: 937:                         }else if(hora_nueva == 'o'){
  6605  0453  2CE3               	goto	l4905
  6606  0454                     l4861:
  6607  0454  306F               	movlw	111
  6608  0455  0670               	xorwf	_hora_nueva,w
  6609  0456  1D03               	btfss	3,2
  6610  0457  2C59               	goto	u8621
  6611  0458  2C5A               	goto	u8620
  6612  0459                     u8621:
  6613  0459  2C61               	goto	l4865
  6614  045A                     u8620:
  6615  045A                     l4863:
  6616                           
  6617                           ;PROYECTO.c: 938:                             hora_user2 = 14;
  6618  045A  300E               	movlw	14
  6619  045B  1283               	bcf	3,5	;RP0=0, select bank0
  6620  045C  1303               	bcf	3,6	;RP1=0, select bank0
  6621  045D  00AE               	movwf	??_main
  6622  045E  082E               	movf	??_main,w
  6623  045F  00AA               	movwf	_hora_user2
  6624                           
  6625                           ;PROYECTO.c: 939:                         }else if(hora_nueva == 'p'){
  6626  0460  2CE3               	goto	l4905
  6627  0461                     l4865:
  6628  0461  3070               	movlw	112
  6629  0462  0670               	xorwf	_hora_nueva,w
  6630  0463  1D03               	btfss	3,2
  6631  0464  2C66               	goto	u8631
  6632  0465  2C67               	goto	u8630
  6633  0466                     u8631:
  6634  0466  2C6E               	goto	l4869
  6635  0467                     u8630:
  6636  0467                     l4867:
  6637                           
  6638                           ;PROYECTO.c: 940:                             hora_user2 = 15;
  6639  0467  300F               	movlw	15
  6640  0468  1283               	bcf	3,5	;RP0=0, select bank0
  6641  0469  1303               	bcf	3,6	;RP1=0, select bank0
  6642  046A  00AE               	movwf	??_main
  6643  046B  082E               	movf	??_main,w
  6644  046C  00AA               	movwf	_hora_user2
  6645                           
  6646                           ;PROYECTO.c: 941:                         }else if(hora_nueva == 'q'){
  6647  046D  2CE3               	goto	l4905
  6648  046E                     l4869:
  6649  046E  3071               	movlw	113
  6650  046F  0670               	xorwf	_hora_nueva,w
  6651  0470  1D03               	btfss	3,2
  6652  0471  2C73               	goto	u8641
  6653  0472  2C74               	goto	u8640
  6654  0473                     u8641:
  6655  0473  2C7B               	goto	l4873
  6656  0474                     u8640:
  6657  0474                     l4871:
  6658                           
  6659                           ;PROYECTO.c: 942:                             hora_user2 = 16;
  6660  0474  3010               	movlw	16
  6661  0475  1283               	bcf	3,5	;RP0=0, select bank0
  6662  0476  1303               	bcf	3,6	;RP1=0, select bank0
  6663  0477  00AE               	movwf	??_main
  6664  0478  082E               	movf	??_main,w
  6665  0479  00AA               	movwf	_hora_user2
  6666                           
  6667                           ;PROYECTO.c: 943:                         }else if(hora_nueva == 'r'){
  6668  047A  2CE3               	goto	l4905
  6669  047B                     l4873:
  6670  047B  3072               	movlw	114
  6671  047C  0670               	xorwf	_hora_nueva,w
  6672  047D  1D03               	btfss	3,2
  6673  047E  2C80               	goto	u8651
  6674  047F  2C81               	goto	u8650
  6675  0480                     u8651:
  6676  0480  2C88               	goto	l4877
  6677  0481                     u8650:
  6678  0481                     l4875:
  6679                           
  6680                           ;PROYECTO.c: 944:                             hora_user2 = 17;
  6681  0481  3011               	movlw	17
  6682  0482  1283               	bcf	3,5	;RP0=0, select bank0
  6683  0483  1303               	bcf	3,6	;RP1=0, select bank0
  6684  0484  00AE               	movwf	??_main
  6685  0485  082E               	movf	??_main,w
  6686  0486  00AA               	movwf	_hora_user2
  6687                           
  6688                           ;PROYECTO.c: 945:                         }else if(hora_nueva == 's'){
  6689  0487  2CE3               	goto	l4905
  6690  0488                     l4877:
  6691  0488  3073               	movlw	115
  6692  0489  0670               	xorwf	_hora_nueva,w
  6693  048A  1D03               	btfss	3,2
  6694  048B  2C8D               	goto	u8661
  6695  048C  2C8E               	goto	u8660
  6696  048D                     u8661:
  6697  048D  2C95               	goto	l4881
  6698  048E                     u8660:
  6699  048E                     l4879:
  6700                           
  6701                           ;PROYECTO.c: 946:                             hora_user2 = 18;
  6702  048E  3012               	movlw	18
  6703  048F  1283               	bcf	3,5	;RP0=0, select bank0
  6704  0490  1303               	bcf	3,6	;RP1=0, select bank0
  6705  0491  00AE               	movwf	??_main
  6706  0492  082E               	movf	??_main,w
  6707  0493  00AA               	movwf	_hora_user2
  6708                           
  6709                           ;PROYECTO.c: 947:                         }else if(hora_nueva == 't'){
  6710  0494  2CE3               	goto	l4905
  6711  0495                     l4881:
  6712  0495  3074               	movlw	116
  6713  0496  0670               	xorwf	_hora_nueva,w
  6714  0497  1D03               	btfss	3,2
  6715  0498  2C9A               	goto	u8671
  6716  0499  2C9B               	goto	u8670
  6717  049A                     u8671:
  6718  049A  2CA2               	goto	l4885
  6719  049B                     u8670:
  6720  049B                     l4883:
  6721                           
  6722                           ;PROYECTO.c: 948:                             hora_user2 = 19;
  6723  049B  3013               	movlw	19
  6724  049C  1283               	bcf	3,5	;RP0=0, select bank0
  6725  049D  1303               	bcf	3,6	;RP1=0, select bank0
  6726  049E  00AE               	movwf	??_main
  6727  049F  082E               	movf	??_main,w
  6728  04A0  00AA               	movwf	_hora_user2
  6729                           
  6730                           ;PROYECTO.c: 949:                         }else if(hora_nueva == 'u'){
  6731  04A1  2CE3               	goto	l4905
  6732  04A2                     l4885:
  6733  04A2  3075               	movlw	117
  6734  04A3  0670               	xorwf	_hora_nueva,w
  6735  04A4  1D03               	btfss	3,2
  6736  04A5  2CA7               	goto	u8681
  6737  04A6  2CA8               	goto	u8680
  6738  04A7                     u8681:
  6739  04A7  2CAF               	goto	l4889
  6740  04A8                     u8680:
  6741  04A8                     l4887:
  6742                           
  6743                           ;PROYECTO.c: 950:                             hora_user2 = 20;
  6744  04A8  3014               	movlw	20
  6745  04A9  1283               	bcf	3,5	;RP0=0, select bank0
  6746  04AA  1303               	bcf	3,6	;RP1=0, select bank0
  6747  04AB  00AE               	movwf	??_main
  6748  04AC  082E               	movf	??_main,w
  6749  04AD  00AA               	movwf	_hora_user2
  6750                           
  6751                           ;PROYECTO.c: 951:                         }else if(hora_nueva == 'v'){
  6752  04AE  2CE3               	goto	l4905
  6753  04AF                     l4889:
  6754  04AF  3076               	movlw	118
  6755  04B0  0670               	xorwf	_hora_nueva,w
  6756  04B1  1D03               	btfss	3,2
  6757  04B2  2CB4               	goto	u8691
  6758  04B3  2CB5               	goto	u8690
  6759  04B4                     u8691:
  6760  04B4  2CBC               	goto	l4893
  6761  04B5                     u8690:
  6762  04B5                     l4891:
  6763                           
  6764                           ;PROYECTO.c: 952:                             hora_user2 = 21;
  6765  04B5  3015               	movlw	21
  6766  04B6  1283               	bcf	3,5	;RP0=0, select bank0
  6767  04B7  1303               	bcf	3,6	;RP1=0, select bank0
  6768  04B8  00AE               	movwf	??_main
  6769  04B9  082E               	movf	??_main,w
  6770  04BA  00AA               	movwf	_hora_user2
  6771                           
  6772                           ;PROYECTO.c: 953:                         }else if(hora_nueva == 'w'){
  6773  04BB  2CE3               	goto	l4905
  6774  04BC                     l4893:
  6775  04BC  3077               	movlw	119
  6776  04BD  0670               	xorwf	_hora_nueva,w
  6777  04BE  1D03               	btfss	3,2
  6778  04BF  2CC1               	goto	u8701
  6779  04C0  2CC2               	goto	u8700
  6780  04C1                     u8701:
  6781  04C1  2CC9               	goto	l4897
  6782  04C2                     u8700:
  6783  04C2                     l4895:
  6784                           
  6785                           ;PROYECTO.c: 954:                             hora_user2 = 22;
  6786  04C2  3016               	movlw	22
  6787  04C3  1283               	bcf	3,5	;RP0=0, select bank0
  6788  04C4  1303               	bcf	3,6	;RP1=0, select bank0
  6789  04C5  00AE               	movwf	??_main
  6790  04C6  082E               	movf	??_main,w
  6791  04C7  00AA               	movwf	_hora_user2
  6792                           
  6793                           ;PROYECTO.c: 955:                         }else if(hora_nueva == 'x'){
  6794  04C8  2CE3               	goto	l4905
  6795  04C9                     l4897:
  6796  04C9  3078               	movlw	120
  6797  04CA  0670               	xorwf	_hora_nueva,w
  6798  04CB  1D03               	btfss	3,2
  6799  04CC  2CCE               	goto	u8711
  6800  04CD  2CCF               	goto	u8710
  6801  04CE                     u8711:
  6802  04CE  2CD6               	goto	l4901
  6803  04CF                     u8710:
  6804  04CF                     l4899:
  6805                           
  6806                           ;PROYECTO.c: 956:                             hora_user2 = 23;
  6807  04CF  3017               	movlw	23
  6808  04D0  1283               	bcf	3,5	;RP0=0, select bank0
  6809  04D1  1303               	bcf	3,6	;RP1=0, select bank0
  6810  04D2  00AE               	movwf	??_main
  6811  04D3  082E               	movf	??_main,w
  6812  04D4  00AA               	movwf	_hora_user2
  6813                           
  6814                           ;PROYECTO.c: 957:                         }else if(hora_nueva == 'y'){
  6815  04D5  2CE3               	goto	l4905
  6816  04D6                     l4901:
  6817  04D6  3079               	movlw	121
  6818  04D7  0670               	xorwf	_hora_nueva,w
  6819  04D8  1D03               	btfss	3,2
  6820  04D9  2CDB               	goto	u8721
  6821  04DA  2CDC               	goto	u8720
  6822  04DB                     u8721:
  6823  04DB  2CE3               	goto	l803
  6824  04DC                     u8720:
  6825  04DC                     l4903:
  6826                           
  6827                           ;PROYECTO.c: 958:                             hora_user2 = 24;
  6828  04DC  3018               	movlw	24
  6829  04DD  1283               	bcf	3,5	;RP0=0, select bank0
  6830  04DE  1303               	bcf	3,6	;RP1=0, select bank0
  6831  04DF  00AE               	movwf	??_main
  6832  04E0  082E               	movf	??_main,w
  6833  04E1  00AA               	movwf	_hora_user2
  6834  04E2  2CE3               	goto	l4905
  6835  04E3                     l803:
  6836  04E3                     l4905:
  6837                           
  6838                           ;PROYECTO.c: 963:                 USART_Cadena(" Ingresá la letra de los minutos nuevos
      +                            \r");
  6839  04E3  30C4               	movlw	low (STR_41| (0+32768))
  6840  04E4  00FA               	movwf	USART_Cadena@str
  6841  04E5  3088               	movlw	high (STR_41| (0+32768))
  6842  04E6  00FB               	movwf	USART_Cadena@str+1
  6843  04E7  120A  118A  27A5  120A  118A  	fcall	_USART_Cadena
  6844                           
  6845                           ;PROYECTO.c: 964:                 USART_Cadena(" a.0  b.15   c.30   d.45   e.55   \r");
  6846  04EC  3067               	movlw	low (STR_42| (0+32768))
  6847  04ED  00FA               	movwf	USART_Cadena@str
  6848  04EE  3089               	movlw	high (STR_42| (0+32768))
  6849  04EF  00FB               	movwf	USART_Cadena@str+1
  6850  04F0  120A  118A  27A5  120A  118A  	fcall	_USART_Cadena
  6851  04F5                     l4907:
  6852                           
  6853                           ;PROYECTO.c: 966:                     if (PIR1bits.RCIF == 1){
  6854  04F5  1283               	bcf	3,5	;RP0=0, select bank0
  6855  04F6  1303               	bcf	3,6	;RP1=0, select bank0
  6856  04F7  1E8C               	btfss	12,5	;volatile
  6857  04F8  2CFA               	goto	u8731
  6858  04F9  2CFB               	goto	u8730
  6859  04FA                     u8731:
  6860  04FA  2CF5               	goto	l4907
  6861  04FB                     u8730:
  6862  04FB                     l4909:
  6863                           
  6864                           ;PROYECTO.c: 967:                         USART_Cadena(" \r");
  6865  04FB  3088               	movlw	low ((STR_42+33)| (0+32768))
  6866  04FC  00FA               	movwf	USART_Cadena@str
  6867  04FD  3089               	movlw	high ((STR_42+33)| (0+32768))
  6868  04FE  00FB               	movwf	USART_Cadena@str+1
  6869  04FF  120A  118A  27A5  120A  118A  	fcall	_USART_Cadena
  6870  0504                     l4911:
  6871                           
  6872                           ;PROYECTO.c: 968:                         hora_nueva = USART_Rx();
  6873  0504  120A  118A  27F0  120A  118A  	fcall	_USART_Rx
  6874  0509  1283               	bcf	3,5	;RP0=0, select bank0
  6875  050A  1303               	bcf	3,6	;RP1=0, select bank0
  6876  050B  00AE               	movwf	??_main
  6877  050C  082E               	movf	??_main,w
  6878  050D  00F0               	movwf	_hora_nueva
  6879  050E                     l4913:
  6880                           
  6881                           ;PROYECTO.c: 969:                         USART_Cadena(" \r");
  6882  050E  3088               	movlw	low ((STR_42+33)| (0+32768))
  6883  050F  00FA               	movwf	USART_Cadena@str
  6884  0510  3089               	movlw	high ((STR_42+33)| (0+32768))
  6885  0511  00FB               	movwf	USART_Cadena@str+1
  6886  0512  120A  118A  27A5  120A  118A  	fcall	_USART_Cadena
  6887  0517                     l4915:
  6888                           
  6889                           ;PROYECTO.c: 970:                         if(hora_nueva == 'a'){
  6890  0517  3061               	movlw	97
  6891  0518  0670               	xorwf	_hora_nueva,w
  6892  0519  1D03               	btfss	3,2
  6893  051A  2D1C               	goto	u8741
  6894  051B  2D1D               	goto	u8740
  6895  051C                     u8741:
  6896  051C  2D1F               	goto	l4919
  6897  051D                     u8740:
  6898  051D                     l4917:
  6899                           
  6900                           ;PROYECTO.c: 971:                             min_user2 = 0;
  6901  051D  01F2               	clrf	_min_user2
  6902                           
  6903                           ;PROYECTO.c: 972:                         }else if(hora_nueva == 'b'){
  6904  051E  2B38               	goto	l745
  6905  051F                     l4919:
  6906  051F  3062               	movlw	98
  6907  0520  0670               	xorwf	_hora_nueva,w
  6908  0521  1D03               	btfss	3,2
  6909  0522  2D24               	goto	u8751
  6910  0523  2D25               	goto	u8750
  6911  0524                     u8751:
  6912  0524  2D2C               	goto	l4923
  6913  0525                     u8750:
  6914  0525                     l4921:
  6915                           
  6916                           ;PROYECTO.c: 973:                             min_user2 = 15;
  6917  0525  300F               	movlw	15
  6918  0526  1283               	bcf	3,5	;RP0=0, select bank0
  6919  0527  1303               	bcf	3,6	;RP1=0, select bank0
  6920  0528  00AE               	movwf	??_main
  6921  0529  082E               	movf	??_main,w
  6922  052A  00F2               	movwf	_min_user2
  6923                           
  6924                           ;PROYECTO.c: 974:                         }else if(hora_nueva == 'c'){
  6925  052B  2B38               	goto	l745
  6926  052C                     l4923:
  6927  052C  3063               	movlw	99
  6928  052D  0670               	xorwf	_hora_nueva,w
  6929  052E  1D03               	btfss	3,2
  6930  052F  2D31               	goto	u8761
  6931  0530  2D32               	goto	u8760
  6932  0531                     u8761:
  6933  0531  2D39               	goto	l4927
  6934  0532                     u8760:
  6935  0532                     l4925:
  6936                           
  6937                           ;PROYECTO.c: 975:                             min_user2 = 30;
  6938  0532  301E               	movlw	30
  6939  0533  1283               	bcf	3,5	;RP0=0, select bank0
  6940  0534  1303               	bcf	3,6	;RP1=0, select bank0
  6941  0535  00AE               	movwf	??_main
  6942  0536  082E               	movf	??_main,w
  6943  0537  00F2               	movwf	_min_user2
  6944                           
  6945                           ;PROYECTO.c: 976:                         }else if(hora_nueva == 'd'){
  6946  0538  2B38               	goto	l745
  6947  0539                     l4927:
  6948  0539  3064               	movlw	100
  6949  053A  0670               	xorwf	_hora_nueva,w
  6950  053B  1D03               	btfss	3,2
  6951  053C  2D3E               	goto	u8771
  6952  053D  2D3F               	goto	u8770
  6953  053E                     u8771:
  6954  053E  2D46               	goto	l4931
  6955  053F                     u8770:
  6956  053F                     l4929:
  6957                           
  6958                           ;PROYECTO.c: 977:                             min_user2 = 45;
  6959  053F  302D               	movlw	45
  6960  0540  1283               	bcf	3,5	;RP0=0, select bank0
  6961  0541  1303               	bcf	3,6	;RP1=0, select bank0
  6962  0542  00AE               	movwf	??_main
  6963  0543  082E               	movf	??_main,w
  6964  0544  00F2               	movwf	_min_user2
  6965                           
  6966                           ;PROYECTO.c: 978:                         }else if(hora_nueva == 'e'){
  6967  0545  2B38               	goto	l745
  6968  0546                     l4931:
  6969  0546  3065               	movlw	101
  6970  0547  0670               	xorwf	_hora_nueva,w
  6971  0548  1D03               	btfss	3,2
  6972  0549  2D4B               	goto	u8781
  6973  054A  2D4C               	goto	u8780
  6974  054B                     u8781:
  6975  054B  2B38               	goto	l745
  6976  054C                     u8780:
  6977  054C                     l4933:
  6978                           
  6979                           ;PROYECTO.c: 979:                             min_user2 = 55;
  6980  054C  3037               	movlw	55
  6981  054D  1283               	bcf	3,5	;RP0=0, select bank0
  6982  054E  1303               	bcf	3,6	;RP1=0, select bank0
  6983  054F  00AE               	movwf	??_main
  6984  0550  082E               	movf	??_main,w
  6985  0551  00F2               	movwf	_min_user2
  6986  0552  2B38               	goto	l745
  6987  0553                     l4935:
  6988                           
  6989                           ;PROYECTO.c: 990:                 USART_Cadena(" Ingresá la letra de la nueva hora  \r"
      +                          );
  6990  0553  301B               	movlw	low (STR_35| (0+32768))
  6991  0554  00FA               	movwf	USART_Cadena@str
  6992  0555  3089               	movlw	high (STR_35| (0+32768))
  6993  0556  00FB               	movwf	USART_Cadena@str+1
  6994  0557  120A  118A  27A5  120A  118A  	fcall	_USART_Cadena
  6995                           
  6996                           ;PROYECTO.c: 991:                 USART_Cadena(" a.0  b.1   c.2   d.3   e.4   f.5   g.6 
      +                            h.7  i.8\r");
  6997  055C  3000               	movlw	low (STR_36| (0+32768))
  6998  055D  00FA               	movwf	USART_Cadena@str
  6999  055E  3088               	movlw	high (STR_36| (0+32768))
  7000  055F  00FB               	movwf	USART_Cadena@str+1
  7001  0560  120A  118A  27A5  120A  118A  	fcall	_USART_Cadena
  7002                           
  7003                           ;PROYECTO.c: 992:                 USART_Cadena(" j.9  k.10  l.11  m.12  n.13  o.14  p.15
      +                            q.16\r");
  7004  0565  3094               	movlw	low (STR_37| (0+32768))
  7005  0566  00FA               	movwf	USART_Cadena@str
  7006  0567  3088               	movlw	high (STR_37| (0+32768))
  7007  0568  00FB               	movwf	USART_Cadena@str+1
  7008  0569  120A  118A  27A5  120A  118A  	fcall	_USART_Cadena
  7009                           
  7010                           ;PROYECTO.c: 993:                 USART_Cadena("r.17  s.18  t.19  u.20  v.21  w.22  x.23
      +                            y.24\r");
  7011  056E  3064               	movlw	low (STR_38| (0+32768))
  7012  056F  00FA               	movwf	USART_Cadena@str
  7013  0570  3088               	movlw	high (STR_38| (0+32768))
  7014  0571  00FB               	movwf	USART_Cadena@str+1
  7015  0572  120A  118A  27A5  120A  118A  	fcall	_USART_Cadena
  7016  0577                     l4937:
  7017                           
  7018                           ;PROYECTO.c: 995:                     if (PIR1bits.RCIF == 1){
  7019  0577  1283               	bcf	3,5	;RP0=0, select bank0
  7020  0578  1303               	bcf	3,6	;RP1=0, select bank0
  7021  0579  1E8C               	btfss	12,5	;volatile
  7022  057A  2D7C               	goto	u8791
  7023  057B  2D7D               	goto	u8790
  7024  057C                     u8791:
  7025  057C  2D77               	goto	l4937
  7026  057D                     u8790:
  7027  057D                     l4939:
  7028                           
  7029                           ;PROYECTO.c: 996:                         USART_Cadena(" \r");
  7030  057D  3088               	movlw	low ((STR_42+33)| (0+32768))
  7031  057E  00FA               	movwf	USART_Cadena@str
  7032  057F  3089               	movlw	high ((STR_42+33)| (0+32768))
  7033  0580  00FB               	movwf	USART_Cadena@str+1
  7034  0581  120A  118A  27A5  120A  118A  	fcall	_USART_Cadena
  7035  0586                     l4941:
  7036                           
  7037                           ;PROYECTO.c: 997:                         hora_nueva = USART_Rx();
  7038  0586  120A  118A  27F0  120A  118A  	fcall	_USART_Rx
  7039  058B  1283               	bcf	3,5	;RP0=0, select bank0
  7040  058C  1303               	bcf	3,6	;RP1=0, select bank0
  7041  058D  00AE               	movwf	??_main
  7042  058E  082E               	movf	??_main,w
  7043  058F  00F0               	movwf	_hora_nueva
  7044  0590                     l4943:
  7045                           
  7046                           ;PROYECTO.c: 998:                         USART_Cadena(" \r");
  7047  0590  3088               	movlw	low ((STR_42+33)| (0+32768))
  7048  0591  00FA               	movwf	USART_Cadena@str
  7049  0592  3089               	movlw	high ((STR_42+33)| (0+32768))
  7050  0593  00FB               	movwf	USART_Cadena@str+1
  7051  0594  120A  118A  27A5  120A  118A  	fcall	_USART_Cadena
  7052  0599                     l4945:
  7053                           
  7054                           ;PROYECTO.c: 999:                         if(hora_nueva == 'a'){
  7055  0599  3061               	movlw	97
  7056  059A  0670               	xorwf	_hora_nueva,w
  7057  059B  1D03               	btfss	3,2
  7058  059C  2D9E               	goto	u8801
  7059  059D  2D9F               	goto	u8800
  7060  059E                     u8801:
  7061  059E  2DA3               	goto	l4949
  7062  059F                     u8800:
  7063  059F                     l4947:
  7064                           
  7065                           ;PROYECTO.c: 1000:                             hora_user3 = 0;
  7066  059F  1283               	bcf	3,5	;RP0=0, select bank0
  7067  05A0  1303               	bcf	3,6	;RP1=0, select bank0
  7068  05A1  01A9               	clrf	_hora_user3
  7069                           
  7070                           ;PROYECTO.c: 1001:                         }else if(hora_nueva == 'b'){
  7071  05A2  2ED9               	goto	l5045
  7072  05A3                     l4949:
  7073  05A3  3062               	movlw	98
  7074  05A4  0670               	xorwf	_hora_nueva,w
  7075  05A5  1D03               	btfss	3,2
  7076  05A6  2DA8               	goto	u8811
  7077  05A7  2DA9               	goto	u8810
  7078  05A8                     u8811:
  7079  05A8  2DAE               	goto	l4953
  7080  05A9                     u8810:
  7081  05A9                     l4951:
  7082                           
  7083                           ;PROYECTO.c: 1002:                             hora_user3 = 1;
  7084  05A9  1283               	bcf	3,5	;RP0=0, select bank0
  7085  05AA  1303               	bcf	3,6	;RP1=0, select bank0
  7086  05AB  01A9               	clrf	_hora_user3
  7087  05AC  0AA9               	incf	_hora_user3,f
  7088                           
  7089                           ;PROYECTO.c: 1003:                         }else if(hora_nueva == 'c'){
  7090  05AD  2ED9               	goto	l5045
  7091  05AE                     l4953:
  7092  05AE  3063               	movlw	99
  7093  05AF  0670               	xorwf	_hora_nueva,w
  7094  05B0  1D03               	btfss	3,2
  7095  05B1  2DB3               	goto	u8821
  7096  05B2  2DB4               	goto	u8820
  7097  05B3                     u8821:
  7098  05B3  2DBB               	goto	l4957
  7099  05B4                     u8820:
  7100  05B4                     l4955:
  7101                           
  7102                           ;PROYECTO.c: 1004:                             hora_user3 = 2;
  7103  05B4  3002               	movlw	2
  7104  05B5  1283               	bcf	3,5	;RP0=0, select bank0
  7105  05B6  1303               	bcf	3,6	;RP1=0, select bank0
  7106  05B7  00AE               	movwf	??_main
  7107  05B8  082E               	movf	??_main,w
  7108  05B9  00A9               	movwf	_hora_user3
  7109                           
  7110                           ;PROYECTO.c: 1005:                         }else if(hora_nueva == 'd'){
  7111  05BA  2ED9               	goto	l5045
  7112  05BB                     l4957:
  7113  05BB  3064               	movlw	100
  7114  05BC  0670               	xorwf	_hora_nueva,w
  7115  05BD  1D03               	btfss	3,2
  7116  05BE  2DC0               	goto	u8831
  7117  05BF  2DC1               	goto	u8830
  7118  05C0                     u8831:
  7119  05C0  2DC8               	goto	l4961
  7120  05C1                     u8830:
  7121  05C1                     l4959:
  7122                           
  7123                           ;PROYECTO.c: 1006:                             hora_user3 = 3;
  7124  05C1  3003               	movlw	3
  7125  05C2  1283               	bcf	3,5	;RP0=0, select bank0
  7126  05C3  1303               	bcf	3,6	;RP1=0, select bank0
  7127  05C4  00AE               	movwf	??_main
  7128  05C5  082E               	movf	??_main,w
  7129  05C6  00A9               	movwf	_hora_user3
  7130                           
  7131                           ;PROYECTO.c: 1007:                         }else if(hora_nueva == 'e'){
  7132  05C7  2ED9               	goto	l5045
  7133  05C8                     l4961:
  7134  05C8  3065               	movlw	101
  7135  05C9  0670               	xorwf	_hora_nueva,w
  7136  05CA  1D03               	btfss	3,2
  7137  05CB  2DCD               	goto	u8841
  7138  05CC  2DCE               	goto	u8840
  7139  05CD                     u8841:
  7140  05CD  2DD5               	goto	l4965
  7141  05CE                     u8840:
  7142  05CE                     l4963:
  7143                           
  7144                           ;PROYECTO.c: 1008:                             hora_user3 = 4;
  7145  05CE  3004               	movlw	4
  7146  05CF  1283               	bcf	3,5	;RP0=0, select bank0
  7147  05D0  1303               	bcf	3,6	;RP1=0, select bank0
  7148  05D1  00AE               	movwf	??_main
  7149  05D2  082E               	movf	??_main,w
  7150  05D3  00A9               	movwf	_hora_user3
  7151                           
  7152                           ;PROYECTO.c: 1009:                         }else if(hora_nueva == 'f'){
  7153  05D4  2ED9               	goto	l5045
  7154  05D5                     l4965:
  7155  05D5  3066               	movlw	102
  7156  05D6  0670               	xorwf	_hora_nueva,w
  7157  05D7  1D03               	btfss	3,2
  7158  05D8  2DDA               	goto	u8851
  7159  05D9  2DDB               	goto	u8850
  7160  05DA                     u8851:
  7161  05DA  2DE2               	goto	l4969
  7162  05DB                     u8850:
  7163  05DB                     l4967:
  7164                           
  7165                           ;PROYECTO.c: 1010:                             hora_user3 = 5;
  7166  05DB  3005               	movlw	5
  7167  05DC  1283               	bcf	3,5	;RP0=0, select bank0
  7168  05DD  1303               	bcf	3,6	;RP1=0, select bank0
  7169  05DE  00AE               	movwf	??_main
  7170  05DF  082E               	movf	??_main,w
  7171  05E0  00A9               	movwf	_hora_user3
  7172                           
  7173                           ;PROYECTO.c: 1011:                         }else if(hora_nueva == 'g'){
  7174  05E1  2ED9               	goto	l5045
  7175  05E2                     l4969:
  7176  05E2  3067               	movlw	103
  7177  05E3  0670               	xorwf	_hora_nueva,w
  7178  05E4  1D03               	btfss	3,2
  7179  05E5  2DE7               	goto	u8861
  7180  05E6  2DE8               	goto	u8860
  7181  05E7                     u8861:
  7182  05E7  2DEF               	goto	l4973
  7183  05E8                     u8860:
  7184  05E8                     l4971:
  7185                           
  7186                           ;PROYECTO.c: 1012:                             hora_user3 = 6;
  7187  05E8  3006               	movlw	6
  7188  05E9  1283               	bcf	3,5	;RP0=0, select bank0
  7189  05EA  1303               	bcf	3,6	;RP1=0, select bank0
  7190  05EB  00AE               	movwf	??_main
  7191  05EC  082E               	movf	??_main,w
  7192  05ED  00A9               	movwf	_hora_user3
  7193                           
  7194                           ;PROYECTO.c: 1013:                         }else if(hora_nueva == 'h'){
  7195  05EE  2ED9               	goto	l5045
  7196  05EF                     l4973:
  7197  05EF  3068               	movlw	104
  7198  05F0  0670               	xorwf	_hora_nueva,w
  7199  05F1  1D03               	btfss	3,2
  7200  05F2  2DF4               	goto	u8871
  7201  05F3  2DF5               	goto	u8870
  7202  05F4                     u8871:
  7203  05F4  2DFC               	goto	l4977
  7204  05F5                     u8870:
  7205  05F5                     l4975:
  7206                           
  7207                           ;PROYECTO.c: 1014:                             hora_user3 = 7;
  7208  05F5  3007               	movlw	7
  7209  05F6  1283               	bcf	3,5	;RP0=0, select bank0
  7210  05F7  1303               	bcf	3,6	;RP1=0, select bank0
  7211  05F8  00AE               	movwf	??_main
  7212  05F9  082E               	movf	??_main,w
  7213  05FA  00A9               	movwf	_hora_user3
  7214                           
  7215                           ;PROYECTO.c: 1015:                         }else if(hora_nueva == 'i'){
  7216  05FB  2ED9               	goto	l5045
  7217  05FC                     l4977:
  7218  05FC  3069               	movlw	105
  7219  05FD  0670               	xorwf	_hora_nueva,w
  7220  05FE  1D03               	btfss	3,2
  7221  05FF  2E01               	goto	u8881
  7222  0600  2E02               	goto	u8880
  7223  0601                     u8881:
  7224  0601  2E09               	goto	l4981
  7225  0602                     u8880:
  7226  0602                     l4979:
  7227                           
  7228                           ;PROYECTO.c: 1016:                             hora_user3 = 8;
  7229  0602  3008               	movlw	8
  7230  0603  1283               	bcf	3,5	;RP0=0, select bank0
  7231  0604  1303               	bcf	3,6	;RP1=0, select bank0
  7232  0605  00AE               	movwf	??_main
  7233  0606  082E               	movf	??_main,w
  7234  0607  00A9               	movwf	_hora_user3
  7235                           
  7236                           ;PROYECTO.c: 1017:                         }else if(hora_nueva == 'j'){
  7237  0608  2ED9               	goto	l5045
  7238  0609                     l4981:
  7239  0609  306A               	movlw	106
  7240  060A  0670               	xorwf	_hora_nueva,w
  7241  060B  1D03               	btfss	3,2
  7242  060C  2E0E               	goto	u8891
  7243  060D  2E0F               	goto	u8890
  7244  060E                     u8891:
  7245  060E  2E16               	goto	l4985
  7246  060F                     u8890:
  7247  060F                     l4983:
  7248                           
  7249                           ;PROYECTO.c: 1018:                             hora_user3 = 9;
  7250  060F  3009               	movlw	9
  7251  0610  1283               	bcf	3,5	;RP0=0, select bank0
  7252  0611  1303               	bcf	3,6	;RP1=0, select bank0
  7253  0612  00AE               	movwf	??_main
  7254  0613  082E               	movf	??_main,w
  7255  0614  00A9               	movwf	_hora_user3
  7256                           
  7257                           ;PROYECTO.c: 1019:                         }else if(hora_nueva == 'k'){
  7258  0615  2ED9               	goto	l5045
  7259  0616                     l4985:
  7260  0616  306B               	movlw	107
  7261  0617  0670               	xorwf	_hora_nueva,w
  7262  0618  1D03               	btfss	3,2
  7263  0619  2E1B               	goto	u8901
  7264  061A  2E1C               	goto	u8900
  7265  061B                     u8901:
  7266  061B  2E23               	goto	l4989
  7267  061C                     u8900:
  7268  061C                     l4987:
  7269                           
  7270                           ;PROYECTO.c: 1020:                             hora_user3 = 10;
  7271  061C  300A               	movlw	10
  7272  061D  1283               	bcf	3,5	;RP0=0, select bank0
  7273  061E  1303               	bcf	3,6	;RP1=0, select bank0
  7274  061F  00AE               	movwf	??_main
  7275  0620  082E               	movf	??_main,w
  7276  0621  00A9               	movwf	_hora_user3
  7277                           
  7278                           ;PROYECTO.c: 1021:                         }else if(hora_nueva == 'l'){
  7279  0622  2ED9               	goto	l5045
  7280  0623                     l4989:
  7281  0623  306C               	movlw	108
  7282  0624  0670               	xorwf	_hora_nueva,w
  7283  0625  1D03               	btfss	3,2
  7284  0626  2E28               	goto	u8911
  7285  0627  2E29               	goto	u8910
  7286  0628                     u8911:
  7287  0628  2E30               	goto	l4993
  7288  0629                     u8910:
  7289  0629                     l4991:
  7290                           
  7291                           ;PROYECTO.c: 1022:                             hora_user3 = 11;
  7292  0629  300B               	movlw	11
  7293  062A  1283               	bcf	3,5	;RP0=0, select bank0
  7294  062B  1303               	bcf	3,6	;RP1=0, select bank0
  7295  062C  00AE               	movwf	??_main
  7296  062D  082E               	movf	??_main,w
  7297  062E  00A9               	movwf	_hora_user3
  7298                           
  7299                           ;PROYECTO.c: 1023:                         }else if(hora_nueva == 'm'){
  7300  062F  2ED9               	goto	l5045
  7301  0630                     l4993:
  7302  0630  306D               	movlw	109
  7303  0631  0670               	xorwf	_hora_nueva,w
  7304  0632  1D03               	btfss	3,2
  7305  0633  2E35               	goto	u8921
  7306  0634  2E36               	goto	u8920
  7307  0635                     u8921:
  7308  0635  2E3D               	goto	l4997
  7309  0636                     u8920:
  7310  0636                     l4995:
  7311                           
  7312                           ;PROYECTO.c: 1024:                             hora_user3 = 12;
  7313  0636  300C               	movlw	12
  7314  0637  1283               	bcf	3,5	;RP0=0, select bank0
  7315  0638  1303               	bcf	3,6	;RP1=0, select bank0
  7316  0639  00AE               	movwf	??_main
  7317  063A  082E               	movf	??_main,w
  7318  063B  00A9               	movwf	_hora_user3
  7319                           
  7320                           ;PROYECTO.c: 1025:                         }else if(hora_nueva == 'n'){
  7321  063C  2ED9               	goto	l5045
  7322  063D                     l4997:
  7323  063D  306E               	movlw	110
  7324  063E  0670               	xorwf	_hora_nueva,w
  7325  063F  1D03               	btfss	3,2
  7326  0640  2E42               	goto	u8931
  7327  0641  2E43               	goto	u8930
  7328  0642                     u8931:
  7329  0642  2E4A               	goto	l5001
  7330  0643                     u8930:
  7331  0643                     l4999:
  7332                           
  7333                           ;PROYECTO.c: 1026:                             hora_user3 = 13;
  7334  0643  300D               	movlw	13
  7335  0644  1283               	bcf	3,5	;RP0=0, select bank0
  7336  0645  1303               	bcf	3,6	;RP1=0, select bank0
  7337  0646  00AE               	movwf	??_main
  7338  0647  082E               	movf	??_main,w
  7339  0648  00A9               	movwf	_hora_user3
  7340                           
  7341                           ;PROYECTO.c: 1027:                         }else if(hora_nueva == 'o'){
  7342  0649  2ED9               	goto	l5045
  7343  064A                     l5001:
  7344  064A  306F               	movlw	111
  7345  064B  0670               	xorwf	_hora_nueva,w
  7346  064C  1D03               	btfss	3,2
  7347  064D  2E4F               	goto	u8941
  7348  064E  2E50               	goto	u8940
  7349  064F                     u8941:
  7350  064F  2E57               	goto	l5005
  7351  0650                     u8940:
  7352  0650                     l5003:
  7353                           
  7354                           ;PROYECTO.c: 1028:                             hora_user3 = 14;
  7355  0650  300E               	movlw	14
  7356  0651  1283               	bcf	3,5	;RP0=0, select bank0
  7357  0652  1303               	bcf	3,6	;RP1=0, select bank0
  7358  0653  00AE               	movwf	??_main
  7359  0654  082E               	movf	??_main,w
  7360  0655  00A9               	movwf	_hora_user3
  7361                           
  7362                           ;PROYECTO.c: 1029:                         }else if(hora_nueva == 'p'){
  7363  0656  2ED9               	goto	l5045
  7364  0657                     l5005:
  7365  0657  3070               	movlw	112
  7366  0658  0670               	xorwf	_hora_nueva,w
  7367  0659  1D03               	btfss	3,2
  7368  065A  2E5C               	goto	u8951
  7369  065B  2E5D               	goto	u8950
  7370  065C                     u8951:
  7371  065C  2E64               	goto	l5009
  7372  065D                     u8950:
  7373  065D                     l5007:
  7374                           
  7375                           ;PROYECTO.c: 1030:                             hora_user3 = 15;
  7376  065D  300F               	movlw	15
  7377  065E  1283               	bcf	3,5	;RP0=0, select bank0
  7378  065F  1303               	bcf	3,6	;RP1=0, select bank0
  7379  0660  00AE               	movwf	??_main
  7380  0661  082E               	movf	??_main,w
  7381  0662  00A9               	movwf	_hora_user3
  7382                           
  7383                           ;PROYECTO.c: 1031:                         }else if(hora_nueva == 'q'){
  7384  0663  2ED9               	goto	l5045
  7385  0664                     l5009:
  7386  0664  3071               	movlw	113
  7387  0665  0670               	xorwf	_hora_nueva,w
  7388  0666  1D03               	btfss	3,2
  7389  0667  2E69               	goto	u8961
  7390  0668  2E6A               	goto	u8960
  7391  0669                     u8961:
  7392  0669  2E71               	goto	l5013
  7393  066A                     u8960:
  7394  066A                     l5011:
  7395                           
  7396                           ;PROYECTO.c: 1032:                             hora_user3 = 16;
  7397  066A  3010               	movlw	16
  7398  066B  1283               	bcf	3,5	;RP0=0, select bank0
  7399  066C  1303               	bcf	3,6	;RP1=0, select bank0
  7400  066D  00AE               	movwf	??_main
  7401  066E  082E               	movf	??_main,w
  7402  066F  00A9               	movwf	_hora_user3
  7403                           
  7404                           ;PROYECTO.c: 1033:                         }else if(hora_nueva == 'r'){
  7405  0670  2ED9               	goto	l5045
  7406  0671                     l5013:
  7407  0671  3072               	movlw	114
  7408  0672  0670               	xorwf	_hora_nueva,w
  7409  0673  1D03               	btfss	3,2
  7410  0674  2E76               	goto	u8971
  7411  0675  2E77               	goto	u8970
  7412  0676                     u8971:
  7413  0676  2E7E               	goto	l5017
  7414  0677                     u8970:
  7415  0677                     l5015:
  7416                           
  7417                           ;PROYECTO.c: 1034:                             hora_user3 = 17;
  7418  0677  3011               	movlw	17
  7419  0678  1283               	bcf	3,5	;RP0=0, select bank0
  7420  0679  1303               	bcf	3,6	;RP1=0, select bank0
  7421  067A  00AE               	movwf	??_main
  7422  067B  082E               	movf	??_main,w
  7423  067C  00A9               	movwf	_hora_user3
  7424                           
  7425                           ;PROYECTO.c: 1035:                         }else if(hora_nueva == 's'){
  7426  067D  2ED9               	goto	l5045
  7427  067E                     l5017:
  7428  067E  3073               	movlw	115
  7429  067F  0670               	xorwf	_hora_nueva,w
  7430  0680  1D03               	btfss	3,2
  7431  0681  2E83               	goto	u8981
  7432  0682  2E84               	goto	u8980
  7433  0683                     u8981:
  7434  0683  2E8B               	goto	l5021
  7435  0684                     u8980:
  7436  0684                     l5019:
  7437                           
  7438                           ;PROYECTO.c: 1036:                             hora_user3 = 18;
  7439  0684  3012               	movlw	18
  7440  0685  1283               	bcf	3,5	;RP0=0, select bank0
  7441  0686  1303               	bcf	3,6	;RP1=0, select bank0
  7442  0687  00AE               	movwf	??_main
  7443  0688  082E               	movf	??_main,w
  7444  0689  00A9               	movwf	_hora_user3
  7445                           
  7446                           ;PROYECTO.c: 1037:                         }else if(hora_nueva == 't'){
  7447  068A  2ED9               	goto	l5045
  7448  068B                     l5021:
  7449  068B  3074               	movlw	116
  7450  068C  0670               	xorwf	_hora_nueva,w
  7451  068D  1D03               	btfss	3,2
  7452  068E  2E90               	goto	u8991
  7453  068F  2E91               	goto	u8990
  7454  0690                     u8991:
  7455  0690  2E98               	goto	l5025
  7456  0691                     u8990:
  7457  0691                     l5023:
  7458                           
  7459                           ;PROYECTO.c: 1038:                             hora_user3 = 19;
  7460  0691  3013               	movlw	19
  7461  0692  1283               	bcf	3,5	;RP0=0, select bank0
  7462  0693  1303               	bcf	3,6	;RP1=0, select bank0
  7463  0694  00AE               	movwf	??_main
  7464  0695  082E               	movf	??_main,w
  7465  0696  00A9               	movwf	_hora_user3
  7466                           
  7467                           ;PROYECTO.c: 1039:                         }else if(hora_nueva == 'u'){
  7468  0697  2ED9               	goto	l5045
  7469  0698                     l5025:
  7470  0698  3075               	movlw	117
  7471  0699  0670               	xorwf	_hora_nueva,w
  7472  069A  1D03               	btfss	3,2
  7473  069B  2E9D               	goto	u9001
  7474  069C  2E9E               	goto	u9000
  7475  069D                     u9001:
  7476  069D  2EA5               	goto	l5029
  7477  069E                     u9000:
  7478  069E                     l5027:
  7479                           
  7480                           ;PROYECTO.c: 1040:                             hora_user3 = 20;
  7481  069E  3014               	movlw	20
  7482  069F  1283               	bcf	3,5	;RP0=0, select bank0
  7483  06A0  1303               	bcf	3,6	;RP1=0, select bank0
  7484  06A1  00AE               	movwf	??_main
  7485  06A2  082E               	movf	??_main,w
  7486  06A3  00A9               	movwf	_hora_user3
  7487                           
  7488                           ;PROYECTO.c: 1041:                         }else if(hora_nueva == 'v'){
  7489  06A4  2ED9               	goto	l5045
  7490  06A5                     l5029:
  7491  06A5  3076               	movlw	118
  7492  06A6  0670               	xorwf	_hora_nueva,w
  7493  06A7  1D03               	btfss	3,2
  7494  06A8  2EAA               	goto	u9011
  7495  06A9  2EAB               	goto	u9010
  7496  06AA                     u9011:
  7497  06AA  2EB2               	goto	l5033
  7498  06AB                     u9010:
  7499  06AB                     l5031:
  7500                           
  7501                           ;PROYECTO.c: 1042:                             hora_user3 = 21;
  7502  06AB  3015               	movlw	21
  7503  06AC  1283               	bcf	3,5	;RP0=0, select bank0
  7504  06AD  1303               	bcf	3,6	;RP1=0, select bank0
  7505  06AE  00AE               	movwf	??_main
  7506  06AF  082E               	movf	??_main,w
  7507  06B0  00A9               	movwf	_hora_user3
  7508                           
  7509                           ;PROYECTO.c: 1043:                         }else if(hora_nueva == 'w'){
  7510  06B1  2ED9               	goto	l5045
  7511  06B2                     l5033:
  7512  06B2  3077               	movlw	119
  7513  06B3  0670               	xorwf	_hora_nueva,w
  7514  06B4  1D03               	btfss	3,2
  7515  06B5  2EB7               	goto	u9021
  7516  06B6  2EB8               	goto	u9020
  7517  06B7                     u9021:
  7518  06B7  2EBF               	goto	l5037
  7519  06B8                     u9020:
  7520  06B8                     l5035:
  7521                           
  7522                           ;PROYECTO.c: 1044:                             hora_user3 = 22;
  7523  06B8  3016               	movlw	22
  7524  06B9  1283               	bcf	3,5	;RP0=0, select bank0
  7525  06BA  1303               	bcf	3,6	;RP1=0, select bank0
  7526  06BB  00AE               	movwf	??_main
  7527  06BC  082E               	movf	??_main,w
  7528  06BD  00A9               	movwf	_hora_user3
  7529                           
  7530                           ;PROYECTO.c: 1045:                         }else if(hora_nueva == 'x'){
  7531  06BE  2ED9               	goto	l5045
  7532  06BF                     l5037:
  7533  06BF  3078               	movlw	120
  7534  06C0  0670               	xorwf	_hora_nueva,w
  7535  06C1  1D03               	btfss	3,2
  7536  06C2  2EC4               	goto	u9031
  7537  06C3  2EC5               	goto	u9030
  7538  06C4                     u9031:
  7539  06C4  2ECC               	goto	l5041
  7540  06C5                     u9030:
  7541  06C5                     l5039:
  7542                           
  7543                           ;PROYECTO.c: 1046:                             hora_user3 = 23;
  7544  06C5  3017               	movlw	23
  7545  06C6  1283               	bcf	3,5	;RP0=0, select bank0
  7546  06C7  1303               	bcf	3,6	;RP1=0, select bank0
  7547  06C8  00AE               	movwf	??_main
  7548  06C9  082E               	movf	??_main,w
  7549  06CA  00A9               	movwf	_hora_user3
  7550                           
  7551                           ;PROYECTO.c: 1047:                         }else if(hora_nueva == 'y'){
  7552  06CB  2ED9               	goto	l5045
  7553  06CC                     l5041:
  7554  06CC  3079               	movlw	121
  7555  06CD  0670               	xorwf	_hora_nueva,w
  7556  06CE  1D03               	btfss	3,2
  7557  06CF  2ED1               	goto	u9041
  7558  06D0  2ED2               	goto	u9040
  7559  06D1                     u9041:
  7560  06D1  2ED9               	goto	l870
  7561  06D2                     u9040:
  7562  06D2                     l5043:
  7563                           
  7564                           ;PROYECTO.c: 1048:                             hora_user3 = 24;
  7565  06D2  3018               	movlw	24
  7566  06D3  1283               	bcf	3,5	;RP0=0, select bank0
  7567  06D4  1303               	bcf	3,6	;RP1=0, select bank0
  7568  06D5  00AE               	movwf	??_main
  7569  06D6  082E               	movf	??_main,w
  7570  06D7  00A9               	movwf	_hora_user3
  7571  06D8  2ED9               	goto	l5045
  7572  06D9                     l870:
  7573  06D9                     l5045:
  7574                           
  7575                           ;PROYECTO.c: 1053:                 USART_Cadena(" Ingresá la letra de los minutos nuevo
      +                          s  \r");
  7576  06D9  30C4               	movlw	low (STR_41| (0+32768))
  7577  06DA  00FA               	movwf	USART_Cadena@str
  7578  06DB  3088               	movlw	high (STR_41| (0+32768))
  7579  06DC  00FB               	movwf	USART_Cadena@str+1
  7580  06DD  120A  118A  27A5  120A  118A  	fcall	_USART_Cadena
  7581                           
  7582                           ;PROYECTO.c: 1054:                 USART_Cadena(" a.0  b.15   c.30   d.45   e.55   \r");
  7583  06E2  3067               	movlw	low (STR_42| (0+32768))
  7584  06E3  00FA               	movwf	USART_Cadena@str
  7585  06E4  3089               	movlw	high (STR_42| (0+32768))
  7586  06E5  00FB               	movwf	USART_Cadena@str+1
  7587  06E6  120A  118A  27A5  120A  118A  	fcall	_USART_Cadena
  7588  06EB                     l5047:
  7589                           
  7590                           ;PROYECTO.c: 1056:                     if (PIR1bits.RCIF == 1){
  7591  06EB  1283               	bcf	3,5	;RP0=0, select bank0
  7592  06EC  1303               	bcf	3,6	;RP1=0, select bank0
  7593  06ED  1E8C               	btfss	12,5	;volatile
  7594  06EE  2EF0               	goto	u9051
  7595  06EF  2EF1               	goto	u9050
  7596  06F0                     u9051:
  7597  06F0  2EEB               	goto	l5047
  7598  06F1                     u9050:
  7599  06F1                     l5049:
  7600                           
  7601                           ;PROYECTO.c: 1057:                         USART_Cadena(" \r");
  7602  06F1  3088               	movlw	low ((STR_42+33)| (0+32768))
  7603  06F2  00FA               	movwf	USART_Cadena@str
  7604  06F3  3089               	movlw	high ((STR_42+33)| (0+32768))
  7605  06F4  00FB               	movwf	USART_Cadena@str+1
  7606  06F5  120A  118A  27A5  120A  118A  	fcall	_USART_Cadena
  7607  06FA                     l5051:
  7608                           
  7609                           ;PROYECTO.c: 1058:                         hora_nueva = USART_Rx();
  7610  06FA  120A  118A  27F0  120A  118A  	fcall	_USART_Rx
  7611  06FF  1283               	bcf	3,5	;RP0=0, select bank0
  7612  0700  1303               	bcf	3,6	;RP1=0, select bank0
  7613  0701  00AE               	movwf	??_main
  7614  0702  082E               	movf	??_main,w
  7615  0703  00F0               	movwf	_hora_nueva
  7616  0704                     l5053:
  7617                           
  7618                           ;PROYECTO.c: 1059:                         USART_Cadena(" \r");
  7619  0704  3088               	movlw	low ((STR_42+33)| (0+32768))
  7620  0705  00FA               	movwf	USART_Cadena@str
  7621  0706  3089               	movlw	high ((STR_42+33)| (0+32768))
  7622  0707  00FB               	movwf	USART_Cadena@str+1
  7623  0708  120A  118A  27A5  120A  118A  	fcall	_USART_Cadena
  7624  070D                     l5055:
  7625                           
  7626                           ;PROYECTO.c: 1060:                         if(hora_nueva == 'a'){
  7627  070D  3061               	movlw	97
  7628  070E  0670               	xorwf	_hora_nueva,w
  7629  070F  1D03               	btfss	3,2
  7630  0710  2F12               	goto	u9061
  7631  0711  2F13               	goto	u9060
  7632  0712                     u9061:
  7633  0712  2F15               	goto	l5059
  7634  0713                     u9060:
  7635  0713                     l5057:
  7636                           
  7637                           ;PROYECTO.c: 1061:                             min_user3 = 0;
  7638  0713  01F1               	clrf	_min_user3
  7639                           
  7640                           ;PROYECTO.c: 1062:                         }else if(hora_nueva == 'b'){
  7641  0714  2B38               	goto	l745
  7642  0715                     l5059:
  7643  0715  3062               	movlw	98
  7644  0716  0670               	xorwf	_hora_nueva,w
  7645  0717  1D03               	btfss	3,2
  7646  0718  2F1A               	goto	u9071
  7647  0719  2F1B               	goto	u9070
  7648  071A                     u9071:
  7649  071A  2F22               	goto	l5063
  7650  071B                     u9070:
  7651  071B                     l5061:
  7652                           
  7653                           ;PROYECTO.c: 1063:                             min_user3 = 15;
  7654  071B  300F               	movlw	15
  7655  071C  1283               	bcf	3,5	;RP0=0, select bank0
  7656  071D  1303               	bcf	3,6	;RP1=0, select bank0
  7657  071E  00AE               	movwf	??_main
  7658  071F  082E               	movf	??_main,w
  7659  0720  00F1               	movwf	_min_user3
  7660                           
  7661                           ;PROYECTO.c: 1064:                         }else if(hora_nueva == 'c'){
  7662  0721  2B38               	goto	l745
  7663  0722                     l5063:
  7664  0722  3063               	movlw	99
  7665  0723  0670               	xorwf	_hora_nueva,w
  7666  0724  1D03               	btfss	3,2
  7667  0725  2F27               	goto	u9081
  7668  0726  2F28               	goto	u9080
  7669  0727                     u9081:
  7670  0727  2F2F               	goto	l5067
  7671  0728                     u9080:
  7672  0728                     l5065:
  7673                           
  7674                           ;PROYECTO.c: 1065:                             min_user3 = 30;
  7675  0728  301E               	movlw	30
  7676  0729  1283               	bcf	3,5	;RP0=0, select bank0
  7677  072A  1303               	bcf	3,6	;RP1=0, select bank0
  7678  072B  00AE               	movwf	??_main
  7679  072C  082E               	movf	??_main,w
  7680  072D  00F1               	movwf	_min_user3
  7681                           
  7682                           ;PROYECTO.c: 1066:                         }else if(hora_nueva == 'd'){
  7683  072E  2B38               	goto	l745
  7684  072F                     l5067:
  7685  072F  3064               	movlw	100
  7686  0730  0670               	xorwf	_hora_nueva,w
  7687  0731  1D03               	btfss	3,2
  7688  0732  2F34               	goto	u9091
  7689  0733  2F35               	goto	u9090
  7690  0734                     u9091:
  7691  0734  2F3C               	goto	l5071
  7692  0735                     u9090:
  7693  0735                     l5069:
  7694                           
  7695                           ;PROYECTO.c: 1067:                             min_user3 = 45;
  7696  0735  302D               	movlw	45
  7697  0736  1283               	bcf	3,5	;RP0=0, select bank0
  7698  0737  1303               	bcf	3,6	;RP1=0, select bank0
  7699  0738  00AE               	movwf	??_main
  7700  0739  082E               	movf	??_main,w
  7701  073A  00F1               	movwf	_min_user3
  7702                           
  7703                           ;PROYECTO.c: 1068:                         }else if(hora_nueva == 'e'){
  7704  073B  2B38               	goto	l745
  7705  073C                     l5071:
  7706  073C  3065               	movlw	101
  7707  073D  0670               	xorwf	_hora_nueva,w
  7708  073E  1D03               	btfss	3,2
  7709  073F  2F41               	goto	u9101
  7710  0740  2F42               	goto	u9100
  7711  0741                     u9101:
  7712  0741  2B38               	goto	l745
  7713  0742                     u9100:
  7714  0742                     l5073:
  7715                           
  7716                           ;PROYECTO.c: 1069:                             min_user3 = 55;
  7717  0742  3037               	movlw	55
  7718  0743  1283               	bcf	3,5	;RP0=0, select bank0
  7719  0744  1303               	bcf	3,6	;RP1=0, select bank0
  7720  0745  00AE               	movwf	??_main
  7721  0746  082E               	movf	??_main,w
  7722  0747  00F1               	movwf	_min_user3
  7723  0748  2B38               	goto	l745
  7724  0749                     l5077:
  7725  0749  082D               	movf	_valor,w
  7726  074A  00AE               	movwf	??_main
  7727  074B  01AF               	clrf	??_main+1
  7728                           
  7729                           ; Switch on 2 bytes has been partitioned into a top level switch of size 1, and 1 sub-sw
      +                          itches
  7730                           ; Switch size 1, requested type "simple"
  7731                           ; Number of cases is 1, Range of values is 0 to 0
  7732                           ; switch strategies available:
  7733                           ; Name         Instructions Cycles
  7734                           ; simple_byte            4     3 (average)
  7735                           ; direct_byte           11     8 (fixed)
  7736                           ; jumptable            260     6 (fixed)
  7737                           ;	Chosen strategy is simple_byte
  7738  074C  082F               	movf	??_main+1,w
  7739  074D  3A00               	xorlw	0	; case 0
  7740  074E  1903               	skipnz
  7741  074F  2F51               	goto	l5243
  7742  0750  2F65               	goto	l5079
  7743  0751                     l5243:
  7744                           
  7745                           ; Switch size 1, requested type "simple"
  7746                           ; Number of cases is 6, Range of values is 49 to 54
  7747                           ; switch strategies available:
  7748                           ; Name         Instructions Cycles
  7749                           ; simple_byte           19    10 (average)
  7750                           ; direct_byte           29    11 (fixed)
  7751                           ; jumptable            263     9 (fixed)
  7752                           ;	Chosen strategy is simple_byte
  7753  0751  082E               	movf	??_main,w
  7754  0752  3A31               	xorlw	49	; case 49
  7755  0753  1903               	skipnz
  7756  0754  2F96               	goto	L5
  7757  0755  3A03               	xorlw	3	; case 50
  7758  0756  1903               	skipnz
  7759  0757  2F9C               	goto	L12
  7760  0758  3A01               	xorlw	1	; case 51
  7761  0759  1903               	skipnz
  7762  075A  2FA2               	goto	L19
  7763  075B  3A07               	xorlw	7	; case 52
  7764  075C  1903               	skipnz
  7765  075D  2942               	goto	l4649
  7766  075E  3A01               	xorlw	1	; case 53
  7767  075F  1903               	skipnz
  7768  0760  2B5D               	goto	l4795
  7769  0761  3A03               	xorlw	3	; case 54
  7770  0762  1903               	skipnz
  7771  0763  2D53               	goto	l4935
  7772  0764  2F65               	goto	l5079
  7773  0765                     l5079:
  7774                           
  7775                           ;PROYECTO.c: 1079:        valor = '0';
  7776  0765  3030               	movlw	48
  7777  0766  00AE               	movwf	??_main
  7778  0767  082E               	movf	??_main,w
  7779  0768  00AD               	movwf	_valor
  7780  0769                     l5081:
  7781                           
  7782                           ;PROYECTO.c: 1083:        if (!RB7){
  7783  0769  1B86               	btfsc	6,7	;volatile
  7784  076A  2F6C               	goto	u9111
  7785  076B  2F6D               	goto	u9110
  7786  076C                     u9111:
  7787  076C  2F75               	goto	l5085
  7788  076D                     u9110:
  7789  076D                     l5083:
  7790                           
  7791                           ;PROYECTO.c: 1084:            min_user3 = minuto;
  7792  076D  0875               	movf	_minuto,w
  7793  076E  00AE               	movwf	??_main
  7794  076F  082E               	movf	??_main,w
  7795  0770  00F1               	movwf	_min_user3
  7796                           
  7797                           ;PROYECTO.c: 1085:            hora_user3 = hora;
  7798  0771  0876               	movf	_hora,w
  7799  0772  00AE               	movwf	??_main
  7800  0773  082E               	movf	??_main,w
  7801  0774  00A9               	movwf	_hora_user3
  7802  0775                     l5085:
  7803                           
  7804                           ;PROYECTO.c: 1087:        if (!RB6){
  7805  0775  1B06               	btfsc	6,6	;volatile
  7806  0776  2F78               	goto	u9121
  7807  0777  2F79               	goto	u9120
  7808  0778                     u9121:
  7809  0778  2F81               	goto	l5089
  7810  0779                     u9120:
  7811  0779                     l5087:
  7812                           
  7813                           ;PROYECTO.c: 1088:            min_user2 = minuto;
  7814  0779  0875               	movf	_minuto,w
  7815  077A  00AE               	movwf	??_main
  7816  077B  082E               	movf	??_main,w
  7817  077C  00F2               	movwf	_min_user2
  7818                           
  7819                           ;PROYECTO.c: 1089:            hora_user2 = hora;
  7820  077D  0876               	movf	_hora,w
  7821  077E  00AE               	movwf	??_main
  7822  077F  082E               	movf	??_main,w
  7823  0780  00AA               	movwf	_hora_user2
  7824  0781                     l5089:
  7825                           
  7826                           ;PROYECTO.c: 1091:        if (!RB5){
  7827  0781  1A86               	btfsc	6,5	;volatile
  7828  0782  2F84               	goto	u9131
  7829  0783  2F87               	goto	u9130
  7830  0784                     u9131:
  7831  0784  160A  118A  2E28   	goto	l4085
  7832  0787                     u9130:
  7833  0787                     l5091:
  7834                           
  7835                           ;PROYECTO.c: 1092:            min_user1 = minuto;
  7836  0787  0875               	movf	_minuto,w
  7837  0788  00AE               	movwf	??_main
  7838  0789  082E               	movf	??_main,w
  7839  078A  00F3               	movwf	_min_user1
  7840                           
  7841                           ;PROYECTO.c: 1093:            hora_user1 = hora;
  7842  078B  0876               	movf	_hora,w
  7843  078C  00AE               	movwf	??_main
  7844  078D  082E               	movf	??_main,w
  7845  078E  00AB               	movwf	_hora_user1
  7846  078F  2F84               	goto	u9131
  7847  0790  120A  118A  280C   	ljmp	start
  7848  0793                     L3:
  7849  0793                     __end_of_main:
  7850  0793  120A  158A  2FEF   	ljmp	l319
  7851  0796                     L5:
  7852  0796                     L4:
  7853  0796  120A  158A  2EC9   	ljmp	l4319
  7854  0799                     L10:
  7855  0799                     L9:
  7856  0799  120A  158A  2EB8   	ljmp	l480
  7857  079C                     L12:
  7858  079C                     L11:
  7859  079C  120A  158A  2D92   	ljmp	l4429
  7860  079F                     L17:
  7861  079F                     L16:
  7862  079F  120A  158A  2D81   	ljmp	l640
  7863  07A2                     L19:
  7864  07A2                     L18:
  7865  07A2  120A  158A  2C5B   	ljmp	l4539

Data Sizes:
    Strings     680
    Constant    0
    Data        0
    BSS         21
    Persistent  0
    Stack       0

Auto Spaces:
    Space          Size  Autos    Used
    COMMON           14      5      12
    BANK0            80      2      16
    BANK1            80      0       0
    BANK3            96      0       0
    BANK2            96      0       0

Pointer List with Targets:

    USART_Cadena@str	PTR unsigned char  size(2) Largest target is 52
		 -> STR_67(CODE[3]), STR_66(CODE[3]), STR_65(CODE[36]), STR_64(CODE[44]), 
		 -> STR_63(CODE[3]), STR_62(CODE[3]), STR_61(CODE[48]), STR_60(CODE[48]), 
		 -> STR_59(CODE[52]), STR_58(CODE[39]), STR_57(CODE[3]), STR_56(CODE[3]), 
		 -> STR_55(CODE[36]), STR_54(CODE[44]), STR_53(CODE[3]), STR_52(CODE[3]), 
		 -> STR_51(CODE[48]), STR_50(CODE[48]), STR_49(CODE[52]), STR_48(CODE[39]), 
		 -> STR_47(CODE[26]), STR_46(CODE[48]), STR_45(CODE[43]), STR_44(CODE[3]), 
		 -> STR_43(CODE[3]), STR_42(CODE[36]), STR_41(CODE[44]), STR_40(CODE[3]), 
		 -> STR_39(CODE[3]), STR_38(CODE[48]), STR_37(CODE[48]), STR_36(CODE[52]), 
		 -> STR_35(CODE[39]), STR_34(CODE[31]), STR_33(CODE[3]), STR_32(CODE[3]), 
		 -> STR_31(CODE[3]), STR_30(CODE[3]), STR_29(CODE[2]), STR_28(CODE[7]), 
		 -> STR_27(CODE[8]), STR_26(CODE[11]), STR_25(CODE[31]), STR_24(CODE[3]), 
		 -> STR_23(CODE[3]), STR_22(CODE[3]), STR_21(CODE[3]), STR_20(CODE[2]), 
		 -> STR_19(CODE[7]), STR_18(CODE[8]), STR_17(CODE[11]), STR_16(CODE[31]), 
		 -> STR_15(CODE[3]), STR_14(CODE[3]), STR_13(CODE[3]), STR_12(CODE[3]), 
		 -> STR_11(CODE[2]), STR_10(CODE[7]), STR_9(CODE[8]), STR_8(CODE[11]), 
		 -> STR_7(CODE[37]), STR_6(CODE[34]), STR_5(CODE[35]), STR_4(CODE[31]), 
		 -> STR_3(CODE[29]), STR_2(CODE[30]), STR_1(CODE[31]), 


Critical Paths under _main in COMMON

    _main->_USART_Cadena
    _USART_Cadena->_USART_Tx

Critical Paths under _isr in COMMON

    None.

Critical Paths under _main in BANK0

    None.

Critical Paths under _isr in BANK0

    None.

Critical Paths under _main in BANK1

    None.

Critical Paths under _isr in BANK1

    None.

Critical Paths under _main in BANK3

    None.

Critical Paths under _isr in BANK3

    None.

Critical Paths under _main in BANK2

    None.

Critical Paths under _isr in BANK2

    None.

Call Graph Tables:

 ---------------------------------------------------------------------------------
 (Depth) Function   	        Calls       Base Space   Used Autos Params    Refs
 ---------------------------------------------------------------------------------
 (0) _main                                                 2     2      0    5159
                                              0 BANK0      2     2      0
                       _USART_Cadena
                           _USART_Rx
 ---------------------------------------------------------------------------------
 (1) _USART_Rx                                             0     0      0       0
 ---------------------------------------------------------------------------------
 (1) _USART_Cadena                                         2     0      2    5159
                                              3 COMMON     2     0      2
                           _USART_Tx
 ---------------------------------------------------------------------------------
 (2) _USART_Tx                                             1     1      0      22
                                              2 COMMON     1     1      0
 ---------------------------------------------------------------------------------
 Estimated maximum stack depth 2
 ---------------------------------------------------------------------------------
 (Depth) Function   	        Calls       Base Space   Used Autos Params    Refs
 ---------------------------------------------------------------------------------
 (3) _isr                                                  2     2      0       0
                                              0 COMMON     2     2      0
 ---------------------------------------------------------------------------------
 Estimated maximum stack depth 3
 ---------------------------------------------------------------------------------

 Call Graph Graphs:

 _main (ROOT)
   _USART_Cadena
     _USART_Tx
   _USART_Rx

 _isr (ROOT)

 Address spaces:
Name               Size   Autos  Total    Cost      Usage
BITCOMMON            E      0       0       0        0.0%
EEDATA             100      0       0       0        0.0%
NULL                 0      0       0       0        0.0%
CODE                 0      0       0       0        0.0%
COMMON               E      5       C       1       85.7%
BITSFR0              0      0       0       1        0.0%
SFR0                 0      0       0       1        0.0%
BITSFR1              0      0       0       2        0.0%
SFR1                 0      0       0       2        0.0%
STACK                0      0       0       2        0.0%
ABS                  0      0      1C       3        0.0%
BITBANK0            50      0       0       4        0.0%
BITSFR3              0      0       0       4        0.0%
SFR3                 0      0       0       4        0.0%
BANK0               50      2      10       5       20.0%
BITSFR2              0      0       0       5        0.0%
SFR2                 0      0       0       5        0.0%
BITBANK1            50      0       0       6        0.0%
BANK1               50      0       0       7        0.0%
BITBANK3            60      0       0       8        0.0%
BANK3               60      0       0       9        0.0%
BITBANK2            60      0       0      10        0.0%
BANK2               60      0       0      11        0.0%
DATA                 0      0      1C      12        0.0%


Microchip Technology PIC Macro Assembler V2.31 build 20201012212115 
Symbol Table                                                                                   Thu May 27 10:12:54 2021

                      pc 0002                       fsr 0004                      l140 1576  
                    l301 0FC6                      l221 0EF8                      l213 0EE2  
                    l134 1642                      l312 0FDE                      l208 0ED5  
                    l136 1658                      l305 0FCD                      l241 0F2F  
                    l233 0F19                      l225 0F03                      l217 0EED  
                    l145 16DC                      l410 0E0E                      l402 0DF8  
                    l322 0FF9                      l138 166E                      l315 0FE8  
                    l420 0E29                      l340 0B60                      l308 0FD7  
                    l252 0F4F                      l501 1709                      l413 0E18  
                    l333 0B4D                      l245 0F3A                      l237 0F24  
                    l229 0F0E                      l406 0E03                      l350 0B7D  
                    l326 0B3A                      l270 0F78                      l511 1726  
                    l431 0E41                      l343 0B6A                      l319 0FEF  
                    l263 0F67                      l504 1713                      l424 0E30  
                    l336 0B57                      l280 0F93                      l256 0F56  
                    l601 0D25                      l441 0E5C                      l417 0E1F  
                    l361 0C48                      l353 0BF3                      l329 0B44  
                    l273 0F82                      l249 0F45                      l522 17F1  
                    l514 179C                      l434 0E4B                      l266 0F71  
                    l427 0E3A                      l347 0B73                      l291 0FAB  
                    l259 0F60                      l612 0D3D                      l508 171C  
                    l452 0E74                      l284 0F9A                      l196 1568  
                    l605 0D2C                      l445 0E63                      l357 0C48  
                    l277 0F89                      l622 0D58                      l550 0CA0  
                    l542 0C8A                      l534 0C74                      l518 17F1  
                    l462 0E8F                      l438 0E52                      l390 0DD7  
                    l382 0DC1                      l374 0DAB                      l294 0FB5  
                    l615 0D47                      l455 0E7E                      l287 0FA4  
                    l640 0D81                      l608 0D36                      l480 0EB8  
                    l448 0E6D                      l633 0D70                      l529 0C67  
                    l473 0EA7                      l369 0D9E                      l650 0034  
                    l626 0D5F                      l570 0CD7                      l562 0CC1  
                    l554 0CAB                      l546 0C95                      l538 0C7F  
                    l490 16ED                      l466 0E96                      l394 0DE2  
                    l386 0DCC                      l378 0DB6                      l298 0FBC  
                    l803 04E3                      l643 0D8B                      l619 0D4E  
                    l483 0EC2                      l459 0E85                      l732 02C8  
                    l636 0D7A                      l580 0CF2                      l476 0EB1  
                    l661 0050                      l629 0D69                      l573 0CE1  
                    l469 0EA0                      l902 07E8                      l654 003D  
                    l566 0CCC                      l558 0CB6                      l494 16F6  
                    l398 0DED                      l911 07CA                      l671 006D  
                    l647 002A                      l591 0D0A                      l487 16E3  
                    l664 005A                      l584 0CF9                      l905 07F3  
                    l745 0338                      l657 0047                      l577 0CE8  
                    l497 1700                      l682 0138                      l674 00E3  
                    l594 0D14                      l587 0D03                      l668 0063  
                    l870 06D9                      l678 0138                      l598 0D1B  
                    l899 07DE                      _RB0 0030                      _RB1 0031  
                    _RB2 0032                      _RD0 0040                      _RD1 0041  
                    _RB5 0035                      _RD2 0042                      _RB6 0036  
                    _RB7 0037                      _isr 07E9                      fsr0 0004  
                    indf 0000                     l4011 15DD                     l4003 15D0  
                   l4101 1651                     l4021 15E7                     l4013 15DE  
                   l4005 15D7                     l4111 166C                     l4103 1656  
                   l4031 15F6                     l4023 15EE                     l4015 15DF  
                   l4007 15D9                     l5001 064A                     l4201 1446  
                   l4121 1680                     l4113 1671                     l4105 165C  
                   l4041 15FF                     l4033 15F7                     l4025 15F1  
                   l4017 15E2                     l4009 15DC                     l5011 066A  
                   l5003 0650                     l4211 1462                     l4203 144B  
                   l4131 169E                     l4115 1679                     l4107 165D  
                   l4123 1681                     l4051 160B                     l4043 1600  
                   l4035 15F8                     l4027 15F4                     l4019 15E3  
                   l5021 068B                     l5013 0671                     l5005 0657  
                   l4301 1563                     l4221 147E                     l4213 1468  
                   l4205 1451                     l4141 16BB                     l4133 16A4  
                   l4125 1687                     l4117 167C                     l4109 1667  
                   l4061 1617                     l4053 160E                     l4045 1603  
                   l4037 15F9                     l4029 15F5                     l5031 06AB  
                   l5023 0691                     l5015 0677                     l5007 065D  
                   l4311 15BA                     l4231 149B                     l4223 1484  
                   l4215 146D                     l4207 1457                     l4303 1568  
                   l4151 16D7                     l4143 16C0                     l4135 16AA  
                   l4127 1692                     l4119 167D                     l4071 161E  
                   l4063 1618                     l4055 1612                     l4047 1607  
                   l4039 15FE                     l5041 06CC                     l5033 06B2  
                   l5025 0698                     l5017 067E                     l5009 0664  
                   l4321 0EDB                     l4313 15BD                     l4241 14B9  
                   l4233 14A0                     l4225 148A                     l4217 1473  
                   l4209 145C                     l4161 13D6                     l4305 156C  
                   l4145 16C6                     l4137 16AF                     l4153 16DC  
                   l4129 169C                     l4081 1625                     l4073 1621  
                   l4065 161B                     l4057 1613                     l4049 160A  
                   l5051 06FA                     l5043 06D2                     l5035 06B8  
                   l5027 069E                     l5019 0684                     l4411 0C08  
                   l4331 0F14                     l4323 0EE8                     l4403 0B86  
                   l4315 15C3                     l4307 1573                     l4251 14D5  
                   l4243 14BF                     l4235 14A6                     l4227 148F  
                   l4219 1479                     l4171 13F1                     l4163 13DC  
                   l4147 16CC                     l4139 16B5                     l4155 13BD  
                   l4091 1631                     l4083 1626                     l4075 1622  
                   l4067 161C                     l4059 1616                     l5061 071B  
                   l5053 0704                     l5037 06BF                     l5029 06A5  
                   l5045 06D9                     l4421 0C2E                     l4413 0C0E  
                   l4341 0F4B                     l4333 0F1F                     l4325 0EF3  
                   l4405 0BE1                     l4317 15CD                     l4309 157B  
                   l4261 14F2                     l4253 14DB                     l4245 14C4  
                   l4237 14AC                     l4229 1495                     l4181 140D  
                   l4173 13F6                     l4165 13E2                     l4157 13C8  
                   l4149 16D1                     l4093 163B                     l4085 1628  
                   l4077 1623                     l4069 161D                     l5071 073C  
                   l5063 0722                     l5055 070D                     l5047 06EB  
                   l5039 06C5                     l4503 170F                     l4431 0DA4  
                   l4423 0C38                     l4415 0C18                     l4407 0BF9  
                   l4335 0F2A                     l4327 0EFE                     l4319 0EC9  
                   l4271 150E                     l4263 14F7                     l4255 14E1  
                   l4247 14CA                     l4239 14B1                     l4191 1429  
                   l4183 1413                     l4175 13FC                     l4167 13E5  
                   l4159 13D2                     l4095 1640                     l4087 162C  
                   l4079 1624                     l2753 07DE                     l2761 07B4  
                   l5081 0769                     l5073 0742                     l5065 0728  
                   l5057 0713                     l5049 06F1                     l5241 0080  
                   l4601 0D87                     l4521 17B1                     l4441 0DDD  
                   l4433 0DB1                     l4513 172F                     l4425 0C3E  
                   l4417 0C1E                     l4409 0BFE                     l4361 0FA0  
                   l4353 0F7E                     l4345 0F5C                     l4337 0F35  
                   l4329 0F09                     l4281 152A                     l4273 1514  
                   l4265 14FD                     l4257 14E6                     l4249 14D0  
                   l4193 142F                     l4185 1418                     l4177 1402  
                   l4169 13EB                     l4097 1646                     l4089 1630  
                   l2755 07E4                     l2763 07BA                     l5091 0787  
                   l5083 076D                     l5243 0751                     l5067 072F  
                   l5059 0715                     l4531 17D7                     l4523 17B7  
                   l4507 1722                     l4451 0E14                     l4443 0DE8  
                   l4435 0DBC                     l4515 178A                     l4427 0C51  
                   l4419 0C28                     l4339 0F40                     l4291 1547  
                   l4283 1530                     l4275 1519                     l4267 1503  
                   l4259 14EC                     l4195 1435                     l4187 141E  
                   l4179 1407                     l4099 1647                     l2757 07A5  
                   l2765 07F0                     l5085 0775                     l5069 0735  
                   l4701 020B                     l4613 0056                     l4605 0030  
                   l4541 0C6D                     l4533 17E1                     l4525 17C1  
                   l4517 17A2                     l4445 0DF3                     l4437 0DC7  
                   l4429 0D92                     l5237 0B90                     l4381 0FF5  
                   l4373 0FD3                     l4365 0FB1                     l4357 0F8F  
                   l4349 0F6D                     l5077 0749                     l4293 154C  
                   l4285 1536                     l4277 151F                     l4269 1508  
                   l4197 143A                     l4189 1424                     l2759 07A6  
                   l5087 0779                     l4711 022C                     l4703 0212  
                   l4631 00F8                     l4551 0CA6                     l4543 0C7A  
                   l4623 0076                     l4535 17E7                     l4527 17C7  
                   l4519 17A7                     l5239 1739                     l4471 0E69  
                   l4463 0E47                     l4455 0E25                     l4447 0DFE  
                   l4439 0DD2                     l5079 0765                     l4295 1552  
                   l4287 153B                     l4279 1525                     l4199 1440  
                   l5089 0781                     l4801 0390                     l4721 024C  
                   l4713 0232                     l4705 0218                     l4641 011E  
                   l4633 00FE                     l4617 0069                     l4609 0043  
                   l4561 0CDD                     l4553 0CB1                     l4545 0C85  
                   l4625 00D1                     l4529 17D1                     l4449 0E09  
                   l4393 0B66                     l4385 0B40                     l4377 0FE4  
                   l4369 0FC2                     l4297 1558                     l4289 1541  
                   l4811 03B3                     l4803 039A                     l4731 026D  
                   l4723 0253                     l4715 0239                     l4707 021F  
                   l4651 0166                     l4643 0128                     l4635 0108  
                   l4627 00E9                     l4555 0CBC                     l4547 0C90  
                   l4539 0C5B                     l4491 0EBE                     l4483 0E9C  
                   l4475 0E7A                     l4467 0E58                     l4459 0E36  
                   l4299 155D                     l4901 04D6                     l4821 03D2  
                   l4813 03B8                     l4805 03A3                     l4741 028D  
                   l4733 0273                     l4725 0259                     l4717 023F  
                   l4709 0225                     l4661 018E                     l4653 016C  
                   l4645 012E                     l4637 010E                     l4629 00EE  
                   l4581 0D32                     l4573 0D10                     l4565 0CEE  
                   l4557 0CC7                     l4549 0C9B                     l4397 0B79  
                   l4389 0B53                     l4911 0504                     l4903 04DC  
                   l4831 03F2                     l4823 03D8                     l4815 03BE  
                   l4807 03A9                     l4751 02AE                     l4743 0294  
                   l4735 027A                     l4727 0260                     l4719 0246  
                   l4671 01AA                     l4663 0192                     l4655 0175  
                   l4639 0118                     l4559 0CD2                     l4495 16E9  
                   l4487 0EAD                     l4479 0E8B                     l4921 0525  
                   l4913 050E                     l4841 0413                     l4833 03F9  
                   l4825 03DF                     l4817 03C5                     l4905 04E3  
                   l4809 03AD                     l4761 02DA                     l4753 02B4  
                   l4745 029A                     l4737 0280                     l4729 0266  
                   l4681 01CA                     l4673 01B0                     l4665 0198  
                   l4657 017F                     l4649 0142                     l4593 0D65  
                   l4585 0D43                     l4577 0D21                     l4569 0CFF  
                   l4931 0546                     l4923 052C                     l4915 0517  
                   l4907 04F5                     l4851 0433                     l4843 0419  
                   l4835 03FF                     l4827 03E5                     l4819 03CB  
                   l4771 0302                     l4763 02E0                     l4755 02BB  
                   l4747 02A1                     l4739 0287                     l4691 01EB  
                   l4683 01D1                     l4675 01B7                     l4667 019D  
                   l4659 0188                     l4499 16FC                     l4941 0586  
                   l4933 054C                     l4925 0532                     l4917 051D  
                   l4909 04FB                     l4861 0454                     l4853 043A  
                   l4845 0420                     l4837 0406                     l4829 03EC  
                   l4781 031E                     l4773 0304                     l4765 02E9  
                   l4757 02C1                     l4749 02A7                     l4693 01F1  
                   l4685 01D7                     l4677 01BD                     l4669 01A3  
                   l4597 0D76                     l4589 0D54                     l4951 05A9  
                   l4943 0590                     l4935 0553                     l4927 0539  
                   l4919 051F                     l4871 0474                     l4863 045A  
                   l4855 0440                     l4847 0426                     l4839 040C  
                   l4791 0356                     l4783 0324                     l4775 030A  
                   l4767 02F3                     l4695 01F8                     l4687 01DE  
                   l4679 01C4                     l4759 02C8                     l4961 05C8  
                   l4953 05AE                     l4945 0599                     l4937 0577  
                   l4929 053F                     l4881 0495                     l4873 047B  
                   l4865 0461                     l4857 0447                     l4849 042D  
                   l4785 032B                     l4777 0311                     l4769 02FC  
                   l4697 01FE                     l4689 01E4                     l4971 05E8  
                   l4963 05CE                     l4955 05B4                     l4947 059F  
                   l4939 057D                     l4891 04B5                     l4883 049B  
                   l4875 0481                     l4867 0467                     l4859 044D  
                   l4795 035D                     l4787 0331                     l4779 0317  
                   l4699 0205                     ?_isr 0077                     l4981 0609  
                   l4973 05EF                     l4965 05D5                     l4957 05BB  
                   l4949 05A3                     l4893 04BC                     l4885 04A2  
                   l4877 0488                     l4869 046E                     l4797 0381  
                   l4789 033B                     l4991 0629                     l4983 060F  
                   l4975 05F5                     l4967 05DB                     l4959 05C1  
                   l4895 04C2                     l4887 04A8                     l4879 048E  
                   l4799 0387                     l4993 0630                     l4985 0616  
                   l4977 05FC                     l4969 05E2                     l4897 04C9  
                   l4889 04AF                     l4995 0636                     l4987 061C  
                   l4979 0602                     l4899 04CF                     l4997 063D  
                   l4989 0623                     l4999 0643                     STR_1 09EF  
                   STR_2 0A2D                     STR_3 0A4B                     STR_4 0A0E  
                   STR_5 098B                     STR_6 09AE                     STR_7 0942  
                   STR_8 0A82                     STR_9 0A8D                     _T0IF 005A  
                   u3060 07E4                     u3061 07E3                     u3070 07CA  
                   u3071 07C9                     u6110 162C                     u6111 162B  
                   u7000 0FC2                     u6200 16B5                     u6120 1630  
                   u7001 0FC1                     u6201 16B4                     u6121 162F  
                   u7010 0FCC                     u6210 16BB                     u6130 1646  
                   u7011 0FCB                     u6211 16BA                     u6131 1645  
                   u7100 0B53                     u7020 0FD3                     u6300 13F1  
                   u6220 16C6                     u6140 165C                     u7101 0B52  
                   u7021 0FD2                     u6301 13F0                     u6221 16C5  
                   u6141 165B                     u7110 0B5D                     u7030 0FDD  
                   u6310 13FC                     u6230 16CC                     u6150 1687  
                   u7111 0B5C                     u7031 0FDC                     u6311 13FB  
                   u6231 16CB                     u6151 1684                     u8000 0030  
                   u7200 0C2E                     u7120 0B66                     u7040 0FE4  
                   u6400 1446                     u6320 1402                     u6240 16D7  
                   u6160 1692                     u8001 002F                     u7201 0C2D  
                   u7121 0B65                     u7041 0FE3                     u6401 1445  
                   u6321 1401                     u6241 16D6                     u6161 168F  
                   u8010 003A                     u7210 0C3E                     u7130 0B70  
                   u7050 0FEE                     u6410 1451                     u6330 140D  
                   u6250 13C8                     u6170 169C                     u8011 0039  
                   u7211 0C3D                     u7131 0B6F                     u7051 0FED  
                   u6411 1450                     u6331 140C                     u6251 13C5  
                   u6171 169B                     u8100 00FE                     u8020 0043  
                   u7300 0DFE                     u7220 0DA4                     u7140 0B79  
                   u7060 0FF5                     u6500 149B                     u6420 1457  
                   u6340 1413                     u6260 13D2                     u6180 16A4  
                   u8101 00FD                     u8021 0042                     u7301 0DFD  
                   u7221 0DA3                     u7141 0B78                     u7061 0FF4  
                   u6501 149A                     u6421 1456                     u6341 1412  
                   u6261 13D1                     u6181 16A3                     u8110 010E  
                   u8030 004D                     u7310 0E09                     u7230 0DB1  
                   u7150 0B83                     u7070 0FFF                     u6510 14A6  
                   u6430 1462                     u6350 141E                     u6270 13DC  
                   u6190 16AA                     u8111 010D                     u8031 004C  
                   u7311 0E08                     u7231 0DB0                     u7151 0B82  
                   u7071 0FFE                     u6511 14A5                     u6431 1461  
                   u6351 141D                     u6271 13DB                     u6191 16A9  
                   u9000 069E                     u8200 01CA                     u8120 011E  
                   u8040 0056                     u7400 0E58                     u7320 0E14  
                   u7240 0DBC                     u7160 0BF9                     u7080 0B40  
                   u6600 14F2                     u6520 14AC                     u6440 1468  
                   u6360 1424                     u6280 13E2                     u9001 069D  
                   u8201 01C9                     u8121 011D                     u8041 0055  
                   u7401 0E57                     u7321 0E13                     u7241 0DBB  
                   u7161 0BF8                     u7081 0B3F                     u6601 14F1  
                   u6521 14AB                     u6441 1467                     u6361 1423  
                   u6281 13E1                     u9010 06AB                     u8210 01D7  
                   u8130 012E                     u8050 0060                     u7410 0E62  
                   u7330 0E1E                     u7250 0DC7                     u7170 0BFE  
                   u7090 0B4A                     u6610 14FD                     u6530 14B9  
                   u6450 1473                     u6370 142F                     u6290 13EB  
                   u9011 06AA                     u8211 01D6                     u8131 012D  
                   u8051 005F                     u7411 0E61                     u7331 0E1D  
                   u7251 0DC6                     u7171 0BFD                     u7091 0B49  
                   u6611 14FC                     u6531 14B6                     u6451 1472  
                   u6371 142E                     u6291 13EA                     u9100 0742  
                   u9020 06B8                     u8300 024C                     u8220 01E4  
                   u8140 016C                     u8060 0069                     u7500 0EAD  
                   u7420 0E69                     u7340 0E25                     u7260 0DD2  
                   u7180 0C0E                     u6700 1547                     u6620 1503  
                   u6540 14BF                     u6460 1479                     u6380 1435  
                   u9101 0741                     u9021 06B7                     u8301 024B  
                   u8221 01E3                     u8141 016B                     u8061 0068  
                   u7501 0EAC                     u7421 0E68                     u7341 0E24  
                   u7261 0DD1                     u7181 0C0D                     u6701 1546  
                   u6621 1502                     u6541 14BE                     u6461 1478  
                   u6381 1434                     u9110 076D                     u9030 06C5  
                   u8310 0259                     u8230 01F1                     u8150 018E  
                   u8070 0073                     u7510 0EB7                     u7430 0E73  
                   u7350 0E2F                     u7270 0DDD                     u7190 0C1E  
                   u6710 1552                     u6630 150E                     u6550 14CA  
                   u6470 1484                     u6390 1440                     u9111 076C  
                   u9031 06C4                     u8311 0258                     u8231 01F0  
                   u8151 018D                     u8071 0072                     u7511 0EB6  
                   u7431 0E72                     u7351 0E2E                     u7271 0DDC  
                   u7191 0C1D                     u6711 1551                     u6631 150D  
                   u6551 14C9                     u6471 1483                     u6391 143F  
                   u9120 0779                     u9040 06D2                     u8400 02E0  
                   u8320 0266                     u8240 01FE                     u8160 0198  
                   u8080 00E9                     u7600 1722                     u7520 0EBE  
                   u7440 0E7A                     u7360 0E36                     u7280 0DE8  
                   u6800 0F09                     u6720 1558                     u6640 1514  
                   u6560 14D0                     u6480 148A                     u9121 0778  
                   u9041 06D1                     u8401 02DF                     u8321 0265  
                   u8241 01FD                     u8161 0197                     u8081 00E8  
                   u7601 1721                     u7521 0EBD                     u7441 0E79  
                   u7361 0E35                     u7281 0DE7                     u6801 0F08  
                   u6721 1557                     u6641 1513                     u6561 14CF  
                   u6481 1489                     u9130 0787                     u9050 06F1  
                   u8410 0302                     u8330 0273                     u8250 020B  
                   u8170 01A3                     u8090 00EE                     u7610 172C  
                   u7530 0EC8                     u7450 0E84                     u7370 0E40  
                   u7290 0DF3                     u6810 0F14                     u6730 1563  
                   u6650 151F                     u6570 14DB                     u6490 1495  
                   u9131 0784                     u9051 06F0                     u8411 0301  
                   u8331 0272                     u8251 020A                     u8171 01A2  
                   u8091 00ED                     u7611 172B                     u7531 0EC7  
                   u7451 0E83                     u7371 0E3F                     u7291 0DF2  
                   u6811 0F13                     u6731 1562                     u6651 151E  
                   u6571 14DA                     u6491 1494                     u9060 0713  
                   u8500 03BE                     u8420 030A                     u8340 0280  
                   u8260 0218                     u8180 01B0                     u7700 0C85  
                   u7620 17A2                     u7540 16E9                     u7460 0E8B  
                   u7380 0E47                     u6900 0F6D                     u6820 0F1F  
                   u6740 157B                     u6660 1525                     u6580 14E1  
                   u9061 0712                     u8501 03BD                     u8421 0309  
                   u8341 027F                     u8261 0217                     u8181 01AF  
                   u7701 0C84                     u7621 17A1                     u7541 16E8  
                   u7461 0E8A                     u7381 0E46                     u6901 0F6C  
                   u6821 0F1E                     u6741 157A                     u6661 1524  
                   u6581 14E0                     u9070 071B                     u8510 03CB  
                   u8430 0317                     u8350 028D                     u8270 0225  
                   u8190 01BD                     u7710 0C90                     u7630 17A7  
                   u7550 16F3                     u7470 0E95                     u7390 0E51  
                   u6910 0F77                     u6830 0F2A                     u6750 15C3  
                   u6670 1530                     u6590 14EC                     u9071 071A  
                   u8511 03CA                     u8431 0316                     u8351 028C  
                   u8271 0224                     u8191 01BC                     u7711 0C8F  
                   u7631 17A6                     u7551 16F2                     u7471 0E94  
                   u7391 0E50                     u6911 0F76                     u6831 0F29  
                   u6751 15C0                     u6671 152F                     u6591 14EB  
                   u9080 0728                     u8600 0440                     u8520 03D8  
                   u8440 0324                     u8360 029A                     u8280 0232  
                   u7800 0CEE                     u7720 0C9B                     u7640 17B7  
                   u7560 16FC                     u7480 0E9C                     u6920 0F7E  
                   u6840 0F35                     u6760 0EDB                     u6680 1536  
                   u9081 0727                     u8601 043F                     u8521 03D7  
                   u8441 0323                     u8361 0299                     u8281 0231  
                   u7801 0CED                     u7721 0C9A                     u7641 17B6  
                   u7561 16FB                     u7481 0E9B                     u6921 0F7D  
                   u6841 0F34                     u6761 0EDA                     u6681 1535  
                   u9090 0735                     u8610 044D                     u8530 03E5  
                   u8450 0331                     u8370 02A7                     u8290 023F  
                   u7810 0CF8                     u7730 0CA6                     u7650 17C7  
                   u7570 1706                     u7490 0EA6                     u6930 0F88  
                   u6850 0F40                     u6770 0EE8                     u6690 1541  
                   u9091 0734                     u8611 044C                     u8531 03E4  
                   u8451 0330                     u8371 02A6                     u8291 023E  
                   u7811 0CF7                     u7731 0CA5                     u7651 17C6  
                   u7571 1705                     u7491 0EA5                     u6931 0F87  
                   u6851 0F3F                     u6771 0EE7                     u6691 1540  
                   u9147 15EB                     u8700 04C2                     u8620 045A  
                   u8540 03F2                     u8460 035C                     u8380 02B4  
                   u7900 0D43                     u7820 0CFF                     u7740 0CB1  
                   u7660 17D7                     u7580 170F                     u6940 0F8F  
                   u6860 0F4B                     u6780 0EF3                     u8701 04C1  
                   u8621 0459                     u8541 03F1                     u8461 035B  
                   u8381 02B3                     u7901 0D42                     u7821 0CFE  
                   u7741 0CB0                     u7661 17D6                     u7581 170E  
                   u6941 0F8E                     u6861 0F4A                     u6781 0EF2  
                   u9157 1637                     u8710 04CF                     u8630 0467  
                   u8550 03FF                     u8470 0387                     u8390 02C1  
                   u7910 0D4D                     u7830 0D09                     u7750 0CBC  
                   u7670 17E7                     u7590 1719                     u6950 0F99  
                   u6870 0F55                     u6790 0EFE                     u8711 04CE  
                   u8631 0466                     u8551 03FE                     u8471 0386  
                   u8391 02C0                     u7911 0D4C                     u7831 0D08  
                   u7751 0CBB                     u7671 17E6                     u7591 1718  
                   u6951 0F98                     u6871 0F54                     u6791 0EFD  
                   u9167 164D                     u8800 059F                     u8720 04DC  
                   u8640 0474                     u8560 040C                     u8480 03A9  
                   u7920 0D54                     u7840 0D10                     u7760 0CC7  
                   u7680 0C6D                     u6960 0FA0                     u6880 0F5C  
                   u8801 059E                     u8721 04DB                     u8641 0473  
                   u8561 040B                     u8481 03A8                     u7921 0D53  
                   u7841 0D0F                     u7761 0CC6                     u7681 0C6C  
                   u6961 0F9F                     u6881 0F5B                     u9177 1663  
                   u8810 05A9                     u8730 04FB                     u8650 0481  
                   u8570 0419                     u8490 03B3                     u7930 0D5E  
                   u7850 0D1A                     u7770 0CD2                     u7690 0C7A  
                   u6970 0FAA                     u6890 0F66                     u8811 05A8  
                   u8731 04FA                     u8651 0480                     u8571 0418  
                   u8491 03B2                     u7931 0D5D                     u7851 0D19  
                   u7771 0CD1                     u7691 0C79                     u6971 0FA9  
                   u6891 0F65                     u9187 1675                     u8900 061C  
                   u8820 05B4                     u8740 051D                     u8660 048E  
                   u8580 0426                     u7940 0D65                     u7860 0D21  
                   u7780 0CDD                     u6980 0FB1                     u8901 061B  
                   u8821 05B3                     u8741 051C                     u8661 048D  
                   u8581 0425                     u7941 0D64                     u7861 0D20  
                   u7781 0CDC                     u6981 0FB0                     u9197 1570  
                   u8910 0629                     u8830 05C1                     u8750 0525  
                   u8670 049B                     u8590 0433                     u7950 0D6F  
                   u7870 0D2B                     u7790 0CE7                     u6990 0FBB  
                   u8911 0628                     u8831 05C0                     u8751 0524  
                   u8671 049A                     u8591 0432                     u7951 0D6E  
                   u7871 0D2A                     u7791 0CE6                     u6991 0FBA  
                   u8920 0636                     u8840 05CE                     u8760 0532  
                   u8680 04A8                     u7960 0D76                     u7880 0D32  
                   u8921 0635                     u8841 05CD                     u8761 0531  
                   u8681 04A7                     u7961 0D75                     u7881 0D31  
                   u8930 0643                     u8850 05DB                     u8770 053F  
                   u8690 04B5                     u7970 0D80                     u7890 0D3C  
                   u8931 0642                     u8851 05DA                     u8771 053E  
                   u8691 04B4                     u7971 0D7F                     u7891 0D3B  
                   u8940 0650                     u8860 05E8                     u8780 054C  
                   u7980 0D87                     u8941 064F                     u8861 05E7  
                   u8781 054B                     u7981 0D86                     u8950 065D  
                   u8870 05F5                     u8790 057D                     u7990 0D91  
                   u8951 065C                     u8871 05F4                     u8791 057C  
                   u7991 0D90                     u8960 066A                     u8880 0602  
                   u8961 0669                     u8881 0601                     u8970 0677  
                   u8890 060F                     u8971 0676                     u8891 060E  
                   u8980 0684                     u8981 0683                     u8990 0691  
                   u8991 0690                     _TMR0 0001                     _main 15D0  
                   _hora 0076                     btemp 007E                     start 000C  
                  ??_isr 0077                    ?_main 0077                    STR_10 0A95  
                  STR_11 0A9D                    STR_20 0A9D                    STR_12 0AA2  
                  STR_21 0AA2                    STR_13 0A9C                    STR_22 0A9C  
                  STR_30 0AA2                    STR_14 0AA5                    STR_31 0A9C  
                  STR_23 0AA5                    STR_15 0A9F                    STR_40 0988  
                  STR_24 0A9F                    STR_32 0AA5                    STR_16 09D0  
                  STR_25 09D0                    STR_17 0A82                    STR_33 0A9F  
                  STR_41 08C4                    STR_34 09D0                    STR_50 0894  
                  STR_26 0A82                    STR_18 0A8D                    STR_42 0967  
                  STR_43 0988                    STR_51 0864                    STR_19 0A95  
                  STR_27 0A8D                    STR_35 091B                    STR_52 0988  
                  STR_44 0988                    STR_60 0894                    STR_28 0A95  
                  STR_36 0800                    STR_53 0988                    STR_61 0864  
                  STR_29 0A9D                    STR_45 08F0                    STR_37 0894  
                  STR_62 0988                    STR_54 08C4                    STR_38 0864  
                  STR_46 0834                    STR_63 0988                    STR_39 0988  
                  STR_55 0967                    STR_47 0A68                    STR_56 0988  
                  STR_48 091B                    STR_64 08C4                    STR_57 0988  
                  STR_65 0967                    STR_49 0800                    STR_66 0988  
                  STR_58 091B                    STR_67 0988                    STR_59 0800  
                  _ANSEL 0188                    i1l127 07E9                    _RCREG 001A  
                  _SPBRG 0099                    _PORTA 0005                    _PORTB 0006  
                  _PORTC 0007                    _PORTD 0008                    _PORTE 0009  
                  _TRISA 0085                    _TRISB 0086                    _TRISD 0088  
                  _TRISE 0089                    _TXREG 0019                    _valor 002D  
       __end_of_USART_Rx 07F4         __end_of_USART_Tx 07E9             USART_Tx@data 0079  
                  pclath 000A                    status 0003                    wtemp0 007E  
        __initialization 000F             __end_of_main 0793                   ??_main 002E  
                 _ADRESH 001E                   _ANSELH 0189                   _SPBRGH 009A  
                 _escala 0074                   _minuto 0075                   saved_w 007E  
__end_of__initialization 0026           __pcstackCOMMON 0077                ?_USART_Rx 0077  
              ?_USART_Tx 0077           _OPTION_REGbits 0081               __pbssBANK0 0020  
             __pmaintext 15D0               __pintentry 0004               ??_USART_Rx 0079  
             ??_USART_Tx 0079               __stringtab 07CB               _hora_nueva 0070  
             _hora_user1 002B               _hora_user2 002A               _hora_user3 0029  
                __ptext1 07F0                  __ptext2 07A5                  __ptext3 07DD  
                __ptext4 07E9             __size_of_isr 0007                  _ventana 002C  
   end_of_initialization 0026                _RCSTAbits 0018                  psplit$0 90010  
                psplit$1 100011                  psplit$2 110012                  psplit$3 120013  
                psplit$4 130014                  psplit$5 140015                  psplit$6 150016  
                psplit$7 160017             __pstringtext 0800     pnum$maintext_split_1 0010  
   pnum$maintext_split_2 0011     pnum$maintext_split_3 0012     pnum$maintext_split_4 0013  
   pnum$maintext_split_5 0014     pnum$maintext_split_6 0015     pnum$maintext_split_7 0016  
   pnum$maintext_split_8 0017            ?_USART_Cadena 007A                _TXSTAbits 0098  
            _BAUDCTLbits 0187        __size_of_USART_Rx 0004        __size_of_USART_Tx 000C  
    start_initialization 000F              __end_of_isr 07F0           ??_USART_Cadena 007C  
            __pbssCOMMON 0070                ___latbits 0002            __pcstackBANK0 002E  
              __pstrings 07CB                _min_user1 0073                _min_user2 0072  
              _min_user3 0071        interrupt_function 0004                 _PIR1bits 000C  
        USART_Cadena@str 007A     __end_of_USART_Cadena 07CB                 _USART_Rx 07F0  
               _USART_Tx 07DD               _ADCON0bits 001F              __stringbase 07DD  
             _ADCON1bits 009F                 _WPUBbits 0095             pnum$maintext 0009  
     __end_of__stringtab 07DD                 _me_1_us1 0028                 _me_1_us2 0025  
               _me_1_us3 0022                 _me_2_us1 0027                 _me_2_us2 0024  
               _me_2_us3 0021                 _me_3_us1 0026                 _me_3_us2 0023  
               _me_3_us3 0020            __size_of_main F1C3               _INTCONbits 000B  
               intlevel1 0000                stringcode 07D5    __size_of_USART_Cadena 0026  
             _OSCCONbits 008F                 stringtab 07CB             _USART_Cadena 07A5  
