

Microchip MPLAB XC8 Assembler V2.31 build 20201012212115 
                                                                                               Wed May 26 19:17:06 2021

Microchip MPLAB XC8 C Compiler v2.31 (Free license) build 20201012212115 Og1 
     1                           	processor	16F887
     2                           	pagewidth 120
     3                           	opt	flic
     4                           	psect	strings,global,class=STRING,delta=2,noexec
     5                           	psect	stringtext,global,reloc=256,class=STRCODE,delta=2,noexec
     6                           	psect	cinit,global,class=CODE,merge=1,delta=2
     7                           	psect	bssCOMMON,global,class=COMMON,space=1,delta=1,noexec
     8                           	psect	bssBANK0,global,class=BANK0,space=1,delta=1,noexec
     9                           	psect	cstackCOMMON,global,class=COMMON,space=1,delta=1,noexec
    10                           	psect	cstackBANK0,global,class=BANK0,space=1,delta=1,noexec
    11                           	psect	maintext,global,class=CODE,split=1,delta=2
    12                           	psect	text1,local,class=CODE,merge=1,delta=2
    13                           	psect	text2,local,class=CODE,merge=1,delta=2
    14                           	psect	text3,local,class=CODE,merge=1,delta=2
    15                           	psect	text4,local,class=CODE,merge=1,delta=2
    16                           	psect	intentry,global,class=CODE,delta=2
    17                           	psect	config,global,abs,ovrld,class=CONFIG,space=4,delta=2,noexec
    18                           	dabs	1,0x7E,2
    19  0000                     
    20                           ; Version 2.20
    21                           ; Generated 12/02/2020 GMT
    22                           ; 
    23                           ; Copyright © 2020, Microchip Technology Inc. and its subsidiaries ("Microchip")
    24                           ; All rights reserved.
    25                           ; 
    26                           ; This software is developed by Microchip Technology Inc. and its subsidiaries ("Microch
      +                          ip").
    27                           ; 
    28                           ; Redistribution and use in source and binary forms, with or without modification, are
    29                           ; permitted provided that the following conditions are met:
    30                           ; 
    31                           ;     1. Redistributions of source code must retain the above copyright notice, this lis
      +                          t of
    32                           ;        conditions and the following disclaimer.
    33                           ; 
    34                           ;     2. Redistributions in binary form must reproduce the above copyright notice, this 
      +                          list
    35                           ;        of conditions and the following disclaimer in the documentation and/or other
    36                           ;        materials provided with the distribution.
    37                           ; 
    38                           ;     3. Microchip's name may not be used to endorse or promote products derived from th
      +                          is
    39                           ;        software without specific prior written permission.
    40                           ; 
    41                           ; THIS SOFTWARE IS PROVIDED BY MICROCHIP "AS IS" AND ANY EXPRESS OR IMPLIED WARRANTIES,
    42                           ; INCLUDING, BUT NOT LIMITED TO, THE IMPLIED WARRANTIES OF MERCHANTABILITY AND FITNESS F
      +                          OR
    43                           ; PURPOSE ARE DISCLAIMED.  IN NO EVENT SHALL MICROCHIP BE LIABLE FOR ANY DIRECT, INDIREC
      +                          T,
    44                           ; INCIDENTAL, SPECIAL, EXEMPLARY, OR CONSEQUENTIAL DAMAGES (INCLUDING BUT NOT LIMITED TO
    45                           ; PROCUREMENT OF SUBSTITUTE GOODS OR SERVICES; LOSS OF USE, DATA OR PROFITS; OR BUSINESS
    46                           ; INTERRUPTION) HOWSOEVER CAUSED AND ON ANY THEORY OF LIABILITY, WHETHER IN CONTRACT, ST
      +                          RICT
    47                           ; LIABILITY, OR TORT (INCLUDING NEGLIGENCE OR OTHERWISE) ARISING IN ANY WAY OUT OF THE U
      +                          SE OF
    48                           ; THIS SOFTWARE, EVEN IF ADVISED OF THE POSSIBILITY OF SUCH DAMAGE.
    49                           ; 
    50                           ; 
    51                           ; Code-generator required, PIC16F887 Definitions
    52                           ; 
    53                           ; SFR Addresses
    54  0000                     	;# 
    55  0001                     	;# 
    56  0002                     	;# 
    57  0003                     	;# 
    58  0004                     	;# 
    59  0005                     	;# 
    60  0006                     	;# 
    61  0007                     	;# 
    62  0008                     	;# 
    63  0009                     	;# 
    64  000A                     	;# 
    65  000B                     	;# 
    66  000C                     	;# 
    67  000D                     	;# 
    68  000E                     	;# 
    69  000E                     	;# 
    70  000F                     	;# 
    71  0010                     	;# 
    72  0011                     	;# 
    73  0012                     	;# 
    74  0013                     	;# 
    75  0014                     	;# 
    76  0015                     	;# 
    77  0015                     	;# 
    78  0016                     	;# 
    79  0017                     	;# 
    80  0018                     	;# 
    81  0019                     	;# 
    82  001A                     	;# 
    83  001B                     	;# 
    84  001B                     	;# 
    85  001C                     	;# 
    86  001D                     	;# 
    87  001E                     	;# 
    88  001F                     	;# 
    89  0081                     	;# 
    90  0085                     	;# 
    91  0086                     	;# 
    92  0087                     	;# 
    93  0088                     	;# 
    94  0089                     	;# 
    95  008C                     	;# 
    96  008D                     	;# 
    97  008E                     	;# 
    98  008F                     	;# 
    99  0090                     	;# 
   100  0091                     	;# 
   101  0092                     	;# 
   102  0093                     	;# 
   103  0093                     	;# 
   104  0093                     	;# 
   105  0094                     	;# 
   106  0095                     	;# 
   107  0096                     	;# 
   108  0097                     	;# 
   109  0098                     	;# 
   110  0099                     	;# 
   111  009A                     	;# 
   112  009B                     	;# 
   113  009C                     	;# 
   114  009D                     	;# 
   115  009E                     	;# 
   116  009F                     	;# 
   117  0105                     	;# 
   118  0107                     	;# 
   119  0108                     	;# 
   120  0109                     	;# 
   121  010C                     	;# 
   122  010C                     	;# 
   123  010D                     	;# 
   124  010E                     	;# 
   125  010F                     	;# 
   126  0185                     	;# 
   127  0187                     	;# 
   128  0188                     	;# 
   129  0189                     	;# 
   130  018C                     	;# 
   131  018D                     	;# 
   132  0000                     	;# 
   133  0001                     	;# 
   134  0002                     	;# 
   135  0003                     	;# 
   136  0004                     	;# 
   137  0005                     	;# 
   138  0006                     	;# 
   139  0007                     	;# 
   140  0008                     	;# 
   141  0009                     	;# 
   142  000A                     	;# 
   143  000B                     	;# 
   144  000C                     	;# 
   145  000D                     	;# 
   146  000E                     	;# 
   147  000E                     	;# 
   148  000F                     	;# 
   149  0010                     	;# 
   150  0011                     	;# 
   151  0012                     	;# 
   152  0013                     	;# 
   153  0014                     	;# 
   154  0015                     	;# 
   155  0015                     	;# 
   156  0016                     	;# 
   157  0017                     	;# 
   158  0018                     	;# 
   159  0019                     	;# 
   160  001A                     	;# 
   161  001B                     	;# 
   162  001B                     	;# 
   163  001C                     	;# 
   164  001D                     	;# 
   165  001E                     	;# 
   166  001F                     	;# 
   167  0081                     	;# 
   168  0085                     	;# 
   169  0086                     	;# 
   170  0087                     	;# 
   171  0088                     	;# 
   172  0089                     	;# 
   173  008C                     	;# 
   174  008D                     	;# 
   175  008E                     	;# 
   176  008F                     	;# 
   177  0090                     	;# 
   178  0091                     	;# 
   179  0092                     	;# 
   180  0093                     	;# 
   181  0093                     	;# 
   182  0093                     	;# 
   183  0094                     	;# 
   184  0095                     	;# 
   185  0096                     	;# 
   186  0097                     	;# 
   187  0098                     	;# 
   188  0099                     	;# 
   189  009A                     	;# 
   190  009B                     	;# 
   191  009C                     	;# 
   192  009D                     	;# 
   193  009E                     	;# 
   194  009F                     	;# 
   195  0105                     	;# 
   196  0107                     	;# 
   197  0108                     	;# 
   198  0109                     	;# 
   199  010C                     	;# 
   200  010C                     	;# 
   201  010D                     	;# 
   202  010E                     	;# 
   203  010F                     	;# 
   204  0185                     	;# 
   205  0187                     	;# 
   206  0188                     	;# 
   207  0189                     	;# 
   208  018C                     	;# 
   209  018D                     	;# 
   210  001A                     _RCREG	set	26
   211  0019                     _TXREG	set	25
   212  000C                     _PIR1bits	set	12
   213  001E                     _ADRESH	set	30
   214  0009                     _PORTE	set	9
   215  0008                     _PORTD	set	8
   216  0007                     _PORTC	set	7
   217  0006                     _PORTB	set	6
   218  0005                     _PORTA	set	5
   219  000B                     _INTCONbits	set	11
   220  0018                     _RCSTAbits	set	24
   221  0001                     _TMR0	set	1
   222  001F                     _ADCON0bits	set	31
   223  0035                     _RB5	set	53
   224  0036                     _RB6	set	54
   225  0037                     _RB7	set	55
   226  0042                     _RD2	set	66
   227  0032                     _RB2	set	50
   228  0041                     _RD1	set	65
   229  0031                     _RB1	set	49
   230  0040                     _RD0	set	64
   231  0030                     _RB0	set	48
   232  005A                     _T0IF	set	90
   233  009A                     _SPBRGH	set	154
   234  0099                     _SPBRG	set	153
   235  0098                     _TXSTAbits	set	152
   236  008F                     _OSCCONbits	set	143
   237  0095                     _WPUBbits	set	149
   238  0081                     _OPTION_REGbits	set	129
   239  009F                     _ADCON1bits	set	159
   240  0089                     _TRISE	set	137
   241  0088                     _TRISD	set	136
   242  0086                     _TRISB	set	134
   243  0085                     _TRISA	set	133
   244  0187                     _BAUDCTLbits	set	391
   245  0189                     _ANSELH	set	393
   246  0188                     _ANSEL	set	392
   247                           
   248                           	psect	strings
   249  05D2                     __pstrings:
   250  05D2                     stringtab:
   251  05D2                     __stringtab:
   252                           
   253                           ;	String table - string pointers are 2 bytes each
   254  05D2  1BFF               	btfsc	btemp+1,7
   255  05D3  2DDC               	ljmp	stringcode
   256  05D4  1383               	bcf	3,7
   257  05D5  187F               	btfsc	btemp+1,0
   258  05D6  1783               	bsf	3,7
   259  05D7  0800               	movf	0,w
   260  05D8  0A84               	incf	4,f
   261  05D9  1903               	skipnz
   262  05DA  0AFF               	incf	btemp+1,f
   263  05DB  0008               	return
   264  05DC                     stringcode:
   265  05DC  087F               	movf	btemp+1,w
   266  05DD  397F               	andlw	127
   267  05DE  008A               	movwf	10
   268  05DF  0804               	movf	4,w
   269  05E0  0A84               	incf	4,f
   270  05E1  1903               	skipnz
   271  05E2  0AFF               	incf	btemp+1,f
   272  05E3  0082               	movwf	2
   273  05E4                     __stringbase:
   274  05E4                     __end_of__stringtab:
   275                           
   276                           	psect	stringtext
   277  0600                     __pstringtext:
   278  0600                     STR_17:
   279  0600  3472               	retlw	114	;'r'
   280  0601  342E               	retlw	46	;'.'
   281  0602  3431               	retlw	49	;'1'
   282  0603  3437               	retlw	55	;'7'
   283  0604  3420               	retlw	32	;' '
   284  0605  3420               	retlw	32	;' '
   285  0606  3473               	retlw	115	;'s'
   286  0607  342E               	retlw	46	;'.'
   287  0608  3431               	retlw	49	;'1'
   288  0609  3438               	retlw	56	;'8'
   289  060A  3420               	retlw	32	;' '
   290  060B  3420               	retlw	32	;' '
   291  060C  3474               	retlw	116	;'t'
   292  060D  342E               	retlw	46	;'.'
   293  060E  3431               	retlw	49	;'1'
   294  060F  3439               	retlw	57	;'9'
   295  0610  3420               	retlw	32	;' '
   296  0611  3420               	retlw	32	;' '
   297  0612  3475               	retlw	117	;'u'
   298  0613  342E               	retlw	46	;'.'
   299  0614  3432               	retlw	50	;'2'
   300  0615  3430               	retlw	48	;'0'
   301  0616  3420               	retlw	32	;' '
   302  0617  3420               	retlw	32	;' '
   303  0618  3476               	retlw	118	;'v'
   304  0619  342E               	retlw	46	;'.'
   305  061A  3432               	retlw	50	;'2'
   306  061B  3431               	retlw	49	;'1'
   307  061C  3420               	retlw	32	;' '
   308  061D  3420               	retlw	32	;' '
   309  061E  3477               	retlw	119	;'w'
   310  061F  342E               	retlw	46	;'.'
   311  0620  3432               	retlw	50	;'2'
   312  0621  3432               	retlw	50	;'2'
   313  0622  3420               	retlw	32	;' '
   314  0623  3420               	retlw	32	;' '
   315  0624  3478               	retlw	120	;'x'
   316  0625  342E               	retlw	46	;'.'
   317  0626  3432               	retlw	50	;'2'
   318  0627  3433               	retlw	51	;'3'
   319  0628  3420               	retlw	32	;' '
   320  0629  3420               	retlw	32	;' '
   321  062A  3479               	retlw	121	;'y'
   322  062B  342E               	retlw	46	;'.'
   323  062C  3432               	retlw	50	;'2'
   324  062D  3434               	retlw	52	;'4'
   325  062E  340D               	retlw	13
   326  062F  3400               	retlw	0
   327  0630                     STR_16:
   328  0630  3420               	retlw	32	;' '
   329  0631  346A               	retlw	106	;'j'
   330  0632  342E               	retlw	46	;'.'
   331  0633  3439               	retlw	57	;'9'
   332  0634  3420               	retlw	32	;' '
   333  0635  3420               	retlw	32	;' '
   334  0636  346B               	retlw	107	;'k'
   335  0637  342E               	retlw	46	;'.'
   336  0638  3431               	retlw	49	;'1'
   337  0639  3430               	retlw	48	;'0'
   338  063A  3420               	retlw	32	;' '
   339  063B  3420               	retlw	32	;' '
   340  063C  346C               	retlw	108	;'l'
   341  063D  342E               	retlw	46	;'.'
   342  063E  3431               	retlw	49	;'1'
   343  063F  3431               	retlw	49	;'1'
   344  0640  3420               	retlw	32	;' '
   345  0641  3420               	retlw	32	;' '
   346  0642  346D               	retlw	109	;'m'
   347  0643  342E               	retlw	46	;'.'
   348  0644  3431               	retlw	49	;'1'
   349  0645  3432               	retlw	50	;'2'
   350  0646  3420               	retlw	32	;' '
   351  0647  3420               	retlw	32	;' '
   352  0648  346E               	retlw	110	;'n'
   353  0649  342E               	retlw	46	;'.'
   354  064A  3431               	retlw	49	;'1'
   355  064B  3433               	retlw	51	;'3'
   356  064C  3420               	retlw	32	;' '
   357  064D  3420               	retlw	32	;' '
   358  064E  346F               	retlw	111	;'o'
   359  064F  342E               	retlw	46	;'.'
   360  0650  3431               	retlw	49	;'1'
   361  0651  3434               	retlw	52	;'4'
   362  0652  3420               	retlw	32	;' '
   363  0653  3420               	retlw	32	;' '
   364  0654  3470               	retlw	112	;'p'
   365  0655  342E               	retlw	46	;'.'
   366  0656  3431               	retlw	49	;'1'
   367  0657  3435               	retlw	53	;'5'
   368  0658  3420               	retlw	32	;' '
   369  0659  3420               	retlw	32	;' '
   370  065A  3471               	retlw	113	;'q'
   371  065B  342E               	retlw	46	;'.'
   372  065C  3431               	retlw	49	;'1'
   373  065D  3436               	retlw	54	;'6'
   374  065E  340D               	retlw	13
   375  065F  3400               	retlw	0
   376  0660                     STR_15:
   377  0660  3420               	retlw	32	;' '
   378  0661  3461               	retlw	97	;'a'
   379  0662  342E               	retlw	46	;'.'
   380  0663  3430               	retlw	48	;'0'
   381  0664  3420               	retlw	32	;' '
   382  0665  3420               	retlw	32	;' '
   383  0666  3462               	retlw	98	;'b'
   384  0667  342E               	retlw	46	;'.'
   385  0668  3431               	retlw	49	;'1'
   386  0669  3420               	retlw	32	;' '
   387  066A  3420               	retlw	32	;' '
   388  066B  3463               	retlw	99	;'c'
   389  066C  342E               	retlw	46	;'.'
   390  066D  3432               	retlw	50	;'2'
   391  066E  3420               	retlw	32	;' '
   392  066F  3420               	retlw	32	;' '
   393  0670  3464               	retlw	100	;'d'
   394  0671  342E               	retlw	46	;'.'
   395  0672  3433               	retlw	51	;'3'
   396  0673  3420               	retlw	32	;' '
   397  0674  3420               	retlw	32	;' '
   398  0675  3465               	retlw	101	;'e'
   399  0676  342E               	retlw	46	;'.'
   400  0677  3434               	retlw	52	;'4'
   401  0678  3420               	retlw	32	;' '
   402  0679  3420               	retlw	32	;' '
   403  067A  3466               	retlw	102	;'f'
   404  067B  342E               	retlw	46	;'.'
   405  067C  3435               	retlw	53	;'5'
   406  067D  3420               	retlw	32	;' '
   407  067E  3420               	retlw	32	;' '
   408  067F  3467               	retlw	103	;'g'
   409  0680  342E               	retlw	46	;'.'
   410  0681  3436               	retlw	54	;'6'
   411  0682  3420               	retlw	32	;' '
   412  0683  3420               	retlw	32	;' '
   413  0684  3468               	retlw	104	;'h'
   414  0685  342E               	retlw	46	;'.'
   415  0686  3437               	retlw	55	;'7'
   416  0687  3420               	retlw	32	;' '
   417  0688  3420               	retlw	32	;' '
   418  0689  3469               	retlw	105	;'i'
   419  068A  342E               	retlw	46	;'.'
   420  068B  3438               	retlw	56	;'8'
   421  068C  340D               	retlw	13
   422  068D  3400               	retlw	0
   423  068E                     STR_14:
   424  068E  3420               	retlw	32	;' '
   425  068F  3449               	retlw	73	;'I'
   426  0690  346E               	retlw	110	;'n'
   427  0691  3467               	retlw	103	;'g'
   428  0692  3472               	retlw	114	;'r'
   429  0693  3465               	retlw	101	;'e'
   430  0694  3473               	retlw	115	;'s'
   431  0695  34C3               	retlw	-61
   432  0696  34A1               	retlw	-95
   433  0697  3420               	retlw	32	;' '
   434  0698  346C               	retlw	108	;'l'
   435  0699  3461               	retlw	97	;'a'
   436  069A  3420               	retlw	32	;' '
   437  069B  346C               	retlw	108	;'l'
   438  069C  3465               	retlw	101	;'e'
   439  069D  3474               	retlw	116	;'t'
   440  069E  3472               	retlw	114	;'r'
   441  069F  3461               	retlw	97	;'a'
   442  06A0  3420               	retlw	32	;' '
   443  06A1  3464               	retlw	100	;'d'
   444  06A2  3465               	retlw	101	;'e'
   445  06A3  3420               	retlw	32	;' '
   446  06A4  346C               	retlw	108	;'l'
   447  06A5  3461               	retlw	97	;'a'
   448  06A6  3420               	retlw	32	;' '
   449  06A7  346E               	retlw	110	;'n'
   450  06A8  3475               	retlw	117	;'u'
   451  06A9  3465               	retlw	101	;'e'
   452  06AA  3476               	retlw	118	;'v'
   453  06AB  3461               	retlw	97	;'a'
   454  06AC  3420               	retlw	32	;' '
   455  06AD  3468               	retlw	104	;'h'
   456  06AE  346F               	retlw	111	;'o'
   457  06AF  3472               	retlw	114	;'r'
   458  06B0  3461               	retlw	97	;'a'
   459  06B1  3420               	retlw	32	;' '
   460  06B2  3420               	retlw	32	;' '
   461  06B3  340D               	retlw	13
   462  06B4  3400               	retlw	0
   463  06B5                     STR_13:
   464  06B5  3420               	retlw	32	;' '
   465  06B6  346D               	retlw	109	;'m'
   466  06B7  3469               	retlw	105	;'i'
   467  06B8  346E               	retlw	110	;'n'
   468  06B9  3473               	retlw	115	;'s'
   469  06BA  342E               	retlw	46	;'.'
   470  06BB  3420               	retlw	32	;' '
   471  06BC  3470               	retlw	112	;'p'
   472  06BD  3461               	retlw	97	;'a'
   473  06BE  3472               	retlw	114	;'r'
   474  06BF  3461               	retlw	97	;'a'
   475  06C0  3420               	retlw	32	;' '
   476  06C1  3465               	retlw	101	;'e'
   477  06C2  346C               	retlw	108	;'l'
   478  06C3  3420               	retlw	32	;' '
   479  06C4  346D               	retlw	109	;'m'
   480  06C5  3465               	retlw	101	;'e'
   481  06C6  3464               	retlw	100	;'d'
   482  06C7  3469               	retlw	105	;'i'
   483  06C8  3463               	retlw	99	;'c'
   484  06C9  3461               	retlw	97	;'a'
   485  06CA  346D               	retlw	109	;'m'
   486  06CB  3465               	retlw	101	;'e'
   487  06CC  346E               	retlw	110	;'n'
   488  06CD  3474               	retlw	116	;'t'
   489  06CE  346F               	retlw	111	;'o'
   490  06CF  3420               	retlw	32	;' '
   491  06D0  3420               	retlw	32	;' '
   492  06D1  340D               	retlw	13
   493  06D2  340D               	retlw	13
   494  06D3  3400               	retlw	0
   495  06D4                     STR_1:
   496  06D4  340D               	retlw	13
   497  06D5  3420               	retlw	32	;' '
   498  06D6  3451               	retlw	81	;'Q'
   499  06D7  3475               	retlw	117	;'u'
   500  06D8  3465               	retlw	101	;'e'
   501  06D9  3420               	retlw	32	;' '
   502  06DA  3461               	retlw	97	;'a'
   503  06DB  3463               	retlw	99	;'c'
   504  06DC  3463               	retlw	99	;'c'
   505  06DD  3469               	retlw	105	;'i'
   506  06DE  346F               	retlw	111	;'o'
   507  06DF  346E               	retlw	110	;'n'
   508  06E0  3420               	retlw	32	;' '
   509  06E1  3464               	retlw	100	;'d'
   510  06E2  3465               	retlw	101	;'e'
   511  06E3  3473               	retlw	115	;'s'
   512  06E4  3465               	retlw	101	;'e'
   513  06E5  3461               	retlw	97	;'a'
   514  06E6  3420               	retlw	32	;' '
   515  06E7  3465               	retlw	101	;'e'
   516  06E8  346A               	retlw	106	;'j'
   517  06E9  3465               	retlw	101	;'e'
   518  06EA  3463               	retlw	99	;'c'
   519  06EB  3475               	retlw	117	;'u'
   520  06EC  3474               	retlw	116	;'t'
   521  06ED  3461               	retlw	97	;'a'
   522  06EE  3472               	retlw	114	;'r'
   523  06EF  343F               	retlw	63	;'?'
   524  06F0  3420               	retlw	32	;' '
   525  06F1  340D               	retlw	13
   526  06F2  3400               	retlw	0
   527  06F3                     STR_4:
   528  06F3  3433               	retlw	51	;'3'
   529  06F4  3429               	retlw	41	;')'
   530  06F5  3420               	retlw	32	;' '
   531  06F6  3476               	retlw	118	;'v'
   532  06F7  3465               	retlw	101	;'e'
   533  06F8  3472               	retlw	114	;'r'
   534  06F9  3420               	retlw	32	;' '
   535  06FA  3464               	retlw	100	;'d'
   536  06FB  3461               	retlw	97	;'a'
   537  06FC  3474               	retlw	116	;'t'
   538  06FD  346F               	retlw	111	;'o'
   539  06FE  3473               	retlw	115	;'s'
   540  06FF  3420               	retlw	32	;' '
   541  0700  3464               	retlw	100	;'d'
   542  0701  3465               	retlw	101	;'e'
   543  0702  3420               	retlw	32	;' '
   544  0703  3461               	retlw	97	;'a'
   545  0704  346D               	retlw	109	;'m'
   546  0705  3462               	retlw	98	;'b'
   547  0706  346F               	retlw	111	;'o'
   548  0707  3473               	retlw	115	;'s'
   549  0708  3420               	retlw	32	;' '
   550  0709  340D               	retlw	13
   551  070A  340D               	retlw	13
   552  070B  3400               	retlw	0
   553  070C                     STR_3:
   554  070C  3432               	retlw	50	;'2'
   555  070D  3429               	retlw	41	;')'
   556  070E  3420               	retlw	32	;' '
   557  070F  3476               	retlw	118	;'v'
   558  0710  3465               	retlw	101	;'e'
   559  0711  3472               	retlw	114	;'r'
   560  0712  3420               	retlw	32	;' '
   561  0713  3464               	retlw	100	;'d'
   562  0714  3461               	retlw	97	;'a'
   563  0715  3474               	retlw	116	;'t'
   564  0716  346F               	retlw	111	;'o'
   565  0717  3473               	retlw	115	;'s'
   566  0718  3420               	retlw	32	;' '
   567  0719  3464               	retlw	100	;'d'
   568  071A  3465               	retlw	101	;'e'
   569  071B  3420               	retlw	32	;' '
   570  071C  346D               	retlw	109	;'m'
   571  071D  3469               	retlw	105	;'i'
   572  071E  346E               	retlw	110	;'n'
   573  071F  3475               	retlw	117	;'u'
   574  0720  3474               	retlw	116	;'t'
   575  0721  346F               	retlw	111	;'o'
   576  0722  3420               	retlw	32	;' '
   577  0723  340D               	retlw	13
   578  0724  3400               	retlw	0
   579  0725                     STR_2:
   580  0725  3431               	retlw	49	;'1'
   581  0726  3429               	retlw	41	;')'
   582  0727  3420               	retlw	32	;' '
   583  0728  3476               	retlw	118	;'v'
   584  0729  3465               	retlw	101	;'e'
   585  072A  3472               	retlw	114	;'r'
   586  072B  3420               	retlw	32	;' '
   587  072C  3464               	retlw	100	;'d'
   588  072D  3461               	retlw	97	;'a'
   589  072E  3474               	retlw	116	;'t'
   590  072F  346F               	retlw	111	;'o'
   591  0730  3473               	retlw	115	;'s'
   592  0731  3420               	retlw	32	;' '
   593  0732  3464               	retlw	100	;'d'
   594  0733  3465               	retlw	101	;'e'
   595  0734  3420               	retlw	32	;' '
   596  0735  3468               	retlw	104	;'h'
   597  0736  346F               	retlw	111	;'o'
   598  0737  3472               	retlw	114	;'r'
   599  0738  3461               	retlw	97	;'a'
   600  0739  3420               	retlw	32	;' '
   601  073A  340D               	retlw	13
   602  073B  3400               	retlw	0
   603  073C                     STR_5:
   604  073C  3420               	retlw	32	;' '
   605  073D  3445               	retlw	69	;'E'
   606  073E  3473               	retlw	115	;'s'
   607  073F  3470               	retlw	112	;'p'
   608  0740  3465               	retlw	101	;'e'
   609  0741  3472               	retlw	114	;'r'
   610  0742  3461               	retlw	97	;'a'
   611  0743  3472               	retlw	114	;'r'
   612  0744  3420               	retlw	32	;' '
   613  0745  3420               	retlw	32	;' '
   614  0746  3400               	retlw	0
   615  0747                     STR_6:
   616  0747  3420               	retlw	32	;' '
   617  0748  3448               	retlw	72	;'H'
   618  0749  346F               	retlw	111	;'o'
   619  074A  3472               	retlw	114	;'r'
   620  074B  3461               	retlw	97	;'a'
   621  074C  3473               	retlw	115	;'s'
   622  074D  3420               	retlw	32	;' '
   623  074E  3400               	retlw	0
   624  074F                     STR_7:
   625  074F  3420               	retlw	32	;' '
   626  0750  3463               	retlw	99	;'c'
   627  0751  346F               	retlw	111	;'o'
   628  0752  346E               	retlw	110	;'n'
   629  0753  3420               	retlw	32	;' '
   630  0754  3420               	retlw	32	;' '
   631  0755  3400               	retlw	0
   632  0756                     STR_10:
   633  0756  3433               	retlw	51	;'3'
   634  0757  3430               	retlw	48	;'0'
   635  0758  3400               	retlw	0
   636  0759                     STR_12:
   637  0759  3436               	retlw	54	;'6'
   638  075A  3430               	retlw	48	;'0'
   639  075B  3400               	retlw	0
   640  075C                     STR_9:
   641  075C  3431               	retlw	49	;'1'
   642  075D  3435               	retlw	53	;'5'
   643  075E  3400               	retlw	0
   644  075F                     STR_11:
   645  075F  3434               	retlw	52	;'4'
   646  0760  3435               	retlw	53	;'5'
   647  0761  3400               	retlw	0
   648  06B2                     
   649                           	psect	cinit
   650  000F                     start_initialization:	
   651                           ; #config settings
   652                           
   653  000F                     __initialization:
   654                           
   655                           ; Clear objects allocated to COMMON
   656  000F  01F0               	clrf	__pbssCOMMON& (0+127)
   657  0010  01F1               	clrf	(__pbssCOMMON+1)& (0+127)
   658  0011  01F2               	clrf	(__pbssCOMMON+2)& (0+127)
   659  0012  01F3               	clrf	(__pbssCOMMON+3)& (0+127)
   660  0013  01F4               	clrf	(__pbssCOMMON+4)& (0+127)
   661  0014  01F5               	clrf	(__pbssCOMMON+5)& (0+127)
   662  0015  01F6               	clrf	(__pbssCOMMON+6)& (0+127)
   663                           
   664                           ; Clear objects allocated to BANK0
   665  0016  1283               	bcf	3,5	;RP0=0, select bank0
   666  0017  1303               	bcf	3,6	;RP1=0, select bank0
   667  0018  01A0               	clrf	__pbssBANK0& (0+127)
   668  0019  01A1               	clrf	(__pbssBANK0+1)& (0+127)
   669  001A  01A2               	clrf	(__pbssBANK0+2)& (0+127)
   670  001B                     end_of_initialization:	
   671                           ;End of C runtime variable initialization code
   672                           
   673  001B                     __end_of__initialization:
   674  001B  0183               	clrf	3
   675  001C  120A  118A  281F   	ljmp	_main	;jump to C main() function
   676                           
   677                           	psect	bssCOMMON
   678  0070                     __pbssCOMMON:
   679  0070                     _nueva_hora:
   680  0070                     	ds	1
   681  0071                     _user1:
   682  0071                     	ds	1
   683  0072                     _ventana:
   684  0072                     	ds	1
   685  0073                     _valor:
   686  0073                     	ds	1
   687  0074                     _escala:
   688  0074                     	ds	1
   689  0075                     _minuto:
   690  0075                     	ds	1
   691  0076                     _hora:
   692  0076                     	ds	1
   693                           
   694                           	psect	bssBANK0
   695  0020                     __pbssBANK0:
   696  0020                     _nueva_min:
   697  0020                     	ds	1
   698  0021                     _user3:
   699  0021                     	ds	1
   700  0022                     _user2:
   701  0022                     	ds	1
   702                           
   703                           	psect	cstackCOMMON
   704  0077                     __pcstackCOMMON:
   705  0077                     ?_USART_Rx:
   706  0077                     ?_isr:	
   707                           ; 1 bytes @ 0x0
   708                           
   709  0077                     ??_isr:	
   710                           ; 1 bytes @ 0x0
   711                           
   712  0077                     ?_main:	
   713                           ; 1 bytes @ 0x0
   714                           
   715  0077                     ?_USART_Tx:	
   716                           ; 1 bytes @ 0x0
   717                           
   718                           
   719                           ; 1 bytes @ 0x0
   720  0077                     	ds	2
   721  0079                     ??_USART_Rx:
   722  0079                     ??_USART_Tx:	
   723                           ; 1 bytes @ 0x2
   724                           
   725  0079                     USART_Tx@data:	
   726                           ; 1 bytes @ 0x2
   727                           
   728                           
   729                           ; 1 bytes @ 0x2
   730  0079                     	ds	1
   731  007A                     ?_USART_Cadena:
   732  007A                     USART_Cadena@str:	
   733                           ; 1 bytes @ 0x3
   734                           
   735                           
   736                           ; 2 bytes @ 0x3
   737  007A                     	ds	2
   738  007C                     ??_USART_Cadena:
   739                           
   740                           	psect	cstackBANK0
   741  0023                     __pcstackBANK0:	
   742                           ; 1 bytes @ 0x5
   743                           
   744  0023                     ??_main:
   745                           
   746                           ; 1 bytes @ 0x0
   747  0023                     	ds	2
   748                           
   749                           	psect	maintext
   750  001F                     __pmaintext:	
   751 ;;
   752 ;;Main: autosize = 0, tempsize = 2, incstack = 0, save=0
   753 ;;
   754 ;; *************** function _main *****************
   755 ;; Defined at:
   756 ;;		line 66 in file "PROYECTO.c"
   757 ;; Parameters:    Size  Location     Type
   758 ;;		None
   759 ;; Auto vars:     Size  Location     Type
   760 ;;		None
   761 ;; Return value:  Size  Location     Type
   762 ;;                  1    wreg      void 
   763 ;; Registers used:
   764 ;;		wreg, fsr0l, fsr0h, status,2, status,0, btemp+1, pclath, cstack
   765 ;; Tracked objects:
   766 ;;		On entry : B00/0
   767 ;;		On exit  : 0/0
   768 ;;		Unchanged: 0/0
   769 ;; Data sizes:     COMMON   BANK0   BANK1   BANK3   BANK2
   770 ;;      Params:         0       0       0       0       0
   771 ;;      Locals:         0       0       0       0       0
   772 ;;      Temps:          0       2       0       0       0
   773 ;;      Totals:         0       2       0       0       0
   774 ;;Total ram usage:        2 bytes
   775 ;; Hardware stack levels required when called:    3
   776 ;; This function calls:
   777 ;;		_USART_Cadena
   778 ;;		_USART_Rx
   779 ;; This function is called by:
   780 ;;		Startup code after reset
   781 ;; This function uses a non-reentrant model
   782 ;;
   783                           
   784                           
   785                           ;psect for function _main
   786  001F                     _main:
   787  001F                     l2026:	
   788                           ;incstack = 0
   789                           ; Regs used in _main: [wreg-fsr0h+status,2+status,0+btemp+1+pclath+cstack]
   790                           
   791                           
   792                           ;PROYECTO.c: 67:     ANSEL = 0x00;
   793  001F  1683               	bsf	3,5	;RP0=1, select bank3
   794  0020  1703               	bsf	3,6	;RP1=1, select bank3
   795  0021  0188               	clrf	8	;volatile
   796                           
   797                           ;PROYECTO.c: 68:     ANSELH = 0x00;
   798  0022  0189               	clrf	9	;volatile
   799                           
   800                           ;PROYECTO.c: 70:     TRISA = 0x00;
   801  0023  1683               	bsf	3,5	;RP0=1, select bank1
   802  0024  1303               	bcf	3,6	;RP1=0, select bank1
   803  0025  0185               	clrf	5	;volatile
   804  0026                     l2028:
   805                           
   806                           ;PROYECTO.c: 71:     TRISB = 0xff;
   807  0026  30FF               	movlw	255
   808  0027  0086               	movwf	6	;volatile
   809  0028                     l2030:
   810                           
   811                           ;PROYECTO.c: 72:     TRISD = 0x00;
   812  0028  0188               	clrf	8	;volatile
   813                           
   814                           ;PROYECTO.c: 73:     TRISE = 0b0011;
   815  0029  3003               	movlw	3
   816  002A  0089               	movwf	9	;volatile
   817  002B                     l2032:
   818                           
   819                           ;PROYECTO.c: 76:     ADCON1bits.ADFM = 0;
   820  002B  139F               	bcf	31,7	;volatile
   821  002C                     l2034:
   822                           
   823                           ;PROYECTO.c: 77:     ADCON1bits.VCFG0 = 0;
   824  002C  121F               	bcf	31,4	;volatile
   825  002D                     l2036:
   826                           
   827                           ;PROYECTO.c: 78:     ADCON1bits.VCFG1 = 0;
   828  002D  129F               	bcf	31,5	;volatile
   829  002E                     l2038:
   830                           
   831                           ;PROYECTO.c: 79:     ADCON0bits.ADCS0 = 1;
   832  002E  1283               	bcf	3,5	;RP0=0, select bank0
   833  002F  1303               	bcf	3,6	;RP1=0, select bank0
   834  0030  171F               	bsf	31,6	;volatile
   835  0031                     l2040:
   836                           
   837                           ;PROYECTO.c: 80:     ADCON0bits.ADCS1 = 0;
   838  0031  139F               	bcf	31,7	;volatile
   839  0032                     l2042:
   840                           
   841                           ;PROYECTO.c: 81:     ADCON0bits.CHS = 5;
   842  0032  081F               	movf	31,w	;volatile
   843  0033  39C3               	andlw	-61
   844  0034  3814               	iorlw	20
   845  0035  009F               	movwf	31	;volatile
   846  0036                     l2044:
   847                           
   848                           ;PROYECTO.c: 82:     _delay((unsigned long)((100)*(4000000/4000000.0)));
   849  0036  3020               	movlw	32
   850  0037  1283               	bcf	3,5	;RP0=0, select bank0
   851  0038  1303               	bcf	3,6	;RP1=0, select bank0
   852  0039  00A3               	movwf	??_main
   853  003A                     u3507:
   854  003A  0BA3               	decfsz	??_main,f
   855  003B  283A               	goto	u3507
   856  003C  0000               	nop
   857  003D                     l2046:
   858                           
   859                           ;PROYECTO.c: 83:     ADCON0bits.ADON = 1;
   860  003D  1283               	bcf	3,5	;RP0=0, select bank0
   861  003E  1303               	bcf	3,6	;RP1=0, select bank0
   862  003F  141F               	bsf	31,0	;volatile
   863  0040                     l2048:
   864                           
   865                           ;PROYECTO.c: 85:     OPTION_REGbits.nRBPU = 0;
   866  0040  1683               	bsf	3,5	;RP0=1, select bank1
   867  0041  1303               	bcf	3,6	;RP1=0, select bank1
   868  0042  1381               	bcf	1,7	;volatile
   869  0043                     l2050:
   870                           
   871                           ;PROYECTO.c: 86:     WPUBbits.WPUB0 = 1;
   872  0043  1415               	bsf	21,0	;volatile
   873  0044                     l2052:
   874                           
   875                           ;PROYECTO.c: 87:     WPUBbits.WPUB1 = 1;
   876  0044  1495               	bsf	21,1	;volatile
   877  0045                     l2054:
   878                           
   879                           ;PROYECTO.c: 88:     WPUBbits.WPUB2 = 1;
   880  0045  1515               	bsf	21,2	;volatile
   881                           
   882                           ;PROYECTO.c: 91:     OSCCONbits.IRCF = 0b110;
   883  0046  080F               	movf	15,w	;volatile
   884  0047  398F               	andlw	-113
   885  0048  3860               	iorlw	96
   886  0049  008F               	movwf	15	;volatile
   887  004A                     l2056:
   888                           
   889                           ;PROYECTO.c: 92:     OSCCONbits.SCS = 1;
   890  004A  140F               	bsf	15,0	;volatile
   891  004B                     l2058:
   892                           
   893                           ;PROYECTO.c: 95:     OPTION_REGbits.T0CS = 0;
   894  004B  1281               	bcf	1,5	;volatile
   895  004C                     l2060:
   896                           
   897                           ;PROYECTO.c: 96:     OPTION_REGbits.PSA = 0;
   898  004C  1181               	bcf	1,3	;volatile
   899                           
   900                           ;PROYECTO.c: 97:     OPTION_REGbits.PS = 0b111;
   901  004D  3007               	movlw	7
   902  004E  0481               	iorwf	1,f	;volatile
   903  004F                     l2062:
   904                           
   905                           ;PROYECTO.c: 98:     TMR0 = 78;
   906  004F  304E               	movlw	78
   907  0050  1283               	bcf	3,5	;RP0=0, select bank0
   908  0051  1303               	bcf	3,6	;RP1=0, select bank0
   909  0052  0081               	movwf	1	;volatile
   910  0053                     l2064:
   911                           
   912                           ;PROYECTO.c: 101:     TXSTAbits.SYNC = 0;
   913  0053  1683               	bsf	3,5	;RP0=1, select bank1
   914  0054  1303               	bcf	3,6	;RP1=0, select bank1
   915  0055  1218               	bcf	24,4	;volatile
   916  0056                     l2066:
   917                           
   918                           ;PROYECTO.c: 102:     TXSTAbits.BRGH = 1;
   919  0056  1518               	bsf	24,2	;volatile
   920  0057                     l2068:
   921                           
   922                           ;PROYECTO.c: 103:     BAUDCTLbits.BRG16 = 1;
   923  0057  1683               	bsf	3,5	;RP0=1, select bank3
   924  0058  1703               	bsf	3,6	;RP1=1, select bank3
   925  0059  1587               	bsf	7,3	;volatile
   926  005A                     l2070:
   927                           
   928                           ;PROYECTO.c: 105:     SPBRG = 103;
   929  005A  3067               	movlw	103
   930  005B  1683               	bsf	3,5	;RP0=1, select bank1
   931  005C  1303               	bcf	3,6	;RP1=0, select bank1
   932  005D  0099               	movwf	25	;volatile
   933  005E                     l2072:
   934                           
   935                           ;PROYECTO.c: 106:     SPBRGH = 0;
   936  005E  019A               	clrf	26	;volatile
   937  005F                     l2074:
   938                           
   939                           ;PROYECTO.c: 108:     RCSTAbits.SPEN = 1;
   940  005F  1283               	bcf	3,5	;RP0=0, select bank0
   941  0060  1303               	bcf	3,6	;RP1=0, select bank0
   942  0061  1798               	bsf	24,7	;volatile
   943  0062                     l2076:
   944                           
   945                           ;PROYECTO.c: 109:     RCSTAbits.RX9 = 0;
   946  0062  1318               	bcf	24,6	;volatile
   947  0063                     l2078:
   948                           
   949                           ;PROYECTO.c: 110:     RCSTAbits.CREN = 1;
   950  0063  1618               	bsf	24,4	;volatile
   951  0064                     l2080:
   952                           
   953                           ;PROYECTO.c: 111:     TXSTAbits.TXEN = 1;
   954  0064  1683               	bsf	3,5	;RP0=1, select bank1
   955  0065  1303               	bcf	3,6	;RP1=0, select bank1
   956  0066  1698               	bsf	24,5	;volatile
   957  0067                     l2082:
   958                           
   959                           ;PROYECTO.c: 113:     INTCONbits.GIE = 1;
   960  0067  178B               	bsf	11,7	;volatile
   961  0068                     l2084:
   962                           
   963                           ;PROYECTO.c: 114:     INTCONbits.T0IE = 0;
   964  0068  128B               	bcf	11,5	;volatile
   965  0069                     l2086:
   966                           
   967                           ;PROYECTO.c: 115:     INTCONbits.T0IF = 0;
   968  0069  110B               	bcf	11,2	;volatile
   969  006A                     l2088:
   970                           
   971                           ;PROYECTO.c: 119:     ADCON0bits.GO = 1;
   972  006A  1283               	bcf	3,5	;RP0=0, select bank0
   973  006B  1303               	bcf	3,6	;RP1=0, select bank0
   974  006C  149F               	bsf	31,1	;volatile
   975  006D                     l2090:
   976                           
   977                           ;PROYECTO.c: 121:     PORTA = 0;
   978  006D  0185               	clrf	5	;volatile
   979  006E                     l2092:
   980                           
   981                           ;PROYECTO.c: 122:     PORTB = 0;
   982  006E  0186               	clrf	6	;volatile
   983  006F                     l2094:
   984                           
   985                           ;PROYECTO.c: 123:     PORTC = 0;
   986  006F  0187               	clrf	7	;volatile
   987  0070                     l2096:
   988                           
   989                           ;PROYECTO.c: 124:     PORTD = 0;
   990  0070  0188               	clrf	8	;volatile
   991  0071                     l2098:
   992                           
   993                           ;PROYECTO.c: 125:     PORTE = 0;
   994  0071  0189               	clrf	9	;volatile
   995  0072                     l2100:
   996                           
   997                           ;PROYECTO.c: 127:     ventana = 1;
   998  0072  01F2               	clrf	_ventana
   999  0073  0AF2               	incf	_ventana,f
  1000  0074                     l2102:
  1001                           
  1002                           ;PROYECTO.c: 131:        if (T0IF == 1) {
  1003  0074  1D0B               	btfss	11,2	;volatile
  1004  0075  2877               	goto	u2351
  1005  0076  2878               	goto	u2350
  1006  0077                     u2351:
  1007  0077  28CD               	goto	l2140
  1008  0078                     u2350:
  1009  0078                     l2104:
  1010                           
  1011                           ;PROYECTO.c: 132:             if(!RB0){
  1012  0078  1806               	btfsc	6,0	;volatile
  1013  0079  287B               	goto	u2361
  1014  007A  287C               	goto	u2360
  1015  007B                     u2361:
  1016  007B  288E               	goto	l112
  1017  007C                     u2360:
  1018  007C                     l2106:
  1019                           
  1020                           ;PROYECTO.c: 133:                 RD0 = 1;
  1021  007C  1408               	bsf	8,0	;volatile
  1022  007D                     l2108:
  1023                           
  1024                           ;PROYECTO.c: 134:                 _delay((unsigned long)((2)*(4000000/4000.0)));
  1025  007D  3003               	movlw	3
  1026  007E  1283               	bcf	3,5	;RP0=0, select bank0
  1027  007F  1303               	bcf	3,6	;RP1=0, select bank0
  1028  0080  00A4               	movwf	??_main+1
  1029  0081  3097               	movlw	151
  1030  0082  00A3               	movwf	??_main
  1031  0083                     u3517:
  1032  0083  0BA3               	decfsz	??_main,f
  1033  0084  2883               	goto	u3517
  1034  0085  0BA4               	decfsz	??_main+1,f
  1035  0086  2883               	goto	u3517
  1036  0087                     l2110:
  1037                           
  1038                           ;PROYECTO.c: 135:                 RD0 = 0;
  1039  0087  1283               	bcf	3,5	;RP0=0, select bank0
  1040  0088  1303               	bcf	3,6	;RP1=0, select bank0
  1041  0089  1008               	bcf	8,0	;volatile
  1042                           
  1043                           ;PROYECTO.c: 136:                 TMR0 = 70;
  1044  008A  3046               	movlw	70
  1045  008B  0081               	movwf	1	;volatile
  1046  008C                     l2112:
  1047                           
  1048                           ;PROYECTO.c: 137:                 INTCONbits.T0IF = 0;
  1049  008C  110B               	bcf	11,2	;volatile
  1050                           
  1051                           ;PROYECTO.c: 138:             }
  1052  008D  28CD               	goto	l2140
  1053  008E                     l112:	
  1054                           ;PROYECTO.c: 139:             else if(!RB1){
  1055                           
  1056  008E  1886               	btfsc	6,1	;volatile
  1057  008F  2891               	goto	u2371
  1058  0090  2892               	goto	u2370
  1059  0091                     u2371:
  1060  0091  28A4               	goto	l114
  1061  0092                     u2370:
  1062  0092                     l2114:
  1063                           
  1064                           ;PROYECTO.c: 140:                 RD1 = 1;
  1065  0092  1488               	bsf	8,1	;volatile
  1066  0093                     l2116:
  1067                           
  1068                           ;PROYECTO.c: 141:                 _delay((unsigned long)((2)*(4000000/4000.0)));
  1069  0093  3003               	movlw	3
  1070  0094  1283               	bcf	3,5	;RP0=0, select bank0
  1071  0095  1303               	bcf	3,6	;RP1=0, select bank0
  1072  0096  00A4               	movwf	??_main+1
  1073  0097  3097               	movlw	151
  1074  0098  00A3               	movwf	??_main
  1075  0099                     u3527:
  1076  0099  0BA3               	decfsz	??_main,f
  1077  009A  2899               	goto	u3527
  1078  009B  0BA4               	decfsz	??_main+1,f
  1079  009C  2899               	goto	u3527
  1080  009D                     l2118:
  1081                           
  1082                           ;PROYECTO.c: 142:                 RD1 = 0;
  1083  009D  1283               	bcf	3,5	;RP0=0, select bank0
  1084  009E  1303               	bcf	3,6	;RP1=0, select bank0
  1085  009F  1088               	bcf	8,1	;volatile
  1086                           
  1087                           ;PROYECTO.c: 143:                 TMR0 = 70;
  1088  00A0  3046               	movlw	70
  1089  00A1  0081               	movwf	1	;volatile
  1090  00A2                     l2120:
  1091                           
  1092                           ;PROYECTO.c: 144:                 INTCONbits.T0IF = 0;
  1093  00A2  110B               	bcf	11,2	;volatile
  1094                           
  1095                           ;PROYECTO.c: 145:             }
  1096  00A3  28CD               	goto	l2140
  1097  00A4                     l114:	
  1098                           ;PROYECTO.c: 146:             else if(!RB2){
  1099                           
  1100  00A4  1906               	btfsc	6,2	;volatile
  1101  00A5  28A7               	goto	u2381
  1102  00A6  28A8               	goto	u2380
  1103  00A7                     u2381:
  1104  00A7  28BA               	goto	l116
  1105  00A8                     u2380:
  1106  00A8                     l2122:
  1107                           
  1108                           ;PROYECTO.c: 147:                 RD2 = 1;
  1109  00A8  1508               	bsf	8,2	;volatile
  1110  00A9                     l2124:
  1111                           
  1112                           ;PROYECTO.c: 148:                 _delay((unsigned long)((2)*(4000000/4000.0)));
  1113  00A9  3003               	movlw	3
  1114  00AA  1283               	bcf	3,5	;RP0=0, select bank0
  1115  00AB  1303               	bcf	3,6	;RP1=0, select bank0
  1116  00AC  00A4               	movwf	??_main+1
  1117  00AD  3097               	movlw	151
  1118  00AE  00A3               	movwf	??_main
  1119  00AF                     u3537:
  1120  00AF  0BA3               	decfsz	??_main,f
  1121  00B0  28AF               	goto	u3537
  1122  00B1  0BA4               	decfsz	??_main+1,f
  1123  00B2  28AF               	goto	u3537
  1124  00B3                     l2126:
  1125                           
  1126                           ;PROYECTO.c: 149:                 RD2 = 0;
  1127  00B3  1283               	bcf	3,5	;RP0=0, select bank0
  1128  00B4  1303               	bcf	3,6	;RP1=0, select bank0
  1129  00B5  1108               	bcf	8,2	;volatile
  1130                           
  1131                           ;PROYECTO.c: 150:                 TMR0 = 70;
  1132  00B6  3046               	movlw	70
  1133  00B7  0081               	movwf	1	;volatile
  1134  00B8                     l2128:
  1135                           
  1136                           ;PROYECTO.c: 151:                 INTCONbits.T0IF = 0;
  1137  00B8  110B               	bcf	11,2	;volatile
  1138                           
  1139                           ;PROYECTO.c: 152:             }
  1140  00B9  28CD               	goto	l2140
  1141  00BA                     l116:	
  1142                           ;PROYECTO.c: 153:             else{
  1143                           
  1144                           
  1145                           ;PROYECTO.c: 154:                 RD0 = 1;
  1146  00BA  1408               	bsf	8,0	;volatile
  1147                           
  1148                           ;PROYECTO.c: 155:                 RD1 = 1;
  1149  00BB  1488               	bsf	8,1	;volatile
  1150                           
  1151                           ;PROYECTO.c: 156:                 RD2 = 1;
  1152  00BC  1508               	bsf	8,2	;volatile
  1153  00BD                     l2130:
  1154                           
  1155                           ;PROYECTO.c: 157:                 _delay((unsigned long)((1)*(4000000/4000.0)));
  1156  00BD  30C7               	movlw	199
  1157  00BE  1283               	bcf	3,5	;RP0=0, select bank0
  1158  00BF  1303               	bcf	3,6	;RP1=0, select bank0
  1159  00C0  00A3               	movwf	??_main
  1160  00C1                     u3547:
  1161  00C1  28C2               	nop2
  1162  00C2  0BA3               	decfsz	??_main,f
  1163  00C3  28C1               	goto	u3547
  1164  00C4  28C5               	nop2
  1165  00C5                     l2132:
  1166                           
  1167                           ;PROYECTO.c: 158:                 RD1 = 0;
  1168  00C5  1283               	bcf	3,5	;RP0=0, select bank0
  1169  00C6  1303               	bcf	3,6	;RP1=0, select bank0
  1170  00C7  1088               	bcf	8,1	;volatile
  1171  00C8                     l2134:
  1172                           
  1173                           ;PROYECTO.c: 159:                 RD2 = 0;
  1174  00C8  1108               	bcf	8,2	;volatile
  1175  00C9                     l2136:
  1176                           
  1177                           ;PROYECTO.c: 160:                 RD0 = 0;
  1178  00C9  1008               	bcf	8,0	;volatile
  1179                           
  1180                           ;PROYECTO.c: 161:                 TMR0 = 74;
  1181  00CA  304A               	movlw	74
  1182  00CB  0081               	movwf	1	;volatile
  1183  00CC                     l2138:
  1184                           
  1185                           ;PROYECTO.c: 162:                 INTCONbits.T0IF = 0;
  1186  00CC  110B               	bcf	11,2	;volatile
  1187  00CD                     l2140:
  1188                           
  1189                           ;PROYECTO.c: 166:        if(ADCON0bits.GO == 0){
  1190  00CD  189F               	btfsc	31,1	;volatile
  1191  00CE  28D0               	goto	u2391
  1192  00CF  28D1               	goto	u2390
  1193  00D0                     u2391:
  1194  00D0  2ADC               	goto	l118
  1195  00D1                     u2390:
  1196  00D1                     l2142:
  1197                           
  1198                           ;PROYECTO.c: 168:             if(ADCON0bits.CHS == 6){
  1199  00D1  0C1F               	rrf	31,w	;volatile
  1200  00D2  00A3               	movwf	??_main
  1201  00D3  0C23               	rrf	??_main,w
  1202  00D4  390F               	andlw	15
  1203  00D5  3A06               	xorlw	6
  1204  00D6  1D03               	skipz
  1205  00D7  28D9               	goto	u2401
  1206  00D8  28DA               	goto	u2400
  1207  00D9                     u2401:
  1208  00D9  2929               	goto	l2172
  1209  00DA                     u2400:
  1210  00DA                     l2144:
  1211                           
  1212                           ;PROYECTO.c: 169:                 escala = ADRESH;
  1213  00DA  081E               	movf	30,w	;volatile
  1214  00DB  00A3               	movwf	??_main
  1215  00DC  0823               	movf	??_main,w
  1216  00DD  00F4               	movwf	_escala
  1217                           
  1218                           ;PROYECTO.c: 170:                 if (escala >= 0 && escala <=42 ){
  1219  00DE  302B               	movlw	43
  1220  00DF  0274               	subwf	_escala,w
  1221  00E0  1803               	skipnc
  1222  00E1  28E3               	goto	u2411
  1223  00E2  28E4               	goto	u2410
  1224  00E3                     u2411:
  1225  00E3  28E6               	goto	l2148
  1226  00E4                     u2410:
  1227  00E4                     l2146:
  1228                           
  1229                           ;PROYECTO.c: 171:                     minuto = 0;
  1230  00E4  01F5               	clrf	_minuto
  1231                           
  1232                           ;PROYECTO.c: 172:                 }else if(escala >= 43 && escala <= 84 ){
  1233  00E5  2924               	goto	l2170
  1234  00E6                     l2148:
  1235  00E6  302B               	movlw	43
  1236  00E7  0274               	subwf	_escala,w
  1237  00E8  1C03               	skipc
  1238  00E9  28EB               	goto	u2421
  1239  00EA  28EC               	goto	u2420
  1240  00EB                     u2421:
  1241  00EB  28F7               	goto	l2154
  1242  00EC                     u2420:
  1243  00EC                     l2150:
  1244  00EC  3055               	movlw	85
  1245  00ED  0274               	subwf	_escala,w
  1246  00EE  1803               	skipnc
  1247  00EF  28F1               	goto	u2431
  1248  00F0  28F2               	goto	u2430
  1249  00F1                     u2431:
  1250  00F1  28F7               	goto	l2154
  1251  00F2                     u2430:
  1252  00F2                     l2152:
  1253                           
  1254                           ;PROYECTO.c: 173:                     minuto = 15;
  1255  00F2  300F               	movlw	15
  1256  00F3  00A3               	movwf	??_main
  1257  00F4  0823               	movf	??_main,w
  1258  00F5  00F5               	movwf	_minuto
  1259                           
  1260                           ;PROYECTO.c: 174:                 }else if(escala >= 85 && escala <= 126 ){
  1261  00F6  2924               	goto	l2170
  1262  00F7                     l2154:
  1263  00F7  3055               	movlw	85
  1264  00F8  0274               	subwf	_escala,w
  1265  00F9  1C03               	skipc
  1266  00FA  28FC               	goto	u2441
  1267  00FB  28FD               	goto	u2440
  1268  00FC                     u2441:
  1269  00FC  2908               	goto	l2160
  1270  00FD                     u2440:
  1271  00FD                     l2156:
  1272  00FD  307F               	movlw	127
  1273  00FE  0274               	subwf	_escala,w
  1274  00FF  1803               	skipnc
  1275  0100  2902               	goto	u2451
  1276  0101  2903               	goto	u2450
  1277  0102                     u2451:
  1278  0102  2908               	goto	l2160
  1279  0103                     u2450:
  1280  0103                     l2158:
  1281                           
  1282                           ;PROYECTO.c: 175:                     minuto = 30;
  1283  0103  301E               	movlw	30
  1284  0104  00A3               	movwf	??_main
  1285  0105  0823               	movf	??_main,w
  1286  0106  00F5               	movwf	_minuto
  1287                           
  1288                           ;PROYECTO.c: 176:                 }else if(escala >= 127 && escala <= 168 ){
  1289  0107  2924               	goto	l2170
  1290  0108                     l2160:
  1291  0108  307F               	movlw	127
  1292  0109  0274               	subwf	_escala,w
  1293  010A  1C03               	skipc
  1294  010B  290D               	goto	u2461
  1295  010C  290E               	goto	u2460
  1296  010D                     u2461:
  1297  010D  2919               	goto	l2166
  1298  010E                     u2460:
  1299  010E                     l2162:
  1300  010E  30A9               	movlw	169
  1301  010F  0274               	subwf	_escala,w
  1302  0110  1803               	skipnc
  1303  0111  2913               	goto	u2471
  1304  0112  2914               	goto	u2470
  1305  0113                     u2471:
  1306  0113  2919               	goto	l2166
  1307  0114                     u2470:
  1308  0114                     l2164:
  1309                           
  1310                           ;PROYECTO.c: 177:                     minuto = 45;
  1311  0114  302D               	movlw	45
  1312  0115  00A3               	movwf	??_main
  1313  0116  0823               	movf	??_main,w
  1314  0117  00F5               	movwf	_minuto
  1315                           
  1316                           ;PROYECTO.c: 178:                 }else if(escala >= 210 && escala <= 255 ){
  1317  0118  2924               	goto	l2170
  1318  0119                     l2166:
  1319  0119  30D2               	movlw	210
  1320  011A  0274               	subwf	_escala,w
  1321  011B  1C03               	skipc
  1322  011C  291E               	goto	u2481
  1323  011D  291F               	goto	u2480
  1324  011E                     u2481:
  1325  011E  2924               	goto	l123
  1326  011F                     u2480:
  1327  011F                     l2168:
  1328                           
  1329                           ;PROYECTO.c: 179:                     minuto = 60;
  1330  011F  303C               	movlw	60
  1331  0120  00A3               	movwf	??_main
  1332  0121  0823               	movf	??_main,w
  1333  0122  00F5               	movwf	_minuto
  1334  0123  2924               	goto	l2170
  1335  0124                     l123:
  1336  0124                     l2170:
  1337                           
  1338                           ;PROYECTO.c: 182:                 ADCON0bits.CHS = 5;
  1339  0124  081F               	movf	31,w	;volatile
  1340  0125  39C3               	andlw	-61
  1341  0126  3814               	iorlw	20
  1342  0127  009F               	movwf	31	;volatile
  1343                           
  1344                           ;PROYECTO.c: 183:             }
  1345  0128  2AD2               	goto	l2322
  1346  0129                     l2172:
  1347  0129  0C1F               	rrf	31,w	;volatile
  1348  012A  00A3               	movwf	??_main
  1349  012B  0C23               	rrf	??_main,w
  1350  012C  390F               	andlw	15
  1351  012D  3A05               	xorlw	5
  1352  012E  1D03               	skipz
  1353  012F  2931               	goto	u2491
  1354  0130  2932               	goto	u2490
  1355  0131                     u2491:
  1356  0131  2AD2               	goto	l2322
  1357  0132                     u2490:
  1358  0132                     l2174:
  1359                           
  1360                           ;PROYECTO.c: 185:                 escala = ADRESH;
  1361  0132  081E               	movf	30,w	;volatile
  1362  0133  00A3               	movwf	??_main
  1363  0134  0823               	movf	??_main,w
  1364  0135  00F4               	movwf	_escala
  1365                           
  1366                           ;PROYECTO.c: 186:                 if (escala >= 0 && escala <=10 ){
  1367  0136  300B               	movlw	11
  1368  0137  0274               	subwf	_escala,w
  1369  0138  1803               	skipnc
  1370  0139  293B               	goto	u2501
  1371  013A  293C               	goto	u2500
  1372  013B                     u2501:
  1373  013B  293E               	goto	l2178
  1374  013C                     u2500:
  1375  013C                     l2176:
  1376                           
  1377                           ;PROYECTO.c: 187:                     hora = 0;
  1378  013C  01F6               	clrf	_hora
  1379                           
  1380                           ;PROYECTO.c: 188:                 }else if(escala >= 11 && escala <=20 ){
  1381  013D  2ACE               	goto	l2320
  1382  013E                     l2178:
  1383  013E  300B               	movlw	11
  1384  013F  0274               	subwf	_escala,w
  1385  0140  1C03               	skipc
  1386  0141  2943               	goto	u2511
  1387  0142  2944               	goto	u2510
  1388  0143                     u2511:
  1389  0143  294D               	goto	l2184
  1390  0144                     u2510:
  1391  0144                     l2180:
  1392  0144  3015               	movlw	21
  1393  0145  0274               	subwf	_escala,w
  1394  0146  1803               	skipnc
  1395  0147  2949               	goto	u2521
  1396  0148  294A               	goto	u2520
  1397  0149                     u2521:
  1398  0149  294D               	goto	l2184
  1399  014A                     u2520:
  1400  014A                     l2182:
  1401                           
  1402                           ;PROYECTO.c: 189:                     hora = 1;
  1403  014A  01F6               	clrf	_hora
  1404  014B  0AF6               	incf	_hora,f
  1405                           
  1406                           ;PROYECTO.c: 190:                 }else if(escala >= 21 && escala <=30 ){
  1407  014C  2ACE               	goto	l2320
  1408  014D                     l2184:
  1409  014D  3015               	movlw	21
  1410  014E  0274               	subwf	_escala,w
  1411  014F  1C03               	skipc
  1412  0150  2952               	goto	u2531
  1413  0151  2953               	goto	u2530
  1414  0152                     u2531:
  1415  0152  295E               	goto	l2190
  1416  0153                     u2530:
  1417  0153                     l2186:
  1418  0153  301F               	movlw	31
  1419  0154  0274               	subwf	_escala,w
  1420  0155  1803               	skipnc
  1421  0156  2958               	goto	u2541
  1422  0157  2959               	goto	u2540
  1423  0158                     u2541:
  1424  0158  295E               	goto	l2190
  1425  0159                     u2540:
  1426  0159                     l2188:
  1427                           
  1428                           ;PROYECTO.c: 191:                     hora = 2;
  1429  0159  3002               	movlw	2
  1430  015A  00A3               	movwf	??_main
  1431  015B  0823               	movf	??_main,w
  1432  015C  00F6               	movwf	_hora
  1433                           
  1434                           ;PROYECTO.c: 192:                 }else if(escala >= 31 && escala <=40 ){
  1435  015D  2ACE               	goto	l2320
  1436  015E                     l2190:
  1437  015E  301F               	movlw	31
  1438  015F  0274               	subwf	_escala,w
  1439  0160  1C03               	skipc
  1440  0161  2963               	goto	u2551
  1441  0162  2964               	goto	u2550
  1442  0163                     u2551:
  1443  0163  296F               	goto	l2196
  1444  0164                     u2550:
  1445  0164                     l2192:
  1446  0164  3029               	movlw	41
  1447  0165  0274               	subwf	_escala,w
  1448  0166  1803               	skipnc
  1449  0167  2969               	goto	u2561
  1450  0168  296A               	goto	u2560
  1451  0169                     u2561:
  1452  0169  296F               	goto	l2196
  1453  016A                     u2560:
  1454  016A                     l2194:
  1455                           
  1456                           ;PROYECTO.c: 193:                     hora = 3;
  1457  016A  3003               	movlw	3
  1458  016B  00A3               	movwf	??_main
  1459  016C  0823               	movf	??_main,w
  1460  016D  00F6               	movwf	_hora
  1461                           
  1462                           ;PROYECTO.c: 194:                 }else if(escala >= 41 && escala <=50 ){
  1463  016E  2ACE               	goto	l2320
  1464  016F                     l2196:
  1465  016F  3029               	movlw	41
  1466  0170  0274               	subwf	_escala,w
  1467  0171  1C03               	skipc
  1468  0172  2974               	goto	u2571
  1469  0173  2975               	goto	u2570
  1470  0174                     u2571:
  1471  0174  2980               	goto	l2202
  1472  0175                     u2570:
  1473  0175                     l2198:
  1474  0175  3033               	movlw	51
  1475  0176  0274               	subwf	_escala,w
  1476  0177  1803               	skipnc
  1477  0178  297A               	goto	u2581
  1478  0179  297B               	goto	u2580
  1479  017A                     u2581:
  1480  017A  2980               	goto	l2202
  1481  017B                     u2580:
  1482  017B                     l2200:
  1483                           
  1484                           ;PROYECTO.c: 195:                     hora = 4;
  1485  017B  3004               	movlw	4
  1486  017C  00A3               	movwf	??_main
  1487  017D  0823               	movf	??_main,w
  1488  017E  00F6               	movwf	_hora
  1489                           
  1490                           ;PROYECTO.c: 196:                 }else if(escala >= 51 && escala <=60 ){
  1491  017F  2ACE               	goto	l2320
  1492  0180                     l2202:
  1493  0180  3033               	movlw	51
  1494  0181  0274               	subwf	_escala,w
  1495  0182  1C03               	skipc
  1496  0183  2985               	goto	u2591
  1497  0184  2986               	goto	u2590
  1498  0185                     u2591:
  1499  0185  2991               	goto	l2208
  1500  0186                     u2590:
  1501  0186                     l2204:
  1502  0186  303D               	movlw	61
  1503  0187  0274               	subwf	_escala,w
  1504  0188  1803               	skipnc
  1505  0189  298B               	goto	u2601
  1506  018A  298C               	goto	u2600
  1507  018B                     u2601:
  1508  018B  2991               	goto	l2208
  1509  018C                     u2600:
  1510  018C                     l2206:
  1511                           
  1512                           ;PROYECTO.c: 197:                     hora = 5;
  1513  018C  3005               	movlw	5
  1514  018D  00A3               	movwf	??_main
  1515  018E  0823               	movf	??_main,w
  1516  018F  00F6               	movwf	_hora
  1517                           
  1518                           ;PROYECTO.c: 198:                 }else if(escala >= 61 && escala <=70 ){
  1519  0190  2ACE               	goto	l2320
  1520  0191                     l2208:
  1521  0191  303D               	movlw	61
  1522  0192  0274               	subwf	_escala,w
  1523  0193  1C03               	skipc
  1524  0194  2996               	goto	u2611
  1525  0195  2997               	goto	u2610
  1526  0196                     u2611:
  1527  0196  29A2               	goto	l2214
  1528  0197                     u2610:
  1529  0197                     l2210:
  1530  0197  3047               	movlw	71
  1531  0198  0274               	subwf	_escala,w
  1532  0199  1803               	skipnc
  1533  019A  299C               	goto	u2621
  1534  019B  299D               	goto	u2620
  1535  019C                     u2621:
  1536  019C  29A2               	goto	l2214
  1537  019D                     u2620:
  1538  019D                     l2212:
  1539                           
  1540                           ;PROYECTO.c: 199:                     hora = 6;
  1541  019D  3006               	movlw	6
  1542  019E  00A3               	movwf	??_main
  1543  019F  0823               	movf	??_main,w
  1544  01A0  00F6               	movwf	_hora
  1545                           
  1546                           ;PROYECTO.c: 200:                 }else if(escala >= 71 && escala <=80 ){
  1547  01A1  2ACE               	goto	l2320
  1548  01A2                     l2214:
  1549  01A2  3047               	movlw	71
  1550  01A3  0274               	subwf	_escala,w
  1551  01A4  1C03               	skipc
  1552  01A5  29A7               	goto	u2631
  1553  01A6  29A8               	goto	u2630
  1554  01A7                     u2631:
  1555  01A7  29B3               	goto	l2220
  1556  01A8                     u2630:
  1557  01A8                     l2216:
  1558  01A8  3051               	movlw	81
  1559  01A9  0274               	subwf	_escala,w
  1560  01AA  1803               	skipnc
  1561  01AB  29AD               	goto	u2641
  1562  01AC  29AE               	goto	u2640
  1563  01AD                     u2641:
  1564  01AD  29B3               	goto	l2220
  1565  01AE                     u2640:
  1566  01AE                     l2218:
  1567                           
  1568                           ;PROYECTO.c: 201:                     hora = 7;
  1569  01AE  3007               	movlw	7
  1570  01AF  00A3               	movwf	??_main
  1571  01B0  0823               	movf	??_main,w
  1572  01B1  00F6               	movwf	_hora
  1573                           
  1574                           ;PROYECTO.c: 202:                 }else if(escala >= 81 && escala <=90 ){
  1575  01B2  2ACE               	goto	l2320
  1576  01B3                     l2220:
  1577  01B3  3051               	movlw	81
  1578  01B4  0274               	subwf	_escala,w
  1579  01B5  1C03               	skipc
  1580  01B6  29B8               	goto	u2651
  1581  01B7  29B9               	goto	u2650
  1582  01B8                     u2651:
  1583  01B8  29C4               	goto	l2226
  1584  01B9                     u2650:
  1585  01B9                     l2222:
  1586  01B9  305B               	movlw	91
  1587  01BA  0274               	subwf	_escala,w
  1588  01BB  1803               	skipnc
  1589  01BC  29BE               	goto	u2661
  1590  01BD  29BF               	goto	u2660
  1591  01BE                     u2661:
  1592  01BE  29C4               	goto	l2226
  1593  01BF                     u2660:
  1594  01BF                     l2224:
  1595                           
  1596                           ;PROYECTO.c: 203:                     hora = 8;
  1597  01BF  3008               	movlw	8
  1598  01C0  00A3               	movwf	??_main
  1599  01C1  0823               	movf	??_main,w
  1600  01C2  00F6               	movwf	_hora
  1601                           
  1602                           ;PROYECTO.c: 204:                 }else if(escala >= 91 && escala <=100 ){
  1603  01C3  2ACE               	goto	l2320
  1604  01C4                     l2226:
  1605  01C4  305B               	movlw	91
  1606  01C5  0274               	subwf	_escala,w
  1607  01C6  1C03               	skipc
  1608  01C7  29C9               	goto	u2671
  1609  01C8  29CA               	goto	u2670
  1610  01C9                     u2671:
  1611  01C9  29D5               	goto	l2232
  1612  01CA                     u2670:
  1613  01CA                     l2228:
  1614  01CA  3065               	movlw	101
  1615  01CB  0274               	subwf	_escala,w
  1616  01CC  1803               	skipnc
  1617  01CD  29CF               	goto	u2681
  1618  01CE  29D0               	goto	u2680
  1619  01CF                     u2681:
  1620  01CF  29D5               	goto	l2232
  1621  01D0                     u2680:
  1622  01D0                     l2230:
  1623                           
  1624                           ;PROYECTO.c: 205:                     hora = 9;
  1625  01D0  3009               	movlw	9
  1626  01D1  00A3               	movwf	??_main
  1627  01D2  0823               	movf	??_main,w
  1628  01D3  00F6               	movwf	_hora
  1629                           
  1630                           ;PROYECTO.c: 206:                 }else if(escala >= 101&& escala <=110 ){
  1631  01D4  2ACE               	goto	l2320
  1632  01D5                     l2232:
  1633  01D5  3065               	movlw	101
  1634  01D6  0274               	subwf	_escala,w
  1635  01D7  1C03               	skipc
  1636  01D8  29DA               	goto	u2691
  1637  01D9  29DB               	goto	u2690
  1638  01DA                     u2691:
  1639  01DA  29E6               	goto	l2238
  1640  01DB                     u2690:
  1641  01DB                     l2234:
  1642  01DB  306F               	movlw	111
  1643  01DC  0274               	subwf	_escala,w
  1644  01DD  1803               	skipnc
  1645  01DE  29E0               	goto	u2701
  1646  01DF  29E1               	goto	u2700
  1647  01E0                     u2701:
  1648  01E0  29E6               	goto	l2238
  1649  01E1                     u2700:
  1650  01E1                     l2236:
  1651                           
  1652                           ;PROYECTO.c: 207:                     hora = 10;
  1653  01E1  300A               	movlw	10
  1654  01E2  00A3               	movwf	??_main
  1655  01E3  0823               	movf	??_main,w
  1656  01E4  00F6               	movwf	_hora
  1657                           
  1658                           ;PROYECTO.c: 208:                 }else if(escala >= 111 && escala <=120 ){
  1659  01E5  2ACE               	goto	l2320
  1660  01E6                     l2238:
  1661  01E6  306F               	movlw	111
  1662  01E7  0274               	subwf	_escala,w
  1663  01E8  1C03               	skipc
  1664  01E9  29EB               	goto	u2711
  1665  01EA  29EC               	goto	u2710
  1666  01EB                     u2711:
  1667  01EB  29F7               	goto	l2244
  1668  01EC                     u2710:
  1669  01EC                     l2240:
  1670  01EC  3079               	movlw	121
  1671  01ED  0274               	subwf	_escala,w
  1672  01EE  1803               	skipnc
  1673  01EF  29F1               	goto	u2721
  1674  01F0  29F2               	goto	u2720
  1675  01F1                     u2721:
  1676  01F1  29F7               	goto	l2244
  1677  01F2                     u2720:
  1678  01F2                     l2242:
  1679                           
  1680                           ;PROYECTO.c: 209:                     hora = 11;
  1681  01F2  300B               	movlw	11
  1682  01F3  00A3               	movwf	??_main
  1683  01F4  0823               	movf	??_main,w
  1684  01F5  00F6               	movwf	_hora
  1685                           
  1686                           ;PROYECTO.c: 210:                 }else if(escala >= 121 && escala <=130 ){
  1687  01F6  2ACE               	goto	l2320
  1688  01F7                     l2244:
  1689  01F7  3079               	movlw	121
  1690  01F8  0274               	subwf	_escala,w
  1691  01F9  1C03               	skipc
  1692  01FA  29FC               	goto	u2731
  1693  01FB  29FD               	goto	u2730
  1694  01FC                     u2731:
  1695  01FC  2A08               	goto	l2250
  1696  01FD                     u2730:
  1697  01FD                     l2246:
  1698  01FD  3083               	movlw	131
  1699  01FE  0274               	subwf	_escala,w
  1700  01FF  1803               	skipnc
  1701  0200  2A02               	goto	u2741
  1702  0201  2A03               	goto	u2740
  1703  0202                     u2741:
  1704  0202  2A08               	goto	l2250
  1705  0203                     u2740:
  1706  0203                     l2248:
  1707                           
  1708                           ;PROYECTO.c: 211:                     hora = 12;
  1709  0203  300C               	movlw	12
  1710  0204  00A3               	movwf	??_main
  1711  0205  0823               	movf	??_main,w
  1712  0206  00F6               	movwf	_hora
  1713                           
  1714                           ;PROYECTO.c: 212:                 }else if(escala >= 131 && escala <=140 ){
  1715  0207  2ACE               	goto	l2320
  1716  0208                     l2250:
  1717  0208  3083               	movlw	131
  1718  0209  0274               	subwf	_escala,w
  1719  020A  1C03               	skipc
  1720  020B  2A0D               	goto	u2751
  1721  020C  2A0E               	goto	u2750
  1722  020D                     u2751:
  1723  020D  2A19               	goto	l2256
  1724  020E                     u2750:
  1725  020E                     l2252:
  1726  020E  308D               	movlw	141
  1727  020F  0274               	subwf	_escala,w
  1728  0210  1803               	skipnc
  1729  0211  2A13               	goto	u2761
  1730  0212  2A14               	goto	u2760
  1731  0213                     u2761:
  1732  0213  2A19               	goto	l2256
  1733  0214                     u2760:
  1734  0214                     l2254:
  1735                           
  1736                           ;PROYECTO.c: 213:                     hora = 13;
  1737  0214  300D               	movlw	13
  1738  0215  00A3               	movwf	??_main
  1739  0216  0823               	movf	??_main,w
  1740  0217  00F6               	movwf	_hora
  1741                           
  1742                           ;PROYECTO.c: 214:                 }else if(escala >= 141 && escala <=150 ){
  1743  0218  2ACE               	goto	l2320
  1744  0219                     l2256:
  1745  0219  308D               	movlw	141
  1746  021A  0274               	subwf	_escala,w
  1747  021B  1C03               	skipc
  1748  021C  2A1E               	goto	u2771
  1749  021D  2A1F               	goto	u2770
  1750  021E                     u2771:
  1751  021E  2A2A               	goto	l2262
  1752  021F                     u2770:
  1753  021F                     l2258:
  1754  021F  3097               	movlw	151
  1755  0220  0274               	subwf	_escala,w
  1756  0221  1803               	skipnc
  1757  0222  2A24               	goto	u2781
  1758  0223  2A25               	goto	u2780
  1759  0224                     u2781:
  1760  0224  2A2A               	goto	l2262
  1761  0225                     u2780:
  1762  0225                     l2260:
  1763                           
  1764                           ;PROYECTO.c: 215:                     hora = 14;
  1765  0225  300E               	movlw	14
  1766  0226  00A3               	movwf	??_main
  1767  0227  0823               	movf	??_main,w
  1768  0228  00F6               	movwf	_hora
  1769                           
  1770                           ;PROYECTO.c: 216:                 }else if(escala >= 151 && escala <=160 ){
  1771  0229  2ACE               	goto	l2320
  1772  022A                     l2262:
  1773  022A  3097               	movlw	151
  1774  022B  0274               	subwf	_escala,w
  1775  022C  1C03               	skipc
  1776  022D  2A2F               	goto	u2791
  1777  022E  2A30               	goto	u2790
  1778  022F                     u2791:
  1779  022F  2A3B               	goto	l2268
  1780  0230                     u2790:
  1781  0230                     l2264:
  1782  0230  30A1               	movlw	161
  1783  0231  0274               	subwf	_escala,w
  1784  0232  1803               	skipnc
  1785  0233  2A35               	goto	u2801
  1786  0234  2A36               	goto	u2800
  1787  0235                     u2801:
  1788  0235  2A3B               	goto	l2268
  1789  0236                     u2800:
  1790  0236                     l2266:
  1791                           
  1792                           ;PROYECTO.c: 217:                     hora = 15;
  1793  0236  300F               	movlw	15
  1794  0237  00A3               	movwf	??_main
  1795  0238  0823               	movf	??_main,w
  1796  0239  00F6               	movwf	_hora
  1797                           
  1798                           ;PROYECTO.c: 218:                 }else if(escala >= 161 && escala <=170 ){
  1799  023A  2ACE               	goto	l2320
  1800  023B                     l2268:
  1801  023B  30A1               	movlw	161
  1802  023C  0274               	subwf	_escala,w
  1803  023D  1C03               	skipc
  1804  023E  2A40               	goto	u2811
  1805  023F  2A41               	goto	u2810
  1806  0240                     u2811:
  1807  0240  2A4C               	goto	l2274
  1808  0241                     u2810:
  1809  0241                     l2270:
  1810  0241  30AB               	movlw	171
  1811  0242  0274               	subwf	_escala,w
  1812  0243  1803               	skipnc
  1813  0244  2A46               	goto	u2821
  1814  0245  2A47               	goto	u2820
  1815  0246                     u2821:
  1816  0246  2A4C               	goto	l2274
  1817  0247                     u2820:
  1818  0247                     l2272:
  1819                           
  1820                           ;PROYECTO.c: 219:                     hora = 16;
  1821  0247  3010               	movlw	16
  1822  0248  00A3               	movwf	??_main
  1823  0249  0823               	movf	??_main,w
  1824  024A  00F6               	movwf	_hora
  1825                           
  1826                           ;PROYECTO.c: 220:                 }else if(escala >= 171 && escala <=180 ){
  1827  024B  2ACE               	goto	l2320
  1828  024C                     l2274:
  1829  024C  30AB               	movlw	171
  1830  024D  0274               	subwf	_escala,w
  1831  024E  1C03               	skipc
  1832  024F  2A51               	goto	u2831
  1833  0250  2A52               	goto	u2830
  1834  0251                     u2831:
  1835  0251  2A5D               	goto	l2280
  1836  0252                     u2830:
  1837  0252                     l2276:
  1838  0252  30B5               	movlw	181
  1839  0253  0274               	subwf	_escala,w
  1840  0254  1803               	skipnc
  1841  0255  2A57               	goto	u2841
  1842  0256  2A58               	goto	u2840
  1843  0257                     u2841:
  1844  0257  2A5D               	goto	l2280
  1845  0258                     u2840:
  1846  0258                     l2278:
  1847                           
  1848                           ;PROYECTO.c: 221:                     hora = 17;
  1849  0258  3011               	movlw	17
  1850  0259  00A3               	movwf	??_main
  1851  025A  0823               	movf	??_main,w
  1852  025B  00F6               	movwf	_hora
  1853                           
  1854                           ;PROYECTO.c: 222:                 }else if(escala >= 181 && escala <=190 ){
  1855  025C  2ACE               	goto	l2320
  1856  025D                     l2280:
  1857  025D  30B5               	movlw	181
  1858  025E  0274               	subwf	_escala,w
  1859  025F  1C03               	skipc
  1860  0260  2A62               	goto	u2851
  1861  0261  2A63               	goto	u2850
  1862  0262                     u2851:
  1863  0262  2A6E               	goto	l2286
  1864  0263                     u2850:
  1865  0263                     l2282:
  1866  0263  30BF               	movlw	191
  1867  0264  0274               	subwf	_escala,w
  1868  0265  1803               	skipnc
  1869  0266  2A68               	goto	u2861
  1870  0267  2A69               	goto	u2860
  1871  0268                     u2861:
  1872  0268  2A6E               	goto	l2286
  1873  0269                     u2860:
  1874  0269                     l2284:
  1875                           
  1876                           ;PROYECTO.c: 223:                     hora = 18;
  1877  0269  3012               	movlw	18
  1878  026A  00A3               	movwf	??_main
  1879  026B  0823               	movf	??_main,w
  1880  026C  00F6               	movwf	_hora
  1881                           
  1882                           ;PROYECTO.c: 224:                 }else if(escala >= 191 && escala <=200 ){
  1883  026D  2ACE               	goto	l2320
  1884  026E                     l2286:
  1885  026E  30BF               	movlw	191
  1886  026F  0274               	subwf	_escala,w
  1887  0270  1C03               	skipc
  1888  0271  2A73               	goto	u2871
  1889  0272  2A74               	goto	u2870
  1890  0273                     u2871:
  1891  0273  2A7F               	goto	l2292
  1892  0274                     u2870:
  1893  0274                     l2288:
  1894  0274  30C9               	movlw	201
  1895  0275  0274               	subwf	_escala,w
  1896  0276  1803               	skipnc
  1897  0277  2A79               	goto	u2881
  1898  0278  2A7A               	goto	u2880
  1899  0279                     u2881:
  1900  0279  2A7F               	goto	l2292
  1901  027A                     u2880:
  1902  027A                     l2290:
  1903                           
  1904                           ;PROYECTO.c: 225:                     hora = 19;
  1905  027A  3013               	movlw	19
  1906  027B  00A3               	movwf	??_main
  1907  027C  0823               	movf	??_main,w
  1908  027D  00F6               	movwf	_hora
  1909                           
  1910                           ;PROYECTO.c: 226:                 }else if(escala >= 201&& escala <=210 ){
  1911  027E  2ACE               	goto	l2320
  1912  027F                     l2292:
  1913  027F  30C9               	movlw	201
  1914  0280  0274               	subwf	_escala,w
  1915  0281  1C03               	skipc
  1916  0282  2A84               	goto	u2891
  1917  0283  2A85               	goto	u2890
  1918  0284                     u2891:
  1919  0284  2A90               	goto	l2298
  1920  0285                     u2890:
  1921  0285                     l2294:
  1922  0285  30D3               	movlw	211
  1923  0286  0274               	subwf	_escala,w
  1924  0287  1803               	skipnc
  1925  0288  2A8A               	goto	u2901
  1926  0289  2A8B               	goto	u2900
  1927  028A                     u2901:
  1928  028A  2A90               	goto	l2298
  1929  028B                     u2900:
  1930  028B                     l2296:
  1931                           
  1932                           ;PROYECTO.c: 227:                     hora = 20;
  1933  028B  3014               	movlw	20
  1934  028C  00A3               	movwf	??_main
  1935  028D  0823               	movf	??_main,w
  1936  028E  00F6               	movwf	_hora
  1937                           
  1938                           ;PROYECTO.c: 228:                 }else if(escala >= 211 && escala <=220 ){
  1939  028F  2ACE               	goto	l2320
  1940  0290                     l2298:
  1941  0290  30D3               	movlw	211
  1942  0291  0274               	subwf	_escala,w
  1943  0292  1C03               	skipc
  1944  0293  2A95               	goto	u2911
  1945  0294  2A96               	goto	u2910
  1946  0295                     u2911:
  1947  0295  2AA1               	goto	l2304
  1948  0296                     u2910:
  1949  0296                     l2300:
  1950  0296  30DD               	movlw	221
  1951  0297  0274               	subwf	_escala,w
  1952  0298  1803               	skipnc
  1953  0299  2A9B               	goto	u2921
  1954  029A  2A9C               	goto	u2920
  1955  029B                     u2921:
  1956  029B  2AA1               	goto	l2304
  1957  029C                     u2920:
  1958  029C                     l2302:
  1959                           
  1960                           ;PROYECTO.c: 229:                     hora = 21;
  1961  029C  3015               	movlw	21
  1962  029D  00A3               	movwf	??_main
  1963  029E  0823               	movf	??_main,w
  1964  029F  00F6               	movwf	_hora
  1965                           
  1966                           ;PROYECTO.c: 230:                 }else if(escala >= 221 && escala <=230 ){
  1967  02A0  2ACE               	goto	l2320
  1968  02A1                     l2304:
  1969  02A1  30DD               	movlw	221
  1970  02A2  0274               	subwf	_escala,w
  1971  02A3  1C03               	skipc
  1972  02A4  2AA6               	goto	u2931
  1973  02A5  2AA7               	goto	u2930
  1974  02A6                     u2931:
  1975  02A6  2AB2               	goto	l2310
  1976  02A7                     u2930:
  1977  02A7                     l2306:
  1978  02A7  30E7               	movlw	231
  1979  02A8  0274               	subwf	_escala,w
  1980  02A9  1803               	skipnc
  1981  02AA  2AAC               	goto	u2941
  1982  02AB  2AAD               	goto	u2940
  1983  02AC                     u2941:
  1984  02AC  2AB2               	goto	l2310
  1985  02AD                     u2940:
  1986  02AD                     l2308:
  1987                           
  1988                           ;PROYECTO.c: 231:                     hora = 22;
  1989  02AD  3016               	movlw	22
  1990  02AE  00A3               	movwf	??_main
  1991  02AF  0823               	movf	??_main,w
  1992  02B0  00F6               	movwf	_hora
  1993                           
  1994                           ;PROYECTO.c: 232:                 }else if(escala >= 231 && escala <=240 ){
  1995  02B1  2ACE               	goto	l2320
  1996  02B2                     l2310:
  1997  02B2  30E7               	movlw	231
  1998  02B3  0274               	subwf	_escala,w
  1999  02B4  1C03               	skipc
  2000  02B5  2AB7               	goto	u2951
  2001  02B6  2AB8               	goto	u2950
  2002  02B7                     u2951:
  2003  02B7  2AC3               	goto	l2316
  2004  02B8                     u2950:
  2005  02B8                     l2312:
  2006  02B8  30F1               	movlw	241
  2007  02B9  0274               	subwf	_escala,w
  2008  02BA  1803               	skipnc
  2009  02BB  2ABD               	goto	u2961
  2010  02BC  2ABE               	goto	u2960
  2011  02BD                     u2961:
  2012  02BD  2AC3               	goto	l2316
  2013  02BE                     u2960:
  2014  02BE                     l2314:
  2015                           
  2016                           ;PROYECTO.c: 233:                     hora = 23;
  2017  02BE  3017               	movlw	23
  2018  02BF  00A3               	movwf	??_main
  2019  02C0  0823               	movf	??_main,w
  2020  02C1  00F6               	movwf	_hora
  2021                           
  2022                           ;PROYECTO.c: 234:                 }else if(escala >= 241 && escala <=255 ){
  2023  02C2  2ACE               	goto	l2320
  2024  02C3                     l2316:
  2025  02C3  30F1               	movlw	241
  2026  02C4  0274               	subwf	_escala,w
  2027  02C5  1C03               	skipc
  2028  02C6  2AC8               	goto	u2971
  2029  02C7  2AC9               	goto	u2970
  2030  02C8                     u2971:
  2031  02C8  2ACE               	goto	l174
  2032  02C9                     u2970:
  2033  02C9                     l2318:
  2034                           
  2035                           ;PROYECTO.c: 235:                     hora = 24;
  2036  02C9  3018               	movlw	24
  2037  02CA  00A3               	movwf	??_main
  2038  02CB  0823               	movf	??_main,w
  2039  02CC  00F6               	movwf	_hora
  2040  02CD  2ACE               	goto	l2320
  2041  02CE                     l174:
  2042  02CE                     l2320:
  2043                           
  2044                           ;PROYECTO.c: 238:                 ADCON0bits.CHS = 6;
  2045  02CE  081F               	movf	31,w	;volatile
  2046  02CF  39C3               	andlw	-61
  2047  02D0  3818               	iorlw	24
  2048  02D1  009F               	movwf	31	;volatile
  2049  02D2                     l2322:
  2050                           
  2051                           ;PROYECTO.c: 240:             _delay((unsigned long)((50)*(4000000/4000000.0)));
  2052  02D2  300F               	movlw	15
  2053  02D3  1283               	bcf	3,5	;RP0=0, select bank0
  2054  02D4  1303               	bcf	3,6	;RP1=0, select bank0
  2055  02D5  00A3               	movwf	??_main
  2056  02D6                     u3557:
  2057  02D6  0BA3               	decfsz	??_main,f
  2058  02D7  2AD6               	goto	u3557
  2059  02D8  2AD9               	nop2
  2060  02D9                     l2324:
  2061                           
  2062                           ;PROYECTO.c: 242:             ADCON0bits.GO = 1;
  2063  02D9  1283               	bcf	3,5	;RP0=0, select bank0
  2064  02DA  1303               	bcf	3,6	;RP1=0, select bank0
  2065  02DB  149F               	bsf	31,1	;volatile
  2066  02DC                     l118:	
  2067                           ;PROYECTO.c: 243:         }
  2068                           
  2069                           
  2070                           ;PROYECTO.c: 245:        if(ventana == 1){
  2071  02DC  0372               	decf	_ventana,w
  2072  02DD  1D03               	btfss	3,2
  2073  02DE  2AE0               	goto	u2981
  2074  02DF  2AE1               	goto	u2980
  2075  02E0                     u2981:
  2076  02E0  2B06               	goto	l2330
  2077  02E1                     u2980:
  2078  02E1                     l2326:
  2079                           
  2080                           ;PROYECTO.c: 247:            USART_Cadena("\r Que accion desea ejecutar? \r");
  2081  02E1  30D4               	movlw	low (STR_1| (0+32768))
  2082  02E2  00FA               	movwf	USART_Cadena@str
  2083  02E3  3086               	movlw	high (STR_1| (0+32768))
  2084  02E4  00FB               	movwf	USART_Cadena@str+1
  2085  02E5  120A  118A  2762  120A  118A  	fcall	_USART_Cadena
  2086                           
  2087                           ;PROYECTO.c: 248:            USART_Cadena("1) ver datos de hora \r");
  2088  02EA  3025               	movlw	low (STR_2| (0+32768))
  2089  02EB  00FA               	movwf	USART_Cadena@str
  2090  02EC  3087               	movlw	high (STR_2| (0+32768))
  2091  02ED  00FB               	movwf	USART_Cadena@str+1
  2092  02EE  120A  118A  2762  120A  118A  	fcall	_USART_Cadena
  2093                           
  2094                           ;PROYECTO.c: 249:            USART_Cadena("2) ver datos de minuto \r");
  2095  02F3  300C               	movlw	low (STR_3| (0+32768))
  2096  02F4  00FA               	movwf	USART_Cadena@str
  2097  02F5  3087               	movlw	high (STR_3| (0+32768))
  2098  02F6  00FB               	movwf	USART_Cadena@str+1
  2099  02F7  120A  118A  2762  120A  118A  	fcall	_USART_Cadena
  2100                           
  2101                           ;PROYECTO.c: 250:            USART_Cadena("3) ver datos de ambos \r\r");
  2102  02FC  30F3               	movlw	low (STR_4| (0+32768))
  2103  02FD  00FA               	movwf	USART_Cadena@str
  2104  02FE  3086               	movlw	high (STR_4| (0+32768))
  2105  02FF  00FB               	movwf	USART_Cadena@str+1
  2106  0300  120A  118A  2762  120A  118A  	fcall	_USART_Cadena
  2107  0305                     l2328:
  2108                           
  2109                           ;PROYECTO.c: 251:            ventana = 0;
  2110  0305  01F2               	clrf	_ventana
  2111  0306                     l2330:
  2112                           
  2113                           ;PROYECTO.c: 254:        if (PIR1bits.RCIF == 1){
  2114  0306  1283               	bcf	3,5	;RP0=0, select bank0
  2115  0307  1303               	bcf	3,6	;RP1=0, select bank0
  2116  0308  1E8C               	btfss	12,5	;volatile
  2117  0309  2B0B               	goto	u2991
  2118  030A  2B0C               	goto	u2990
  2119  030B                     u2991:
  2120  030B  2DA1               	goto	l2458
  2121  030C                     u2990:
  2122  030C                     l2332:
  2123                           
  2124                           ;PROYECTO.c: 255:            valor = USART_Rx();
  2125  030C  120A  118A  279B  120A  118A  	fcall	_USART_Rx
  2126  0311  1283               	bcf	3,5	;RP0=0, select bank0
  2127  0312  1303               	bcf	3,6	;RP1=0, select bank0
  2128  0313  00A3               	movwf	??_main
  2129  0314  0823               	movf	??_main,w
  2130  0315  00F3               	movwf	_valor
  2131  0316                     l2334:
  2132                           
  2133                           ;PROYECTO.c: 256:            ventana = 1;
  2134  0316  01F2               	clrf	_ventana
  2135  0317  0AF2               	incf	_ventana,f
  2136  0318  2DA1               	goto	l2458
  2137  0319                     l2336:
  2138                           
  2139                           ;PROYECTO.c: 261:                 USART_Cadena(" Esperar  ");
  2140  0319  303C               	movlw	low (STR_5| (0+32768))
  2141  031A  00FA               	movwf	USART_Cadena@str
  2142  031B  3087               	movlw	high (STR_5| (0+32768))
  2143  031C  00FB               	movwf	USART_Cadena@str+1
  2144  031D  120A  118A  2762  120A  118A  	fcall	_USART_Cadena
  2145                           
  2146                           ;PROYECTO.c: 262:                 switch(hora){
  2147  0322  2C90               	goto	l2420
  2148  0323                     l186:
  2149  0323  1683               	bsf	3,5	;RP0=1, select bank1
  2150  0324  1303               	bcf	3,6	;RP1=0, select bank1
  2151  0325  1C98               	btfss	24,1	;volatile
  2152  0326  2B28               	goto	u3001
  2153  0327  2B29               	goto	u3000
  2154  0328                     u3001:
  2155  0328  2B23               	goto	l186
  2156  0329                     u3000:
  2157  0329                     l2338:
  2158                           
  2159                           ;PROYECTO.c: 265:                         TXREG = 48;
  2160  0329  3030               	movlw	48
  2161  032A  1283               	bcf	3,5	;RP0=0, select bank0
  2162  032B  1303               	bcf	3,6	;RP1=0, select bank0
  2163  032C  0099               	movwf	25	;volatile
  2164                           
  2165                           ;PROYECTO.c: 266:                     break;
  2166  032D  2CE7               	goto	l2422
  2167  032E                     l191:
  2168  032E  1683               	bsf	3,5	;RP0=1, select bank1
  2169  032F  1303               	bcf	3,6	;RP1=0, select bank1
  2170  0330  1C98               	btfss	24,1	;volatile
  2171  0331  2B33               	goto	u3011
  2172  0332  2B34               	goto	u3010
  2173  0333                     u3011:
  2174  0333  2B2E               	goto	l191
  2175  0334                     u3010:
  2176  0334                     l2340:
  2177                           
  2178                           ;PROYECTO.c: 270:                         TXREG = 49;
  2179  0334  3031               	movlw	49
  2180  0335  1283               	bcf	3,5	;RP0=0, select bank0
  2181  0336  1303               	bcf	3,6	;RP1=0, select bank0
  2182  0337  0099               	movwf	25	;volatile
  2183                           
  2184                           ;PROYECTO.c: 271:                     break;
  2185  0338  2CE7               	goto	l2422
  2186  0339                     l195:
  2187  0339  1683               	bsf	3,5	;RP0=1, select bank1
  2188  033A  1303               	bcf	3,6	;RP1=0, select bank1
  2189  033B  1C98               	btfss	24,1	;volatile
  2190  033C  2B3E               	goto	u3021
  2191  033D  2B3F               	goto	u3020
  2192  033E                     u3021:
  2193  033E  2B39               	goto	l195
  2194  033F                     u3020:
  2195  033F                     l2342:
  2196                           
  2197                           ;PROYECTO.c: 275:                         TXREG = 50;
  2198  033F  3032               	movlw	50
  2199  0340  1283               	bcf	3,5	;RP0=0, select bank0
  2200  0341  1303               	bcf	3,6	;RP1=0, select bank0
  2201  0342  0099               	movwf	25	;volatile
  2202                           
  2203                           ;PROYECTO.c: 276:                     break;
  2204  0343  2CE7               	goto	l2422
  2205  0344                     l199:
  2206  0344  1683               	bsf	3,5	;RP0=1, select bank1
  2207  0345  1303               	bcf	3,6	;RP1=0, select bank1
  2208  0346  1C98               	btfss	24,1	;volatile
  2209  0347  2B49               	goto	u3031
  2210  0348  2B4A               	goto	u3030
  2211  0349                     u3031:
  2212  0349  2B44               	goto	l199
  2213  034A                     u3030:
  2214  034A                     l2344:
  2215                           
  2216                           ;PROYECTO.c: 280:                         TXREG = 51;
  2217  034A  3033               	movlw	51
  2218  034B  1283               	bcf	3,5	;RP0=0, select bank0
  2219  034C  1303               	bcf	3,6	;RP1=0, select bank0
  2220  034D  0099               	movwf	25	;volatile
  2221                           
  2222                           ;PROYECTO.c: 281:                     break;
  2223  034E  2CE7               	goto	l2422
  2224  034F                     l203:
  2225  034F  1683               	bsf	3,5	;RP0=1, select bank1
  2226  0350  1303               	bcf	3,6	;RP1=0, select bank1
  2227  0351  1C98               	btfss	24,1	;volatile
  2228  0352  2B54               	goto	u3041
  2229  0353  2B55               	goto	u3040
  2230  0354                     u3041:
  2231  0354  2B4F               	goto	l203
  2232  0355                     u3040:
  2233  0355                     l2346:
  2234                           
  2235                           ;PROYECTO.c: 285:                         TXREG = 52;
  2236  0355  3034               	movlw	52
  2237  0356  1283               	bcf	3,5	;RP0=0, select bank0
  2238  0357  1303               	bcf	3,6	;RP1=0, select bank0
  2239  0358  0099               	movwf	25	;volatile
  2240                           
  2241                           ;PROYECTO.c: 286:                     break;
  2242  0359  2CE7               	goto	l2422
  2243  035A                     l207:
  2244  035A  1683               	bsf	3,5	;RP0=1, select bank1
  2245  035B  1303               	bcf	3,6	;RP1=0, select bank1
  2246  035C  1C98               	btfss	24,1	;volatile
  2247  035D  2B5F               	goto	u3051
  2248  035E  2B60               	goto	u3050
  2249  035F                     u3051:
  2250  035F  2B5A               	goto	l207
  2251  0360                     u3050:
  2252  0360                     l2348:
  2253                           
  2254                           ;PROYECTO.c: 290:                         TXREG = 53;
  2255  0360  3035               	movlw	53
  2256  0361  1283               	bcf	3,5	;RP0=0, select bank0
  2257  0362  1303               	bcf	3,6	;RP1=0, select bank0
  2258  0363  0099               	movwf	25	;volatile
  2259                           
  2260                           ;PROYECTO.c: 291:                     break;
  2261  0364  2CE7               	goto	l2422
  2262  0365                     l211:
  2263  0365  1683               	bsf	3,5	;RP0=1, select bank1
  2264  0366  1303               	bcf	3,6	;RP1=0, select bank1
  2265  0367  1C98               	btfss	24,1	;volatile
  2266  0368  2B6A               	goto	u3061
  2267  0369  2B6B               	goto	u3060
  2268  036A                     u3061:
  2269  036A  2B65               	goto	l211
  2270  036B                     u3060:
  2271  036B                     l2350:
  2272                           
  2273                           ;PROYECTO.c: 295:                         TXREG = 54;
  2274  036B  3036               	movlw	54
  2275  036C  1283               	bcf	3,5	;RP0=0, select bank0
  2276  036D  1303               	bcf	3,6	;RP1=0, select bank0
  2277  036E  0099               	movwf	25	;volatile
  2278                           
  2279                           ;PROYECTO.c: 296:                     break;
  2280  036F  2CE7               	goto	l2422
  2281  0370                     l215:
  2282  0370  1683               	bsf	3,5	;RP0=1, select bank1
  2283  0371  1303               	bcf	3,6	;RP1=0, select bank1
  2284  0372  1C98               	btfss	24,1	;volatile
  2285  0373  2B75               	goto	u3071
  2286  0374  2B76               	goto	u3070
  2287  0375                     u3071:
  2288  0375  2B70               	goto	l215
  2289  0376                     u3070:
  2290  0376                     l2352:
  2291                           
  2292                           ;PROYECTO.c: 300:                         TXREG = 55;
  2293  0376  3037               	movlw	55
  2294  0377  1283               	bcf	3,5	;RP0=0, select bank0
  2295  0378  1303               	bcf	3,6	;RP1=0, select bank0
  2296  0379  0099               	movwf	25	;volatile
  2297                           
  2298                           ;PROYECTO.c: 301:                     break;
  2299  037A  2CE7               	goto	l2422
  2300  037B                     l219:
  2301  037B  1683               	bsf	3,5	;RP0=1, select bank1
  2302  037C  1303               	bcf	3,6	;RP1=0, select bank1
  2303  037D  1C98               	btfss	24,1	;volatile
  2304  037E  2B80               	goto	u3081
  2305  037F  2B81               	goto	u3080
  2306  0380                     u3081:
  2307  0380  2B7B               	goto	l219
  2308  0381                     u3080:
  2309  0381                     l2354:
  2310                           
  2311                           ;PROYECTO.c: 305:                         TXREG = 56;
  2312  0381  3038               	movlw	56
  2313  0382  1283               	bcf	3,5	;RP0=0, select bank0
  2314  0383  1303               	bcf	3,6	;RP1=0, select bank0
  2315  0384  0099               	movwf	25	;volatile
  2316                           
  2317                           ;PROYECTO.c: 306:                     break;
  2318  0385  2CE7               	goto	l2422
  2319  0386                     l223:
  2320  0386  1683               	bsf	3,5	;RP0=1, select bank1
  2321  0387  1303               	bcf	3,6	;RP1=0, select bank1
  2322  0388  1C98               	btfss	24,1	;volatile
  2323  0389  2B8B               	goto	u3091
  2324  038A  2B8C               	goto	u3090
  2325  038B                     u3091:
  2326  038B  2B86               	goto	l223
  2327  038C                     u3090:
  2328  038C                     l2356:
  2329                           
  2330                           ;PROYECTO.c: 310:                         TXREG = 57;
  2331  038C  3039               	movlw	57
  2332  038D  1283               	bcf	3,5	;RP0=0, select bank0
  2333  038E  1303               	bcf	3,6	;RP1=0, select bank0
  2334  038F  0099               	movwf	25	;volatile
  2335                           
  2336                           ;PROYECTO.c: 311:                     break;
  2337  0390  2CE7               	goto	l2422
  2338  0391                     l227:
  2339  0391  1683               	bsf	3,5	;RP0=1, select bank1
  2340  0392  1303               	bcf	3,6	;RP1=0, select bank1
  2341  0393  1C98               	btfss	24,1	;volatile
  2342  0394  2B96               	goto	u3101
  2343  0395  2B97               	goto	u3100
  2344  0396                     u3101:
  2345  0396  2B91               	goto	l227
  2346  0397                     u3100:
  2347  0397                     l2358:
  2348                           
  2349                           ;PROYECTO.c: 315:                         TXREG = 49;
  2350  0397  3031               	movlw	49
  2351  0398  1283               	bcf	3,5	;RP0=0, select bank0
  2352  0399  1303               	bcf	3,6	;RP1=0, select bank0
  2353  039A  0099               	movwf	25	;volatile
  2354  039B                     l230:	
  2355                           ;PROYECTO.c: 316:                         while(TXSTAbits.TRMT == 0);
  2356                           
  2357  039B  1683               	bsf	3,5	;RP0=1, select bank1
  2358  039C  1303               	bcf	3,6	;RP1=0, select bank1
  2359  039D  1C98               	btfss	24,1	;volatile
  2360  039E  2BA0               	goto	u3111
  2361  039F  2BA1               	goto	u3110
  2362  03A0                     u3111:
  2363  03A0  2B9B               	goto	l230
  2364  03A1                     u3110:
  2365  03A1  2B29               	goto	l2338
  2366  03A2                     l234:
  2367  03A2  1683               	bsf	3,5	;RP0=1, select bank1
  2368  03A3  1303               	bcf	3,6	;RP1=0, select bank1
  2369  03A4  1C98               	btfss	24,1	;volatile
  2370  03A5  2BA7               	goto	u3121
  2371  03A6  2BA8               	goto	u3120
  2372  03A7                     u3121:
  2373  03A7  2BA2               	goto	l234
  2374  03A8                     u3120:
  2375  03A8                     l2362:
  2376                           
  2377                           ;PROYECTO.c: 322:                         TXREG = 49;
  2378  03A8  3031               	movlw	49
  2379  03A9  1283               	bcf	3,5	;RP0=0, select bank0
  2380  03AA  1303               	bcf	3,6	;RP1=0, select bank0
  2381  03AB  0099               	movwf	25	;volatile
  2382  03AC                     l237:	
  2383                           ;PROYECTO.c: 323:                         while(TXSTAbits.TRMT == 0);
  2384                           
  2385  03AC  1683               	bsf	3,5	;RP0=1, select bank1
  2386  03AD  1303               	bcf	3,6	;RP1=0, select bank1
  2387  03AE  1C98               	btfss	24,1	;volatile
  2388  03AF  2BB1               	goto	u3131
  2389  03B0  2BB2               	goto	u3130
  2390  03B1                     u3131:
  2391  03B1  2BAC               	goto	l237
  2392  03B2                     u3130:
  2393  03B2  2B34               	goto	l2340
  2394  03B3                     l241:
  2395  03B3  1683               	bsf	3,5	;RP0=1, select bank1
  2396  03B4  1303               	bcf	3,6	;RP1=0, select bank1
  2397  03B5  1C98               	btfss	24,1	;volatile
  2398  03B6  2BB8               	goto	u3141
  2399  03B7  2BB9               	goto	u3140
  2400  03B8                     u3141:
  2401  03B8  2BB3               	goto	l241
  2402  03B9                     u3140:
  2403  03B9                     l2366:
  2404                           
  2405                           ;PROYECTO.c: 329:                         TXREG = 49;
  2406  03B9  3031               	movlw	49
  2407  03BA  1283               	bcf	3,5	;RP0=0, select bank0
  2408  03BB  1303               	bcf	3,6	;RP1=0, select bank0
  2409  03BC  0099               	movwf	25	;volatile
  2410  03BD                     l244:	
  2411                           ;PROYECTO.c: 330:                         while(TXSTAbits.TRMT == 0);
  2412                           
  2413  03BD  1683               	bsf	3,5	;RP0=1, select bank1
  2414  03BE  1303               	bcf	3,6	;RP1=0, select bank1
  2415  03BF  1C98               	btfss	24,1	;volatile
  2416  03C0  2BC2               	goto	u3151
  2417  03C1  2BC3               	goto	u3150
  2418  03C2                     u3151:
  2419  03C2  2BBD               	goto	l244
  2420  03C3                     u3150:
  2421  03C3  2B3F               	goto	l2342
  2422  03C4                     l248:
  2423  03C4  1683               	bsf	3,5	;RP0=1, select bank1
  2424  03C5  1303               	bcf	3,6	;RP1=0, select bank1
  2425  03C6  1C98               	btfss	24,1	;volatile
  2426  03C7  2BC9               	goto	u3161
  2427  03C8  2BCA               	goto	u3160
  2428  03C9                     u3161:
  2429  03C9  2BC4               	goto	l248
  2430  03CA                     u3160:
  2431  03CA                     l2370:
  2432                           
  2433                           ;PROYECTO.c: 336:                         TXREG = 49;
  2434  03CA  3031               	movlw	49
  2435  03CB  1283               	bcf	3,5	;RP0=0, select bank0
  2436  03CC  1303               	bcf	3,6	;RP1=0, select bank0
  2437  03CD  0099               	movwf	25	;volatile
  2438  03CE                     l251:	
  2439                           ;PROYECTO.c: 337:                         while(TXSTAbits.TRMT == 0);
  2440                           
  2441  03CE  1683               	bsf	3,5	;RP0=1, select bank1
  2442  03CF  1303               	bcf	3,6	;RP1=0, select bank1
  2443  03D0  1C98               	btfss	24,1	;volatile
  2444  03D1  2BD3               	goto	u3171
  2445  03D2  2BD4               	goto	u3170
  2446  03D3                     u3171:
  2447  03D3  2BCE               	goto	l251
  2448  03D4                     u3170:
  2449  03D4  2B4A               	goto	l2344
  2450  03D5                     l255:
  2451  03D5  1683               	bsf	3,5	;RP0=1, select bank1
  2452  03D6  1303               	bcf	3,6	;RP1=0, select bank1
  2453  03D7  1C98               	btfss	24,1	;volatile
  2454  03D8  2BDA               	goto	u3181
  2455  03D9  2BDB               	goto	u3180
  2456  03DA                     u3181:
  2457  03DA  2BD5               	goto	l255
  2458  03DB                     u3180:
  2459  03DB                     l2374:
  2460                           
  2461                           ;PROYECTO.c: 343:                         TXREG = 49;
  2462  03DB  3031               	movlw	49
  2463  03DC  1283               	bcf	3,5	;RP0=0, select bank0
  2464  03DD  1303               	bcf	3,6	;RP1=0, select bank0
  2465  03DE  0099               	movwf	25	;volatile
  2466  03DF                     l258:	
  2467                           ;PROYECTO.c: 344:                         while(TXSTAbits.TRMT == 0);
  2468                           
  2469  03DF  1683               	bsf	3,5	;RP0=1, select bank1
  2470  03E0  1303               	bcf	3,6	;RP1=0, select bank1
  2471  03E1  1C98               	btfss	24,1	;volatile
  2472  03E2  2BE4               	goto	u3191
  2473  03E3  2BE5               	goto	u3190
  2474  03E4                     u3191:
  2475  03E4  2BDF               	goto	l258
  2476  03E5                     u3190:
  2477  03E5  2B55               	goto	l2346
  2478  03E6                     l262:
  2479  03E6  1683               	bsf	3,5	;RP0=1, select bank1
  2480  03E7  1303               	bcf	3,6	;RP1=0, select bank1
  2481  03E8  1C98               	btfss	24,1	;volatile
  2482  03E9  2BEB               	goto	u3201
  2483  03EA  2BEC               	goto	u3200
  2484  03EB                     u3201:
  2485  03EB  2BE6               	goto	l262
  2486  03EC                     u3200:
  2487  03EC                     l2378:
  2488                           
  2489                           ;PROYECTO.c: 350:                         TXREG = 49;
  2490  03EC  3031               	movlw	49
  2491  03ED  1283               	bcf	3,5	;RP0=0, select bank0
  2492  03EE  1303               	bcf	3,6	;RP1=0, select bank0
  2493  03EF  0099               	movwf	25	;volatile
  2494  03F0                     l265:	
  2495                           ;PROYECTO.c: 351:                         while(TXSTAbits.TRMT == 0);
  2496                           
  2497  03F0  1683               	bsf	3,5	;RP0=1, select bank1
  2498  03F1  1303               	bcf	3,6	;RP1=0, select bank1
  2499  03F2  1C98               	btfss	24,1	;volatile
  2500  03F3  2BF5               	goto	u3211
  2501  03F4  2BF6               	goto	u3210
  2502  03F5                     u3211:
  2503  03F5  2BF0               	goto	l265
  2504  03F6                     u3210:
  2505  03F6  2B60               	goto	l2348
  2506  03F7                     l269:
  2507  03F7  1683               	bsf	3,5	;RP0=1, select bank1
  2508  03F8  1303               	bcf	3,6	;RP1=0, select bank1
  2509  03F9  1C98               	btfss	24,1	;volatile
  2510  03FA  2BFC               	goto	u3221
  2511  03FB  2BFD               	goto	u3220
  2512  03FC                     u3221:
  2513  03FC  2BF7               	goto	l269
  2514  03FD                     u3220:
  2515  03FD                     l2382:
  2516                           
  2517                           ;PROYECTO.c: 357:                         TXREG = 49;
  2518  03FD  3031               	movlw	49
  2519  03FE  1283               	bcf	3,5	;RP0=0, select bank0
  2520  03FF  1303               	bcf	3,6	;RP1=0, select bank0
  2521  0400  0099               	movwf	25	;volatile
  2522  0401                     l272:	
  2523                           ;PROYECTO.c: 358:                         while(TXSTAbits.TRMT == 0);
  2524                           
  2525  0401  1683               	bsf	3,5	;RP0=1, select bank1
  2526  0402  1303               	bcf	3,6	;RP1=0, select bank1
  2527  0403  1C98               	btfss	24,1	;volatile
  2528  0404  2C06               	goto	u3231
  2529  0405  2C07               	goto	u3230
  2530  0406                     u3231:
  2531  0406  2C01               	goto	l272
  2532  0407                     u3230:
  2533  0407  2B6B               	goto	l2350
  2534  0408                     l276:
  2535  0408  1683               	bsf	3,5	;RP0=1, select bank1
  2536  0409  1303               	bcf	3,6	;RP1=0, select bank1
  2537  040A  1C98               	btfss	24,1	;volatile
  2538  040B  2C0D               	goto	u3241
  2539  040C  2C0E               	goto	u3240
  2540  040D                     u3241:
  2541  040D  2C08               	goto	l276
  2542  040E                     u3240:
  2543  040E                     l2386:
  2544                           
  2545                           ;PROYECTO.c: 364:                         TXREG = 49;
  2546  040E  3031               	movlw	49
  2547  040F  1283               	bcf	3,5	;RP0=0, select bank0
  2548  0410  1303               	bcf	3,6	;RP1=0, select bank0
  2549  0411  0099               	movwf	25	;volatile
  2550  0412                     l279:	
  2551                           ;PROYECTO.c: 365:                         while(TXSTAbits.TRMT == 0);
  2552                           
  2553  0412  1683               	bsf	3,5	;RP0=1, select bank1
  2554  0413  1303               	bcf	3,6	;RP1=0, select bank1
  2555  0414  1C98               	btfss	24,1	;volatile
  2556  0415  2C17               	goto	u3251
  2557  0416  2C18               	goto	u3250
  2558  0417                     u3251:
  2559  0417  2C12               	goto	l279
  2560  0418                     u3250:
  2561  0418  2B76               	goto	l2352
  2562  0419                     l283:
  2563  0419  1683               	bsf	3,5	;RP0=1, select bank1
  2564  041A  1303               	bcf	3,6	;RP1=0, select bank1
  2565  041B  1C98               	btfss	24,1	;volatile
  2566  041C  2C1E               	goto	u3261
  2567  041D  2C1F               	goto	u3260
  2568  041E                     u3261:
  2569  041E  2C19               	goto	l283
  2570  041F                     u3260:
  2571  041F                     l2390:
  2572                           
  2573                           ;PROYECTO.c: 371:                         TXREG = 49;
  2574  041F  3031               	movlw	49
  2575  0420  1283               	bcf	3,5	;RP0=0, select bank0
  2576  0421  1303               	bcf	3,6	;RP1=0, select bank0
  2577  0422  0099               	movwf	25	;volatile
  2578  0423                     l286:	
  2579                           ;PROYECTO.c: 372:                         while(TXSTAbits.TRMT == 0);
  2580                           
  2581  0423  1683               	bsf	3,5	;RP0=1, select bank1
  2582  0424  1303               	bcf	3,6	;RP1=0, select bank1
  2583  0425  1C98               	btfss	24,1	;volatile
  2584  0426  2C28               	goto	u3271
  2585  0427  2C29               	goto	u3270
  2586  0428                     u3271:
  2587  0428  2C23               	goto	l286
  2588  0429                     u3270:
  2589  0429  2B81               	goto	l2354
  2590  042A                     l290:
  2591  042A  1683               	bsf	3,5	;RP0=1, select bank1
  2592  042B  1303               	bcf	3,6	;RP1=0, select bank1
  2593  042C  1C98               	btfss	24,1	;volatile
  2594  042D  2C2F               	goto	u3281
  2595  042E  2C30               	goto	u3280
  2596  042F                     u3281:
  2597  042F  2C2A               	goto	l290
  2598  0430                     u3280:
  2599  0430                     l2394:
  2600                           
  2601                           ;PROYECTO.c: 378:                         TXREG = 49;
  2602  0430  3031               	movlw	49
  2603  0431  1283               	bcf	3,5	;RP0=0, select bank0
  2604  0432  1303               	bcf	3,6	;RP1=0, select bank0
  2605  0433  0099               	movwf	25	;volatile
  2606  0434                     l293:	
  2607                           ;PROYECTO.c: 379:                         while(TXSTAbits.TRMT == 0);
  2608                           
  2609  0434  1683               	bsf	3,5	;RP0=1, select bank1
  2610  0435  1303               	bcf	3,6	;RP1=0, select bank1
  2611  0436  1C98               	btfss	24,1	;volatile
  2612  0437  2C39               	goto	u3291
  2613  0438  2C3A               	goto	u3290
  2614  0439                     u3291:
  2615  0439  2C34               	goto	l293
  2616  043A                     u3290:
  2617  043A  2B8C               	goto	l2356
  2618  043B                     l297:
  2619  043B  1683               	bsf	3,5	;RP0=1, select bank1
  2620  043C  1303               	bcf	3,6	;RP1=0, select bank1
  2621  043D  1C98               	btfss	24,1	;volatile
  2622  043E  2C40               	goto	u3301
  2623  043F  2C41               	goto	u3300
  2624  0440                     u3301:
  2625  0440  2C3B               	goto	l297
  2626  0441                     u3300:
  2627  0441                     l2398:
  2628                           
  2629                           ;PROYECTO.c: 385:                         TXREG = 50;
  2630  0441  3032               	movlw	50
  2631  0442  1283               	bcf	3,5	;RP0=0, select bank0
  2632  0443  1303               	bcf	3,6	;RP1=0, select bank0
  2633  0444  0099               	movwf	25	;volatile
  2634  0445                     l300:	
  2635                           ;PROYECTO.c: 386:                         while(TXSTAbits.TRMT == 0);
  2636                           
  2637  0445  1683               	bsf	3,5	;RP0=1, select bank1
  2638  0446  1303               	bcf	3,6	;RP1=0, select bank1
  2639  0447  1C98               	btfss	24,1	;volatile
  2640  0448  2C4A               	goto	u3311
  2641  0449  2C4B               	goto	u3310
  2642  044A                     u3311:
  2643  044A  2C45               	goto	l300
  2644  044B                     u3310:
  2645  044B  2B29               	goto	l2338
  2646  044C                     l304:
  2647  044C  1683               	bsf	3,5	;RP0=1, select bank1
  2648  044D  1303               	bcf	3,6	;RP1=0, select bank1
  2649  044E  1C98               	btfss	24,1	;volatile
  2650  044F  2C51               	goto	u3321
  2651  0450  2C52               	goto	u3320
  2652  0451                     u3321:
  2653  0451  2C4C               	goto	l304
  2654  0452                     u3320:
  2655  0452                     l2402:
  2656                           
  2657                           ;PROYECTO.c: 392:                         TXREG = 50;
  2658  0452  3032               	movlw	50
  2659  0453  1283               	bcf	3,5	;RP0=0, select bank0
  2660  0454  1303               	bcf	3,6	;RP1=0, select bank0
  2661  0455  0099               	movwf	25	;volatile
  2662  0456                     l307:	
  2663                           ;PROYECTO.c: 393:                         while(TXSTAbits.TRMT == 0);
  2664                           
  2665  0456  1683               	bsf	3,5	;RP0=1, select bank1
  2666  0457  1303               	bcf	3,6	;RP1=0, select bank1
  2667  0458  1C98               	btfss	24,1	;volatile
  2668  0459  2C5B               	goto	u3331
  2669  045A  2C5C               	goto	u3330
  2670  045B                     u3331:
  2671  045B  2C56               	goto	l307
  2672  045C                     u3330:
  2673  045C  2B34               	goto	l2340
  2674  045D                     l311:
  2675  045D  1683               	bsf	3,5	;RP0=1, select bank1
  2676  045E  1303               	bcf	3,6	;RP1=0, select bank1
  2677  045F  1C98               	btfss	24,1	;volatile
  2678  0460  2C62               	goto	u3341
  2679  0461  2C63               	goto	u3340
  2680  0462                     u3341:
  2681  0462  2C5D               	goto	l311
  2682  0463                     u3340:
  2683  0463                     l2406:
  2684                           
  2685                           ;PROYECTO.c: 399:                         TXREG = 50;
  2686  0463  3032               	movlw	50
  2687  0464  1283               	bcf	3,5	;RP0=0, select bank0
  2688  0465  1303               	bcf	3,6	;RP1=0, select bank0
  2689  0466  0099               	movwf	25	;volatile
  2690  0467                     l314:	
  2691                           ;PROYECTO.c: 400:                         while(TXSTAbits.TRMT == 0);
  2692                           
  2693  0467  1683               	bsf	3,5	;RP0=1, select bank1
  2694  0468  1303               	bcf	3,6	;RP1=0, select bank1
  2695  0469  1C98               	btfss	24,1	;volatile
  2696  046A  2C6C               	goto	u3351
  2697  046B  2C6D               	goto	u3350
  2698  046C                     u3351:
  2699  046C  2C67               	goto	l314
  2700  046D                     u3350:
  2701  046D  2B3F               	goto	l2342
  2702  046E                     l318:
  2703  046E  1683               	bsf	3,5	;RP0=1, select bank1
  2704  046F  1303               	bcf	3,6	;RP1=0, select bank1
  2705  0470  1C98               	btfss	24,1	;volatile
  2706  0471  2C73               	goto	u3361
  2707  0472  2C74               	goto	u3360
  2708  0473                     u3361:
  2709  0473  2C6E               	goto	l318
  2710  0474                     u3360:
  2711  0474                     l2410:
  2712                           
  2713                           ;PROYECTO.c: 406:                         TXREG = 50;
  2714  0474  3032               	movlw	50
  2715  0475  1283               	bcf	3,5	;RP0=0, select bank0
  2716  0476  1303               	bcf	3,6	;RP1=0, select bank0
  2717  0477  0099               	movwf	25	;volatile
  2718  0478                     l321:	
  2719                           ;PROYECTO.c: 407:                         while(TXSTAbits.TRMT == 0);
  2720                           
  2721  0478  1683               	bsf	3,5	;RP0=1, select bank1
  2722  0479  1303               	bcf	3,6	;RP1=0, select bank1
  2723  047A  1C98               	btfss	24,1	;volatile
  2724  047B  2C7D               	goto	u3371
  2725  047C  2C7E               	goto	u3370
  2726  047D                     u3371:
  2727  047D  2C78               	goto	l321
  2728  047E                     u3370:
  2729  047E  2B4A               	goto	l2344
  2730  047F                     l325:
  2731  047F  1683               	bsf	3,5	;RP0=1, select bank1
  2732  0480  1303               	bcf	3,6	;RP1=0, select bank1
  2733  0481  1C98               	btfss	24,1	;volatile
  2734  0482  2C84               	goto	u3381
  2735  0483  2C85               	goto	u3380
  2736  0484                     u3381:
  2737  0484  2C7F               	goto	l325
  2738  0485                     u3380:
  2739  0485                     l2414:
  2740                           
  2741                           ;PROYECTO.c: 413:                         TXREG = 50;
  2742  0485  3032               	movlw	50
  2743  0486  1283               	bcf	3,5	;RP0=0, select bank0
  2744  0487  1303               	bcf	3,6	;RP1=0, select bank0
  2745  0488  0099               	movwf	25	;volatile
  2746  0489                     l328:	
  2747                           ;PROYECTO.c: 414:                         while(TXSTAbits.TRMT == 0);
  2748                           
  2749  0489  1683               	bsf	3,5	;RP0=1, select bank1
  2750  048A  1303               	bcf	3,6	;RP1=0, select bank1
  2751  048B  1C98               	btfss	24,1	;volatile
  2752  048C  2C8E               	goto	u3391
  2753  048D  2C8F               	goto	u3390
  2754  048E                     u3391:
  2755  048E  2C89               	goto	l328
  2756  048F                     u3390:
  2757  048F  2B55               	goto	l2346
  2758  0490                     l2420:
  2759  0490  0876               	movf	_hora,w
  2760  0491  1283               	bcf	3,5	;RP0=0, select bank0
  2761  0492  1303               	bcf	3,6	;RP1=0, select bank0
  2762  0493  00A3               	movwf	??_main
  2763  0494  01A4               	clrf	??_main+1
  2764                           
  2765                           ; Switch on 2 bytes has been partitioned into a top level switch of size 1, and 1 sub-sw
      +                          itches
  2766                           ; Switch size 1, requested type "simple"
  2767                           ; Number of cases is 1, Range of values is 0 to 0
  2768                           ; switch strategies available:
  2769                           ; Name         Instructions Cycles
  2770                           ; simple_byte            4     3 (average)
  2771                           ; direct_byte           11     8 (fixed)
  2772                           ; jumptable            260     6 (fixed)
  2773                           ;	Chosen strategy is simple_byte
  2774  0495  0824               	movf	??_main+1,w
  2775  0496  3A00               	xorlw	0	; case 0
  2776  0497  1903               	skipnz
  2777  0498  2C9A               	goto	l2542
  2778  0499  2CE7               	goto	l2422
  2779  049A                     l2542:
  2780                           
  2781                           ; Switch size 1, requested type "simple"
  2782                           ; Number of cases is 25, Range of values is 0 to 24
  2783                           ; switch strategies available:
  2784                           ; Name         Instructions Cycles
  2785                           ; simple_byte           76    39 (average)
  2786                           ; direct_byte           83     8 (fixed)
  2787                           ; jumptable            260     6 (fixed)
  2788                           ;	Chosen strategy is simple_byte
  2789  049A  0823               	movf	??_main,w
  2790  049B  3A00               	xorlw	0	; case 0
  2791  049C  1903               	skipnz
  2792  049D  2B23               	goto	l186
  2793  049E  3A01               	xorlw	1	; case 1
  2794  049F  1903               	skipnz
  2795  04A0  2B2E               	goto	l191
  2796  04A1  3A03               	xorlw	3	; case 2
  2797  04A2  1903               	skipnz
  2798  04A3  2B39               	goto	l195
  2799  04A4  3A01               	xorlw	1	; case 3
  2800  04A5  1903               	skipnz
  2801  04A6  2B44               	goto	l199
  2802  04A7  3A07               	xorlw	7	; case 4
  2803  04A8  1903               	skipnz
  2804  04A9  2B4F               	goto	l203
  2805  04AA  3A01               	xorlw	1	; case 5
  2806  04AB  1903               	skipnz
  2807  04AC  2B5A               	goto	l207
  2808  04AD  3A03               	xorlw	3	; case 6
  2809  04AE  1903               	skipnz
  2810  04AF  2B65               	goto	l211
  2811  04B0  3A01               	xorlw	1	; case 7
  2812  04B1  1903               	skipnz
  2813  04B2  2B70               	goto	l215
  2814  04B3  3A0F               	xorlw	15	; case 8
  2815  04B4  1903               	skipnz
  2816  04B5  2B7B               	goto	l219
  2817  04B6  3A01               	xorlw	1	; case 9
  2818  04B7  1903               	skipnz
  2819  04B8  2B86               	goto	l223
  2820  04B9  3A03               	xorlw	3	; case 10
  2821  04BA  1903               	skipnz
  2822  04BB  2B91               	goto	l227
  2823  04BC  3A01               	xorlw	1	; case 11
  2824  04BD  1903               	skipnz
  2825  04BE  2BA2               	goto	l234
  2826  04BF  3A07               	xorlw	7	; case 12
  2827  04C0  1903               	skipnz
  2828  04C1  2BB3               	goto	l241
  2829  04C2  3A01               	xorlw	1	; case 13
  2830  04C3  1903               	skipnz
  2831  04C4  2BC4               	goto	l248
  2832  04C5  3A03               	xorlw	3	; case 14
  2833  04C6  1903               	skipnz
  2834  04C7  2BD5               	goto	l255
  2835  04C8  3A01               	xorlw	1	; case 15
  2836  04C9  1903               	skipnz
  2837  04CA  2BE6               	goto	l262
  2838  04CB  3A1F               	xorlw	31	; case 16
  2839  04CC  1903               	skipnz
  2840  04CD  2BF7               	goto	l269
  2841  04CE  3A01               	xorlw	1	; case 17
  2842  04CF  1903               	skipnz
  2843  04D0  2C08               	goto	l276
  2844  04D1  3A03               	xorlw	3	; case 18
  2845  04D2  1903               	skipnz
  2846  04D3  2C19               	goto	l283
  2847  04D4  3A01               	xorlw	1	; case 19
  2848  04D5  1903               	skipnz
  2849  04D6  2C2A               	goto	l290
  2850  04D7  3A07               	xorlw	7	; case 20
  2851  04D8  1903               	skipnz
  2852  04D9  2C3B               	goto	l297
  2853  04DA  3A01               	xorlw	1	; case 21
  2854  04DB  1903               	skipnz
  2855  04DC  2C4C               	goto	l304
  2856  04DD  3A03               	xorlw	3	; case 22
  2857  04DE  1903               	skipnz
  2858  04DF  2C5D               	goto	l311
  2859  04E0  3A01               	xorlw	1	; case 23
  2860  04E1  1903               	skipnz
  2861  04E2  2C6E               	goto	l318
  2862  04E3  3A0F               	xorlw	15	; case 24
  2863  04E4  1903               	skipnz
  2864  04E5  2C7F               	goto	l325
  2865  04E6  2CE7               	goto	l2422
  2866  04E7                     l2422:
  2867                           
  2868                           ;PROYECTO.c: 419:                 USART_Cadena(" Horas ");
  2869  04E7  3047               	movlw	low (STR_6| (0+32768))
  2870  04E8  00FA               	movwf	USART_Cadena@str
  2871  04E9  3087               	movlw	high (STR_6| (0+32768))
  2872  04EA  00FB               	movwf	USART_Cadena@str+1
  2873  04EB  120A  118A  2762  120A  118A  	fcall	_USART_Cadena
  2874                           
  2875                           ;PROYECTO.c: 420:                 USART_Cadena(" con  ");
  2876  04F0  304F               	movlw	low (STR_7| (0+32768))
  2877  04F1  00FA               	movwf	USART_Cadena@str
  2878  04F2  3087               	movlw	high (STR_7| (0+32768))
  2879  04F3  00FB               	movwf	USART_Cadena@str+1
  2880  04F4  120A  118A  2762  120A  118A  	fcall	_USART_Cadena
  2881  04F9                     l331:	
  2882                           ;PROYECTO.c: 421:                 while(TXSTAbits.TRMT == 0);
  2883                           
  2884  04F9  1683               	bsf	3,5	;RP0=1, select bank1
  2885  04FA  1303               	bcf	3,6	;RP1=0, select bank1
  2886  04FB  1C98               	btfss	24,1	;volatile
  2887  04FC  2CFE               	goto	u3401
  2888  04FD  2CFF               	goto	u3400
  2889  04FE                     u3401:
  2890  04FE  2CF9               	goto	l331
  2891  04FF                     u3400:
  2892  04FF                     l2424:
  2893                           
  2894                           ;PROYECTO.c: 422:                 if(minuto == 0) {
  2895  04FF  0875               	movf	_minuto,w
  2896  0500  1D03               	btfss	3,2
  2897  0501  2D03               	goto	u3411
  2898  0502  2D04               	goto	u3410
  2899  0503                     u3411:
  2900  0503  2D0E               	goto	l2428
  2901  0504                     u3410:
  2902  0504                     l2426:
  2903                           
  2904                           ;PROYECTO.c: 423:                     USART_Cadena("0");
  2905  0504  3057               	movlw	low ((STR_10+1)| (0+32768))
  2906  0505  00FA               	movwf	USART_Cadena@str
  2907  0506  3087               	movlw	high ((STR_10+1)| (0+32768))
  2908  0507  00FB               	movwf	USART_Cadena@str+1
  2909  0508  120A  118A  2762  120A  118A  	fcall	_USART_Cadena
  2910                           
  2911                           ;PROYECTO.c: 424:                 }else if (minuto == 15){
  2912  050D  2D4E               	goto	l335
  2913  050E                     l2428:
  2914  050E  300F               	movlw	15
  2915  050F  0675               	xorwf	_minuto,w
  2916  0510  1D03               	btfss	3,2
  2917  0511  2D13               	goto	u3421
  2918  0512  2D14               	goto	u3420
  2919  0513                     u3421:
  2920  0513  2D1E               	goto	l2432
  2921  0514                     u3420:
  2922  0514                     l2430:
  2923                           
  2924                           ;PROYECTO.c: 425:                     USART_Cadena("15");
  2925  0514  305C               	movlw	low (STR_9| (0+32768))
  2926  0515  00FA               	movwf	USART_Cadena@str
  2927  0516  3087               	movlw	high (STR_9| (0+32768))
  2928  0517  00FB               	movwf	USART_Cadena@str+1
  2929  0518  120A  118A  2762  120A  118A  	fcall	_USART_Cadena
  2930                           
  2931                           ;PROYECTO.c: 426:                 }else if (minuto == 30){
  2932  051D  2D4E               	goto	l335
  2933  051E                     l2432:
  2934  051E  301E               	movlw	30
  2935  051F  0675               	xorwf	_minuto,w
  2936  0520  1D03               	btfss	3,2
  2937  0521  2D23               	goto	u3431
  2938  0522  2D24               	goto	u3430
  2939  0523                     u3431:
  2940  0523  2D2E               	goto	l2436
  2941  0524                     u3430:
  2942  0524                     l2434:
  2943                           
  2944                           ;PROYECTO.c: 427:                     USART_Cadena("30");
  2945  0524  3056               	movlw	low (STR_10| (0+32768))
  2946  0525  00FA               	movwf	USART_Cadena@str
  2947  0526  3087               	movlw	high (STR_10| (0+32768))
  2948  0527  00FB               	movwf	USART_Cadena@str+1
  2949  0528  120A  118A  2762  120A  118A  	fcall	_USART_Cadena
  2950                           
  2951                           ;PROYECTO.c: 428:                 }else if (minuto == 45){
  2952  052D  2D4E               	goto	l335
  2953  052E                     l2436:
  2954  052E  302D               	movlw	45
  2955  052F  0675               	xorwf	_minuto,w
  2956  0530  1D03               	btfss	3,2
  2957  0531  2D33               	goto	u3441
  2958  0532  2D34               	goto	u3440
  2959  0533                     u3441:
  2960  0533  2D3E               	goto	l2440
  2961  0534                     u3440:
  2962  0534                     l2438:
  2963                           
  2964                           ;PROYECTO.c: 429:                     USART_Cadena("45");
  2965  0534  305F               	movlw	low (STR_11| (0+32768))
  2966  0535  00FA               	movwf	USART_Cadena@str
  2967  0536  3087               	movlw	high (STR_11| (0+32768))
  2968  0537  00FB               	movwf	USART_Cadena@str+1
  2969  0538  120A  118A  2762  120A  118A  	fcall	_USART_Cadena
  2970                           
  2971                           ;PROYECTO.c: 430:                 }else if (minuto == 60){
  2972  053D  2D4E               	goto	l335
  2973  053E                     l2440:
  2974  053E  303C               	movlw	60
  2975  053F  0675               	xorwf	_minuto,w
  2976  0540  1D03               	btfss	3,2
  2977  0541  2D43               	goto	u3451
  2978  0542  2D44               	goto	u3450
  2979  0543                     u3451:
  2980  0543  2D4E               	goto	l339
  2981  0544                     u3450:
  2982  0544                     l2442:
  2983                           
  2984                           ;PROYECTO.c: 431:                     USART_Cadena("60");
  2985  0544  3059               	movlw	low (STR_12| (0+32768))
  2986  0545  00FA               	movwf	USART_Cadena@str
  2987  0546  3087               	movlw	high (STR_12| (0+32768))
  2988  0547  00FB               	movwf	USART_Cadena@str+1
  2989  0548  120A  118A  2762  120A  118A  	fcall	_USART_Cadena
  2990  054D  2D4E               	goto	l335
  2991  054E                     l339:
  2992  054E                     l335:
  2993                           
  2994                           ;PROYECTO.c: 433:                 USART_Cadena(" mins. para el medicamento  \r\r");
  2995  054E  30B5               	movlw	low (STR_13| (0+32768))
  2996  054F  00FA               	movwf	USART_Cadena@str
  2997  0550  3086               	movlw	high (STR_13| (0+32768))
  2998  0551  00FB               	movwf	USART_Cadena@str+1
  2999  0552  120A  118A  2762  120A  118A  	fcall	_USART_Cadena
  3000  0557                     l2444:
  3001                           
  3002                           ;PROYECTO.c: 434:                 ventana = 1;
  3003  0557  01F2               	clrf	_ventana
  3004  0558  0AF2               	incf	_ventana,f
  3005                           
  3006                           ;PROYECTO.c: 435:                 break;
  3007  0559  2DB4               	goto	l2460
  3008  055A                     l2446:
  3009                           
  3010                           ;PROYECTO.c: 438:                 USART_Cadena(" Ingresá la letra de la nueva hora  \r"
      +                          );
  3011  055A  308E               	movlw	low (STR_14| (0+32768))
  3012  055B  00FA               	movwf	USART_Cadena@str
  3013  055C  3086               	movlw	high (STR_14| (0+32768))
  3014  055D  00FB               	movwf	USART_Cadena@str+1
  3015  055E  120A  118A  2762  120A  118A  	fcall	_USART_Cadena
  3016                           
  3017                           ;PROYECTO.c: 439:                 USART_Cadena(" a.0  b.1  c.2  d.3  e.4  f.5  g.6  h.7 
      +                           i.8\r");
  3018  0563  3060               	movlw	low (STR_15| (0+32768))
  3019  0564  00FA               	movwf	USART_Cadena@str
  3020  0565  3086               	movlw	high (STR_15| (0+32768))
  3021  0566  00FB               	movwf	USART_Cadena@str+1
  3022  0567  120A  118A  2762  120A  118A  	fcall	_USART_Cadena
  3023                           
  3024                           ;PROYECTO.c: 440:                 USART_Cadena(" j.9  k.10  l.11  m.12  n.13  o.14  p.15
      +                            q.16\r");
  3025  056C  3030               	movlw	low (STR_16| (0+32768))
  3026  056D  00FA               	movwf	USART_Cadena@str
  3027  056E  3086               	movlw	high (STR_16| (0+32768))
  3028  056F  00FB               	movwf	USART_Cadena@str+1
  3029  0570  120A  118A  2762  120A  118A  	fcall	_USART_Cadena
  3030                           
  3031                           ;PROYECTO.c: 441:                 USART_Cadena("r.17  s.18  t.19  u.20  v.21  w.22  x.23
      +                            y.24\r");
  3032  0575  3000               	movlw	low (STR_17| (0+32768))
  3033  0576  00FA               	movwf	USART_Cadena@str
  3034  0577  3086               	movlw	high (STR_17| (0+32768))
  3035  0578  00FB               	movwf	USART_Cadena@str+1
  3036  0579  120A  118A  2762  120A  118A  	fcall	_USART_Cadena
  3037  057E                     l2448:
  3038                           
  3039                           ;PROYECTO.c: 443:                     if (PIR1bits.RCIF == 1){
  3040  057E  1283               	bcf	3,5	;RP0=0, select bank0
  3041  057F  1303               	bcf	3,6	;RP1=0, select bank0
  3042  0580  1E8C               	btfss	12,5	;volatile
  3043  0581  2D83               	goto	u3461
  3044  0582  2D84               	goto	u3460
  3045  0583                     u3461:
  3046  0583  2D7E               	goto	l2448
  3047  0584                     u3460:
  3048  0584                     l2450:
  3049                           
  3050                           ;PROYECTO.c: 444:                         USART_Cadena(" \r");
  3051  0584  30B2               	movlw	low ((STR_14+36)| (0+32768))
  3052  0585  00FA               	movwf	USART_Cadena@str
  3053  0586  3086               	movlw	high ((STR_14+36)| (0+32768))
  3054  0587  00FB               	movwf	USART_Cadena@str+1
  3055  0588  120A  118A  2762  120A  118A  	fcall	_USART_Cadena
  3056  058D                     l2452:
  3057                           
  3058                           ;PROYECTO.c: 445:                         nueva_hora = USART_Rx();
  3059  058D  120A  118A  279B  120A  118A  	fcall	_USART_Rx
  3060  0592  1283               	bcf	3,5	;RP0=0, select bank0
  3061  0593  1303               	bcf	3,6	;RP1=0, select bank0
  3062  0594  00A3               	movwf	??_main
  3063  0595  0823               	movf	??_main,w
  3064  0596  00F0               	movwf	_nueva_hora
  3065  0597                     l2454:
  3066                           
  3067                           ;PROYECTO.c: 446:                         USART_Cadena(" \r");
  3068  0597  30B2               	movlw	low ((STR_14+36)| (0+32768))
  3069  0598  00FA               	movwf	USART_Cadena@str
  3070  0599  3086               	movlw	high ((STR_14+36)| (0+32768))
  3071  059A  00FB               	movwf	USART_Cadena@str+1
  3072  059B  120A  118A  2762  120A  118A  	fcall	_USART_Cadena
  3073                           
  3074                           ;PROYECTO.c: 447:                         break;
  3075  05A0  2D57               	goto	l2444
  3076  05A1                     l2458:
  3077  05A1  0873               	movf	_valor,w
  3078  05A2  00A3               	movwf	??_main
  3079  05A3  01A4               	clrf	??_main+1
  3080                           
  3081                           ; Switch on 2 bytes has been partitioned into a top level switch of size 1, and 1 sub-sw
      +                          itches
  3082                           ; Switch size 1, requested type "simple"
  3083                           ; Number of cases is 1, Range of values is 0 to 0
  3084                           ; switch strategies available:
  3085                           ; Name         Instructions Cycles
  3086                           ; simple_byte            4     3 (average)
  3087                           ; direct_byte           11     8 (fixed)
  3088                           ; jumptable            260     6 (fixed)
  3089                           ;	Chosen strategy is simple_byte
  3090  05A4  0824               	movf	??_main+1,w
  3091  05A5  3A00               	xorlw	0	; case 0
  3092  05A6  1903               	skipnz
  3093  05A7  2DA9               	goto	l2544
  3094  05A8  2DB4               	goto	l2460
  3095  05A9                     l2544:
  3096                           
  3097                           ; Switch size 1, requested type "simple"
  3098                           ; Number of cases is 3, Range of values is 49 to 51
  3099                           ; switch strategies available:
  3100                           ; Name         Instructions Cycles
  3101                           ; simple_byte           10     6 (average)
  3102                           ; direct_byte           20    11 (fixed)
  3103                           ; jumptable            263     9 (fixed)
  3104                           ;	Chosen strategy is simple_byte
  3105  05A9  0823               	movf	??_main,w
  3106  05AA  3A31               	xorlw	49	; case 49
  3107  05AB  1903               	skipnz
  3108  05AC  2B19               	goto	l2336
  3109  05AD  3A03               	xorlw	3	; case 50
  3110  05AE  1903               	skipnz
  3111  05AF  2D5A               	goto	l2446
  3112  05B0  3A01               	xorlw	1	; case 51
  3113  05B1  1903               	skipnz
  3114  05B2  2D57               	goto	l2444
  3115  05B3  2DB4               	goto	l2460
  3116  05B4                     l2460:
  3117                           
  3118                           ;PROYECTO.c: 457:        valor = '0';
  3119  05B4  3030               	movlw	48
  3120  05B5  1283               	bcf	3,5	;RP0=0, select bank0
  3121  05B6  1303               	bcf	3,6	;RP1=0, select bank0
  3122  05B7  00A3               	movwf	??_main
  3123  05B8  0823               	movf	??_main,w
  3124  05B9  00F3               	movwf	_valor
  3125                           
  3126                           ;PROYECTO.c: 460:        PORTA = nueva_hora;
  3127  05BA  0870               	movf	_nueva_hora,w
  3128  05BB  0085               	movwf	5	;volatile
  3129  05BC                     l2462:
  3130                           
  3131                           ;PROYECTO.c: 461:        if (!RB7){
  3132  05BC  1B86               	btfsc	6,7	;volatile
  3133  05BD  2DBF               	goto	u3471
  3134  05BE  2DC0               	goto	u3470
  3135  05BF                     u3471:
  3136  05BF  2DC2               	goto	l350
  3137  05C0                     u3470:
  3138  05C0                     l2464:
  3139                           
  3140                           ;PROYECTO.c: 462:            user1 = 1;
  3141  05C0  01F1               	clrf	_user1
  3142  05C1  0AF1               	incf	_user1,f
  3143  05C2                     l350:	
  3144                           ;PROYECTO.c: 463:        }
  3145                           
  3146                           
  3147                           ;PROYECTO.c: 464:        if (!RB6){
  3148  05C2  1B06               	btfsc	6,6	;volatile
  3149  05C3  2DC5               	goto	u3481
  3150  05C4  2DC6               	goto	u3480
  3151  05C5                     u3481:
  3152  05C5  2DC8               	goto	l351
  3153  05C6                     u3480:
  3154  05C6                     l2466:
  3155                           
  3156                           ;PROYECTO.c: 465:            user2 = 1;
  3157  05C6  01A2               	clrf	_user2
  3158  05C7  0AA2               	incf	_user2,f
  3159  05C8                     l351:	
  3160                           ;PROYECTO.c: 466:        }
  3161                           
  3162                           
  3163                           ;PROYECTO.c: 467:        if (!RB5){
  3164  05C8  1A86               	btfsc	6,5	;volatile
  3165  05C9  2DCB               	goto	u3491
  3166  05CA  2DCC               	goto	u3490
  3167  05CB                     u3491:
  3168  05CB  2874               	goto	l2102
  3169  05CC                     u3490:
  3170  05CC                     l2468:
  3171                           
  3172                           ;PROYECTO.c: 468:            user3 = 1;
  3173  05CC  01A1               	clrf	_user3
  3174  05CD  0AA1               	incf	_user3,f
  3175  05CE  2874               	goto	l2102
  3176  05CF  120A  118A  280C   	ljmp	start
  3177  05D2                     __end_of_main:
  3178                           
  3179                           	psect	text1
  3180  079B                     __ptext1:	
  3181 ;; *************** function _USART_Rx *****************
  3182 ;; Defined at:
  3183 ;;		line 483 in file "PROYECTO.c"
  3184 ;; Parameters:    Size  Location     Type
  3185 ;;		None
  3186 ;; Auto vars:     Size  Location     Type
  3187 ;;		None
  3188 ;; Return value:  Size  Location     Type
  3189 ;;                  1    wreg      unsigned char 
  3190 ;; Registers used:
  3191 ;;		wreg
  3192 ;; Tracked objects:
  3193 ;;		On entry : 0/0
  3194 ;;		On exit  : 0/0
  3195 ;;		Unchanged: 0/0
  3196 ;; Data sizes:     COMMON   BANK0   BANK1   BANK3   BANK2
  3197 ;;      Params:         0       0       0       0       0
  3198 ;;      Locals:         0       0       0       0       0
  3199 ;;      Temps:          0       0       0       0       0
  3200 ;;      Totals:         0       0       0       0       0
  3201 ;;Total ram usage:        0 bytes
  3202 ;; Hardware stack levels used:    1
  3203 ;; Hardware stack levels required when called:    1
  3204 ;; This function calls:
  3205 ;;		Nothing
  3206 ;; This function is called by:
  3207 ;;		_main
  3208 ;; This function uses a non-reentrant model
  3209 ;;
  3210                           
  3211                           
  3212                           ;psect for function _USART_Rx
  3213  079B                     _USART_Rx:
  3214  079B                     l1506:	
  3215                           ;incstack = 0
  3216                           ; Regs used in _USART_Rx: [wreg]
  3217                           
  3218                           
  3219                           ;PROYECTO.c: 484:         return RCREG;
  3220  079B  1283               	bcf	3,5	;RP0=0, select bank0
  3221  079C  1303               	bcf	3,6	;RP1=0, select bank0
  3222  079D  081A               	movf	26,w	;volatile
  3223  079E                     l364:
  3224  079E  0008               	return
  3225  079F                     __end_of_USART_Rx:
  3226                           
  3227                           	psect	text2
  3228  0762                     __ptext2:	
  3229 ;; *************** function _USART_Cadena *****************
  3230 ;; Defined at:
  3231 ;;		line 487 in file "PROYECTO.c"
  3232 ;; Parameters:    Size  Location     Type
  3233 ;;  str             2    3[COMMON] PTR unsigned char 
  3234 ;;		 -> STR_19(3), STR_18(3), STR_17(48), STR_16(48), 
  3235 ;;		 -> STR_15(46), STR_14(39), STR_13(31), STR_12(3), 
  3236 ;;		 -> STR_11(3), STR_10(3), STR_9(3), STR_8(2), 
  3237 ;;		 -> STR_7(7), STR_6(8), STR_5(11), STR_4(25), 
  3238 ;;		 -> STR_3(25), STR_2(23), STR_1(31), 
  3239 ;; Auto vars:     Size  Location     Type
  3240 ;;		None
  3241 ;; Return value:  Size  Location     Type
  3242 ;;                  1    wreg      void 
  3243 ;; Registers used:
  3244 ;;		wreg, fsr0l, fsr0h, status,2, status,0, btemp+1, pclath, cstack
  3245 ;; Tracked objects:
  3246 ;;		On entry : 0/0
  3247 ;;		On exit  : 0/0
  3248 ;;		Unchanged: 0/0
  3249 ;; Data sizes:     COMMON   BANK0   BANK1   BANK3   BANK2
  3250 ;;      Params:         2       0       0       0       0
  3251 ;;      Locals:         0       0       0       0       0
  3252 ;;      Temps:          0       0       0       0       0
  3253 ;;      Totals:         2       0       0       0       0
  3254 ;;Total ram usage:        2 bytes
  3255 ;; Hardware stack levels used:    1
  3256 ;; Hardware stack levels required when called:    2
  3257 ;; This function calls:
  3258 ;;		_USART_Tx
  3259 ;; This function is called by:
  3260 ;;		_main
  3261 ;; This function uses a non-reentrant model
  3262 ;;
  3263                           
  3264                           
  3265                           ;psect for function _USART_Cadena
  3266  0762                     _USART_Cadena:
  3267  0762                     l1498:	
  3268                           ;incstack = 0
  3269                           ; Regs used in _USART_Cadena: [wreg-fsr0h+status,2+status,0+btemp+1+pclath+cstack]
  3270                           
  3271                           
  3272                           ;PROYECTO.c: 488:         while(*str != '\0'){
  3273  0762  2F77               	goto	l1504
  3274  0763                     l1500:
  3275                           
  3276                           ;PROYECTO.c: 489:             USART_Tx(*str);
  3277  0763  087B               	movf	USART_Cadena@str+1,w
  3278  0764  00FF               	movwf	btemp+1
  3279  0765  087A               	movf	USART_Cadena@str,w
  3280  0766  0084               	movwf	4
  3281  0767  120A  118A  25D2  120A  118A  	fcall	stringtab
  3282  076C  120A  118A  2788  120A  118A  	fcall	_USART_Tx
  3283  0771                     l1502:
  3284                           
  3285                           ;PROYECTO.c: 490:             str++;
  3286  0771  3001               	movlw	1
  3287  0772  07FA               	addwf	USART_Cadena@str,f
  3288  0773  1803               	skipnc
  3289  0774  0AFB               	incf	USART_Cadena@str+1,f
  3290  0775  3000               	movlw	0
  3291  0776  07FB               	addwf	USART_Cadena@str+1,f
  3292  0777                     l1504:
  3293                           
  3294                           ;PROYECTO.c: 488:         while(*str != '\0'){
  3295  0777  087B               	movf	USART_Cadena@str+1,w
  3296  0778  1283               	bcf	3,5	;RP0=0, select bank0
  3297  0779  1303               	bcf	3,6	;RP1=0, select bank0
  3298  077A  00FF               	movwf	btemp+1
  3299  077B  087A               	movf	USART_Cadena@str,w
  3300  077C  0084               	movwf	4
  3301  077D  120A  118A  25D2  120A  118A  	fcall	stringtab
  3302  0782  3A00               	xorlw	0
  3303  0783  1D03               	skipz
  3304  0784  2F86               	goto	u1191
  3305  0785  2F87               	goto	u1190
  3306  0786                     u1191:
  3307  0786  2F63               	goto	l1500
  3308  0787                     u1190:
  3309  0787                     l370:
  3310  0787  0008               	return
  3311  0788                     __end_of_USART_Cadena:
  3312                           
  3313                           	psect	text3
  3314  0788                     __ptext3:	
  3315 ;; *************** function _USART_Tx *****************
  3316 ;; Defined at:
  3317 ;;		line 478 in file "PROYECTO.c"
  3318 ;; Parameters:    Size  Location     Type
  3319 ;;  data            1    wreg     unsigned char 
  3320 ;; Auto vars:     Size  Location     Type
  3321 ;;  data            1    2[COMMON] unsigned char 
  3322 ;; Return value:  Size  Location     Type
  3323 ;;                  1    wreg      void 
  3324 ;; Registers used:
  3325 ;;		wreg
  3326 ;; Tracked objects:
  3327 ;;		On entry : 0/0
  3328 ;;		On exit  : 0/0
  3329 ;;		Unchanged: 0/0
  3330 ;; Data sizes:     COMMON   BANK0   BANK1   BANK3   BANK2
  3331 ;;      Params:         0       0       0       0       0
  3332 ;;      Locals:         1       0       0       0       0
  3333 ;;      Temps:          0       0       0       0       0
  3334 ;;      Totals:         1       0       0       0       0
  3335 ;;Total ram usage:        1 bytes
  3336 ;; Hardware stack levels used:    1
  3337 ;; Hardware stack levels required when called:    1
  3338 ;; This function calls:
  3339 ;;		Nothing
  3340 ;; This function is called by:
  3341 ;;		_USART_Cadena
  3342 ;; This function uses a non-reentrant model
  3343 ;;
  3344                           
  3345                           
  3346                           ;psect for function _USART_Tx
  3347  0788                     _USART_Tx:
  3348                           
  3349                           ;incstack = 0
  3350                           ; Regs used in _USART_Tx: [wreg]
  3351                           ;USART_Tx@data stored from wreg
  3352  0788  00F9               	movwf	USART_Tx@data
  3353  0789                     l1494:
  3354  0789                     l358:	
  3355                           ;PROYECTO.c: 479:         while(TXSTAbits.TRMT == 0);
  3356                           
  3357  0789  1683               	bsf	3,5	;RP0=1, select bank1
  3358  078A  1303               	bcf	3,6	;RP1=0, select bank1
  3359  078B  1C98               	btfss	24,1	;volatile
  3360  078C  2F8E               	goto	u1181
  3361  078D  2F8F               	goto	u1180
  3362  078E                     u1181:
  3363  078E  2F89               	goto	l358
  3364  078F                     u1180:
  3365  078F                     l1496:
  3366                           
  3367                           ;PROYECTO.c: 480:         TXREG = data;
  3368  078F  0879               	movf	USART_Tx@data,w
  3369  0790  1283               	bcf	3,5	;RP0=0, select bank0
  3370  0791  1303               	bcf	3,6	;RP1=0, select bank0
  3371  0792  0099               	movwf	25	;volatile
  3372  0793                     l361:
  3373  0793  0008               	return
  3374  0794                     __end_of_USART_Tx:
  3375                           
  3376                           	psect	text4
  3377  0794                     __ptext4:	
  3378 ;; *************** function _isr *****************
  3379 ;; Defined at:
  3380 ;;		line 58 in file "PROYECTO.c"
  3381 ;; Parameters:    Size  Location     Type
  3382 ;;		None
  3383 ;; Auto vars:     Size  Location     Type
  3384 ;;		None
  3385 ;; Return value:  Size  Location     Type
  3386 ;;                  1    wreg      void 
  3387 ;; Registers used:
  3388 ;;		None
  3389 ;; Tracked objects:
  3390 ;;		On entry : 0/0
  3391 ;;		On exit  : 0/0
  3392 ;;		Unchanged: 0/0
  3393 ;; Data sizes:     COMMON   BANK0   BANK1   BANK3   BANK2
  3394 ;;      Params:         0       0       0       0       0
  3395 ;;      Locals:         0       0       0       0       0
  3396 ;;      Temps:          2       0       0       0       0
  3397 ;;      Totals:         2       0       0       0       0
  3398 ;;Total ram usage:        2 bytes
  3399 ;; Hardware stack levels used:    1
  3400 ;; This function calls:
  3401 ;;		Nothing
  3402 ;; This function is called by:
  3403 ;;		Interrupt level 1
  3404 ;; This function uses a non-reentrant model
  3405 ;;
  3406                           
  3407                           
  3408                           ;psect for function _isr
  3409  0794                     _isr:
  3410  0794                     i1l105:
  3411  0794  0878               	movf	??_isr+1,w
  3412  0795  008A               	movwf	10
  3413  0796  0E77               	swapf	??_isr,w
  3414  0797  0083               	movwf	3
  3415  0798  0EFE               	swapf	btemp,f
  3416  0799  0E7E               	swapf	btemp,w
  3417  079A  0009               	retfie
  3418  079B                     __end_of_isr:
  3419  007E                     btemp	set	126	;btemp
  3420  007E                     wtemp0	set	126
  3421                           
  3422                           	psect	intentry
  3423  0004                     __pintentry:	
  3424                           ;incstack = 0
  3425                           ; Regs used in _isr: []
  3426                           
  3427  0004                     interrupt_function:
  3428  007E                     saved_w	set	btemp
  3429  0004  00FE               	movwf	btemp
  3430  0005  0E03               	swapf	3,w
  3431  0006  00F7               	movwf	??_isr
  3432  0007  080A               	movf	10,w
  3433  0008  00F8               	movwf	??_isr+1
  3434  0009  120A  118A  2F94   	ljmp	_isr
  3435                           
  3436                           	psect	config
  3437                           
  3438                           ;Config register CONFIG1 @ 0x2007
  3439                           ;	Oscillator Selection bits
  3440                           ;	FOSC = INTRC_NOCLKOUT, INTOSCIO oscillator: I/O function on RA6/OSC2/CLKOUT pin, I/O f
      +                          unction on RA7/OSC1/CLKIN
  3441                           ;	Watchdog Timer Enable bit
  3442                           ;	WDTE = OFF, WDT disabled and can be enabled by SWDTEN bit of the WDTCON register
  3443                           ;	Power-up Timer Enable bit
  3444                           ;	PWRTE = OFF, PWRT disabled
  3445                           ;	RE3/MCLR pin function select bit
  3446                           ;	MCLRE = OFF, RE3/MCLR pin function is digital input, MCLR internally tied to VDD
  3447                           ;	Code Protection bit
  3448                           ;	CP = OFF, Program memory code protection is disabled
  3449                           ;	Data Code Protection bit
  3450                           ;	CPD = OFF, Data memory code protection is disabled
  3451                           ;	Brown Out Reset Selection bits
  3452                           ;	BOREN = OFF, BOR disabled
  3453                           ;	Internal External Switchover bit
  3454                           ;	IESO = OFF, Internal/External Switchover mode is disabled
  3455                           ;	Fail-Safe Clock Monitor Enabled bit
  3456                           ;	FCMEN = OFF, Fail-Safe Clock Monitor is disabled
  3457                           ;	Low Voltage Programming Enable bit
  3458                           ;	LVP = ON, RB3/PGM pin has PGM function, low voltage programming enabled
  3459                           ;	In-Circuit Debugger Mode bit
  3460                           ;	DEBUG = 0x1, unprogrammed default
  3461  2007                     	org	8199
  3462  2007  30D4               	dw	12500
  3463                           
  3464                           ;Config register CONFIG2 @ 0x2008
  3465                           ;	Brown-out Reset Selection bit
  3466                           ;	BOR4V = BOR40V, Brown-out Reset set to 4.0V
  3467                           ;	Flash Program Memory Self Write Enable bits
  3468                           ;	WRT = OFF, Write protection off
  3469  2008                     	org	8200
  3470  2008  3FFF               	dw	16383

Data Sizes:
    Strings     354
    Constant    0
    Data        0
    BSS         10
    Persistent  0
    Stack       0

Auto Spaces:
    Space          Size  Autos    Used
    COMMON           14      5      12
    BANK0            80      2       5
    BANK1            80      0       0
    BANK3            96      0       0
    BANK2            96      0       0

Pointer List with Targets:

    USART_Cadena@str	PTR unsigned char  size(2) Largest target is 48
		 -> STR_19(CODE[3]), STR_18(CODE[3]), STR_17(CODE[48]), STR_16(CODE[48]), 
		 -> STR_15(CODE[46]), STR_14(CODE[39]), STR_13(CODE[31]), STR_12(CODE[3]), 
		 -> STR_11(CODE[3]), STR_10(CODE[3]), STR_9(CODE[3]), STR_8(CODE[2]), 
		 -> STR_7(CODE[7]), STR_6(CODE[8]), STR_5(CODE[11]), STR_4(CODE[25]), 
		 -> STR_3(CODE[25]), STR_2(CODE[23]), STR_1(CODE[31]), 


Critical Paths under _main in COMMON

    _main->_USART_Cadena
    _USART_Cadena->_USART_Tx

Critical Paths under _isr in COMMON

    None.

Critical Paths under _main in BANK0

    None.

Critical Paths under _isr in BANK0

    None.

Critical Paths under _main in BANK1

    None.

Critical Paths under _isr in BANK1

    None.

Critical Paths under _main in BANK3

    None.

Critical Paths under _isr in BANK3

    None.

Critical Paths under _main in BANK2

    None.

Critical Paths under _isr in BANK2

    None.

Call Graph Tables:

 ---------------------------------------------------------------------------------
 (Depth) Function   	        Calls       Base Space   Used Autos Params    Refs
 ---------------------------------------------------------------------------------
 (0) _main                                                 2     2      0    1511
                                              0 BANK0      2     2      0
                       _USART_Cadena
                           _USART_Rx
 ---------------------------------------------------------------------------------
 (1) _USART_Rx                                             0     0      0       0
 ---------------------------------------------------------------------------------
 (1) _USART_Cadena                                         2     0      2    1511
                                              3 COMMON     2     0      2
                           _USART_Tx
 ---------------------------------------------------------------------------------
 (2) _USART_Tx                                             1     1      0      22
                                              2 COMMON     1     1      0
 ---------------------------------------------------------------------------------
 Estimated maximum stack depth 2
 ---------------------------------------------------------------------------------
 (Depth) Function   	        Calls       Base Space   Used Autos Params    Refs
 ---------------------------------------------------------------------------------
 (3) _isr                                                  2     2      0       0
                                              0 COMMON     2     2      0
 ---------------------------------------------------------------------------------
 Estimated maximum stack depth 3
 ---------------------------------------------------------------------------------

 Call Graph Graphs:

 _main (ROOT)
   _USART_Cadena
     _USART_Tx
   _USART_Rx

 _isr (ROOT)

 Address spaces:
Name               Size   Autos  Total    Cost      Usage
BITCOMMON            E      0       0       0        0.0%
EEDATA             100      0       0       0        0.0%
NULL                 0      0       0       0        0.0%
CODE                 0      0       0       0        0.0%
COMMON               E      5       C       1       85.7%
BITSFR0              0      0       0       1        0.0%
SFR0                 0      0       0       1        0.0%
BITSFR1              0      0       0       2        0.0%
SFR1                 0      0       0       2        0.0%
STACK                0      0       0       2        0.0%
ABS                  0      0      11       3        0.0%
BITBANK0            50      0       0       4        0.0%
BITSFR3              0      0       0       4        0.0%
SFR3                 0      0       0       4        0.0%
BANK0               50      2       5       5        6.2%
BITSFR2              0      0       0       5        0.0%
SFR2                 0      0       0       5        0.0%
BITBANK1            50      0       0       6        0.0%
BANK1               50      0       0       7        0.0%
BITBANK3            60      0       0       8        0.0%
BANK3               60      0       0       9        0.0%
BITBANK2            60      0       0      10        0.0%
BANK2               60      0       0      11        0.0%
DATA                 0      0      11      12        0.0%


Microchip Technology PIC Macro Assembler V2.31 build 20201012212115 
Symbol Table                                                                                   Wed May 26 19:17:06 2021

                      pc 0002                       fsr 0004                      l112 008E  
                    l114 00A4                      l211 0365                      l203 034F  
                    l123 0124                      l300 0445                      l116 00BA  
                    l230 039B                      l118 02DC                      l311 045D  
                    l223 0386                      l215 0370                      l207 035A  
                    l304 044C                      l321 0478                      l241 03B3  
                    l314 0467                      l234 03A2                      l331 04F9  
                    l307 0456                      l251 03CE                      l227 0391  
                    l219 037B                      l244 03BD                      l325 047F  
                    l237 03AC                      l350 05C2                      l318 046E  
                    l262 03E6                      l174 02CE                      l351 05C8  
                    l335 054E                      l255 03D5                      l191 032E  
                    l328 0489                      l272 0401                      l248 03C4  
                    l361 0793                      l265 03F0                      l370 0787  
                    l290 042A                      l258 03DF                      l186 0323  
                    l339 054E                      l283 0419                      l195 0339  
                    l364 079E                      l276 0408                      l293 0434  
                    l269 03F7                      l358 0789                      l286 0423  
                    l279 0412                      l199 0344                      l297 043B  
                    _RB0 0030                      _RB1 0031                      _RB2 0032  
                    _RD0 0040                      _RD1 0041                      _RB5 0035  
                    _RD2 0042                      _RB6 0036                      _RB7 0037  
                    _isr 0794                      fsr0 0004                      indf 0000  
                   l2100 0072                     l2110 0087                     l2102 0074  
                   l2030 0028                     l2200 017B                     l2120 00A2  
                   l2112 008C                     l2104 0078                     l2040 0031  
                   l2032 002B                     l2210 0197                     l2202 0180  
                   l2130 00BD                     l2122 00A8                     l2114 0092  
                   l2106 007C                     l2050 0043                     l2042 0032  
                   l2034 002C                     l2026 001F                     l1500 0763  
                   l2300 0296                     l2220 01B3                     l2212 019D  
                   l2204 0186                     l2132 00C5                     l2124 00A9  
                   l2116 0093                     l2108 007D                     l2140 00CD  
                   l2060 004C                     l2052 0044                     l2044 0036  
                   l2036 002D                     l2028 0026                     l1502 0771  
                   l2310 02B2                     l2302 029C                     l2230 01D0  
                   l2222 01B9                     l2214 01A2                     l2206 018C  
                   l2150 00EC                     l2142 00D1                     l2134 00C8  
                   l2126 00B3                     l2118 009D                     l2070 005A  
                   l2062 004F                     l2054 0045                     l2046 003D  
                   l2038 002E                     l1504 0777                     l2312 02B8  
                   l2304 02A1                     l2240 01EC                     l2232 01D5  
                   l2224 01BF                     l2216 01A8                     l2208 0191  
                   l2320 02CE                     l2160 0108                     l2152 00F2  
                   l2144 00DA                     l2136 00C9                     l2128 00B8  
                   l2080 0064                     l2072 005E                     l2064 0053  
                   l2056 004A                     l2048 0040                     l1506 079B  
                   l2410 0474                     l2402 0452                     l2330 0306  
                   l2314 02BE                     l2306 02A7                     l2250 0208  
                   l2242 01F2                     l2234 01DB                     l2226 01C4  
                   l2218 01AE                     l2322 02D2                     l2162 010E  
                   l2154 00F7                     l2170 0124                     l2146 00E4  
                   l2138 00CC                     l2090 006D                     l2082 0067  
                   l2074 005F                     l2066 0056                     l2058 004B  
                   l2340 0334                     l2420 0490                     l2332 030C  
                   l2324 02D9                     l2316 02C3                     l2308 02AD  
                   l2260 0225                     l2252 020E                     l2244 01F7  
                   l2236 01E1                     l2228 01CA                     l2180 0144  
                   l2164 0114                     l2156 00FD                     l2148 00E6  
                   l2172 0129                     l2092 006E                     l2084 0068  
                   l2076 0062                     l2068 0057                     l2430 0514  
                   l2414 0485                     l2406 0463                     l2350 036B  
                   l2342 033F                     l2422 04E7                     l2334 0316  
                   l2326 02E1                     l2318 02C9                     l2270 0241  
                   l2262 022A                     l2254 0214                     l2246 01FD  
                   l2238 01E6                     l2190 015E                     l2182 014A  
                   l2174 0132                     l2166 0119                     l2158 0103  
                   l2094 006F                     l2086 0069                     l2078 0063  
                   l2440 053E                     l2432 051E                     l2424 04FF  
                   l2352 0376                     l2344 034A                     l2336 0319  
                   l2328 0305                     l2280 025D                     l2272 0247  
                   l2264 0230                     l2256 0219                     l2248 0203  
                   l2192 0164                     l2184 014D                     l2176 013C  
                   l2168 011F                     l2096 0070                     l2088 006A  
                   l2450 0584                     l2442 0544                     l2434 0524  
                   l2426 0504                     l2370 03CA                     l2362 03A8  
                   l2354 0381                     l2346 0355                     l2338 0329  
                   l2290 027A                     l2282 0263                     l2274 024C  
                   l2266 0236                     l2258 021F                     l2194 016A  
                   l2186 0153                     l2178 013E                     l2098 0071  
                   l2452 058D                     l2460 05B4                     l2444 0557  
                   l2436 052E                     l2428 050E                     l2356 038C  
                   l2348 0360                     l2292 027F                     l2284 0269  
                   l2276 0252                     l2268 023B                     l2196 016F  
                   l2188 0159                     l1494 0789                     l2462 05BC  
                   l2454 0597                     l2446 055A                     l2438 0534  
                   l2542 049A                     l2390 041F                     l2382 03FD  
                   l2374 03DB                     l2366 03B9                     l2358 0397  
                   l2294 0285                     l2286 026E                     l2278 0258  
                   l2198 0175                     l1496 078F                     l2464 05C0  
                   l2544 05A9                     l2448 057E                     l2296 028B  
                   l2288 0274                     l1498 0762                     l2466 05C6  
                   l2394 0430                     l2386 040E                     l2378 03EC  
                   l2458 05A1                     l2298 0290                     l2468 05CC  
                   l2398 0441                     ?_isr 0077                     STR_1 06D4  
                   STR_2 0725                     STR_3 070C                     STR_4 06F3  
                   STR_5 073C                     STR_6 0747                     STR_7 074F  
                   STR_8 0757                     STR_9 075C                     _T0IF 005A  
                   u3000 0329                     u3001 0328                     u3010 0334  
                   u3011 0333                     u1180 078F                     u3100 0397  
                   u3020 033F                     u1181 078E                     u3101 0396  
                   u3021 033E                     u1190 0787                     u3110 03A1  
                   u3030 034A                     u1191 0786                     u3111 03A0  
                   u3031 0349                     u3200 03EC                     u3120 03A8  
                   u3040 0355                     u2400 00DA                     u3201 03EB  
                   u3121 03A7                     u3041 0354                     u2401 00D9  
                   u3210 03F6                     u3130 03B2                     u3050 0360  
                   u2410 00E4                     u3211 03F5                     u3131 03B1  
                   u3051 035F                     u2411 00E3                     u3300 0441  
                   u3220 03FD                     u3140 03B9                     u3060 036B  
                   u2500 013C                     u2420 00EC                     u3301 0440  
                   u3221 03FC                     u3141 03B8                     u3061 036A  
                   u2501 013B                     u2421 00EB                     u3310 044B  
                   u3230 0407                     u3150 03C3                     u3070 0376  
                   u2510 0144                     u2430 00F2                     u2350 0078  
                   u3311 044A                     u3231 0406                     u3151 03C2  
                   u3071 0375                     u2511 0143                     u2431 00F1  
                   u2351 0077                     u3400 04FF                     u3320 0452  
                   u3240 040E                     u3160 03CA                     u3080 0381  
                   u2600 018C                     u2520 014A                     u2440 00FD  
                   u2360 007C                     u3401 04FE                     u3321 0451  
                   u3241 040D                     u3161 03C9                     u3081 0380  
                   u2601 018B                     u2521 0149                     u2441 00FC  
                   u2361 007B                     u3410 0504                     u3330 045C  
                   u3250 0418                     u3170 03D4                     u3090 038C  
                   u2610 0197                     u2530 0153                     u2450 0103  
                   u2370 0092                     u3411 0503                     u3331 045B  
                   u3251 0417                     u3171 03D3                     u3091 038B  
                   u2611 0196                     u2531 0152                     u2451 0102  
                   u2371 0091                     u3420 0514                     u3340 0463  
                   u3260 041F                     u3180 03DB                     u2700 01E1  
                   u2620 019D                     u2540 0159                     u2460 010E  
                   u2380 00A8                     u3421 0513                     u3341 0462  
                   u3261 041E                     u3181 03DA                     u2701 01E0  
                   u2621 019C                     u2541 0158                     u2461 010D  
                   u2381 00A7                     u3430 0524                     u3350 046D  
                   u3270 0429                     u3190 03E5                     u2710 01EC  
                   u2630 01A8                     u2550 0164                     u2470 0114  
                   u2390 00D1                     u3431 0523                     u3351 046C  
                   u3271 0428                     u3191 03E4                     u2711 01EB  
                   u2631 01A7                     u2551 0163                     u2471 0113  
                   u2391 00D0                     u3440 0534                     u3360 0474  
                   u3280 0430                     u2800 0236                     u2720 01F2  
                   u2640 01AE                     u2560 016A                     u2480 011F  
                   u3441 0533                     u3361 0473                     u3281 042F  
                   u2801 0235                     u2721 01F1                     u2641 01AD  
                   u2561 0169                     u2481 011E                     u3450 0544  
                   u3370 047E                     u3290 043A                     u2810 0241  
                   u2730 01FD                     u2650 01B9                     u2570 0175  
                   u2490 0132                     u3451 0543                     u3371 047D  
                   u3291 0439                     u2811 0240                     u2731 01FC  
                   u2651 01B8                     u2571 0174                     u2491 0131  
                   u3507 003A                     u3460 0584                     u3380 0485  
                   u2900 028B                     u2820 0247                     u2740 0203  
                   u2660 01BF                     u2580 017B                     u3461 0583  
                   u3381 0484                     u2901 028A                     u2821 0246  
                   u2741 0202                     u2661 01BE                     u2581 017A  
                   u3517 0083                     u3470 05C0                     u3390 048F  
                   u2910 0296                     u2830 0252                     u2750 020E  
                   u2670 01CA                     u2590 0186                     u3471 05BF  
                   u3391 048E                     u2911 0295                     u2831 0251  
                   u2751 020D                     u2671 01C9                     u2591 0185  
                   u3527 0099                     u3480 05C6                     u2920 029C  
                   u2840 0258                     u2760 0214                     u2680 01D0  
                   u3481 05C5                     u2921 029B                     u2841 0257  
                   u2761 0213                     u2681 01CF                     u3537 00AF  
                   u3490 05CC                     u2930 02A7                     u2850 0263  
                   u2770 021F                     u2690 01DB                     u3491 05CB  
                   u2931 02A6                     u2851 0262                     u2771 021E  
                   u2691 01DA                     u3547 00C1                     u2940 02AD  
                   u2860 0269                     u2780 0225                     u3557 02D6  
                   u2941 02AC                     u2861 0268                     u2781 0224  
                   u2950 02B8                     u2870 0274                     u2790 0230  
                   u2951 02B7                     u2871 0273                     u2791 022F  
                   u2960 02BE                     u2880 027A                     u2961 02BD  
                   u2881 0279                     u2970 02C9                     u2890 0285  
                   u2971 02C8                     u2891 0284                     u2980 02E1  
                   u2981 02E0                     u2990 030C                     u2991 030B  
                   _TMR0 0001                     _main 001F                     _hora 0076  
                   btemp 007E                     start 000C                    ??_isr 0077  
                  ?_main 0077                    STR_10 0756                    STR_11 075F  
                  STR_12 0759                    STR_13 06B5                    STR_14 068E  
                  STR_15 0660                    STR_16 0630                    STR_17 0600  
                  STR_18 06B2                    STR_19 06B2                    _ANSEL 0188  
                  i1l105 0794                    _RCREG 001A                    _SPBRG 0099  
                  _PORTA 0005                    _PORTB 0006                    _PORTC 0007  
                  _PORTD 0008                    _PORTE 0009                    _TRISA 0085  
                  _TRISB 0086                    _TRISD 0088                    _TRISE 0089  
                  _TXREG 0019                    _valor 0073                    _user1 0071  
                  _user2 0022                    _user3 0021         __end_of_USART_Rx 079F  
       __end_of_USART_Tx 0794             USART_Tx@data 0079                    pclath 000A  
                  status 0003                    wtemp0 007E          __initialization 000F  
           __end_of_main 05D2                   ??_main 0023                   _ADRESH 001E  
                 _ANSELH 0189                   _SPBRGH 009A                   _escala 0074  
                 _minuto 0075                   saved_w 007E  __end_of__initialization 001B  
         __pcstackCOMMON 0077                ?_USART_Rx 0077                ?_USART_Tx 0077  
         _OPTION_REGbits 0081               __pbssBANK0 0020               __pmaintext 001F  
             __pintentry 0004               ??_USART_Rx 0079               ??_USART_Tx 0079  
             __stringtab 05D2                  __ptext1 079B                  __ptext2 0762  
                __ptext3 0788                  __ptext4 0794             __size_of_isr 0007  
                _ventana 0072     end_of_initialization 001B                _RCSTAbits 0018  
           __pstringtext 0600               _nueva_hora 0070            ?_USART_Cadena 007A  
              _TXSTAbits 0098              _BAUDCTLbits 0187        __size_of_USART_Rx 0004  
      __size_of_USART_Tx 000C      start_initialization 000F              __end_of_isr 079B  
         ??_USART_Cadena 007C              __pbssCOMMON 0070                ___latbits 0002  
          __pcstackBANK0 0023                __pstrings 05D2        interrupt_function 0004  
               _PIR1bits 000C          USART_Cadena@str 007A                _nueva_min 0020  
   __end_of_USART_Cadena 0788                 _USART_Rx 079B                 _USART_Tx 0788  
             _ADCON0bits 001F              __stringbase 05E4               _ADCON1bits 009F  
               _WPUBbits 0095       __end_of__stringtab 05E4            __size_of_main 05B3  
             _INTCONbits 000B                 intlevel1 0000                stringcode 05DC  
  __size_of_USART_Cadena 0026               _OSCCONbits 008F                 stringtab 05D2  
           _USART_Cadena 0762  
