

Microchip MPLAB XC8 Assembler V2.31 build 20201012212115 
                                                                                               Fri May 28 12:53:46 2021

Microchip MPLAB XC8 C Compiler v2.31 (Free license) build 20201012212115 Og1 
     1                           	processor	16F887
     2                           	pagewidth 120
     3                           	opt	flic
     4                           	psect	strings,global,class=STRING,delta=2,noexec
     5                           	psect	stringtext,global,reloc=256,class=STRCODE,delta=2,noexec
     6                           	psect	cinit,global,class=CODE,merge=1,delta=2
     7                           	psect	bssCOMMON,global,class=COMMON,space=1,delta=1,noexec
     8                           	psect	bssBANK0,global,class=BANK0,space=1,delta=1,noexec
     9                           	psect	clrtext,global,class=CODE,delta=2
    10                           	psect	cstackCOMMON,global,class=COMMON,space=1,delta=1,noexec
    11                           	psect	cstackBANK0,global,class=BANK0,space=1,delta=1,noexec
    12                           	psect	maintext,global,class=CODE,split=1,delta=2
    13                           	psect	text1,local,class=CODE,merge=1,delta=2
    14                           	psect	text2,local,class=CODE,merge=1,delta=2
    15                           	psect	text3,local,class=CODE,merge=1,delta=2
    16                           	psect	text4,local,class=CODE,merge=1,delta=2
    17                           	psect	text5,local,class=CODE,merge=1,delta=2
    18                           	psect	text6,local,class=CODE,merge=1,delta=2
    19                           	psect	text7,local,class=CODE,merge=1,delta=2
    20                           	psect	text8,local,class=CODE,merge=1,delta=2
    21                           	psect	intentry,global,class=CODE,delta=2
    22                           	psect	config,global,abs,ovrld,class=CONFIG,space=4,delta=2,noexec
    23                           	dabs	1,0x7E,2
    24  0000                     
    25                           ; Version 2.20
    26                           ; Generated 12/02/2020 GMT
    27                           ; 
    28                           ; Copyright © 2020, Microchip Technology Inc. and its subsidiaries ("Microchip")
    29                           ; All rights reserved.
    30                           ; 
    31                           ; This software is developed by Microchip Technology Inc. and its subsidiaries ("Microch
      +                          ip").
    32                           ; 
    33                           ; Redistribution and use in source and binary forms, with or without modification, are
    34                           ; permitted provided that the following conditions are met:
    35                           ; 
    36                           ;     1. Redistributions of source code must retain the above copyright notice, this lis
      +                          t of
    37                           ;        conditions and the following disclaimer.
    38                           ; 
    39                           ;     2. Redistributions in binary form must reproduce the above copyright notice, this 
      +                          list
    40                           ;        of conditions and the following disclaimer in the documentation and/or other
    41                           ;        materials provided with the distribution.
    42                           ; 
    43                           ;     3. Microchip's name may not be used to endorse or promote products derived from th
      +                          is
    44                           ;        software without specific prior written permission.
    45                           ; 
    46                           ; THIS SOFTWARE IS PROVIDED BY MICROCHIP "AS IS" AND ANY EXPRESS OR IMPLIED WARRANTIES,
    47                           ; INCLUDING, BUT NOT LIMITED TO, THE IMPLIED WARRANTIES OF MERCHANTABILITY AND FITNESS F
      +                          OR
    48                           ; PURPOSE ARE DISCLAIMED.  IN NO EVENT SHALL MICROCHIP BE LIABLE FOR ANY DIRECT, INDIREC
      +                          T,
    49                           ; INCIDENTAL, SPECIAL, EXEMPLARY, OR CONSEQUENTIAL DAMAGES (INCLUDING BUT NOT LIMITED TO
    50                           ; PROCUREMENT OF SUBSTITUTE GOODS OR SERVICES; LOSS OF USE, DATA OR PROFITS; OR BUSINESS
    51                           ; INTERRUPTION) HOWSOEVER CAUSED AND ON ANY THEORY OF LIABILITY, WHETHER IN CONTRACT, ST
      +                          RICT
    52                           ; LIABILITY, OR TORT (INCLUDING NEGLIGENCE OR OTHERWISE) ARISING IN ANY WAY OUT OF THE U
      +                          SE OF
    53                           ; THIS SOFTWARE, EVEN IF ADVISED OF THE POSSIBILITY OF SUCH DAMAGE.
    54                           ; 
    55                           ; 
    56                           ; Code-generator required, PIC16F887 Definitions
    57                           ; 
    58                           ; SFR Addresses
    59  0000                     	;# 
    60  0001                     	;# 
    61  0002                     	;# 
    62  0003                     	;# 
    63  0004                     	;# 
    64  0005                     	;# 
    65  0006                     	;# 
    66  0007                     	;# 
    67  0008                     	;# 
    68  0009                     	;# 
    69  000A                     	;# 
    70  000B                     	;# 
    71  000C                     	;# 
    72  000D                     	;# 
    73  000E                     	;# 
    74  000E                     	;# 
    75  000F                     	;# 
    76  0010                     	;# 
    77  0011                     	;# 
    78  0012                     	;# 
    79  0013                     	;# 
    80  0014                     	;# 
    81  0015                     	;# 
    82  0015                     	;# 
    83  0016                     	;# 
    84  0017                     	;# 
    85  0018                     	;# 
    86  0019                     	;# 
    87  001A                     	;# 
    88  001B                     	;# 
    89  001B                     	;# 
    90  001C                     	;# 
    91  001D                     	;# 
    92  001E                     	;# 
    93  001F                     	;# 
    94  0081                     	;# 
    95  0085                     	;# 
    96  0086                     	;# 
    97  0087                     	;# 
    98  0088                     	;# 
    99  0089                     	;# 
   100  008C                     	;# 
   101  008D                     	;# 
   102  008E                     	;# 
   103  008F                     	;# 
   104  0090                     	;# 
   105  0091                     	;# 
   106  0092                     	;# 
   107  0093                     	;# 
   108  0093                     	;# 
   109  0093                     	;# 
   110  0094                     	;# 
   111  0095                     	;# 
   112  0096                     	;# 
   113  0097                     	;# 
   114  0098                     	;# 
   115  0099                     	;# 
   116  009A                     	;# 
   117  009B                     	;# 
   118  009C                     	;# 
   119  009D                     	;# 
   120  009E                     	;# 
   121  009F                     	;# 
   122  0105                     	;# 
   123  0107                     	;# 
   124  0108                     	;# 
   125  0109                     	;# 
   126  010C                     	;# 
   127  010C                     	;# 
   128  010D                     	;# 
   129  010E                     	;# 
   130  010F                     	;# 
   131  0185                     	;# 
   132  0187                     	;# 
   133  0188                     	;# 
   134  0189                     	;# 
   135  018C                     	;# 
   136  018D                     	;# 
   137  0000                     	;# 
   138  0001                     	;# 
   139  0002                     	;# 
   140  0003                     	;# 
   141  0004                     	;# 
   142  0005                     	;# 
   143  0006                     	;# 
   144  0007                     	;# 
   145  0008                     	;# 
   146  0009                     	;# 
   147  000A                     	;# 
   148  000B                     	;# 
   149  000C                     	;# 
   150  000D                     	;# 
   151  000E                     	;# 
   152  000E                     	;# 
   153  000F                     	;# 
   154  0010                     	;# 
   155  0011                     	;# 
   156  0012                     	;# 
   157  0013                     	;# 
   158  0014                     	;# 
   159  0015                     	;# 
   160  0015                     	;# 
   161  0016                     	;# 
   162  0017                     	;# 
   163  0018                     	;# 
   164  0019                     	;# 
   165  001A                     	;# 
   166  001B                     	;# 
   167  001B                     	;# 
   168  001C                     	;# 
   169  001D                     	;# 
   170  001E                     	;# 
   171  001F                     	;# 
   172  0081                     	;# 
   173  0085                     	;# 
   174  0086                     	;# 
   175  0087                     	;# 
   176  0088                     	;# 
   177  0089                     	;# 
   178  008C                     	;# 
   179  008D                     	;# 
   180  008E                     	;# 
   181  008F                     	;# 
   182  0090                     	;# 
   183  0091                     	;# 
   184  0092                     	;# 
   185  0093                     	;# 
   186  0093                     	;# 
   187  0093                     	;# 
   188  0094                     	;# 
   189  0095                     	;# 
   190  0096                     	;# 
   191  0097                     	;# 
   192  0098                     	;# 
   193  0099                     	;# 
   194  009A                     	;# 
   195  009B                     	;# 
   196  009C                     	;# 
   197  009D                     	;# 
   198  009E                     	;# 
   199  009F                     	;# 
   200  0105                     	;# 
   201  0107                     	;# 
   202  0108                     	;# 
   203  0109                     	;# 
   204  010C                     	;# 
   205  010C                     	;# 
   206  010D                     	;# 
   207  010E                     	;# 
   208  010F                     	;# 
   209  0185                     	;# 
   210  0187                     	;# 
   211  0188                     	;# 
   212  0189                     	;# 
   213  018C                     	;# 
   214  018D                     	;# 
   215  001A                     _RCREG	set	26
   216  0019                     _TXREG	set	25
   217  000C                     _PIR1bits	set	12
   218  001E                     _ADRESH	set	30
   219  0009                     _PORTE	set	9
   220  0008                     _PORTD	set	8
   221  0007                     _PORTC	set	7
   222  0006                     _PORTB	set	6
   223  0005                     _PORTA	set	5
   224  000B                     _INTCONbits	set	11
   225  0018                     _RCSTAbits	set	24
   226  0001                     _TMR0	set	1
   227  001F                     _ADCON0bits	set	31
   228  0035                     _RB5	set	53
   229  0036                     _RB6	set	54
   230  0034                     _RB4	set	52
   231  0033                     _RB3	set	51
   232  0037                     _RB7	set	55
   233  0042                     _RD2	set	66
   234  0032                     _RB2	set	50
   235  0041                     _RD1	set	65
   236  0031                     _RB1	set	49
   237  0040                     _RD0	set	64
   238  0030                     _RB0	set	48
   239  005A                     _T0IF	set	90
   240  009A                     _SPBRGH	set	154
   241  0099                     _SPBRG	set	153
   242  0098                     _TXSTAbits	set	152
   243  008F                     _OSCCONbits	set	143
   244  0095                     _WPUBbits	set	149
   245  0081                     _OPTION_REGbits	set	129
   246  009F                     _ADCON1bits	set	159
   247  0089                     _TRISE	set	137
   248  0088                     _TRISD	set	136
   249  0086                     _TRISB	set	134
   250  0085                     _TRISA	set	133
   251  0187                     _BAUDCTLbits	set	391
   252  0189                     _ANSELH	set	393
   253  0188                     _ANSEL	set	392
   254                           
   255                           	psect	strings
   256  0B06                     __pstrings:
   257  0B06                     stringtab:
   258  0B06                     __stringtab:
   259                           
   260                           ;	String table - string pointers are 2 bytes each
   261  0B06  1BFF               	btfsc	btemp+1,7
   262  0B07  2B10               	ljmp	stringcode
   263  0B08  1383               	bcf	3,7
   264  0B09  187F               	btfsc	btemp+1,0
   265  0B0A  1783               	bsf	3,7
   266  0B0B  0800               	movf	0,w
   267  0B0C  0A84               	incf	4,f
   268  0B0D  1903               	skipnz
   269  0B0E  0AFF               	incf	btemp+1,f
   270  0B0F  0008               	return
   271  0B10                     stringcode:
   272  0B10  087F               	movf	btemp+1,w
   273  0B11  397F               	andlw	127
   274  0B12  008A               	movwf	10
   275  0B13  0804               	movf	4,w
   276  0B14  0A84               	incf	4,f
   277  0B15  1903               	skipnz
   278  0B16  0AFF               	incf	btemp+1,f
   279  0B17  0082               	movwf	2
   280  0B18                     __stringbase:
   281  0B18                     __end_of__stringtab:
   282                           
   283                           	psect	stringtext
   284  0800                     __pstringtext:
   285  0800                     STR_29:
   286  0800  3420               	retlw	32	;' '
   287  0801  3461               	retlw	97	;'a'
   288  0802  342E               	retlw	46	;'.'
   289  0803  3430               	retlw	48	;'0'
   290  0804  3420               	retlw	32	;' '
   291  0805  3420               	retlw	32	;' '
   292  0806  3462               	retlw	98	;'b'
   293  0807  342E               	retlw	46	;'.'
   294  0808  3431               	retlw	49	;'1'
   295  0809  3420               	retlw	32	;' '
   296  080A  3420               	retlw	32	;' '
   297  080B  3420               	retlw	32	;' '
   298  080C  3463               	retlw	99	;'c'
   299  080D  342E               	retlw	46	;'.'
   300  080E  3432               	retlw	50	;'2'
   301  080F  3420               	retlw	32	;' '
   302  0810  3420               	retlw	32	;' '
   303  0811  3420               	retlw	32	;' '
   304  0812  3464               	retlw	100	;'d'
   305  0813  342E               	retlw	46	;'.'
   306  0814  3433               	retlw	51	;'3'
   307  0815  3420               	retlw	32	;' '
   308  0816  3420               	retlw	32	;' '
   309  0817  3420               	retlw	32	;' '
   310  0818  3465               	retlw	101	;'e'
   311  0819  342E               	retlw	46	;'.'
   312  081A  3434               	retlw	52	;'4'
   313  081B  3420               	retlw	32	;' '
   314  081C  3420               	retlw	32	;' '
   315  081D  3420               	retlw	32	;' '
   316  081E  3466               	retlw	102	;'f'
   317  081F  342E               	retlw	46	;'.'
   318  0820  3435               	retlw	53	;'5'
   319  0821  3420               	retlw	32	;' '
   320  0822  3420               	retlw	32	;' '
   321  0823  3420               	retlw	32	;' '
   322  0824  3467               	retlw	103	;'g'
   323  0825  342E               	retlw	46	;'.'
   324  0826  3436               	retlw	54	;'6'
   325  0827  3420               	retlw	32	;' '
   326  0828  3420               	retlw	32	;' '
   327  0829  3420               	retlw	32	;' '
   328  082A  3468               	retlw	104	;'h'
   329  082B  342E               	retlw	46	;'.'
   330  082C  3437               	retlw	55	;'7'
   331  082D  3420               	retlw	32	;' '
   332  082E  3420               	retlw	32	;' '
   333  082F  3469               	retlw	105	;'i'
   334  0830  342E               	retlw	46	;'.'
   335  0831  3438               	retlw	56	;'8'
   336  0832  340D               	retlw	13
   337  0833  3400               	retlw	0
   338  0834                     STR_39:
   339  0834  3420               	retlw	32	;' '
   340  0835  3470               	retlw	112	;'p'
   341  0836  3472               	retlw	114	;'r'
   342  0837  3465               	retlw	101	;'e'
   343  0838  3473               	retlw	115	;'s'
   344  0839  3469               	retlw	105	;'i'
   345  083A  346F               	retlw	111	;'o'
   346  083B  346E               	retlw	110	;'n'
   347  083C  3465               	retlw	101	;'e'
   348  083D  3420               	retlw	32	;' '
   349  083E  3465               	retlw	101	;'e'
   350  083F  346C               	retlw	108	;'l'
   351  0840  3420               	retlw	32	;' '
   352  0841  346E               	retlw	110	;'n'
   353  0842  34C3               	retlw	-61
   354  0843  34BA               	retlw	-70
   355  0844  346D               	retlw	109	;'m'
   356  0845  3465               	retlw	101	;'e'
   357  0846  3472               	retlw	114	;'r'
   358  0847  346F               	retlw	111	;'o'
   359  0848  3420               	retlw	32	;' '
   360  0849  3464               	retlw	100	;'d'
   361  084A  3465               	retlw	101	;'e'
   362  084B  3420               	retlw	32	;' '
   363  084C  346D               	retlw	109	;'m'
   364  084D  3465               	retlw	101	;'e'
   365  084E  3464               	retlw	100	;'d'
   366  084F  3469               	retlw	105	;'i'
   367  0850  3463               	retlw	99	;'c'
   368  0851  3461               	retlw	97	;'a'
   369  0852  346D               	retlw	109	;'m'
   370  0853  3465               	retlw	101	;'e'
   371  0854  346E               	retlw	110	;'n'
   372  0855  3474               	retlw	116	;'t'
   373  0856  346F               	retlw	111	;'o'
   374  0857  3420               	retlw	32	;' '
   375  0858  3461               	retlw	97	;'a'
   376  0859  3420               	retlw	32	;' '
   377  085A  3467               	retlw	103	;'g'
   378  085B  3475               	retlw	117	;'u'
   379  085C  3461               	retlw	97	;'a'
   380  085D  3472               	retlw	114	;'r'
   381  085E  3464               	retlw	100	;'d'
   382  085F  3461               	retlw	97	;'a'
   383  0860  3472               	retlw	114	;'r'
   384  0861  3420               	retlw	32	;' '
   385  0862  340D               	retlw	13
   386  0863  3400               	retlw	0
   387  0864                     STR_31:
   388  0864  3472               	retlw	114	;'r'
   389  0865  342E               	retlw	46	;'.'
   390  0866  3431               	retlw	49	;'1'
   391  0867  3437               	retlw	55	;'7'
   392  0868  3420               	retlw	32	;' '
   393  0869  3420               	retlw	32	;' '
   394  086A  3473               	retlw	115	;'s'
   395  086B  342E               	retlw	46	;'.'
   396  086C  3431               	retlw	49	;'1'
   397  086D  3438               	retlw	56	;'8'
   398  086E  3420               	retlw	32	;' '
   399  086F  3420               	retlw	32	;' '
   400  0870  3474               	retlw	116	;'t'
   401  0871  342E               	retlw	46	;'.'
   402  0872  3431               	retlw	49	;'1'
   403  0873  3439               	retlw	57	;'9'
   404  0874  3420               	retlw	32	;' '
   405  0875  3420               	retlw	32	;' '
   406  0876  3475               	retlw	117	;'u'
   407  0877  342E               	retlw	46	;'.'
   408  0878  3432               	retlw	50	;'2'
   409  0879  3430               	retlw	48	;'0'
   410  087A  3420               	retlw	32	;' '
   411  087B  3420               	retlw	32	;' '
   412  087C  3476               	retlw	118	;'v'
   413  087D  342E               	retlw	46	;'.'
   414  087E  3432               	retlw	50	;'2'
   415  087F  3431               	retlw	49	;'1'
   416  0880  3420               	retlw	32	;' '
   417  0881  3420               	retlw	32	;' '
   418  0882  3477               	retlw	119	;'w'
   419  0883  342E               	retlw	46	;'.'
   420  0884  3432               	retlw	50	;'2'
   421  0885  3432               	retlw	50	;'2'
   422  0886  3420               	retlw	32	;' '
   423  0887  3420               	retlw	32	;' '
   424  0888  3478               	retlw	120	;'x'
   425  0889  342E               	retlw	46	;'.'
   426  088A  3432               	retlw	50	;'2'
   427  088B  3433               	retlw	51	;'3'
   428  088C  3420               	retlw	32	;' '
   429  088D  3420               	retlw	32	;' '
   430  088E  3479               	retlw	121	;'y'
   431  088F  342E               	retlw	46	;'.'
   432  0890  3432               	retlw	50	;'2'
   433  0891  3434               	retlw	52	;'4'
   434  0892  340D               	retlw	13
   435  0893  3400               	retlw	0
   436  0894                     STR_30:
   437  0894  3420               	retlw	32	;' '
   438  0895  346A               	retlw	106	;'j'
   439  0896  342E               	retlw	46	;'.'
   440  0897  3439               	retlw	57	;'9'
   441  0898  3420               	retlw	32	;' '
   442  0899  3420               	retlw	32	;' '
   443  089A  346B               	retlw	107	;'k'
   444  089B  342E               	retlw	46	;'.'
   445  089C  3431               	retlw	49	;'1'
   446  089D  3430               	retlw	48	;'0'
   447  089E  3420               	retlw	32	;' '
   448  089F  3420               	retlw	32	;' '
   449  08A0  346C               	retlw	108	;'l'
   450  08A1  342E               	retlw	46	;'.'
   451  08A2  3431               	retlw	49	;'1'
   452  08A3  3431               	retlw	49	;'1'
   453  08A4  3420               	retlw	32	;' '
   454  08A5  3420               	retlw	32	;' '
   455  08A6  346D               	retlw	109	;'m'
   456  08A7  342E               	retlw	46	;'.'
   457  08A8  3431               	retlw	49	;'1'
   458  08A9  3432               	retlw	50	;'2'
   459  08AA  3420               	retlw	32	;' '
   460  08AB  3420               	retlw	32	;' '
   461  08AC  346E               	retlw	110	;'n'
   462  08AD  342E               	retlw	46	;'.'
   463  08AE  3431               	retlw	49	;'1'
   464  08AF  3433               	retlw	51	;'3'
   465  08B0  3420               	retlw	32	;' '
   466  08B1  3420               	retlw	32	;' '
   467  08B2  346F               	retlw	111	;'o'
   468  08B3  342E               	retlw	46	;'.'
   469  08B4  3431               	retlw	49	;'1'
   470  08B5  3434               	retlw	52	;'4'
   471  08B6  3420               	retlw	32	;' '
   472  08B7  3420               	retlw	32	;' '
   473  08B8  3470               	retlw	112	;'p'
   474  08B9  342E               	retlw	46	;'.'
   475  08BA  3431               	retlw	49	;'1'
   476  08BB  3435               	retlw	53	;'5'
   477  08BC  3420               	retlw	32	;' '
   478  08BD  3420               	retlw	32	;' '
   479  08BE  3471               	retlw	113	;'q'
   480  08BF  342E               	retlw	46	;'.'
   481  08C0  3431               	retlw	49	;'1'
   482  08C1  3436               	retlw	54	;'6'
   483  08C2  340D               	retlw	13
   484  08C3  3400               	retlw	0
   485  08C4                     STR_34:
   486  08C4  3420               	retlw	32	;' '
   487  08C5  3449               	retlw	73	;'I'
   488  08C6  346E               	retlw	110	;'n'
   489  08C7  3467               	retlw	103	;'g'
   490  08C8  3472               	retlw	114	;'r'
   491  08C9  3465               	retlw	101	;'e'
   492  08CA  3473               	retlw	115	;'s'
   493  08CB  34C3               	retlw	-61
   494  08CC  34A1               	retlw	-95
   495  08CD  3420               	retlw	32	;' '
   496  08CE  346C               	retlw	108	;'l'
   497  08CF  3461               	retlw	97	;'a'
   498  08D0  3420               	retlw	32	;' '
   499  08D1  346C               	retlw	108	;'l'
   500  08D2  3465               	retlw	101	;'e'
   501  08D3  3474               	retlw	116	;'t'
   502  08D4  3472               	retlw	114	;'r'
   503  08D5  3461               	retlw	97	;'a'
   504  08D6  3420               	retlw	32	;' '
   505  08D7  3464               	retlw	100	;'d'
   506  08D8  3465               	retlw	101	;'e'
   507  08D9  3420               	retlw	32	;' '
   508  08DA  346C               	retlw	108	;'l'
   509  08DB  346F               	retlw	111	;'o'
   510  08DC  3473               	retlw	115	;'s'
   511  08DD  3420               	retlw	32	;' '
   512  08DE  346D               	retlw	109	;'m'
   513  08DF  3469               	retlw	105	;'i'
   514  08E0  346E               	retlw	110	;'n'
   515  08E1  3475               	retlw	117	;'u'
   516  08E2  3474               	retlw	116	;'t'
   517  08E3  346F               	retlw	111	;'o'
   518  08E4  3473               	retlw	115	;'s'
   519  08E5  3420               	retlw	32	;' '
   520  08E6  346E               	retlw	110	;'n'
   521  08E7  3475               	retlw	117	;'u'
   522  08E8  3465               	retlw	101	;'e'
   523  08E9  3476               	retlw	118	;'v'
   524  08EA  346F               	retlw	111	;'o'
   525  08EB  3473               	retlw	115	;'s'
   526  08EC  3420               	retlw	32	;' '
   527  08ED  3420               	retlw	32	;' '
   528  08EE  340D               	retlw	13
   529  08EF  3400               	retlw	0
   530  08F0                     STR_38:
   531  08F0  3420               	retlw	32	;' '
   532  08F1  3441               	retlw	65	;'A'
   533  08F2  3463               	retlw	99	;'c'
   534  08F3  3474               	retlw	116	;'t'
   535  08F4  3475               	retlw	117	;'u'
   536  08F5  3461               	retlw	97	;'a'
   537  08F6  346C               	retlw	108	;'l'
   538  08F7  346D               	retlw	109	;'m'
   539  08F8  3465               	retlw	101	;'e'
   540  08F9  346E               	retlw	110	;'n'
   541  08FA  3474               	retlw	116	;'t'
   542  08FB  3465               	retlw	101	;'e'
   543  08FC  3420               	retlw	32	;' '
   544  08FD  3473               	retlw	115	;'s'
   545  08FE  3465               	retlw	101	;'e'
   546  08FF  3420               	retlw	32	;' '
   547  0900  3463               	retlw	99	;'c'
   548  0901  3475               	retlw	117	;'u'
   549  0902  3465               	retlw	101	;'e'
   550  0903  346E               	retlw	110	;'n'
   551  0904  3474               	retlw	116	;'t'
   552  0905  3461               	retlw	97	;'a'
   553  0906  3420               	retlw	32	;' '
   554  0907  3463               	retlw	99	;'c'
   555  0908  346F               	retlw	111	;'o'
   556  0909  346E               	retlw	110	;'n'
   557  090A  3420               	retlw	32	;' '
   558  090B  3433               	retlw	51	;'3'
   559  090C  3420               	retlw	32	;' '
   560  090D  346D               	retlw	109	;'m'
   561  090E  3465               	retlw	101	;'e'
   562  090F  3464               	retlw	100	;'d'
   563  0910  3469               	retlw	105	;'i'
   564  0911  3463               	retlw	99	;'c'
   565  0912  3461               	retlw	97	;'a'
   566  0913  346D               	retlw	109	;'m'
   567  0914  3465               	retlw	101	;'e'
   568  0915  346E               	retlw	110	;'n'
   569  0916  3474               	retlw	116	;'t'
   570  0917  346F               	retlw	111	;'o'
   571  0918  3473               	retlw	115	;'s'
   572  0919  340D               	retlw	13
   573  091A  3400               	retlw	0
   574  091B                     STR_28:
   575  091B  3420               	retlw	32	;' '
   576  091C  3449               	retlw	73	;'I'
   577  091D  346E               	retlw	110	;'n'
   578  091E  3467               	retlw	103	;'g'
   579  091F  3472               	retlw	114	;'r'
   580  0920  3465               	retlw	101	;'e'
   581  0921  3473               	retlw	115	;'s'
   582  0922  34C3               	retlw	-61
   583  0923  34A1               	retlw	-95
   584  0924  3420               	retlw	32	;' '
   585  0925  346C               	retlw	108	;'l'
   586  0926  3461               	retlw	97	;'a'
   587  0927  3420               	retlw	32	;' '
   588  0928  346C               	retlw	108	;'l'
   589  0929  3465               	retlw	101	;'e'
   590  092A  3474               	retlw	116	;'t'
   591  092B  3472               	retlw	114	;'r'
   592  092C  3461               	retlw	97	;'a'
   593  092D  3420               	retlw	32	;' '
   594  092E  3464               	retlw	100	;'d'
   595  092F  3465               	retlw	101	;'e'
   596  0930  3420               	retlw	32	;' '
   597  0931  346C               	retlw	108	;'l'
   598  0932  3461               	retlw	97	;'a'
   599  0933  3420               	retlw	32	;' '
   600  0934  346E               	retlw	110	;'n'
   601  0935  3475               	retlw	117	;'u'
   602  0936  3465               	retlw	101	;'e'
   603  0937  3476               	retlw	118	;'v'
   604  0938  3461               	retlw	97	;'a'
   605  0939  3420               	retlw	32	;' '
   606  093A  3468               	retlw	104	;'h'
   607  093B  346F               	retlw	111	;'o'
   608  093C  3472               	retlw	114	;'r'
   609  093D  3461               	retlw	97	;'a'
   610  093E  3420               	retlw	32	;' '
   611  093F  3420               	retlw	32	;' '
   612  0940  340D               	retlw	13
   613  0941  3400               	retlw	0
   614  0942                     STR_7:
   615  0942  3436               	retlw	54	;'6'
   616  0943  3429               	retlw	41	;')'
   617  0944  3420               	retlw	32	;' '
   618  0945  344D               	retlw	77	;'M'
   619  0946  346F               	retlw	111	;'o'
   620  0947  3464               	retlw	100	;'d'
   621  0948  3469               	retlw	105	;'i'
   622  0949  3466               	retlw	102	;'f'
   623  094A  3469               	retlw	105	;'i'
   624  094B  3463               	retlw	99	;'c'
   625  094C  3461               	retlw	97	;'a'
   626  094D  3472               	retlw	114	;'r'
   627  094E  3420               	retlw	32	;' '
   628  094F  3468               	retlw	104	;'h'
   629  0950  346F               	retlw	111	;'o'
   630  0951  3472               	retlw	114	;'r'
   631  0952  3461               	retlw	97	;'a'
   632  0953  3472               	retlw	114	;'r'
   633  0954  3469               	retlw	105	;'i'
   634  0955  346F               	retlw	111	;'o'
   635  0956  3420               	retlw	32	;' '
   636  0957  3475               	retlw	117	;'u'
   637  0958  3473               	retlw	115	;'s'
   638  0959  3475               	retlw	117	;'u'
   639  095A  3461               	retlw	97	;'a'
   640  095B  3472               	retlw	114	;'r'
   641  095C  3469               	retlw	105	;'i'
   642  095D  346F               	retlw	111	;'o'
   643  095E  3420               	retlw	32	;' '
   644  095F  3474               	retlw	116	;'t'
   645  0960  3472               	retlw	114	;'r'
   646  0961  3465               	retlw	101	;'e'
   647  0962  3473               	retlw	115	;'s'
   648  0963  3420               	retlw	32	;' '
   649  0964  340D               	retlw	13
   650  0965  340D               	retlw	13
   651  0966  3400               	retlw	0
   652  0967                     STR_35:
   653  0967  3420               	retlw	32	;' '
   654  0968  3461               	retlw	97	;'a'
   655  0969  342E               	retlw	46	;'.'
   656  096A  3430               	retlw	48	;'0'
   657  096B  3420               	retlw	32	;' '
   658  096C  3420               	retlw	32	;' '
   659  096D  3462               	retlw	98	;'b'
   660  096E  342E               	retlw	46	;'.'
   661  096F  3431               	retlw	49	;'1'
   662  0970  3435               	retlw	53	;'5'
   663  0971  3420               	retlw	32	;' '
   664  0972  3420               	retlw	32	;' '
   665  0973  3420               	retlw	32	;' '
   666  0974  3463               	retlw	99	;'c'
   667  0975  342E               	retlw	46	;'.'
   668  0976  3433               	retlw	51	;'3'
   669  0977  3430               	retlw	48	;'0'
   670  0978  3420               	retlw	32	;' '
   671  0979  3420               	retlw	32	;' '
   672  097A  3420               	retlw	32	;' '
   673  097B  3464               	retlw	100	;'d'
   674  097C  342E               	retlw	46	;'.'
   675  097D  3434               	retlw	52	;'4'
   676  097E  3435               	retlw	53	;'5'
   677  097F  3420               	retlw	32	;' '
   678  0980  3420               	retlw	32	;' '
   679  0981  3420               	retlw	32	;' '
   680  0982  3465               	retlw	101	;'e'
   681  0983  342E               	retlw	46	;'.'
   682  0984  3435               	retlw	53	;'5'
   683  0985  3435               	retlw	53	;'5'
   684  0986  3420               	retlw	32	;' '
   685  0987  3420               	retlw	32	;' '
   686  0988  3420               	retlw	32	;' '
   687  0989  340D               	retlw	13
   688  098A  3400               	retlw	0
   689  098B                     STR_5:
   690  098B  3434               	retlw	52	;'4'
   691  098C  3429               	retlw	41	;')'
   692  098D  3420               	retlw	32	;' '
   693  098E  344D               	retlw	77	;'M'
   694  098F  346F               	retlw	111	;'o'
   695  0990  3464               	retlw	100	;'d'
   696  0991  3469               	retlw	105	;'i'
   697  0992  3466               	retlw	102	;'f'
   698  0993  3469               	retlw	105	;'i'
   699  0994  3463               	retlw	99	;'c'
   700  0995  3461               	retlw	97	;'a'
   701  0996  3472               	retlw	114	;'r'
   702  0997  3420               	retlw	32	;' '
   703  0998  3468               	retlw	104	;'h'
   704  0999  346F               	retlw	111	;'o'
   705  099A  3472               	retlw	114	;'r'
   706  099B  3461               	retlw	97	;'a'
   707  099C  3472               	retlw	114	;'r'
   708  099D  3469               	retlw	105	;'i'
   709  099E  346F               	retlw	111	;'o'
   710  099F  3420               	retlw	32	;' '
   711  09A0  3475               	retlw	117	;'u'
   712  09A1  3473               	retlw	115	;'s'
   713  09A2  3475               	retlw	117	;'u'
   714  09A3  3461               	retlw	97	;'a'
   715  09A4  3472               	retlw	114	;'r'
   716  09A5  3469               	retlw	105	;'i'
   717  09A6  346F               	retlw	111	;'o'
   718  09A7  3420               	retlw	32	;' '
   719  09A8  3475               	retlw	117	;'u'
   720  09A9  346E               	retlw	110	;'n'
   721  09AA  346F               	retlw	111	;'o'
   722  09AB  3420               	retlw	32	;' '
   723  09AC  340D               	retlw	13
   724  09AD  3400               	retlw	0
   725  09AE                     STR_6:
   726  09AE  3435               	retlw	53	;'5'
   727  09AF  3429               	retlw	41	;')'
   728  09B0  3420               	retlw	32	;' '
   729  09B1  344D               	retlw	77	;'M'
   730  09B2  346F               	retlw	111	;'o'
   731  09B3  3464               	retlw	100	;'d'
   732  09B4  3469               	retlw	105	;'i'
   733  09B5  3466               	retlw	102	;'f'
   734  09B6  3469               	retlw	105	;'i'
   735  09B7  3463               	retlw	99	;'c'
   736  09B8  3461               	retlw	97	;'a'
   737  09B9  3472               	retlw	114	;'r'
   738  09BA  3420               	retlw	32	;' '
   739  09BB  3468               	retlw	104	;'h'
   740  09BC  346F               	retlw	111	;'o'
   741  09BD  3472               	retlw	114	;'r'
   742  09BE  3461               	retlw	97	;'a'
   743  09BF  3472               	retlw	114	;'r'
   744  09C0  3469               	retlw	105	;'i'
   745  09C1  346F               	retlw	111	;'o'
   746  09C2  3420               	retlw	32	;' '
   747  09C3  3475               	retlw	117	;'u'
   748  09C4  3473               	retlw	115	;'s'
   749  09C5  3475               	retlw	117	;'u'
   750  09C6  3461               	retlw	97	;'a'
   751  09C7  3472               	retlw	114	;'r'
   752  09C8  3469               	retlw	105	;'i'
   753  09C9  346F               	retlw	111	;'o'
   754  09CA  3420               	retlw	32	;' '
   755  09CB  3464               	retlw	100	;'d'
   756  09CC  346F               	retlw	111	;'o'
   757  09CD  3473               	retlw	115	;'s'
   758  09CE  340D               	retlw	13
   759  09CF  3400               	retlw	0
   760  09D0                     STR_19:
   761  09D0  3420               	retlw	32	;' '
   762  09D1  346D               	retlw	109	;'m'
   763  09D2  3469               	retlw	105	;'i'
   764  09D3  346E               	retlw	110	;'n'
   765  09D4  3473               	retlw	115	;'s'
   766  09D5  342E               	retlw	46	;'.'
   767  09D6  3420               	retlw	32	;' '
   768  09D7  3470               	retlw	112	;'p'
   769  09D8  3461               	retlw	97	;'a'
   770  09D9  3472               	retlw	114	;'r'
   771  09DA  3461               	retlw	97	;'a'
   772  09DB  3420               	retlw	32	;' '
   773  09DC  3465               	retlw	101	;'e'
   774  09DD  346C               	retlw	108	;'l'
   775  09DE  3420               	retlw	32	;' '
   776  09DF  346D               	retlw	109	;'m'
   777  09E0  3465               	retlw	101	;'e'
   778  09E1  3464               	retlw	100	;'d'
   779  09E2  3469               	retlw	105	;'i'
   780  09E3  3463               	retlw	99	;'c'
   781  09E4  3461               	retlw	97	;'a'
   782  09E5  346D               	retlw	109	;'m'
   783  09E6  3465               	retlw	101	;'e'
   784  09E7  346E               	retlw	110	;'n'
   785  09E8  3474               	retlw	116	;'t'
   786  09E9  346F               	retlw	111	;'o'
   787  09EA  3420               	retlw	32	;' '
   788  09EB  3433               	retlw	51	;'3'
   789  09EC  3420               	retlw	32	;' '
   790  09ED  340D               	retlw	13
   791  09EE  340D               	retlw	13
   792  09EF  3400               	retlw	0
   793  09F0                     STR_23:
   794  09F0  3420               	retlw	32	;' '
   795  09F1  346D               	retlw	109	;'m'
   796  09F2  3469               	retlw	105	;'i'
   797  09F3  346E               	retlw	110	;'n'
   798  09F4  3473               	retlw	115	;'s'
   799  09F5  342E               	retlw	46	;'.'
   800  09F6  3420               	retlw	32	;' '
   801  09F7  3470               	retlw	112	;'p'
   802  09F8  3461               	retlw	97	;'a'
   803  09F9  3472               	retlw	114	;'r'
   804  09FA  3461               	retlw	97	;'a'
   805  09FB  3420               	retlw	32	;' '
   806  09FC  3465               	retlw	101	;'e'
   807  09FD  346C               	retlw	108	;'l'
   808  09FE  3420               	retlw	32	;' '
   809  09FF  346D               	retlw	109	;'m'
   810  0A00  3465               	retlw	101	;'e'
   811  0A01  3464               	retlw	100	;'d'
   812  0A02  3469               	retlw	105	;'i'
   813  0A03  3463               	retlw	99	;'c'
   814  0A04  3461               	retlw	97	;'a'
   815  0A05  346D               	retlw	109	;'m'
   816  0A06  3465               	retlw	101	;'e'
   817  0A07  346E               	retlw	110	;'n'
   818  0A08  3474               	retlw	116	;'t'
   819  0A09  346F               	retlw	111	;'o'
   820  0A0A  3420               	retlw	32	;' '
   821  0A0B  3420               	retlw	32	;' '
   822  0A0C  340D               	retlw	13
   823  0A0D  340D               	retlw	13
   824  0A0E  3400               	retlw	0
   825  0A0F                     STR_11:
   826  0A0F  3420               	retlw	32	;' '
   827  0A10  346D               	retlw	109	;'m'
   828  0A11  3469               	retlw	105	;'i'
   829  0A12  346E               	retlw	110	;'n'
   830  0A13  3473               	retlw	115	;'s'
   831  0A14  342E               	retlw	46	;'.'
   832  0A15  3420               	retlw	32	;' '
   833  0A16  3470               	retlw	112	;'p'
   834  0A17  3461               	retlw	97	;'a'
   835  0A18  3472               	retlw	114	;'r'
   836  0A19  3461               	retlw	97	;'a'
   837  0A1A  3420               	retlw	32	;' '
   838  0A1B  3465               	retlw	101	;'e'
   839  0A1C  346C               	retlw	108	;'l'
   840  0A1D  3420               	retlw	32	;' '
   841  0A1E  346D               	retlw	109	;'m'
   842  0A1F  3465               	retlw	101	;'e'
   843  0A20  3464               	retlw	100	;'d'
   844  0A21  3469               	retlw	105	;'i'
   845  0A22  3463               	retlw	99	;'c'
   846  0A23  3461               	retlw	97	;'a'
   847  0A24  346D               	retlw	109	;'m'
   848  0A25  3465               	retlw	101	;'e'
   849  0A26  346E               	retlw	110	;'n'
   850  0A27  3474               	retlw	116	;'t'
   851  0A28  346F               	retlw	111	;'o'
   852  0A29  3420               	retlw	32	;' '
   853  0A2A  3431               	retlw	49	;'1'
   854  0A2B  3420               	retlw	32	;' '
   855  0A2C  340D               	retlw	13
   856  0A2D  3400               	retlw	0
   857  0A2E                     STR_15:
   858  0A2E  3420               	retlw	32	;' '
   859  0A2F  346D               	retlw	109	;'m'
   860  0A30  3469               	retlw	105	;'i'
   861  0A31  346E               	retlw	110	;'n'
   862  0A32  3473               	retlw	115	;'s'
   863  0A33  342E               	retlw	46	;'.'
   864  0A34  3420               	retlw	32	;' '
   865  0A35  3470               	retlw	112	;'p'
   866  0A36  3461               	retlw	97	;'a'
   867  0A37  3472               	retlw	114	;'r'
   868  0A38  3461               	retlw	97	;'a'
   869  0A39  3420               	retlw	32	;' '
   870  0A3A  3465               	retlw	101	;'e'
   871  0A3B  346C               	retlw	108	;'l'
   872  0A3C  3420               	retlw	32	;' '
   873  0A3D  346D               	retlw	109	;'m'
   874  0A3E  3465               	retlw	101	;'e'
   875  0A3F  3464               	retlw	100	;'d'
   876  0A40  3469               	retlw	105	;'i'
   877  0A41  3463               	retlw	99	;'c'
   878  0A42  3461               	retlw	97	;'a'
   879  0A43  346D               	retlw	109	;'m'
   880  0A44  3465               	retlw	101	;'e'
   881  0A45  346E               	retlw	110	;'n'
   882  0A46  3474               	retlw	116	;'t'
   883  0A47  346F               	retlw	111	;'o'
   884  0A48  3420               	retlw	32	;' '
   885  0A49  3432               	retlw	50	;'2'
   886  0A4A  3420               	retlw	32	;' '
   887  0A4B  340D               	retlw	13
   888  0A4C  3400               	retlw	0
   889  0A4D                     STR_1:
   890  0A4D  340D               	retlw	13
   891  0A4E  3420               	retlw	32	;' '
   892  0A4F  3451               	retlw	81	;'Q'
   893  0A50  3475               	retlw	117	;'u'
   894  0A51  3465               	retlw	101	;'e'
   895  0A52  3420               	retlw	32	;' '
   896  0A53  3461               	retlw	97	;'a'
   897  0A54  3463               	retlw	99	;'c'
   898  0A55  3463               	retlw	99	;'c'
   899  0A56  3469               	retlw	105	;'i'
   900  0A57  346F               	retlw	111	;'o'
   901  0A58  346E               	retlw	110	;'n'
   902  0A59  3420               	retlw	32	;' '
   903  0A5A  3464               	retlw	100	;'d'
   904  0A5B  3465               	retlw	101	;'e'
   905  0A5C  3473               	retlw	115	;'s'
   906  0A5D  3465               	retlw	101	;'e'
   907  0A5E  3461               	retlw	97	;'a'
   908  0A5F  3420               	retlw	32	;' '
   909  0A60  3465               	retlw	101	;'e'
   910  0A61  346A               	retlw	106	;'j'
   911  0A62  3465               	retlw	101	;'e'
   912  0A63  3463               	retlw	99	;'c'
   913  0A64  3475               	retlw	117	;'u'
   914  0A65  3474               	retlw	116	;'t'
   915  0A66  3461               	retlw	97	;'a'
   916  0A67  3472               	retlw	114	;'r'
   917  0A68  343F               	retlw	63	;'?'
   918  0A69  3420               	retlw	32	;' '
   919  0A6A  340D               	retlw	13
   920  0A6B  3400               	retlw	0
   921  0A6C                     STR_4:
   922  0A6C  3433               	retlw	51	;'3'
   923  0A6D  3429               	retlw	41	;')'
   924  0A6E  3420               	retlw	32	;' '
   925  0A6F  3476               	retlw	118	;'v'
   926  0A70  3465               	retlw	101	;'e'
   927  0A71  3472               	retlw	114	;'r'
   928  0A72  3420               	retlw	32	;' '
   929  0A73  3464               	retlw	100	;'d'
   930  0A74  3461               	retlw	97	;'a'
   931  0A75  3474               	retlw	116	;'t'
   932  0A76  346F               	retlw	111	;'o'
   933  0A77  3473               	retlw	115	;'s'
   934  0A78  3420               	retlw	32	;' '
   935  0A79  3464               	retlw	100	;'d'
   936  0A7A  3465               	retlw	101	;'e'
   937  0A7B  3420               	retlw	32	;' '
   938  0A7C  3475               	retlw	117	;'u'
   939  0A7D  3473               	retlw	115	;'s'
   940  0A7E  3475               	retlw	117	;'u'
   941  0A7F  3461               	retlw	97	;'a'
   942  0A80  3472               	retlw	114	;'r'
   943  0A81  3469               	retlw	105	;'i'
   944  0A82  346F               	retlw	111	;'o'
   945  0A83  3420               	retlw	32	;' '
   946  0A84  3474               	retlw	116	;'t'
   947  0A85  3472               	retlw	114	;'r'
   948  0A86  3465               	retlw	101	;'e'
   949  0A87  3473               	retlw	115	;'s'
   950  0A88  3420               	retlw	32	;' '
   951  0A89  340D               	retlw	13
   952  0A8A  3400               	retlw	0
   953  0A8B                     STR_2:
   954  0A8B  3431               	retlw	49	;'1'
   955  0A8C  3429               	retlw	41	;')'
   956  0A8D  3420               	retlw	32	;' '
   957  0A8E  3476               	retlw	118	;'v'
   958  0A8F  3465               	retlw	101	;'e'
   959  0A90  3472               	retlw	114	;'r'
   960  0A91  3420               	retlw	32	;' '
   961  0A92  3464               	retlw	100	;'d'
   962  0A93  3461               	retlw	97	;'a'
   963  0A94  3474               	retlw	116	;'t'
   964  0A95  346F               	retlw	111	;'o'
   965  0A96  3473               	retlw	115	;'s'
   966  0A97  3420               	retlw	32	;' '
   967  0A98  3464               	retlw	100	;'d'
   968  0A99  3465               	retlw	101	;'e'
   969  0A9A  3420               	retlw	32	;' '
   970  0A9B  3475               	retlw	117	;'u'
   971  0A9C  3473               	retlw	115	;'s'
   972  0A9D  3475               	retlw	117	;'u'
   973  0A9E  3461               	retlw	97	;'a'
   974  0A9F  3472               	retlw	114	;'r'
   975  0AA0  3469               	retlw	105	;'i'
   976  0AA1  346F               	retlw	111	;'o'
   977  0AA2  3420               	retlw	32	;' '
   978  0AA3  3475               	retlw	117	;'u'
   979  0AA4  346E               	retlw	110	;'n'
   980  0AA5  346F               	retlw	111	;'o'
   981  0AA6  3420               	retlw	32	;' '
   982  0AA7  340D               	retlw	13
   983  0AA8  3400               	retlw	0
   984  0AA9                     STR_3:
   985  0AA9  3432               	retlw	50	;'2'
   986  0AAA  3429               	retlw	41	;')'
   987  0AAB  3420               	retlw	32	;' '
   988  0AAC  3476               	retlw	118	;'v'
   989  0AAD  3465               	retlw	101	;'e'
   990  0AAE  3472               	retlw	114	;'r'
   991  0AAF  3420               	retlw	32	;' '
   992  0AB0  3464               	retlw	100	;'d'
   993  0AB1  3461               	retlw	97	;'a'
   994  0AB2  3474               	retlw	116	;'t'
   995  0AB3  346F               	retlw	111	;'o'
   996  0AB4  3473               	retlw	115	;'s'
   997  0AB5  3420               	retlw	32	;' '
   998  0AB6  3464               	retlw	100	;'d'
   999  0AB7  3465               	retlw	101	;'e'
  1000  0AB8  3420               	retlw	32	;' '
  1001  0AB9  3475               	retlw	117	;'u'
  1002  0ABA  3473               	retlw	115	;'s'
  1003  0ABB  3475               	retlw	117	;'u'
  1004  0ABC  3461               	retlw	97	;'a'
  1005  0ABD  3472               	retlw	114	;'r'
  1006  0ABE  3469               	retlw	105	;'i'
  1007  0ABF  346F               	retlw	111	;'o'
  1008  0AC0  3420               	retlw	32	;' '
  1009  0AC1  3464               	retlw	100	;'d'
  1010  0AC2  346F               	retlw	111	;'o'
  1011  0AC3  3473               	retlw	115	;'s'
  1012  0AC4  340D               	retlw	13
  1013  0AC5  3400               	retlw	0
  1014  0AC6                     STR_40:
  1015  0AC6  3420               	retlw	32	;' '
  1016  0AC7  3431               	retlw	49	;'1'
  1017  0AC8  342E               	retlw	46	;'.'
  1018  0AC9  3441               	retlw	65	;'A'
  1019  0ACA  3446               	retlw	70	;'F'
  1020  0ACB  3443               	retlw	67	;'C'
  1021  0ACC  3420               	retlw	32	;' '
  1022  0ACD  3420               	retlw	32	;' '
  1023  0ACE  3420               	retlw	32	;' '
  1024  0ACF  3420               	retlw	32	;' '
  1025  0AD0  3432               	retlw	50	;'2'
  1026  0AD1  342E               	retlw	46	;'.'
  1027  0AD2  3446               	retlw	70	;'F'
  1028  0AD3  3446               	retlw	70	;'F'
  1029  0AD4  3454               	retlw	84	;'T'
  1030  0AD5  3420               	retlw	32	;' '
  1031  0AD6  3420               	retlw	32	;' '
  1032  0AD7  3420               	retlw	32	;' '
  1033  0AD8  3433               	retlw	51	;'3'
  1034  0AD9  342E               	retlw	46	;'.'
  1035  0ADA  3444               	retlw	68	;'D'
  1036  0ADB  3448               	retlw	72	;'H'
  1037  0ADC  344C               	retlw	76	;'L'
  1038  0ADD  3420               	retlw	32	;' '
  1039  0ADE  340D               	retlw	13
  1040  0ADF  3400               	retlw	0
  1041  0AE0                     STR_8:
  1042  0AE0  3420               	retlw	32	;' '
  1043  0AE1  3445               	retlw	69	;'E'
  1044  0AE2  3473               	retlw	115	;'s'
  1045  0AE3  3470               	retlw	112	;'p'
  1046  0AE4  3465               	retlw	101	;'e'
  1047  0AE5  3472               	retlw	114	;'r'
  1048  0AE6  3461               	retlw	97	;'a'
  1049  0AE7  3472               	retlw	114	;'r'
  1050  0AE8  3420               	retlw	32	;' '
  1051  0AE9  3420               	retlw	32	;' '
  1052  0AEA  3400               	retlw	0
  1053  0AEB                     STR_9:
  1054  0AEB  3420               	retlw	32	;' '
  1055  0AEC  3448               	retlw	72	;'H'
  1056  0AED  346F               	retlw	111	;'o'
  1057  0AEE  3472               	retlw	114	;'r'
  1058  0AEF  3461               	retlw	97	;'a'
  1059  0AF0  3473               	retlw	115	;'s'
  1060  0AF1  3420               	retlw	32	;' '
  1061  0AF2  3400               	retlw	0
  1062  0AF3                     STR_10:
  1063  0AF3  3420               	retlw	32	;' '
  1064  0AF4  3463               	retlw	99	;'c'
  1065  0AF5  346F               	retlw	111	;'o'
  1066  0AF6  346E               	retlw	110	;'n'
  1067  0AF7  3420               	retlw	32	;' '
  1068  0AF8  3420               	retlw	32	;' '
  1069  0AF9  3400               	retlw	0
  1070  0AFA                     STR_69:
  1071  0AFA  3433               	retlw	51	;'3'
  1072  0AFB  3430               	retlw	48	;'0'
  1073  0AFC  3400               	retlw	0
  1074  0AFD                     STR_68:
  1075  0AFD  3431               	retlw	49	;'1'
  1076  0AFE  3435               	retlw	53	;'5'
  1077  0AFF  3400               	retlw	0
  1078  0B00                     STR_70:
  1079  0B00  3434               	retlw	52	;'4'
  1080  0B01  3435               	retlw	53	;'5'
  1081  0B02  3400               	retlw	0
  1082  0B03                     STR_71:
  1083  0B03  3435               	retlw	53	;'5'
  1084  0B04  3435               	retlw	53	;'5'
  1085  0B05  3400               	retlw	0
  1086  09F0                     
  1087                           	psect	cinit
  1088  000F                     start_initialization:	
  1089                           ; #config settings
  1090                           
  1091  000F                     __initialization:
  1092                           
  1093                           ; Clear objects allocated to COMMON
  1094  000F  01F0               	clrf	__pbssCOMMON& (0+127)
  1095  0010  01F1               	clrf	(__pbssCOMMON+1)& (0+127)
  1096  0011  01F2               	clrf	(__pbssCOMMON+2)& (0+127)
  1097  0012  01F3               	clrf	(__pbssCOMMON+3)& (0+127)
  1098  0013  01F4               	clrf	(__pbssCOMMON+4)& (0+127)
  1099  0014  01F5               	clrf	(__pbssCOMMON+5)& (0+127)
  1100                           
  1101                           ; Clear objects allocated to BANK0
  1102  0015  1383               	bcf	3,7	;select IRP bank0
  1103  0016  3020               	movlw	low __pbssBANK0
  1104  0017  0084               	movwf	4
  1105  0018  3038               	movlw	low (__pbssBANK0+24)
  1106  0019  120A  158A  24A2  120A  118A  	fcall	clear_ram0
  1107  001E                     end_of_initialization:	
  1108                           ;End of C runtime variable initialization code
  1109                           
  1110  001E                     __end_of__initialization:
  1111  001E  0183               	clrf	3
  1112  001F  120A  118A  2822   	ljmp	_main	;jump to C main() function
  1113                           
  1114                           	psect	bssCOMMON
  1115  0070                     __pbssCOMMON:
  1116  0070                     _hora_nueva:
  1117  0070                     	ds	1
  1118  0071                     _min_user3:
  1119  0071                     	ds	1
  1120  0072                     _min_user2:
  1121  0072                     	ds	1
  1122  0073                     _escala:
  1123  0073                     	ds	1
  1124  0074                     _minuto:
  1125  0074                     	ds	1
  1126  0075                     _hora:
  1127  0075                     	ds	1
  1128                           
  1129                           	psect	bssBANK0
  1130  0020                     __pbssBANK0:
  1131  0020                     _me_3_us3_m:
  1132  0020                     	ds	1
  1133  0021                     _me_2_us3_m:
  1134  0021                     	ds	1
  1135  0022                     _me_1_us3_m:
  1136  0022                     	ds	1
  1137  0023                     _me_3_us2_m:
  1138  0023                     	ds	1
  1139  0024                     _me_2_us2_m:
  1140  0024                     	ds	1
  1141  0025                     _me_1_us2_m:
  1142  0025                     	ds	1
  1143  0026                     _me_3_us1_m:
  1144  0026                     	ds	1
  1145  0027                     _me_2_us1_m:
  1146  0027                     	ds	1
  1147  0028                     _me_1_us1_m:
  1148  0028                     	ds	1
  1149  0029                     _me_3_us3_h:
  1150  0029                     	ds	1
  1151  002A                     _me_2_us3_h:
  1152  002A                     	ds	1
  1153  002B                     _me_1_us3_h:
  1154  002B                     	ds	1
  1155  002C                     _me_3_us2_h:
  1156  002C                     	ds	1
  1157  002D                     _me_2_us2_h:
  1158  002D                     	ds	1
  1159  002E                     _me_1_us2_h:
  1160  002E                     	ds	1
  1161  002F                     _me_3_us1_h:
  1162  002F                     	ds	1
  1163  0030                     _me_2_us1_h:
  1164  0030                     	ds	1
  1165  0031                     _me_1_us1_h:
  1166  0031                     	ds	1
  1167  0032                     _hora_user3:
  1168  0032                     	ds	1
  1169  0033                     _hora_user2:
  1170  0033                     	ds	1
  1171  0034                     _hora_user1:
  1172  0034                     	ds	1
  1173  0035                     _min_user1:
  1174  0035                     	ds	1
  1175  0036                     _ventana:
  1176  0036                     	ds	1
  1177  0037                     _valor:
  1178  0037                     	ds	1
  1179                           
  1180                           	psect	clrtext
  1181  0CA2                     clear_ram0:	
  1182                           ;	Called with FSR containing the base address, and
  1183                           ;	W with the last address+1
  1184                           
  1185  0CA2  0064               	clrwdt	;clear the watchdog before getting into this loop
  1186  0CA3                     clrloop0:
  1187  0CA3  0180               	clrf	0	;clear RAM location pointed to by FSR
  1188  0CA4  0A84               	incf	4,f	;increment pointer
  1189  0CA5  0604               	xorwf	4,w	;XOR with final address
  1190  0CA6  1903               	btfsc	3,2	;have we reached the end yet?
  1191  0CA7  3400               	retlw	0	;all done for this memory range, return
  1192  0CA8  0604               	xorwf	4,w	;XOR again to restore value
  1193  0CA9  2CA3               	goto	clrloop0	;do the next byte
  1194                           
  1195                           	psect	cstackCOMMON
  1196  0076                     __pcstackCOMMON:
  1197  0076                     ?_USART_Rx:
  1198  0076                     ?_SendCharH:	
  1199                           ; 1 bytes @ 0x0
  1200                           
  1201  0076                     ?_SendCharM:	
  1202                           ; 1 bytes @ 0x0
  1203                           
  1204  0076                     ?_isr:	
  1205                           ; 1 bytes @ 0x0
  1206                           
  1207  0076                     ??_isr:	
  1208                           ; 1 bytes @ 0x0
  1209                           
  1210  0076                     ?_main:	
  1211                           ; 1 bytes @ 0x0
  1212                           
  1213  0076                     ?_USART_Tx:	
  1214                           ; 1 bytes @ 0x0
  1215                           
  1216                           
  1217                           ; 1 bytes @ 0x0
  1218  0076                     	ds	2
  1219  0078                     ??_USART_Rx:
  1220  0078                     ??_SendCharH:	
  1221                           ; 1 bytes @ 0x2
  1222                           
  1223  0078                     ?_CharToNumH:	
  1224                           ; 1 bytes @ 0x2
  1225                           
  1226  0078                     ?_CharToNumM:	
  1227                           ; 1 bytes @ 0x2
  1228                           
  1229  0078                     ??_USART_Tx:	
  1230                           ; 1 bytes @ 0x2
  1231                           
  1232  0078                     USART_Tx@data:	
  1233                           ; 1 bytes @ 0x2
  1234                           
  1235  0078                     CharToNumH@hora_user:	
  1236                           ; 1 bytes @ 0x2
  1237                           
  1238  0078                     CharToNumM@her:	
  1239                           ; 1 bytes @ 0x2
  1240                           
  1241                           
  1242                           ; 1 bytes @ 0x2
  1243  0078                     	ds	1
  1244  0079                     ?_USART_Cadena:
  1245  0079                     ??_CharToNumH:	
  1246                           ; 1 bytes @ 0x3
  1247                           
  1248  0079                     ??_CharToNumM:	
  1249                           ; 1 bytes @ 0x3
  1250                           
  1251  0079                     USART_Cadena@str:	
  1252                           ; 1 bytes @ 0x3
  1253                           
  1254                           
  1255                           ; 2 bytes @ 0x3
  1256  0079                     	ds	1
  1257  007A                     SendCharH@in:
  1258  007A                     CharToNumM@in:	
  1259                           ; 1 bytes @ 0x4
  1260                           
  1261                           
  1262                           ; 1 bytes @ 0x4
  1263  007A                     	ds	1
  1264  007B                     ??_USART_Cadena:
  1265  007B                     ??_SendCharM:	
  1266                           ; 1 bytes @ 0x5
  1267                           
  1268  007B                     SendCharM@in:	
  1269                           ; 1 bytes @ 0x5
  1270                           
  1271  007B                     CharToNumH@in:	
  1272                           ; 1 bytes @ 0x5
  1273                           
  1274                           
  1275                           ; 1 bytes @ 0x5
  1276  007B                     	ds	1
  1277                           
  1278                           	psect	cstackBANK0
  1279  0038                     __pcstackBANK0:
  1280  0038                     ??_main:
  1281                           
  1282                           ; 1 bytes @ 0x0
  1283  0038                     	ds	2
  1284                           
  1285                           	psect	maintext
  1286  0022                     __pmaintext:	
  1287 ;;
  1288 ;;Main: autosize = 0, tempsize = 2, incstack = 0, save=0
  1289 ;;
  1290 ;; *************** function _main *****************
  1291 ;; Defined at:
  1292 ;;		line 76 in file "PROYECTO.c"
  1293 ;; Parameters:    Size  Location     Type
  1294 ;;		None
  1295 ;; Auto vars:     Size  Location     Type
  1296 ;;		None
  1297 ;; Return value:  Size  Location     Type
  1298 ;;                  1    wreg      void 
  1299 ;; Registers used:
  1300 ;;		wreg, fsr0l, fsr0h, status,2, status,0, btemp+1, pclath, cstack
  1301 ;; Tracked objects:
  1302 ;;		On entry : B00/0
  1303 ;;		On exit  : 0/0
  1304 ;;		Unchanged: 0/0
  1305 ;; Data sizes:     COMMON   BANK0   BANK1   BANK3   BANK2
  1306 ;;      Params:         0       0       0       0       0
  1307 ;;      Locals:         0       0       0       0       0
  1308 ;;      Temps:          0       2       0       0       0
  1309 ;;      Totals:         0       2       0       0       0
  1310 ;;Total ram usage:        2 bytes
  1311 ;; Hardware stack levels required when called:    4
  1312 ;; This function calls:
  1313 ;;		_CharToNumH
  1314 ;;		_CharToNumM
  1315 ;;		_SendCharH
  1316 ;;		_SendCharM
  1317 ;;		_USART_Cadena
  1318 ;;		_USART_Rx
  1319 ;; This function is called by:
  1320 ;;		Startup code after reset
  1321 ;; This function uses a non-reentrant model
  1322 ;;
  1323                           
  1324                           
  1325                           ;psect for function _main
  1326  0022                     _main:
  1327  0022                     l2828:	
  1328                           ;incstack = 0
  1329                           ; Regs used in _main: [wreg-fsr0h+status,2+status,0+btemp+1+pclath+cstack]
  1330                           
  1331                           
  1332                           ;PROYECTO.c: 77:     ANSEL = 0x00;
  1333  0022  1683               	bsf	3,5	;RP0=1, select bank3
  1334  0023  1703               	bsf	3,6	;RP1=1, select bank3
  1335  0024  0188               	clrf	8	;volatile
  1336                           
  1337                           ;PROYECTO.c: 78:     ANSELH = 0x00;
  1338  0025  0189               	clrf	9	;volatile
  1339                           
  1340                           ;PROYECTO.c: 80:     TRISA = 0x00;
  1341  0026  1683               	bsf	3,5	;RP0=1, select bank1
  1342  0027  1303               	bcf	3,6	;RP1=0, select bank1
  1343  0028  0185               	clrf	5	;volatile
  1344  0029                     l2830:
  1345                           
  1346                           ;PROYECTO.c: 81:     TRISB = 0xff;
  1347  0029  30FF               	movlw	255
  1348  002A  0086               	movwf	6	;volatile
  1349  002B                     l2832:
  1350                           
  1351                           ;PROYECTO.c: 82:     TRISD = 0x00;
  1352  002B  0188               	clrf	8	;volatile
  1353                           
  1354                           ;PROYECTO.c: 83:     TRISE = 0b0011;
  1355  002C  3003               	movlw	3
  1356  002D  0089               	movwf	9	;volatile
  1357  002E                     l2834:
  1358                           
  1359                           ;PROYECTO.c: 86:     ADCON1bits.ADFM = 0;
  1360  002E  139F               	bcf	31,7	;volatile
  1361  002F                     l2836:
  1362                           
  1363                           ;PROYECTO.c: 87:     ADCON1bits.VCFG0 = 0;
  1364  002F  121F               	bcf	31,4	;volatile
  1365  0030                     l2838:
  1366                           
  1367                           ;PROYECTO.c: 88:     ADCON1bits.VCFG1 = 0;
  1368  0030  129F               	bcf	31,5	;volatile
  1369  0031                     l2840:
  1370                           
  1371                           ;PROYECTO.c: 89:     ADCON0bits.ADCS0 = 1;
  1372  0031  1283               	bcf	3,5	;RP0=0, select bank0
  1373  0032  1303               	bcf	3,6	;RP1=0, select bank0
  1374  0033  171F               	bsf	31,6	;volatile
  1375  0034                     l2842:
  1376                           
  1377                           ;PROYECTO.c: 90:     ADCON0bits.ADCS1 = 0;
  1378  0034  139F               	bcf	31,7	;volatile
  1379  0035                     l2844:
  1380                           
  1381                           ;PROYECTO.c: 91:     ADCON0bits.CHS = 5;
  1382  0035  081F               	movf	31,w	;volatile
  1383  0036  39C3               	andlw	-61
  1384  0037  3814               	iorlw	20
  1385  0038  009F               	movwf	31	;volatile
  1386  0039                     l2846:
  1387                           
  1388                           ;PROYECTO.c: 92:     _delay((unsigned long)((100)*(4000000/4000000.0)));
  1389  0039  3020               	movlw	32
  1390  003A  1283               	bcf	3,5	;RP0=0, select bank0
  1391  003B  1303               	bcf	3,6	;RP1=0, select bank0
  1392  003C  00B8               	movwf	??_main
  1393  003D                     u4377:
  1394  003D  0BB8               	decfsz	??_main,f
  1395  003E  283D               	goto	u4377
  1396  003F  0000               	nop
  1397  0040                     l2848:
  1398                           
  1399                           ;PROYECTO.c: 93:     ADCON0bits.ADON = 1;
  1400  0040  1283               	bcf	3,5	;RP0=0, select bank0
  1401  0041  1303               	bcf	3,6	;RP1=0, select bank0
  1402  0042  141F               	bsf	31,0	;volatile
  1403  0043                     l2850:
  1404                           
  1405                           ;PROYECTO.c: 95:     OPTION_REGbits.nRBPU = 0;
  1406  0043  1683               	bsf	3,5	;RP0=1, select bank1
  1407  0044  1303               	bcf	3,6	;RP1=0, select bank1
  1408  0045  1381               	bcf	1,7	;volatile
  1409  0046                     l2852:
  1410                           
  1411                           ;PROYECTO.c: 96:     WPUBbits.WPUB0 = 1;
  1412  0046  1415               	bsf	21,0	;volatile
  1413  0047                     l2854:
  1414                           
  1415                           ;PROYECTO.c: 97:     WPUBbits.WPUB1 = 1;
  1416  0047  1495               	bsf	21,1	;volatile
  1417  0048                     l2856:
  1418                           
  1419                           ;PROYECTO.c: 98:     WPUBbits.WPUB2 = 1;
  1420  0048  1515               	bsf	21,2	;volatile
  1421  0049                     l2858:
  1422                           
  1423                           ;PROYECTO.c: 99:     WPUBbits.WPUB5 = 1;
  1424  0049  1695               	bsf	21,5	;volatile
  1425  004A                     l2860:
  1426                           
  1427                           ;PROYECTO.c: 100:     WPUBbits.WPUB6 = 1;
  1428  004A  1715               	bsf	21,6	;volatile
  1429  004B                     l2862:
  1430                           
  1431                           ;PROYECTO.c: 101:     WPUBbits.WPUB7 = 1;
  1432  004B  1795               	bsf	21,7	;volatile
  1433                           
  1434                           ;PROYECTO.c: 104:     OSCCONbits.IRCF = 0b110;
  1435  004C  080F               	movf	15,w	;volatile
  1436  004D  398F               	andlw	-113
  1437  004E  3860               	iorlw	96
  1438  004F  008F               	movwf	15	;volatile
  1439  0050                     l2864:
  1440                           
  1441                           ;PROYECTO.c: 105:     OSCCONbits.SCS = 1;
  1442  0050  140F               	bsf	15,0	;volatile
  1443  0051                     l2866:
  1444                           
  1445                           ;PROYECTO.c: 108:     OPTION_REGbits.T0CS = 0;
  1446  0051  1281               	bcf	1,5	;volatile
  1447  0052                     l2868:
  1448                           
  1449                           ;PROYECTO.c: 109:     OPTION_REGbits.PSA = 0;
  1450  0052  1181               	bcf	1,3	;volatile
  1451                           
  1452                           ;PROYECTO.c: 110:     OPTION_REGbits.PS = 0b111;
  1453  0053  3007               	movlw	7
  1454  0054  0481               	iorwf	1,f	;volatile
  1455  0055                     l2870:
  1456                           
  1457                           ;PROYECTO.c: 111:     TMR0 = 78;
  1458  0055  304E               	movlw	78
  1459  0056  1283               	bcf	3,5	;RP0=0, select bank0
  1460  0057  1303               	bcf	3,6	;RP1=0, select bank0
  1461  0058  0081               	movwf	1	;volatile
  1462  0059                     l2872:
  1463                           
  1464                           ;PROYECTO.c: 114:     TXSTAbits.SYNC = 0;
  1465  0059  1683               	bsf	3,5	;RP0=1, select bank1
  1466  005A  1303               	bcf	3,6	;RP1=0, select bank1
  1467  005B  1218               	bcf	24,4	;volatile
  1468  005C                     l2874:
  1469                           
  1470                           ;PROYECTO.c: 115:     TXSTAbits.BRGH = 1;
  1471  005C  1518               	bsf	24,2	;volatile
  1472  005D                     l2876:
  1473                           
  1474                           ;PROYECTO.c: 116:     BAUDCTLbits.BRG16 = 1;
  1475  005D  1683               	bsf	3,5	;RP0=1, select bank3
  1476  005E  1703               	bsf	3,6	;RP1=1, select bank3
  1477  005F  1587               	bsf	7,3	;volatile
  1478  0060                     l2878:
  1479                           
  1480                           ;PROYECTO.c: 118:     SPBRG = 103;
  1481  0060  3067               	movlw	103
  1482  0061  1683               	bsf	3,5	;RP0=1, select bank1
  1483  0062  1303               	bcf	3,6	;RP1=0, select bank1
  1484  0063  0099               	movwf	25	;volatile
  1485  0064                     l2880:
  1486                           
  1487                           ;PROYECTO.c: 119:     SPBRGH = 0;
  1488  0064  019A               	clrf	26	;volatile
  1489  0065                     l2882:
  1490                           
  1491                           ;PROYECTO.c: 121:     RCSTAbits.SPEN = 1;
  1492  0065  1283               	bcf	3,5	;RP0=0, select bank0
  1493  0066  1303               	bcf	3,6	;RP1=0, select bank0
  1494  0067  1798               	bsf	24,7	;volatile
  1495  0068                     l2884:
  1496                           
  1497                           ;PROYECTO.c: 122:     RCSTAbits.RX9 = 0;
  1498  0068  1318               	bcf	24,6	;volatile
  1499  0069                     l2886:
  1500                           
  1501                           ;PROYECTO.c: 123:     RCSTAbits.CREN = 1;
  1502  0069  1618               	bsf	24,4	;volatile
  1503  006A                     l2888:
  1504                           
  1505                           ;PROYECTO.c: 124:     TXSTAbits.TXEN = 1;
  1506  006A  1683               	bsf	3,5	;RP0=1, select bank1
  1507  006B  1303               	bcf	3,6	;RP1=0, select bank1
  1508  006C  1698               	bsf	24,5	;volatile
  1509  006D                     l2890:
  1510                           
  1511                           ;PROYECTO.c: 126:     INTCONbits.GIE = 1;
  1512  006D  178B               	bsf	11,7	;volatile
  1513  006E                     l2892:
  1514                           
  1515                           ;PROYECTO.c: 127:     INTCONbits.T0IE = 0;
  1516  006E  128B               	bcf	11,5	;volatile
  1517  006F                     l2894:
  1518                           
  1519                           ;PROYECTO.c: 128:     INTCONbits.T0IF = 0;
  1520  006F  110B               	bcf	11,2	;volatile
  1521  0070                     l2896:
  1522                           
  1523                           ;PROYECTO.c: 132:     ADCON0bits.GO = 1;
  1524  0070  1283               	bcf	3,5	;RP0=0, select bank0
  1525  0071  1303               	bcf	3,6	;RP1=0, select bank0
  1526  0072  149F               	bsf	31,1	;volatile
  1527  0073                     l2898:
  1528                           
  1529                           ;PROYECTO.c: 134:     PORTA = 0;
  1530  0073  0185               	clrf	5	;volatile
  1531  0074                     l2900:
  1532                           
  1533                           ;PROYECTO.c: 135:     PORTB = 0;
  1534  0074  0186               	clrf	6	;volatile
  1535  0075                     l2902:
  1536                           
  1537                           ;PROYECTO.c: 136:     PORTC = 0;
  1538  0075  0187               	clrf	7	;volatile
  1539  0076                     l2904:
  1540                           
  1541                           ;PROYECTO.c: 137:     PORTD = 0;
  1542  0076  0188               	clrf	8	;volatile
  1543  0077                     l2906:
  1544                           
  1545                           ;PROYECTO.c: 138:     PORTE = 0;
  1546  0077  0189               	clrf	9	;volatile
  1547  0078                     l2908:
  1548                           
  1549                           ;PROYECTO.c: 140:     ventana = 1;
  1550  0078  01B6               	clrf	_ventana
  1551  0079  0AB6               	incf	_ventana,f
  1552  007A                     l2910:
  1553                           
  1554                           ;PROYECTO.c: 144:        if (T0IF == 1) {
  1555  007A  1D0B               	btfss	11,2	;volatile
  1556  007B  287D               	goto	u3271
  1557  007C  287E               	goto	u3270
  1558  007D                     u3271:
  1559  007D  28D3               	goto	l2948
  1560  007E                     u3270:
  1561  007E                     l2912:
  1562                           
  1563                           ;PROYECTO.c: 145:             if(!RB0){
  1564  007E  1806               	btfsc	6,0	;volatile
  1565  007F  2881               	goto	u3281
  1566  0080  2882               	goto	u3280
  1567  0081                     u3281:
  1568  0081  2894               	goto	l164
  1569  0082                     u3280:
  1570  0082                     l2914:
  1571                           
  1572                           ;PROYECTO.c: 146:                 RD0 = 1;
  1573  0082  1408               	bsf	8,0	;volatile
  1574  0083                     l2916:
  1575                           
  1576                           ;PROYECTO.c: 147:                 _delay((unsigned long)((2)*(4000000/4000.0)));
  1577  0083  3003               	movlw	3
  1578  0084  1283               	bcf	3,5	;RP0=0, select bank0
  1579  0085  1303               	bcf	3,6	;RP1=0, select bank0
  1580  0086  00B9               	movwf	??_main+1
  1581  0087  3097               	movlw	151
  1582  0088  00B8               	movwf	??_main
  1583  0089                     u4387:
  1584  0089  0BB8               	decfsz	??_main,f
  1585  008A  2889               	goto	u4387
  1586  008B  0BB9               	decfsz	??_main+1,f
  1587  008C  2889               	goto	u4387
  1588  008D                     l2918:
  1589                           
  1590                           ;PROYECTO.c: 148:                 RD0 = 0;
  1591  008D  1283               	bcf	3,5	;RP0=0, select bank0
  1592  008E  1303               	bcf	3,6	;RP1=0, select bank0
  1593  008F  1008               	bcf	8,0	;volatile
  1594                           
  1595                           ;PROYECTO.c: 149:                 TMR0 = 70;
  1596  0090  3046               	movlw	70
  1597  0091  0081               	movwf	1	;volatile
  1598  0092                     l2920:
  1599                           
  1600                           ;PROYECTO.c: 150:                 INTCONbits.T0IF = 0;
  1601  0092  110B               	bcf	11,2	;volatile
  1602                           
  1603                           ;PROYECTO.c: 151:             }
  1604  0093  28D3               	goto	l2948
  1605  0094                     l164:	
  1606                           ;PROYECTO.c: 152:             else if(!RB1){
  1607                           
  1608  0094  1886               	btfsc	6,1	;volatile
  1609  0095  2897               	goto	u3291
  1610  0096  2898               	goto	u3290
  1611  0097                     u3291:
  1612  0097  28AA               	goto	l166
  1613  0098                     u3290:
  1614  0098                     l2922:
  1615                           
  1616                           ;PROYECTO.c: 153:                 RD1 = 1;
  1617  0098  1488               	bsf	8,1	;volatile
  1618  0099                     l2924:
  1619                           
  1620                           ;PROYECTO.c: 154:                 _delay((unsigned long)((2)*(4000000/4000.0)));
  1621  0099  3003               	movlw	3
  1622  009A  1283               	bcf	3,5	;RP0=0, select bank0
  1623  009B  1303               	bcf	3,6	;RP1=0, select bank0
  1624  009C  00B9               	movwf	??_main+1
  1625  009D  3097               	movlw	151
  1626  009E  00B8               	movwf	??_main
  1627  009F                     u4397:
  1628  009F  0BB8               	decfsz	??_main,f
  1629  00A0  289F               	goto	u4397
  1630  00A1  0BB9               	decfsz	??_main+1,f
  1631  00A2  289F               	goto	u4397
  1632  00A3                     l2926:
  1633                           
  1634                           ;PROYECTO.c: 155:                 RD1 = 0;
  1635  00A3  1283               	bcf	3,5	;RP0=0, select bank0
  1636  00A4  1303               	bcf	3,6	;RP1=0, select bank0
  1637  00A5  1088               	bcf	8,1	;volatile
  1638                           
  1639                           ;PROYECTO.c: 156:                 TMR0 = 70;
  1640  00A6  3046               	movlw	70
  1641  00A7  0081               	movwf	1	;volatile
  1642  00A8                     l2928:
  1643                           
  1644                           ;PROYECTO.c: 157:                 INTCONbits.T0IF = 0;
  1645  00A8  110B               	bcf	11,2	;volatile
  1646                           
  1647                           ;PROYECTO.c: 158:             }
  1648  00A9  28D3               	goto	l2948
  1649  00AA                     l166:	
  1650                           ;PROYECTO.c: 159:             else if(!RB2){
  1651                           
  1652  00AA  1906               	btfsc	6,2	;volatile
  1653  00AB  28AD               	goto	u3301
  1654  00AC  28AE               	goto	u3300
  1655  00AD                     u3301:
  1656  00AD  28C0               	goto	l168
  1657  00AE                     u3300:
  1658  00AE                     l2930:
  1659                           
  1660                           ;PROYECTO.c: 160:                 RD2 = 1;
  1661  00AE  1508               	bsf	8,2	;volatile
  1662  00AF                     l2932:
  1663                           
  1664                           ;PROYECTO.c: 161:                 _delay((unsigned long)((2)*(4000000/4000.0)));
  1665  00AF  3003               	movlw	3
  1666  00B0  1283               	bcf	3,5	;RP0=0, select bank0
  1667  00B1  1303               	bcf	3,6	;RP1=0, select bank0
  1668  00B2  00B9               	movwf	??_main+1
  1669  00B3  3097               	movlw	151
  1670  00B4  00B8               	movwf	??_main
  1671  00B5                     u4407:
  1672  00B5  0BB8               	decfsz	??_main,f
  1673  00B6  28B5               	goto	u4407
  1674  00B7  0BB9               	decfsz	??_main+1,f
  1675  00B8  28B5               	goto	u4407
  1676  00B9                     l2934:
  1677                           
  1678                           ;PROYECTO.c: 162:                 RD2 = 0;
  1679  00B9  1283               	bcf	3,5	;RP0=0, select bank0
  1680  00BA  1303               	bcf	3,6	;RP1=0, select bank0
  1681  00BB  1108               	bcf	8,2	;volatile
  1682                           
  1683                           ;PROYECTO.c: 163:                 TMR0 = 70;
  1684  00BC  3046               	movlw	70
  1685  00BD  0081               	movwf	1	;volatile
  1686  00BE                     l2936:
  1687                           
  1688                           ;PROYECTO.c: 164:                 INTCONbits.T0IF = 0;
  1689  00BE  110B               	bcf	11,2	;volatile
  1690                           
  1691                           ;PROYECTO.c: 165:             }
  1692  00BF  28D3               	goto	l2948
  1693  00C0                     l168:	
  1694                           ;PROYECTO.c: 166:             else{
  1695                           
  1696                           
  1697                           ;PROYECTO.c: 167:                 RD0 = 1;
  1698  00C0  1408               	bsf	8,0	;volatile
  1699                           
  1700                           ;PROYECTO.c: 168:                 RD1 = 1;
  1701  00C1  1488               	bsf	8,1	;volatile
  1702                           
  1703                           ;PROYECTO.c: 169:                 RD2 = 1;
  1704  00C2  1508               	bsf	8,2	;volatile
  1705  00C3                     l2938:
  1706                           
  1707                           ;PROYECTO.c: 170:                 _delay((unsigned long)((1)*(4000000/4000.0)));
  1708  00C3  30C7               	movlw	199
  1709  00C4  1283               	bcf	3,5	;RP0=0, select bank0
  1710  00C5  1303               	bcf	3,6	;RP1=0, select bank0
  1711  00C6  00B8               	movwf	??_main
  1712  00C7                     u4417:
  1713  00C7  28C8               	nop2
  1714  00C8  0BB8               	decfsz	??_main,f
  1715  00C9  28C7               	goto	u4417
  1716  00CA  28CB               	nop2
  1717  00CB                     l2940:
  1718                           
  1719                           ;PROYECTO.c: 171:                 RD1 = 0;
  1720  00CB  1283               	bcf	3,5	;RP0=0, select bank0
  1721  00CC  1303               	bcf	3,6	;RP1=0, select bank0
  1722  00CD  1088               	bcf	8,1	;volatile
  1723  00CE                     l2942:
  1724                           
  1725                           ;PROYECTO.c: 172:                 RD2 = 0;
  1726  00CE  1108               	bcf	8,2	;volatile
  1727  00CF                     l2944:
  1728                           
  1729                           ;PROYECTO.c: 173:                 RD0 = 0;
  1730  00CF  1008               	bcf	8,0	;volatile
  1731                           
  1732                           ;PROYECTO.c: 174:                 TMR0 = 74;
  1733  00D0  304A               	movlw	74
  1734  00D1  0081               	movwf	1	;volatile
  1735  00D2                     l2946:
  1736                           
  1737                           ;PROYECTO.c: 175:                 INTCONbits.T0IF = 0;
  1738  00D2  110B               	bcf	11,2	;volatile
  1739  00D3                     l2948:
  1740                           
  1741                           ;PROYECTO.c: 179:        if(ADCON0bits.GO == 0){
  1742  00D3  189F               	btfsc	31,1	;volatile
  1743  00D4  28D6               	goto	u3311
  1744  00D5  28D7               	goto	u3310
  1745  00D6                     u3311:
  1746  00D6  2AE2               	goto	l170
  1747  00D7                     u3310:
  1748  00D7                     l2950:
  1749                           
  1750                           ;PROYECTO.c: 181:             if(ADCON0bits.CHS == 6){
  1751  00D7  0C1F               	rrf	31,w	;volatile
  1752  00D8  00B8               	movwf	??_main
  1753  00D9  0C38               	rrf	??_main,w
  1754  00DA  390F               	andlw	15
  1755  00DB  3A06               	xorlw	6
  1756  00DC  1D03               	skipz
  1757  00DD  28DF               	goto	u3321
  1758  00DE  28E0               	goto	u3320
  1759  00DF                     u3321:
  1760  00DF  292F               	goto	l2980
  1761  00E0                     u3320:
  1762  00E0                     l2952:
  1763                           
  1764                           ;PROYECTO.c: 182:                 escala = ADRESH;
  1765  00E0  081E               	movf	30,w	;volatile
  1766  00E1  00B8               	movwf	??_main
  1767  00E2  0838               	movf	??_main,w
  1768  00E3  00F3               	movwf	_escala
  1769                           
  1770                           ;PROYECTO.c: 183:                 if (escala >= 0 && escala <=42){
  1771  00E4  302B               	movlw	43
  1772  00E5  0273               	subwf	_escala,w
  1773  00E6  1803               	skipnc
  1774  00E7  28E9               	goto	u3331
  1775  00E8  28EA               	goto	u3330
  1776  00E9                     u3331:
  1777  00E9  28EC               	goto	l2956
  1778  00EA                     u3330:
  1779  00EA                     l2954:
  1780                           
  1781                           ;PROYECTO.c: 184:                     minuto = 0;
  1782  00EA  01F4               	clrf	_minuto
  1783                           
  1784                           ;PROYECTO.c: 185:                 }else if(escala >= 43 && escala <= 84 ){
  1785  00EB  292A               	goto	l2978
  1786  00EC                     l2956:
  1787  00EC  302B               	movlw	43
  1788  00ED  0273               	subwf	_escala,w
  1789  00EE  1C03               	skipc
  1790  00EF  28F1               	goto	u3341
  1791  00F0  28F2               	goto	u3340
  1792  00F1                     u3341:
  1793  00F1  28FD               	goto	l2962
  1794  00F2                     u3340:
  1795  00F2                     l2958:
  1796  00F2  3055               	movlw	85
  1797  00F3  0273               	subwf	_escala,w
  1798  00F4  1803               	skipnc
  1799  00F5  28F7               	goto	u3351
  1800  00F6  28F8               	goto	u3350
  1801  00F7                     u3351:
  1802  00F7  28FD               	goto	l2962
  1803  00F8                     u3350:
  1804  00F8                     l2960:
  1805                           
  1806                           ;PROYECTO.c: 186:                     minuto = 15;
  1807  00F8  300F               	movlw	15
  1808  00F9  00B8               	movwf	??_main
  1809  00FA  0838               	movf	??_main,w
  1810  00FB  00F4               	movwf	_minuto
  1811                           
  1812                           ;PROYECTO.c: 187:                 }else if(escala >= 85 && escala <= 126 ){
  1813  00FC  292A               	goto	l2978
  1814  00FD                     l2962:
  1815  00FD  3055               	movlw	85
  1816  00FE  0273               	subwf	_escala,w
  1817  00FF  1C03               	skipc
  1818  0100  2902               	goto	u3361
  1819  0101  2903               	goto	u3360
  1820  0102                     u3361:
  1821  0102  290E               	goto	l2968
  1822  0103                     u3360:
  1823  0103                     l2964:
  1824  0103  307F               	movlw	127
  1825  0104  0273               	subwf	_escala,w
  1826  0105  1803               	skipnc
  1827  0106  2908               	goto	u3371
  1828  0107  2909               	goto	u3370
  1829  0108                     u3371:
  1830  0108  290E               	goto	l2968
  1831  0109                     u3370:
  1832  0109                     l2966:
  1833                           
  1834                           ;PROYECTO.c: 188:                     minuto = 30;
  1835  0109  301E               	movlw	30
  1836  010A  00B8               	movwf	??_main
  1837  010B  0838               	movf	??_main,w
  1838  010C  00F4               	movwf	_minuto
  1839                           
  1840                           ;PROYECTO.c: 189:                 }else if(escala >= 127 && escala <= 168 ){
  1841  010D  292A               	goto	l2978
  1842  010E                     l2968:
  1843  010E  307F               	movlw	127
  1844  010F  0273               	subwf	_escala,w
  1845  0110  1C03               	skipc
  1846  0111  2913               	goto	u3381
  1847  0112  2914               	goto	u3380
  1848  0113                     u3381:
  1849  0113  291F               	goto	l2974
  1850  0114                     u3380:
  1851  0114                     l2970:
  1852  0114  30A9               	movlw	169
  1853  0115  0273               	subwf	_escala,w
  1854  0116  1803               	skipnc
  1855  0117  2919               	goto	u3391
  1856  0118  291A               	goto	u3390
  1857  0119                     u3391:
  1858  0119  291F               	goto	l2974
  1859  011A                     u3390:
  1860  011A                     l2972:
  1861                           
  1862                           ;PROYECTO.c: 190:                     minuto = 45;
  1863  011A  302D               	movlw	45
  1864  011B  00B8               	movwf	??_main
  1865  011C  0838               	movf	??_main,w
  1866  011D  00F4               	movwf	_minuto
  1867                           
  1868                           ;PROYECTO.c: 191:                 }else if(escala >= 210 && escala <= 255 ){
  1869  011E  292A               	goto	l2978
  1870  011F                     l2974:
  1871  011F  30D2               	movlw	210
  1872  0120  0273               	subwf	_escala,w
  1873  0121  1C03               	skipc
  1874  0122  2924               	goto	u3401
  1875  0123  2925               	goto	u3400
  1876  0124                     u3401:
  1877  0124  292A               	goto	l175
  1878  0125                     u3400:
  1879  0125                     l2976:
  1880                           
  1881                           ;PROYECTO.c: 192:                     minuto = 60;
  1882  0125  303C               	movlw	60
  1883  0126  00B8               	movwf	??_main
  1884  0127  0838               	movf	??_main,w
  1885  0128  00F4               	movwf	_minuto
  1886  0129  292A               	goto	l2978
  1887  012A                     l175:
  1888  012A                     l2978:
  1889                           
  1890                           ;PROYECTO.c: 195:                 ADCON0bits.CHS = 5;
  1891  012A  081F               	movf	31,w	;volatile
  1892  012B  39C3               	andlw	-61
  1893  012C  3814               	iorlw	20
  1894  012D  009F               	movwf	31	;volatile
  1895                           
  1896                           ;PROYECTO.c: 196:             }
  1897  012E  2AD8               	goto	l3130
  1898  012F                     l2980:
  1899  012F  0C1F               	rrf	31,w	;volatile
  1900  0130  00B8               	movwf	??_main
  1901  0131  0C38               	rrf	??_main,w
  1902  0132  390F               	andlw	15
  1903  0133  3A05               	xorlw	5
  1904  0134  1D03               	skipz
  1905  0135  2937               	goto	u3411
  1906  0136  2938               	goto	u3410
  1907  0137                     u3411:
  1908  0137  2AD8               	goto	l3130
  1909  0138                     u3410:
  1910  0138                     l2982:
  1911                           
  1912                           ;PROYECTO.c: 198:                 escala = ADRESH;
  1913  0138  081E               	movf	30,w	;volatile
  1914  0139  00B8               	movwf	??_main
  1915  013A  0838               	movf	??_main,w
  1916  013B  00F3               	movwf	_escala
  1917                           
  1918                           ;PROYECTO.c: 199:                 if (escala >= 0 && escala <=10 ){
  1919  013C  300B               	movlw	11
  1920  013D  0273               	subwf	_escala,w
  1921  013E  1803               	skipnc
  1922  013F  2941               	goto	u3421
  1923  0140  2942               	goto	u3420
  1924  0141                     u3421:
  1925  0141  2944               	goto	l2986
  1926  0142                     u3420:
  1927  0142                     l2984:
  1928                           
  1929                           ;PROYECTO.c: 200:                     hora = 0;
  1930  0142  01F5               	clrf	_hora
  1931                           
  1932                           ;PROYECTO.c: 201:                 }else if(escala >= 11 && escala <=20 ){
  1933  0143  2AD4               	goto	l3128
  1934  0144                     l2986:
  1935  0144  300B               	movlw	11
  1936  0145  0273               	subwf	_escala,w
  1937  0146  1C03               	skipc
  1938  0147  2949               	goto	u3431
  1939  0148  294A               	goto	u3430
  1940  0149                     u3431:
  1941  0149  2953               	goto	l2992
  1942  014A                     u3430:
  1943  014A                     l2988:
  1944  014A  3015               	movlw	21
  1945  014B  0273               	subwf	_escala,w
  1946  014C  1803               	skipnc
  1947  014D  294F               	goto	u3441
  1948  014E  2950               	goto	u3440
  1949  014F                     u3441:
  1950  014F  2953               	goto	l2992
  1951  0150                     u3440:
  1952  0150                     l2990:
  1953                           
  1954                           ;PROYECTO.c: 202:                     hora = 1;
  1955  0150  01F5               	clrf	_hora
  1956  0151  0AF5               	incf	_hora,f
  1957                           
  1958                           ;PROYECTO.c: 203:                 }else if(escala >= 21 && escala <=30 ){
  1959  0152  2AD4               	goto	l3128
  1960  0153                     l2992:
  1961  0153  3015               	movlw	21
  1962  0154  0273               	subwf	_escala,w
  1963  0155  1C03               	skipc
  1964  0156  2958               	goto	u3451
  1965  0157  2959               	goto	u3450
  1966  0158                     u3451:
  1967  0158  2964               	goto	l2998
  1968  0159                     u3450:
  1969  0159                     l2994:
  1970  0159  301F               	movlw	31
  1971  015A  0273               	subwf	_escala,w
  1972  015B  1803               	skipnc
  1973  015C  295E               	goto	u3461
  1974  015D  295F               	goto	u3460
  1975  015E                     u3461:
  1976  015E  2964               	goto	l2998
  1977  015F                     u3460:
  1978  015F                     l2996:
  1979                           
  1980                           ;PROYECTO.c: 204:                     hora = 2;
  1981  015F  3002               	movlw	2
  1982  0160  00B8               	movwf	??_main
  1983  0161  0838               	movf	??_main,w
  1984  0162  00F5               	movwf	_hora
  1985                           
  1986                           ;PROYECTO.c: 205:                 }else if(escala >= 31 && escala <=40 ){
  1987  0163  2AD4               	goto	l3128
  1988  0164                     l2998:
  1989  0164  301F               	movlw	31
  1990  0165  0273               	subwf	_escala,w
  1991  0166  1C03               	skipc
  1992  0167  2969               	goto	u3471
  1993  0168  296A               	goto	u3470
  1994  0169                     u3471:
  1995  0169  2975               	goto	l3004
  1996  016A                     u3470:
  1997  016A                     l3000:
  1998  016A  3029               	movlw	41
  1999  016B  0273               	subwf	_escala,w
  2000  016C  1803               	skipnc
  2001  016D  296F               	goto	u3481
  2002  016E  2970               	goto	u3480
  2003  016F                     u3481:
  2004  016F  2975               	goto	l3004
  2005  0170                     u3480:
  2006  0170                     l3002:
  2007                           
  2008                           ;PROYECTO.c: 206:                     hora = 3;
  2009  0170  3003               	movlw	3
  2010  0171  00B8               	movwf	??_main
  2011  0172  0838               	movf	??_main,w
  2012  0173  00F5               	movwf	_hora
  2013                           
  2014                           ;PROYECTO.c: 207:                 }else if(escala >= 41 && escala <=50 ){
  2015  0174  2AD4               	goto	l3128
  2016  0175                     l3004:
  2017  0175  3029               	movlw	41
  2018  0176  0273               	subwf	_escala,w
  2019  0177  1C03               	skipc
  2020  0178  297A               	goto	u3491
  2021  0179  297B               	goto	u3490
  2022  017A                     u3491:
  2023  017A  2986               	goto	l3010
  2024  017B                     u3490:
  2025  017B                     l3006:
  2026  017B  3033               	movlw	51
  2027  017C  0273               	subwf	_escala,w
  2028  017D  1803               	skipnc
  2029  017E  2980               	goto	u3501
  2030  017F  2981               	goto	u3500
  2031  0180                     u3501:
  2032  0180  2986               	goto	l3010
  2033  0181                     u3500:
  2034  0181                     l3008:
  2035                           
  2036                           ;PROYECTO.c: 208:                     hora = 4;
  2037  0181  3004               	movlw	4
  2038  0182  00B8               	movwf	??_main
  2039  0183  0838               	movf	??_main,w
  2040  0184  00F5               	movwf	_hora
  2041                           
  2042                           ;PROYECTO.c: 209:                 }else if(escala >= 51 && escala <=60 ){
  2043  0185  2AD4               	goto	l3128
  2044  0186                     l3010:
  2045  0186  3033               	movlw	51
  2046  0187  0273               	subwf	_escala,w
  2047  0188  1C03               	skipc
  2048  0189  298B               	goto	u3511
  2049  018A  298C               	goto	u3510
  2050  018B                     u3511:
  2051  018B  2997               	goto	l3016
  2052  018C                     u3510:
  2053  018C                     l3012:
  2054  018C  303D               	movlw	61
  2055  018D  0273               	subwf	_escala,w
  2056  018E  1803               	skipnc
  2057  018F  2991               	goto	u3521
  2058  0190  2992               	goto	u3520
  2059  0191                     u3521:
  2060  0191  2997               	goto	l3016
  2061  0192                     u3520:
  2062  0192                     l3014:
  2063                           
  2064                           ;PROYECTO.c: 210:                     hora = 5;
  2065  0192  3005               	movlw	5
  2066  0193  00B8               	movwf	??_main
  2067  0194  0838               	movf	??_main,w
  2068  0195  00F5               	movwf	_hora
  2069                           
  2070                           ;PROYECTO.c: 211:                 }else if(escala >= 61 && escala <=70 ){
  2071  0196  2AD4               	goto	l3128
  2072  0197                     l3016:
  2073  0197  303D               	movlw	61
  2074  0198  0273               	subwf	_escala,w
  2075  0199  1C03               	skipc
  2076  019A  299C               	goto	u3531
  2077  019B  299D               	goto	u3530
  2078  019C                     u3531:
  2079  019C  29A8               	goto	l3022
  2080  019D                     u3530:
  2081  019D                     l3018:
  2082  019D  3047               	movlw	71
  2083  019E  0273               	subwf	_escala,w
  2084  019F  1803               	skipnc
  2085  01A0  29A2               	goto	u3541
  2086  01A1  29A3               	goto	u3540
  2087  01A2                     u3541:
  2088  01A2  29A8               	goto	l3022
  2089  01A3                     u3540:
  2090  01A3                     l3020:
  2091                           
  2092                           ;PROYECTO.c: 212:                     hora = 6;
  2093  01A3  3006               	movlw	6
  2094  01A4  00B8               	movwf	??_main
  2095  01A5  0838               	movf	??_main,w
  2096  01A6  00F5               	movwf	_hora
  2097                           
  2098                           ;PROYECTO.c: 213:                 }else if(escala >= 71 && escala <=80 ){
  2099  01A7  2AD4               	goto	l3128
  2100  01A8                     l3022:
  2101  01A8  3047               	movlw	71
  2102  01A9  0273               	subwf	_escala,w
  2103  01AA  1C03               	skipc
  2104  01AB  29AD               	goto	u3551
  2105  01AC  29AE               	goto	u3550
  2106  01AD                     u3551:
  2107  01AD  29B9               	goto	l3028
  2108  01AE                     u3550:
  2109  01AE                     l3024:
  2110  01AE  3051               	movlw	81
  2111  01AF  0273               	subwf	_escala,w
  2112  01B0  1803               	skipnc
  2113  01B1  29B3               	goto	u3561
  2114  01B2  29B4               	goto	u3560
  2115  01B3                     u3561:
  2116  01B3  29B9               	goto	l3028
  2117  01B4                     u3560:
  2118  01B4                     l3026:
  2119                           
  2120                           ;PROYECTO.c: 214:                     hora = 7;
  2121  01B4  3007               	movlw	7
  2122  01B5  00B8               	movwf	??_main
  2123  01B6  0838               	movf	??_main,w
  2124  01B7  00F5               	movwf	_hora
  2125                           
  2126                           ;PROYECTO.c: 215:                 }else if(escala >= 81 && escala <=90 ){
  2127  01B8  2AD4               	goto	l3128
  2128  01B9                     l3028:
  2129  01B9  3051               	movlw	81
  2130  01BA  0273               	subwf	_escala,w
  2131  01BB  1C03               	skipc
  2132  01BC  29BE               	goto	u3571
  2133  01BD  29BF               	goto	u3570
  2134  01BE                     u3571:
  2135  01BE  29CA               	goto	l3034
  2136  01BF                     u3570:
  2137  01BF                     l3030:
  2138  01BF  305B               	movlw	91
  2139  01C0  0273               	subwf	_escala,w
  2140  01C1  1803               	skipnc
  2141  01C2  29C4               	goto	u3581
  2142  01C3  29C5               	goto	u3580
  2143  01C4                     u3581:
  2144  01C4  29CA               	goto	l3034
  2145  01C5                     u3580:
  2146  01C5                     l3032:
  2147                           
  2148                           ;PROYECTO.c: 216:                     hora = 8;
  2149  01C5  3008               	movlw	8
  2150  01C6  00B8               	movwf	??_main
  2151  01C7  0838               	movf	??_main,w
  2152  01C8  00F5               	movwf	_hora
  2153                           
  2154                           ;PROYECTO.c: 217:                 }else if(escala >= 91 && escala <=100 ){
  2155  01C9  2AD4               	goto	l3128
  2156  01CA                     l3034:
  2157  01CA  305B               	movlw	91
  2158  01CB  0273               	subwf	_escala,w
  2159  01CC  1C03               	skipc
  2160  01CD  29CF               	goto	u3591
  2161  01CE  29D0               	goto	u3590
  2162  01CF                     u3591:
  2163  01CF  29DB               	goto	l3040
  2164  01D0                     u3590:
  2165  01D0                     l3036:
  2166  01D0  3065               	movlw	101
  2167  01D1  0273               	subwf	_escala,w
  2168  01D2  1803               	skipnc
  2169  01D3  29D5               	goto	u3601
  2170  01D4  29D6               	goto	u3600
  2171  01D5                     u3601:
  2172  01D5  29DB               	goto	l3040
  2173  01D6                     u3600:
  2174  01D6                     l3038:
  2175                           
  2176                           ;PROYECTO.c: 218:                     hora = 9;
  2177  01D6  3009               	movlw	9
  2178  01D7  00B8               	movwf	??_main
  2179  01D8  0838               	movf	??_main,w
  2180  01D9  00F5               	movwf	_hora
  2181                           
  2182                           ;PROYECTO.c: 219:                 }else if(escala >= 101&& escala <=110 ){
  2183  01DA  2AD4               	goto	l3128
  2184  01DB                     l3040:
  2185  01DB  3065               	movlw	101
  2186  01DC  0273               	subwf	_escala,w
  2187  01DD  1C03               	skipc
  2188  01DE  29E0               	goto	u3611
  2189  01DF  29E1               	goto	u3610
  2190  01E0                     u3611:
  2191  01E0  29EC               	goto	l3046
  2192  01E1                     u3610:
  2193  01E1                     l3042:
  2194  01E1  306F               	movlw	111
  2195  01E2  0273               	subwf	_escala,w
  2196  01E3  1803               	skipnc
  2197  01E4  29E6               	goto	u3621
  2198  01E5  29E7               	goto	u3620
  2199  01E6                     u3621:
  2200  01E6  29EC               	goto	l3046
  2201  01E7                     u3620:
  2202  01E7                     l3044:
  2203                           
  2204                           ;PROYECTO.c: 220:                     hora = 10;
  2205  01E7  300A               	movlw	10
  2206  01E8  00B8               	movwf	??_main
  2207  01E9  0838               	movf	??_main,w
  2208  01EA  00F5               	movwf	_hora
  2209                           
  2210                           ;PROYECTO.c: 221:                 }else if(escala >= 111 && escala <=120 ){
  2211  01EB  2AD4               	goto	l3128
  2212  01EC                     l3046:
  2213  01EC  306F               	movlw	111
  2214  01ED  0273               	subwf	_escala,w
  2215  01EE  1C03               	skipc
  2216  01EF  29F1               	goto	u3631
  2217  01F0  29F2               	goto	u3630
  2218  01F1                     u3631:
  2219  01F1  29FD               	goto	l3052
  2220  01F2                     u3630:
  2221  01F2                     l3048:
  2222  01F2  3079               	movlw	121
  2223  01F3  0273               	subwf	_escala,w
  2224  01F4  1803               	skipnc
  2225  01F5  29F7               	goto	u3641
  2226  01F6  29F8               	goto	u3640
  2227  01F7                     u3641:
  2228  01F7  29FD               	goto	l3052
  2229  01F8                     u3640:
  2230  01F8                     l3050:
  2231                           
  2232                           ;PROYECTO.c: 222:                     hora = 11;
  2233  01F8  300B               	movlw	11
  2234  01F9  00B8               	movwf	??_main
  2235  01FA  0838               	movf	??_main,w
  2236  01FB  00F5               	movwf	_hora
  2237                           
  2238                           ;PROYECTO.c: 223:                 }else if(escala >= 121 && escala <=130 ){
  2239  01FC  2AD4               	goto	l3128
  2240  01FD                     l3052:
  2241  01FD  3079               	movlw	121
  2242  01FE  0273               	subwf	_escala,w
  2243  01FF  1C03               	skipc
  2244  0200  2A02               	goto	u3651
  2245  0201  2A03               	goto	u3650
  2246  0202                     u3651:
  2247  0202  2A0E               	goto	l3058
  2248  0203                     u3650:
  2249  0203                     l3054:
  2250  0203  3083               	movlw	131
  2251  0204  0273               	subwf	_escala,w
  2252  0205  1803               	skipnc
  2253  0206  2A08               	goto	u3661
  2254  0207  2A09               	goto	u3660
  2255  0208                     u3661:
  2256  0208  2A0E               	goto	l3058
  2257  0209                     u3660:
  2258  0209                     l3056:
  2259                           
  2260                           ;PROYECTO.c: 224:                     hora = 12;
  2261  0209  300C               	movlw	12
  2262  020A  00B8               	movwf	??_main
  2263  020B  0838               	movf	??_main,w
  2264  020C  00F5               	movwf	_hora
  2265                           
  2266                           ;PROYECTO.c: 225:                 }else if(escala >= 131 && escala <=140 ){
  2267  020D  2AD4               	goto	l3128
  2268  020E                     l3058:
  2269  020E  3083               	movlw	131
  2270  020F  0273               	subwf	_escala,w
  2271  0210  1C03               	skipc
  2272  0211  2A13               	goto	u3671
  2273  0212  2A14               	goto	u3670
  2274  0213                     u3671:
  2275  0213  2A1F               	goto	l3064
  2276  0214                     u3670:
  2277  0214                     l3060:
  2278  0214  308D               	movlw	141
  2279  0215  0273               	subwf	_escala,w
  2280  0216  1803               	skipnc
  2281  0217  2A19               	goto	u3681
  2282  0218  2A1A               	goto	u3680
  2283  0219                     u3681:
  2284  0219  2A1F               	goto	l3064
  2285  021A                     u3680:
  2286  021A                     l3062:
  2287                           
  2288                           ;PROYECTO.c: 226:                     hora = 13;
  2289  021A  300D               	movlw	13
  2290  021B  00B8               	movwf	??_main
  2291  021C  0838               	movf	??_main,w
  2292  021D  00F5               	movwf	_hora
  2293                           
  2294                           ;PROYECTO.c: 227:                 }else if(escala >= 141 && escala <=150 ){
  2295  021E  2AD4               	goto	l3128
  2296  021F                     l3064:
  2297  021F  308D               	movlw	141
  2298  0220  0273               	subwf	_escala,w
  2299  0221  1C03               	skipc
  2300  0222  2A24               	goto	u3691
  2301  0223  2A25               	goto	u3690
  2302  0224                     u3691:
  2303  0224  2A30               	goto	l3070
  2304  0225                     u3690:
  2305  0225                     l3066:
  2306  0225  3097               	movlw	151
  2307  0226  0273               	subwf	_escala,w
  2308  0227  1803               	skipnc
  2309  0228  2A2A               	goto	u3701
  2310  0229  2A2B               	goto	u3700
  2311  022A                     u3701:
  2312  022A  2A30               	goto	l3070
  2313  022B                     u3700:
  2314  022B                     l3068:
  2315                           
  2316                           ;PROYECTO.c: 228:                     hora = 14;
  2317  022B  300E               	movlw	14
  2318  022C  00B8               	movwf	??_main
  2319  022D  0838               	movf	??_main,w
  2320  022E  00F5               	movwf	_hora
  2321                           
  2322                           ;PROYECTO.c: 229:                 }else if(escala >= 151 && escala <=160 ){
  2323  022F  2AD4               	goto	l3128
  2324  0230                     l3070:
  2325  0230  3097               	movlw	151
  2326  0231  0273               	subwf	_escala,w
  2327  0232  1C03               	skipc
  2328  0233  2A35               	goto	u3711
  2329  0234  2A36               	goto	u3710
  2330  0235                     u3711:
  2331  0235  2A41               	goto	l3076
  2332  0236                     u3710:
  2333  0236                     l3072:
  2334  0236  30A1               	movlw	161
  2335  0237  0273               	subwf	_escala,w
  2336  0238  1803               	skipnc
  2337  0239  2A3B               	goto	u3721
  2338  023A  2A3C               	goto	u3720
  2339  023B                     u3721:
  2340  023B  2A41               	goto	l3076
  2341  023C                     u3720:
  2342  023C                     l3074:
  2343                           
  2344                           ;PROYECTO.c: 230:                     hora = 15;
  2345  023C  300F               	movlw	15
  2346  023D  00B8               	movwf	??_main
  2347  023E  0838               	movf	??_main,w
  2348  023F  00F5               	movwf	_hora
  2349                           
  2350                           ;PROYECTO.c: 231:                 }else if(escala >= 161 && escala <=170 ){
  2351  0240  2AD4               	goto	l3128
  2352  0241                     l3076:
  2353  0241  30A1               	movlw	161
  2354  0242  0273               	subwf	_escala,w
  2355  0243  1C03               	skipc
  2356  0244  2A46               	goto	u3731
  2357  0245  2A47               	goto	u3730
  2358  0246                     u3731:
  2359  0246  2A52               	goto	l3082
  2360  0247                     u3730:
  2361  0247                     l3078:
  2362  0247  30AB               	movlw	171
  2363  0248  0273               	subwf	_escala,w
  2364  0249  1803               	skipnc
  2365  024A  2A4C               	goto	u3741
  2366  024B  2A4D               	goto	u3740
  2367  024C                     u3741:
  2368  024C  2A52               	goto	l3082
  2369  024D                     u3740:
  2370  024D                     l3080:
  2371                           
  2372                           ;PROYECTO.c: 232:                     hora = 16;
  2373  024D  3010               	movlw	16
  2374  024E  00B8               	movwf	??_main
  2375  024F  0838               	movf	??_main,w
  2376  0250  00F5               	movwf	_hora
  2377                           
  2378                           ;PROYECTO.c: 233:                 }else if(escala >= 171 && escala <=180 ){
  2379  0251  2AD4               	goto	l3128
  2380  0252                     l3082:
  2381  0252  30AB               	movlw	171
  2382  0253  0273               	subwf	_escala,w
  2383  0254  1C03               	skipc
  2384  0255  2A57               	goto	u3751
  2385  0256  2A58               	goto	u3750
  2386  0257                     u3751:
  2387  0257  2A63               	goto	l3088
  2388  0258                     u3750:
  2389  0258                     l3084:
  2390  0258  30B5               	movlw	181
  2391  0259  0273               	subwf	_escala,w
  2392  025A  1803               	skipnc
  2393  025B  2A5D               	goto	u3761
  2394  025C  2A5E               	goto	u3760
  2395  025D                     u3761:
  2396  025D  2A63               	goto	l3088
  2397  025E                     u3760:
  2398  025E                     l3086:
  2399                           
  2400                           ;PROYECTO.c: 234:                     hora = 17;
  2401  025E  3011               	movlw	17
  2402  025F  00B8               	movwf	??_main
  2403  0260  0838               	movf	??_main,w
  2404  0261  00F5               	movwf	_hora
  2405                           
  2406                           ;PROYECTO.c: 235:                 }else if(escala >= 181 && escala <=190 ){
  2407  0262  2AD4               	goto	l3128
  2408  0263                     l3088:
  2409  0263  30B5               	movlw	181
  2410  0264  0273               	subwf	_escala,w
  2411  0265  1C03               	skipc
  2412  0266  2A68               	goto	u3771
  2413  0267  2A69               	goto	u3770
  2414  0268                     u3771:
  2415  0268  2A74               	goto	l3094
  2416  0269                     u3770:
  2417  0269                     l3090:
  2418  0269  30BF               	movlw	191
  2419  026A  0273               	subwf	_escala,w
  2420  026B  1803               	skipnc
  2421  026C  2A6E               	goto	u3781
  2422  026D  2A6F               	goto	u3780
  2423  026E                     u3781:
  2424  026E  2A74               	goto	l3094
  2425  026F                     u3780:
  2426  026F                     l3092:
  2427                           
  2428                           ;PROYECTO.c: 236:                     hora = 18;
  2429  026F  3012               	movlw	18
  2430  0270  00B8               	movwf	??_main
  2431  0271  0838               	movf	??_main,w
  2432  0272  00F5               	movwf	_hora
  2433                           
  2434                           ;PROYECTO.c: 237:                 }else if(escala >= 191 && escala <=200 ){
  2435  0273  2AD4               	goto	l3128
  2436  0274                     l3094:
  2437  0274  30BF               	movlw	191
  2438  0275  0273               	subwf	_escala,w
  2439  0276  1C03               	skipc
  2440  0277  2A79               	goto	u3791
  2441  0278  2A7A               	goto	u3790
  2442  0279                     u3791:
  2443  0279  2A85               	goto	l3100
  2444  027A                     u3790:
  2445  027A                     l3096:
  2446  027A  30C9               	movlw	201
  2447  027B  0273               	subwf	_escala,w
  2448  027C  1803               	skipnc
  2449  027D  2A7F               	goto	u3801
  2450  027E  2A80               	goto	u3800
  2451  027F                     u3801:
  2452  027F  2A85               	goto	l3100
  2453  0280                     u3800:
  2454  0280                     l3098:
  2455                           
  2456                           ;PROYECTO.c: 238:                     hora = 19;
  2457  0280  3013               	movlw	19
  2458  0281  00B8               	movwf	??_main
  2459  0282  0838               	movf	??_main,w
  2460  0283  00F5               	movwf	_hora
  2461                           
  2462                           ;PROYECTO.c: 239:                 }else if(escala >= 201&& escala <=210 ){
  2463  0284  2AD4               	goto	l3128
  2464  0285                     l3100:
  2465  0285  30C9               	movlw	201
  2466  0286  0273               	subwf	_escala,w
  2467  0287  1C03               	skipc
  2468  0288  2A8A               	goto	u3811
  2469  0289  2A8B               	goto	u3810
  2470  028A                     u3811:
  2471  028A  2A96               	goto	l3106
  2472  028B                     u3810:
  2473  028B                     l3102:
  2474  028B  30D3               	movlw	211
  2475  028C  0273               	subwf	_escala,w
  2476  028D  1803               	skipnc
  2477  028E  2A90               	goto	u3821
  2478  028F  2A91               	goto	u3820
  2479  0290                     u3821:
  2480  0290  2A96               	goto	l3106
  2481  0291                     u3820:
  2482  0291                     l3104:
  2483                           
  2484                           ;PROYECTO.c: 240:                     hora = 20;
  2485  0291  3014               	movlw	20
  2486  0292  00B8               	movwf	??_main
  2487  0293  0838               	movf	??_main,w
  2488  0294  00F5               	movwf	_hora
  2489                           
  2490                           ;PROYECTO.c: 241:                 }else if(escala >= 211 && escala <=220 ){
  2491  0295  2AD4               	goto	l3128
  2492  0296                     l3106:
  2493  0296  30D3               	movlw	211
  2494  0297  0273               	subwf	_escala,w
  2495  0298  1C03               	skipc
  2496  0299  2A9B               	goto	u3831
  2497  029A  2A9C               	goto	u3830
  2498  029B                     u3831:
  2499  029B  2AA7               	goto	l3112
  2500  029C                     u3830:
  2501  029C                     l3108:
  2502  029C  30DD               	movlw	221
  2503  029D  0273               	subwf	_escala,w
  2504  029E  1803               	skipnc
  2505  029F  2AA1               	goto	u3841
  2506  02A0  2AA2               	goto	u3840
  2507  02A1                     u3841:
  2508  02A1  2AA7               	goto	l3112
  2509  02A2                     u3840:
  2510  02A2                     l3110:
  2511                           
  2512                           ;PROYECTO.c: 242:                     hora = 21;
  2513  02A2  3015               	movlw	21
  2514  02A3  00B8               	movwf	??_main
  2515  02A4  0838               	movf	??_main,w
  2516  02A5  00F5               	movwf	_hora
  2517                           
  2518                           ;PROYECTO.c: 243:                 }else if(escala >= 221 && escala <=230 ){
  2519  02A6  2AD4               	goto	l3128
  2520  02A7                     l3112:
  2521  02A7  30DD               	movlw	221
  2522  02A8  0273               	subwf	_escala,w
  2523  02A9  1C03               	skipc
  2524  02AA  2AAC               	goto	u3851
  2525  02AB  2AAD               	goto	u3850
  2526  02AC                     u3851:
  2527  02AC  2AB8               	goto	l3118
  2528  02AD                     u3850:
  2529  02AD                     l3114:
  2530  02AD  30E7               	movlw	231
  2531  02AE  0273               	subwf	_escala,w
  2532  02AF  1803               	skipnc
  2533  02B0  2AB2               	goto	u3861
  2534  02B1  2AB3               	goto	u3860
  2535  02B2                     u3861:
  2536  02B2  2AB8               	goto	l3118
  2537  02B3                     u3860:
  2538  02B3                     l3116:
  2539                           
  2540                           ;PROYECTO.c: 244:                     hora = 22;
  2541  02B3  3016               	movlw	22
  2542  02B4  00B8               	movwf	??_main
  2543  02B5  0838               	movf	??_main,w
  2544  02B6  00F5               	movwf	_hora
  2545                           
  2546                           ;PROYECTO.c: 245:                 }else if(escala >= 231 && escala <=240 ){
  2547  02B7  2AD4               	goto	l3128
  2548  02B8                     l3118:
  2549  02B8  30E7               	movlw	231
  2550  02B9  0273               	subwf	_escala,w
  2551  02BA  1C03               	skipc
  2552  02BB  2ABD               	goto	u3871
  2553  02BC  2ABE               	goto	u3870
  2554  02BD                     u3871:
  2555  02BD  2AC9               	goto	l3124
  2556  02BE                     u3870:
  2557  02BE                     l3120:
  2558  02BE  30F1               	movlw	241
  2559  02BF  0273               	subwf	_escala,w
  2560  02C0  1803               	skipnc
  2561  02C1  2AC3               	goto	u3881
  2562  02C2  2AC4               	goto	u3880
  2563  02C3                     u3881:
  2564  02C3  2AC9               	goto	l3124
  2565  02C4                     u3880:
  2566  02C4                     l3122:
  2567                           
  2568                           ;PROYECTO.c: 246:                     hora = 23;
  2569  02C4  3017               	movlw	23
  2570  02C5  00B8               	movwf	??_main
  2571  02C6  0838               	movf	??_main,w
  2572  02C7  00F5               	movwf	_hora
  2573                           
  2574                           ;PROYECTO.c: 247:                 }else if(escala >= 241 && escala <=255 ){
  2575  02C8  2AD4               	goto	l3128
  2576  02C9                     l3124:
  2577  02C9  30F1               	movlw	241
  2578  02CA  0273               	subwf	_escala,w
  2579  02CB  1C03               	skipc
  2580  02CC  2ACE               	goto	u3891
  2581  02CD  2ACF               	goto	u3890
  2582  02CE                     u3891:
  2583  02CE  2AD4               	goto	l226
  2584  02CF                     u3890:
  2585  02CF                     l3126:
  2586                           
  2587                           ;PROYECTO.c: 248:                     hora = 24;
  2588  02CF  3018               	movlw	24
  2589  02D0  00B8               	movwf	??_main
  2590  02D1  0838               	movf	??_main,w
  2591  02D2  00F5               	movwf	_hora
  2592  02D3  2AD4               	goto	l3128
  2593  02D4                     l226:
  2594  02D4                     l3128:
  2595                           
  2596                           ;PROYECTO.c: 251:                 ADCON0bits.CHS = 6;
  2597  02D4  081F               	movf	31,w	;volatile
  2598  02D5  39C3               	andlw	-61
  2599  02D6  3818               	iorlw	24
  2600  02D7  009F               	movwf	31	;volatile
  2601  02D8                     l3130:
  2602                           
  2603                           ;PROYECTO.c: 253:             _delay((unsigned long)((50)*(4000000/4000000.0)));
  2604  02D8  300F               	movlw	15
  2605  02D9  1283               	bcf	3,5	;RP0=0, select bank0
  2606  02DA  1303               	bcf	3,6	;RP1=0, select bank0
  2607  02DB  00B8               	movwf	??_main
  2608  02DC                     u4427:
  2609  02DC  0BB8               	decfsz	??_main,f
  2610  02DD  2ADC               	goto	u4427
  2611  02DE  2ADF               	nop2
  2612  02DF                     l3132:
  2613                           
  2614                           ;PROYECTO.c: 255:             ADCON0bits.GO = 1;
  2615  02DF  1283               	bcf	3,5	;RP0=0, select bank0
  2616  02E0  1303               	bcf	3,6	;RP1=0, select bank0
  2617  02E1  149F               	bsf	31,1	;volatile
  2618  02E2                     l170:	
  2619                           ;PROYECTO.c: 256:         }
  2620                           
  2621                           
  2622                           ;PROYECTO.c: 258:        if(ventana == 1){
  2623  02E2  0336               	decf	_ventana,w
  2624  02E3  1D03               	btfss	3,2
  2625  02E4  2AE6               	goto	u3901
  2626  02E5  2AE7               	goto	u3900
  2627  02E6                     u3901:
  2628  02E6  2B29               	goto	l3138
  2629  02E7                     u3900:
  2630  02E7                     l3134:
  2631                           
  2632                           ;PROYECTO.c: 260:            USART_Cadena("\r Que accion desea ejecutar? \r");
  2633  02E7  304D               	movlw	low (STR_1| (0+32768))
  2634  02E8  00F9               	movwf	USART_Cadena@str
  2635  02E9  308A               	movlw	high (STR_1| (0+32768))
  2636  02EA  00FA               	movwf	USART_Cadena@str+1
  2637  02EB  120A  158A  24B6  120A  118A  	fcall	_USART_Cadena
  2638                           
  2639                           ;PROYECTO.c: 261:            USART_Cadena("1) ver datos de usuario uno \r");
  2640  02F0  308B               	movlw	low (STR_2| (0+32768))
  2641  02F1  00F9               	movwf	USART_Cadena@str
  2642  02F2  308A               	movlw	high (STR_2| (0+32768))
  2643  02F3  00FA               	movwf	USART_Cadena@str+1
  2644  02F4  120A  158A  24B6  120A  118A  	fcall	_USART_Cadena
  2645                           
  2646                           ;PROYECTO.c: 262:            USART_Cadena("2) ver datos de usuario dos\r");
  2647  02F9  30A9               	movlw	low (STR_3| (0+32768))
  2648  02FA  00F9               	movwf	USART_Cadena@str
  2649  02FB  308A               	movlw	high (STR_3| (0+32768))
  2650  02FC  00FA               	movwf	USART_Cadena@str+1
  2651  02FD  120A  158A  24B6  120A  118A  	fcall	_USART_Cadena
  2652                           
  2653                           ;PROYECTO.c: 263:            USART_Cadena("3) ver datos de usuario tres \r");
  2654  0302  306C               	movlw	low (STR_4| (0+32768))
  2655  0303  00F9               	movwf	USART_Cadena@str
  2656  0304  308A               	movlw	high (STR_4| (0+32768))
  2657  0305  00FA               	movwf	USART_Cadena@str+1
  2658  0306  120A  158A  24B6  120A  118A  	fcall	_USART_Cadena
  2659                           
  2660                           ;PROYECTO.c: 264:            USART_Cadena("4) Modificar horario usuario uno \r");
  2661  030B  308B               	movlw	low (STR_5| (0+32768))
  2662  030C  00F9               	movwf	USART_Cadena@str
  2663  030D  3089               	movlw	high (STR_5| (0+32768))
  2664  030E  00FA               	movwf	USART_Cadena@str+1
  2665  030F  120A  158A  24B6  120A  118A  	fcall	_USART_Cadena
  2666                           
  2667                           ;PROYECTO.c: 265:            USART_Cadena("5) Modificar horario usuario dos\r");
  2668  0314  30AE               	movlw	low (STR_6| (0+32768))
  2669  0315  00F9               	movwf	USART_Cadena@str
  2670  0316  3089               	movlw	high (STR_6| (0+32768))
  2671  0317  00FA               	movwf	USART_Cadena@str+1
  2672  0318  120A  158A  24B6  120A  118A  	fcall	_USART_Cadena
  2673                           
  2674                           ;PROYECTO.c: 266:            USART_Cadena("6) Modificar horario usuario tres \r\r");
  2675  031D  3042               	movlw	low (STR_7| (0+32768))
  2676  031E  00F9               	movwf	USART_Cadena@str
  2677  031F  3089               	movlw	high (STR_7| (0+32768))
  2678  0320  00FA               	movwf	USART_Cadena@str+1
  2679  0321  120A  158A  24B6  120A  118A  	fcall	_USART_Cadena
  2680  0326                     l3136:
  2681                           
  2682                           ;PROYECTO.c: 267:            ventana = 0;
  2683  0326  1283               	bcf	3,5	;RP0=0, select bank0
  2684  0327  1303               	bcf	3,6	;RP1=0, select bank0
  2685  0328  01B6               	clrf	_ventana
  2686  0329                     l3138:
  2687                           
  2688                           ;PROYECTO.c: 270:        if (PIR1bits.RCIF == 1){
  2689  0329  1E8C               	btfss	12,5	;volatile
  2690  032A  2B2C               	goto	u3911
  2691  032B  2B2D               	goto	u3910
  2692  032C                     u3911:
  2693  032C  2F1D               	goto	l3328
  2694  032D                     u3910:
  2695  032D                     l3140:
  2696                           
  2697                           ;PROYECTO.c: 271:            valor = USART_Rx();
  2698  032D  120A  118A  27FC  120A  118A  	fcall	_USART_Rx
  2699  0332  1283               	bcf	3,5	;RP0=0, select bank0
  2700  0333  1303               	bcf	3,6	;RP1=0, select bank0
  2701  0334  00B8               	movwf	??_main
  2702  0335  0838               	movf	??_main,w
  2703  0336  00B7               	movwf	_valor
  2704  0337                     l3142:
  2705                           
  2706                           ;PROYECTO.c: 272:            ventana = 1;
  2707  0337  01B6               	clrf	_ventana
  2708  0338  0AB6               	incf	_ventana,f
  2709  0339  2F1D               	goto	l3328
  2710  033A                     l3144:
  2711                           
  2712                           ;PROYECTO.c: 277:                 USART_Cadena(" Esperar  ");
  2713  033A  30E0               	movlw	low (STR_8| (0+32768))
  2714  033B  00F9               	movwf	USART_Cadena@str
  2715  033C  308A               	movlw	high (STR_8| (0+32768))
  2716  033D  00FA               	movwf	USART_Cadena@str+1
  2717  033E  120A  158A  24B6  120A  118A  	fcall	_USART_Cadena
  2718  0343                     l3146:
  2719                           
  2720                           ;PROYECTO.c: 278:                 SendCharH(me_1_us1_h);
  2721  0343  1283               	bcf	3,5	;RP0=0, select bank0
  2722  0344  1303               	bcf	3,6	;RP1=0, select bank0
  2723  0345  0831               	movf	_me_1_us1_h,w
  2724  0346  120A  158A  263B  120A  118A  	fcall	_SendCharH
  2725  034B                     l3148:
  2726                           
  2727                           ;PROYECTO.c: 279:                 USART_Cadena(" Horas ");
  2728  034B  30EB               	movlw	low (STR_9| (0+32768))
  2729  034C  00F9               	movwf	USART_Cadena@str
  2730  034D  308A               	movlw	high (STR_9| (0+32768))
  2731  034E  00FA               	movwf	USART_Cadena@str+1
  2732  034F  120A  158A  24B6  120A  118A  	fcall	_USART_Cadena
  2733  0354                     l3150:
  2734                           
  2735                           ;PROYECTO.c: 280:                 USART_Cadena(" con  ");
  2736  0354  30F3               	movlw	low (STR_10| (0+32768))
  2737  0355  00F9               	movwf	USART_Cadena@str
  2738  0356  308A               	movlw	high (STR_10| (0+32768))
  2739  0357  00FA               	movwf	USART_Cadena@str+1
  2740  0358  120A  158A  24B6  120A  118A  	fcall	_USART_Cadena
  2741  035D                     l3152:
  2742                           
  2743                           ;PROYECTO.c: 281:                 SendCharM(me_1_us1_m);
  2744  035D  1283               	bcf	3,5	;RP0=0, select bank0
  2745  035E  1303               	bcf	3,6	;RP1=0, select bank0
  2746  035F  0828               	movf	_me_1_us1_m,w
  2747  0360  120A  158A  2513  120A  118A  	fcall	_SendCharM
  2748  0365                     l3154:
  2749                           
  2750                           ;PROYECTO.c: 282:                 USART_Cadena(" mins. para el medicamento 1 \r");
  2751  0365  300F               	movlw	low (STR_11| (0+32768))
  2752  0366  00F9               	movwf	USART_Cadena@str
  2753  0367  308A               	movlw	high (STR_11| (0+32768))
  2754  0368  00FA               	movwf	USART_Cadena@str+1
  2755  0369  120A  158A  24B6  120A  118A  	fcall	_USART_Cadena
  2756  036E                     l3156:
  2757                           
  2758                           ;PROYECTO.c: 284:                 USART_Cadena(" Esperar  ");
  2759  036E  30E0               	movlw	low (STR_8| (0+32768))
  2760  036F  00F9               	movwf	USART_Cadena@str
  2761  0370  308A               	movlw	high (STR_8| (0+32768))
  2762  0371  00FA               	movwf	USART_Cadena@str+1
  2763  0372  120A  158A  24B6  120A  118A  	fcall	_USART_Cadena
  2764                           
  2765                           ;PROYECTO.c: 285:                 SendCharH(me_2_us1_h);
  2766  0377  1283               	bcf	3,5	;RP0=0, select bank0
  2767  0378  1303               	bcf	3,6	;RP1=0, select bank0
  2768  0379  0830               	movf	_me_2_us1_h,w
  2769  037A  120A  158A  263B  120A  118A  	fcall	_SendCharH
  2770  037F                     l3158:
  2771                           
  2772                           ;PROYECTO.c: 286:                 USART_Cadena(" Horas ");
  2773  037F  30EB               	movlw	low (STR_9| (0+32768))
  2774  0380  00F9               	movwf	USART_Cadena@str
  2775  0381  308A               	movlw	high (STR_9| (0+32768))
  2776  0382  00FA               	movwf	USART_Cadena@str+1
  2777  0383  120A  158A  24B6  120A  118A  	fcall	_USART_Cadena
  2778  0388                     l3160:
  2779                           
  2780                           ;PROYECTO.c: 287:                 USART_Cadena(" con  ");
  2781  0388  30F3               	movlw	low (STR_10| (0+32768))
  2782  0389  00F9               	movwf	USART_Cadena@str
  2783  038A  308A               	movlw	high (STR_10| (0+32768))
  2784  038B  00FA               	movwf	USART_Cadena@str+1
  2785  038C  120A  158A  24B6  120A  118A  	fcall	_USART_Cadena
  2786  0391                     l3162:
  2787                           
  2788                           ;PROYECTO.c: 288:                 SendCharM(me_2_us1_m);
  2789  0391  1283               	bcf	3,5	;RP0=0, select bank0
  2790  0392  1303               	bcf	3,6	;RP1=0, select bank0
  2791  0393  0827               	movf	_me_2_us1_m,w
  2792  0394  120A  158A  2513  120A  118A  	fcall	_SendCharM
  2793  0399                     l3164:
  2794                           
  2795                           ;PROYECTO.c: 289:                 USART_Cadena(" mins. para el medicamento 2 \r");
  2796  0399  302E               	movlw	low (STR_15| (0+32768))
  2797  039A  00F9               	movwf	USART_Cadena@str
  2798  039B  308A               	movlw	high (STR_15| (0+32768))
  2799  039C  00FA               	movwf	USART_Cadena@str+1
  2800  039D  120A  158A  24B6  120A  118A  	fcall	_USART_Cadena
  2801  03A2                     l3166:
  2802                           
  2803                           ;PROYECTO.c: 291:                 USART_Cadena(" Esperar  ");
  2804  03A2  30E0               	movlw	low (STR_8| (0+32768))
  2805  03A3  00F9               	movwf	USART_Cadena@str
  2806  03A4  308A               	movlw	high (STR_8| (0+32768))
  2807  03A5  00FA               	movwf	USART_Cadena@str+1
  2808  03A6  120A  158A  24B6  120A  118A  	fcall	_USART_Cadena
  2809  03AB                     l3168:
  2810                           
  2811                           ;PROYECTO.c: 292:                 SendCharH(me_3_us1_h);
  2812  03AB  1283               	bcf	3,5	;RP0=0, select bank0
  2813  03AC  1303               	bcf	3,6	;RP1=0, select bank0
  2814  03AD  082F               	movf	_me_3_us1_h,w
  2815  03AE  120A  158A  263B  120A  118A  	fcall	_SendCharH
  2816                           
  2817                           ;PROYECTO.c: 293:                 USART_Cadena(" Horas ");
  2818  03B3  30EB               	movlw	low (STR_9| (0+32768))
  2819  03B4  00F9               	movwf	USART_Cadena@str
  2820  03B5  308A               	movlw	high (STR_9| (0+32768))
  2821  03B6  00FA               	movwf	USART_Cadena@str+1
  2822  03B7  120A  158A  24B6  120A  118A  	fcall	_USART_Cadena
  2823                           
  2824                           ;PROYECTO.c: 294:                 USART_Cadena(" con  ");
  2825  03BC  30F3               	movlw	low (STR_10| (0+32768))
  2826  03BD  00F9               	movwf	USART_Cadena@str
  2827  03BE  308A               	movlw	high (STR_10| (0+32768))
  2828  03BF  00FA               	movwf	USART_Cadena@str+1
  2829  03C0  120A  158A  24B6  120A  118A  	fcall	_USART_Cadena
  2830                           
  2831                           ;PROYECTO.c: 295:                 SendCharM(me_3_us1_m);
  2832  03C5  1283               	bcf	3,5	;RP0=0, select bank0
  2833  03C6  1303               	bcf	3,6	;RP1=0, select bank0
  2834  03C7  0826               	movf	_me_3_us1_m,w
  2835  03C8  120A  158A  2513  120A  118A  	fcall	_SendCharM
  2836                           
  2837                           ;PROYECTO.c: 296:                 USART_Cadena(" mins. para el medicamento 3 \r\r");
  2838  03CD  30D0               	movlw	low (STR_19| (0+32768))
  2839  03CE  00F9               	movwf	USART_Cadena@str
  2840  03CF  3089               	movlw	high (STR_19| (0+32768))
  2841  03D0  00FA               	movwf	USART_Cadena@str+1
  2842  03D1  120A  158A  24B6  120A  118A  	fcall	_USART_Cadena
  2843  03D6                     l3170:
  2844                           
  2845                           ;PROYECTO.c: 297:                 ventana = 1;
  2846  03D6  1283               	bcf	3,5	;RP0=0, select bank0
  2847  03D7  1303               	bcf	3,6	;RP1=0, select bank0
  2848  03D8  01B6               	clrf	_ventana
  2849  03D9  0AB6               	incf	_ventana,f
  2850                           
  2851                           ;PROYECTO.c: 298:                 break;
  2852  03DA  2F39               	goto	l3330
  2853  03DB                     l3172:
  2854                           
  2855                           ;PROYECTO.c: 301:                 USART_Cadena(" Esperar  ");
  2856  03DB  30E0               	movlw	low (STR_8| (0+32768))
  2857  03DC  00F9               	movwf	USART_Cadena@str
  2858  03DD  308A               	movlw	high (STR_8| (0+32768))
  2859  03DE  00FA               	movwf	USART_Cadena@str+1
  2860  03DF  120A  158A  24B6  120A  118A  	fcall	_USART_Cadena
  2861  03E4                     l3174:
  2862                           
  2863                           ;PROYECTO.c: 302:                 SendCharH(hora_user2);
  2864  03E4  1283               	bcf	3,5	;RP0=0, select bank0
  2865  03E5  1303               	bcf	3,6	;RP1=0, select bank0
  2866  03E6  0833               	movf	_hora_user2,w
  2867  03E7  120A  158A  263B  120A  118A  	fcall	_SendCharH
  2868  03EC                     l3176:
  2869                           
  2870                           ;PROYECTO.c: 303:                 USART_Cadena(" Horas ");
  2871  03EC  30EB               	movlw	low (STR_9| (0+32768))
  2872  03ED  00F9               	movwf	USART_Cadena@str
  2873  03EE  308A               	movlw	high (STR_9| (0+32768))
  2874  03EF  00FA               	movwf	USART_Cadena@str+1
  2875  03F0  120A  158A  24B6  120A  118A  	fcall	_USART_Cadena
  2876  03F5                     l3178:
  2877                           
  2878                           ;PROYECTO.c: 304:                 USART_Cadena(" con  ");
  2879  03F5  30F3               	movlw	low (STR_10| (0+32768))
  2880  03F6  00F9               	movwf	USART_Cadena@str
  2881  03F7  308A               	movlw	high (STR_10| (0+32768))
  2882  03F8  00FA               	movwf	USART_Cadena@str+1
  2883  03F9  120A  158A  24B6  120A  118A  	fcall	_USART_Cadena
  2884  03FE                     l3180:
  2885                           
  2886                           ;PROYECTO.c: 305:                 SendCharM(min_user2);
  2887  03FE  0872               	movf	_min_user2,w
  2888  03FF  120A  158A  2513  120A  118A  	fcall	_SendCharM
  2889  0404                     l3182:
  2890                           
  2891                           ;PROYECTO.c: 306:                 USART_Cadena(" mins. para el medicamento  \r\r");
  2892  0404  30F0               	movlw	low (STR_23| (0+32768))
  2893  0405  00F9               	movwf	USART_Cadena@str
  2894  0406  3089               	movlw	high (STR_23| (0+32768))
  2895  0407  00FA               	movwf	USART_Cadena@str+1
  2896  0408  120A  158A  24B6  120A  118A  	fcall	_USART_Cadena
  2897  040D  2BD6               	goto	l3170
  2898  040E                     l3186:
  2899                           
  2900                           ;PROYECTO.c: 311:                 USART_Cadena(" Esperar  ");
  2901  040E  30E0               	movlw	low (STR_8| (0+32768))
  2902  040F  00F9               	movwf	USART_Cadena@str
  2903  0410  308A               	movlw	high (STR_8| (0+32768))
  2904  0411  00FA               	movwf	USART_Cadena@str+1
  2905  0412  120A  158A  24B6  120A  118A  	fcall	_USART_Cadena
  2906  0417                     l3188:
  2907                           
  2908                           ;PROYECTO.c: 312:                 SendCharH(hora_user3);
  2909  0417  1283               	bcf	3,5	;RP0=0, select bank0
  2910  0418  1303               	bcf	3,6	;RP1=0, select bank0
  2911  0419  0832               	movf	_hora_user3,w
  2912  041A  120A  158A  263B  120A  118A  	fcall	_SendCharH
  2913  041F                     l3190:
  2914                           
  2915                           ;PROYECTO.c: 313:                 USART_Cadena(" Horas ");
  2916  041F  30EB               	movlw	low (STR_9| (0+32768))
  2917  0420  00F9               	movwf	USART_Cadena@str
  2918  0421  308A               	movlw	high (STR_9| (0+32768))
  2919  0422  00FA               	movwf	USART_Cadena@str+1
  2920  0423  120A  158A  24B6  120A  118A  	fcall	_USART_Cadena
  2921  0428                     l3192:
  2922                           
  2923                           ;PROYECTO.c: 314:                 USART_Cadena(" con  ");
  2924  0428  30F3               	movlw	low (STR_10| (0+32768))
  2925  0429  00F9               	movwf	USART_Cadena@str
  2926  042A  308A               	movlw	high (STR_10| (0+32768))
  2927  042B  00FA               	movwf	USART_Cadena@str+1
  2928  042C  120A  158A  24B6  120A  118A  	fcall	_USART_Cadena
  2929  0431                     l3194:
  2930                           
  2931                           ;PROYECTO.c: 315:                 SendCharM(min_user3);
  2932  0431  0871               	movf	_min_user3,w
  2933  0432  120A  158A  2513  120A  118A  	fcall	_SendCharM
  2934  0437                     l3196:
  2935                           
  2936                           ;PROYECTO.c: 316:                 USART_Cadena(" mins. para el medicamento  \r\r");
  2937  0437  30F0               	movlw	low (STR_23| (0+32768))
  2938  0438  00F9               	movwf	USART_Cadena@str
  2939  0439  3089               	movlw	high (STR_23| (0+32768))
  2940  043A  00FA               	movwf	USART_Cadena@str+1
  2941  043B  120A  158A  24B6  120A  118A  	fcall	_USART_Cadena
  2942  0440  2BD6               	goto	l3170
  2943  0441                     l3200:
  2944                           
  2945                           ;PROYECTO.c: 321:                 USART_Cadena(" Ingresá la letra de la nueva hora  \r"
      +                          );
  2946  0441  301B               	movlw	low (STR_28| (0+32768))
  2947  0442  00F9               	movwf	USART_Cadena@str
  2948  0443  3089               	movlw	high (STR_28| (0+32768))
  2949  0444  00FA               	movwf	USART_Cadena@str+1
  2950  0445  120A  158A  24B6  120A  118A  	fcall	_USART_Cadena
  2951                           
  2952                           ;PROYECTO.c: 322:                 USART_Cadena(" a.0  b.1   c.2   d.3   e.4   f.5   g.6 
      +                            h.7  i.8\r");
  2953  044A  3000               	movlw	low (STR_29| (0+32768))
  2954  044B  00F9               	movwf	USART_Cadena@str
  2955  044C  3088               	movlw	high (STR_29| (0+32768))
  2956  044D  00FA               	movwf	USART_Cadena@str+1
  2957  044E  120A  158A  24B6  120A  118A  	fcall	_USART_Cadena
  2958                           
  2959                           ;PROYECTO.c: 323:                 USART_Cadena(" j.9  k.10  l.11  m.12  n.13  o.14  p.15
      +                            q.16\r");
  2960  0453  3094               	movlw	low (STR_30| (0+32768))
  2961  0454  00F9               	movwf	USART_Cadena@str
  2962  0455  3088               	movlw	high (STR_30| (0+32768))
  2963  0456  00FA               	movwf	USART_Cadena@str+1
  2964  0457  120A  158A  24B6  120A  118A  	fcall	_USART_Cadena
  2965                           
  2966                           ;PROYECTO.c: 324:                 USART_Cadena("r.17  s.18  t.19  u.20  v.21  w.22  x.23
      +                            y.24\r");
  2967  045C  3064               	movlw	low (STR_31| (0+32768))
  2968  045D  00F9               	movwf	USART_Cadena@str
  2969  045E  3088               	movlw	high (STR_31| (0+32768))
  2970  045F  00FA               	movwf	USART_Cadena@str+1
  2971  0460  120A  158A  24B6  120A  118A  	fcall	_USART_Cadena
  2972  0465                     l3202:
  2973                           
  2974                           ;PROYECTO.c: 326:                     if (PIR1bits.RCIF == 1){
  2975  0465  1283               	bcf	3,5	;RP0=0, select bank0
  2976  0466  1303               	bcf	3,6	;RP1=0, select bank0
  2977  0467  1E8C               	btfss	12,5	;volatile
  2978  0468  2C6A               	goto	u3921
  2979  0469  2C6B               	goto	u3920
  2980  046A                     u3921:
  2981  046A  2C65               	goto	l3202
  2982  046B                     u3920:
  2983  046B                     l3204:
  2984                           
  2985                           ;PROYECTO.c: 327:                         USART_Cadena(" \r");
  2986  046B  3088               	movlw	low ((STR_35+33)| (0+32768))
  2987  046C  00F9               	movwf	USART_Cadena@str
  2988  046D  3089               	movlw	high ((STR_35+33)| (0+32768))
  2989  046E  00FA               	movwf	USART_Cadena@str+1
  2990  046F  120A  158A  24B6  120A  118A  	fcall	_USART_Cadena
  2991  0474                     l3206:
  2992                           
  2993                           ;PROYECTO.c: 328:                         hora_nueva = USART_Rx();
  2994  0474  120A  118A  27FC  120A  118A  	fcall	_USART_Rx
  2995  0479  1283               	bcf	3,5	;RP0=0, select bank0
  2996  047A  1303               	bcf	3,6	;RP1=0, select bank0
  2997  047B  00B8               	movwf	??_main
  2998  047C  0838               	movf	??_main,w
  2999  047D  00F0               	movwf	_hora_nueva
  3000  047E                     l3208:
  3001                           
  3002                           ;PROYECTO.c: 329:                         USART_Cadena(" \r");
  3003  047E  3088               	movlw	low ((STR_35+33)| (0+32768))
  3004  047F  00F9               	movwf	USART_Cadena@str
  3005  0480  3089               	movlw	high ((STR_35+33)| (0+32768))
  3006  0481  00FA               	movwf	USART_Cadena@str+1
  3007  0482  120A  158A  24B6  120A  118A  	fcall	_USART_Cadena
  3008  0487                     l3210:
  3009                           
  3010                           ;PROYECTO.c: 330:                         hora_user1 = CharToNumH(hora_nueva, hora_user1
      +                          );
  3011  0487  1283               	bcf	3,5	;RP0=0, select bank0
  3012  0488  1303               	bcf	3,6	;RP1=0, select bank0
  3013  0489  0834               	movf	_hora_user1,w
  3014  048A  00B8               	movwf	??_main
  3015  048B  0838               	movf	??_main,w
  3016  048C  00F8               	movwf	CharToNumH@hora_user
  3017  048D  0870               	movf	_hora_nueva,w
  3018  048E  120A  158A  256A  120A  118A  	fcall	_CharToNumH
  3019  0493  1283               	bcf	3,5	;RP0=0, select bank0
  3020  0494  1303               	bcf	3,6	;RP1=0, select bank0
  3021  0495  00B9               	movwf	??_main+1
  3022  0496  0839               	movf	??_main+1,w
  3023  0497  00B4               	movwf	_hora_user1
  3024  0498                     l3212:	
  3025                           ;PROYECTO.c: 331:                         break;
  3026                           
  3027                           
  3028                           ;PROYECTO.c: 334:                 USART_Cadena(" Ingresá la letra de los minutos nuevos
      +                            \r");
  3029  0498  30C4               	movlw	low (STR_34| (0+32768))
  3030  0499  00F9               	movwf	USART_Cadena@str
  3031  049A  3088               	movlw	high (STR_34| (0+32768))
  3032  049B  00FA               	movwf	USART_Cadena@str+1
  3033  049C  120A  158A  24B6  120A  118A  	fcall	_USART_Cadena
  3034                           
  3035                           ;PROYECTO.c: 335:                 USART_Cadena(" a.0  b.15   c.30   d.45   e.55   \r");
  3036  04A1  3067               	movlw	low (STR_35| (0+32768))
  3037  04A2  00F9               	movwf	USART_Cadena@str
  3038  04A3  3089               	movlw	high (STR_35| (0+32768))
  3039  04A4  00FA               	movwf	USART_Cadena@str+1
  3040  04A5  120A  158A  24B6  120A  118A  	fcall	_USART_Cadena
  3041  04AA                     l3214:
  3042                           
  3043                           ;PROYECTO.c: 337:                     if (PIR1bits.RCIF == 1){
  3044  04AA  1283               	bcf	3,5	;RP0=0, select bank0
  3045  04AB  1303               	bcf	3,6	;RP1=0, select bank0
  3046  04AC  1E8C               	btfss	12,5	;volatile
  3047  04AD  2CAF               	goto	u3931
  3048  04AE  2CB0               	goto	u3930
  3049  04AF                     u3931:
  3050  04AF  2CAA               	goto	l3214
  3051  04B0                     u3930:
  3052  04B0                     l3216:
  3053                           
  3054                           ;PROYECTO.c: 338:                         USART_Cadena(" \r");
  3055  04B0  3088               	movlw	low ((STR_35+33)| (0+32768))
  3056  04B1  00F9               	movwf	USART_Cadena@str
  3057  04B2  3089               	movlw	high ((STR_35+33)| (0+32768))
  3058  04B3  00FA               	movwf	USART_Cadena@str+1
  3059  04B4  120A  158A  24B6  120A  118A  	fcall	_USART_Cadena
  3060  04B9                     l3218:
  3061                           
  3062                           ;PROYECTO.c: 339:                         hora_nueva = USART_Rx();
  3063  04B9  120A  118A  27FC  120A  118A  	fcall	_USART_Rx
  3064  04BE  1283               	bcf	3,5	;RP0=0, select bank0
  3065  04BF  1303               	bcf	3,6	;RP1=0, select bank0
  3066  04C0  00B8               	movwf	??_main
  3067  04C1  0838               	movf	??_main,w
  3068  04C2  00F0               	movwf	_hora_nueva
  3069  04C3                     l3220:
  3070                           
  3071                           ;PROYECTO.c: 340:                         USART_Cadena(" \r");
  3072  04C3  3088               	movlw	low ((STR_35+33)| (0+32768))
  3073  04C4  00F9               	movwf	USART_Cadena@str
  3074  04C5  3089               	movlw	high ((STR_35+33)| (0+32768))
  3075  04C6  00FA               	movwf	USART_Cadena@str+1
  3076  04C7  120A  158A  24B6  120A  118A  	fcall	_USART_Cadena
  3077  04CC                     l3222:
  3078                           
  3079                           ;PROYECTO.c: 341:                         min_user1 = CharToNumM(hora_nueva, min_user1);
  3080  04CC  1283               	bcf	3,5	;RP0=0, select bank0
  3081  04CD  1303               	bcf	3,6	;RP1=0, select bank0
  3082  04CE  0835               	movf	_min_user1,w
  3083  04CF  00B8               	movwf	??_main
  3084  04D0  0838               	movf	??_main,w
  3085  04D1  00F8               	movwf	CharToNumM@her
  3086  04D2  0870               	movf	_hora_nueva,w
  3087  04D3  120A  158A  24DC  120A  118A  	fcall	_CharToNumM
  3088  04D8  1283               	bcf	3,5	;RP0=0, select bank0
  3089  04D9  1303               	bcf	3,6	;RP1=0, select bank0
  3090  04DA  00B9               	movwf	??_main+1
  3091  04DB  0839               	movf	??_main+1,w
  3092  04DC  00B5               	movwf	_min_user1
  3093  04DD                     l3224:	
  3094                           ;PROYECTO.c: 342:                         break;
  3095                           
  3096                           
  3097                           ;PROYECTO.c: 345:                 USART_Cadena(" Actualmente se cuenta con 3 medicamento
      +                          s\r");
  3098  04DD  30F0               	movlw	low (STR_38| (0+32768))
  3099  04DE  00F9               	movwf	USART_Cadena@str
  3100  04DF  3088               	movlw	high (STR_38| (0+32768))
  3101  04E0  00FA               	movwf	USART_Cadena@str+1
  3102  04E1  120A  158A  24B6  120A  118A  	fcall	_USART_Cadena
  3103                           
  3104                           ;PROYECTO.c: 346:                 USART_Cadena(" presione el número de medicamento a gu
      +                          ardar \r");
  3105  04E6  3034               	movlw	low (STR_39| (0+32768))
  3106  04E7  00F9               	movwf	USART_Cadena@str
  3107  04E8  3088               	movlw	high (STR_39| (0+32768))
  3108  04E9  00FA               	movwf	USART_Cadena@str+1
  3109  04EA  120A  158A  24B6  120A  118A  	fcall	_USART_Cadena
  3110                           
  3111                           ;PROYECTO.c: 347:                 USART_Cadena(" 1.AFC    2.FFT   3.DHL \r");
  3112  04EF  30C6               	movlw	low (STR_40| (0+32768))
  3113  04F0  00F9               	movwf	USART_Cadena@str
  3114  04F1  308A               	movlw	high (STR_40| (0+32768))
  3115  04F2  00FA               	movwf	USART_Cadena@str+1
  3116  04F3  120A  158A  24B6  120A  118A  	fcall	_USART_Cadena
  3117  04F8                     l3226:
  3118                           
  3119                           ;PROYECTO.c: 349:                     if (PIR1bits.RCIF == 1){
  3120  04F8  1283               	bcf	3,5	;RP0=0, select bank0
  3121  04F9  1303               	bcf	3,6	;RP1=0, select bank0
  3122  04FA  1E8C               	btfss	12,5	;volatile
  3123  04FB  2CFD               	goto	u3941
  3124  04FC  2CFE               	goto	u3940
  3125  04FD                     u3941:
  3126  04FD  2CF8               	goto	l3226
  3127  04FE                     u3940:
  3128  04FE                     l3228:
  3129                           
  3130                           ;PROYECTO.c: 350:                         hora_nueva = USART_Rx();
  3131  04FE  120A  118A  27FC  120A  118A  	fcall	_USART_Rx
  3132  0503  1283               	bcf	3,5	;RP0=0, select bank0
  3133  0504  1303               	bcf	3,6	;RP1=0, select bank0
  3134  0505  00B8               	movwf	??_main
  3135  0506  0838               	movf	??_main,w
  3136  0507  00F0               	movwf	_hora_nueva
  3137  0508                     l3230:
  3138                           
  3139                           ;PROYECTO.c: 351:                         if(hora_nueva == '1'){
  3140  0508  3031               	movlw	49
  3141  0509  0670               	xorwf	_hora_nueva,w
  3142  050A  1D03               	btfss	3,2
  3143  050B  2D0D               	goto	u3951
  3144  050C  2D0E               	goto	u3950
  3145  050D                     u3951:
  3146  050D  2D17               	goto	l3234
  3147  050E                     u3950:
  3148  050E                     l3232:
  3149                           
  3150                           ;PROYECTO.c: 352:                             me_1_us1_h = hora_user1;
  3151  050E  0834               	movf	_hora_user1,w
  3152  050F  00B8               	movwf	??_main
  3153  0510  0838               	movf	??_main,w
  3154  0511  00B1               	movwf	_me_1_us1_h
  3155                           
  3156                           ;PROYECTO.c: 353:                             me_1_us1_m = min_user1;
  3157  0512  0835               	movf	_min_user1,w
  3158  0513  00B8               	movwf	??_main
  3159  0514  0838               	movf	??_main,w
  3160  0515  00A8               	movwf	_me_1_us1_m
  3161                           
  3162                           ;PROYECTO.c: 354:                         }else if(hora_nueva == '2'){
  3163  0516  2BD6               	goto	l3170
  3164  0517                     l3234:
  3165  0517  3032               	movlw	50
  3166  0518  0670               	xorwf	_hora_nueva,w
  3167  0519  1D03               	btfss	3,2
  3168  051A  2D1C               	goto	u3961
  3169  051B  2D1D               	goto	u3960
  3170  051C                     u3961:
  3171  051C  2D26               	goto	l3238
  3172  051D                     u3960:
  3173  051D                     l3236:
  3174                           
  3175                           ;PROYECTO.c: 355:                             me_2_us1_h = hora_user1;
  3176  051D  0834               	movf	_hora_user1,w
  3177  051E  00B8               	movwf	??_main
  3178  051F  0838               	movf	??_main,w
  3179  0520  00B0               	movwf	_me_2_us1_h
  3180                           
  3181                           ;PROYECTO.c: 356:                             me_2_us1_m = min_user1;
  3182  0521  0835               	movf	_min_user1,w
  3183  0522  00B8               	movwf	??_main
  3184  0523  0838               	movf	??_main,w
  3185  0524  00A7               	movwf	_me_2_us1_m
  3186                           
  3187                           ;PROYECTO.c: 357:                         }else if(hora_nueva == '3'){
  3188  0525  2BD6               	goto	l3170
  3189  0526                     l3238:
  3190  0526  3033               	movlw	51
  3191  0527  0670               	xorwf	_hora_nueva,w
  3192  0528  1D03               	btfss	3,2
  3193  0529  2D2B               	goto	u3971
  3194  052A  2D2C               	goto	u3970
  3195  052B                     u3971:
  3196  052B  2BD6               	goto	l3170
  3197  052C                     u3970:
  3198  052C                     l3240:
  3199                           
  3200                           ;PROYECTO.c: 358:                             me_3_us1_h = hora_user1;
  3201  052C  0834               	movf	_hora_user1,w
  3202  052D  00B8               	movwf	??_main
  3203  052E  0838               	movf	??_main,w
  3204  052F  00AF               	movwf	_me_3_us1_h
  3205                           
  3206                           ;PROYECTO.c: 359:                             me_3_us1_m = min_user1;
  3207  0530  0835               	movf	_min_user1,w
  3208  0531  00B8               	movwf	??_main
  3209  0532  0838               	movf	??_main,w
  3210  0533  00A6               	movwf	_me_3_us1_m
  3211  0534  2BD6               	goto	l3170
  3212  0535                     l3242:
  3213                           
  3214                           ;PROYECTO.c: 368:                 USART_Cadena(" Ingresá la letra de la nueva hora  \r"
      +                          );
  3215  0535  301B               	movlw	low (STR_28| (0+32768))
  3216  0536  00F9               	movwf	USART_Cadena@str
  3217  0537  3089               	movlw	high (STR_28| (0+32768))
  3218  0538  00FA               	movwf	USART_Cadena@str+1
  3219  0539  120A  158A  24B6  120A  118A  	fcall	_USART_Cadena
  3220                           
  3221                           ;PROYECTO.c: 369:                 USART_Cadena(" a.0  b.1   c.2   d.3   e.4   f.5   g.6 
      +                            h.7  i.8\r");
  3222  053E  3000               	movlw	low (STR_29| (0+32768))
  3223  053F  00F9               	movwf	USART_Cadena@str
  3224  0540  3088               	movlw	high (STR_29| (0+32768))
  3225  0541  00FA               	movwf	USART_Cadena@str+1
  3226  0542  120A  158A  24B6  120A  118A  	fcall	_USART_Cadena
  3227                           
  3228                           ;PROYECTO.c: 370:                 USART_Cadena(" j.9  k.10  l.11  m.12  n.13  o.14  p.15
      +                            q.16\r");
  3229  0547  3094               	movlw	low (STR_30| (0+32768))
  3230  0548  00F9               	movwf	USART_Cadena@str
  3231  0549  3088               	movlw	high (STR_30| (0+32768))
  3232  054A  00FA               	movwf	USART_Cadena@str+1
  3233  054B  120A  158A  24B6  120A  118A  	fcall	_USART_Cadena
  3234                           
  3235                           ;PROYECTO.c: 371:                 USART_Cadena("r.17  s.18  t.19  u.20  v.21  w.22  x.23
      +                            y.24\r");
  3236  0550  3064               	movlw	low (STR_31| (0+32768))
  3237  0551  00F9               	movwf	USART_Cadena@str
  3238  0552  3088               	movlw	high (STR_31| (0+32768))
  3239  0553  00FA               	movwf	USART_Cadena@str+1
  3240  0554  120A  158A  24B6  120A  118A  	fcall	_USART_Cadena
  3241  0559                     l3244:
  3242                           
  3243                           ;PROYECTO.c: 373:                     if (PIR1bits.RCIF == 1){
  3244  0559  1283               	bcf	3,5	;RP0=0, select bank0
  3245  055A  1303               	bcf	3,6	;RP1=0, select bank0
  3246  055B  1E8C               	btfss	12,5	;volatile
  3247  055C  2D5E               	goto	u3981
  3248  055D  2D5F               	goto	u3980
  3249  055E                     u3981:
  3250  055E  2D59               	goto	l3244
  3251  055F                     u3980:
  3252  055F                     l3246:
  3253                           
  3254                           ;PROYECTO.c: 374:                         USART_Cadena(" \r");
  3255  055F  3088               	movlw	low ((STR_35+33)| (0+32768))
  3256  0560  00F9               	movwf	USART_Cadena@str
  3257  0561  3089               	movlw	high ((STR_35+33)| (0+32768))
  3258  0562  00FA               	movwf	USART_Cadena@str+1
  3259  0563  120A  158A  24B6  120A  118A  	fcall	_USART_Cadena
  3260  0568                     l3248:
  3261                           
  3262                           ;PROYECTO.c: 375:                         hora_nueva = USART_Rx();
  3263  0568  120A  118A  27FC  120A  118A  	fcall	_USART_Rx
  3264  056D  1283               	bcf	3,5	;RP0=0, select bank0
  3265  056E  1303               	bcf	3,6	;RP1=0, select bank0
  3266  056F  00B8               	movwf	??_main
  3267  0570  0838               	movf	??_main,w
  3268  0571  00F0               	movwf	_hora_nueva
  3269  0572                     l3250:
  3270                           
  3271                           ;PROYECTO.c: 376:                         USART_Cadena(" \r");
  3272  0572  3088               	movlw	low ((STR_35+33)| (0+32768))
  3273  0573  00F9               	movwf	USART_Cadena@str
  3274  0574  3089               	movlw	high ((STR_35+33)| (0+32768))
  3275  0575  00FA               	movwf	USART_Cadena@str+1
  3276  0576  120A  158A  24B6  120A  118A  	fcall	_USART_Cadena
  3277  057B                     l3252:
  3278                           
  3279                           ;PROYECTO.c: 377:                         hora_user2 = CharToNumH(hora_nueva, hora_user2
      +                          );
  3280  057B  1283               	bcf	3,5	;RP0=0, select bank0
  3281  057C  1303               	bcf	3,6	;RP1=0, select bank0
  3282  057D  0833               	movf	_hora_user2,w
  3283  057E  00B8               	movwf	??_main
  3284  057F  0838               	movf	??_main,w
  3285  0580  00F8               	movwf	CharToNumH@hora_user
  3286  0581  0870               	movf	_hora_nueva,w
  3287  0582  120A  158A  256A  120A  118A  	fcall	_CharToNumH
  3288  0587  1283               	bcf	3,5	;RP0=0, select bank0
  3289  0588  1303               	bcf	3,6	;RP1=0, select bank0
  3290  0589  00B9               	movwf	??_main+1
  3291  058A  0839               	movf	??_main+1,w
  3292  058B  00B3               	movwf	_hora_user2
  3293  058C                     l3254:	
  3294                           ;PROYECTO.c: 378:                         break;
  3295                           
  3296                           
  3297                           ;PROYECTO.c: 381:                 USART_Cadena(" Ingresá la letra de los minutos nuevos
      +                            \r");
  3298  058C  30C4               	movlw	low (STR_34| (0+32768))
  3299  058D  00F9               	movwf	USART_Cadena@str
  3300  058E  3088               	movlw	high (STR_34| (0+32768))
  3301  058F  00FA               	movwf	USART_Cadena@str+1
  3302  0590  120A  158A  24B6  120A  118A  	fcall	_USART_Cadena
  3303                           
  3304                           ;PROYECTO.c: 382:                 USART_Cadena(" a.0  b.15   c.30   d.45   e.55   \r");
  3305  0595  3067               	movlw	low (STR_35| (0+32768))
  3306  0596  00F9               	movwf	USART_Cadena@str
  3307  0597  3089               	movlw	high (STR_35| (0+32768))
  3308  0598  00FA               	movwf	USART_Cadena@str+1
  3309  0599  120A  158A  24B6  120A  118A  	fcall	_USART_Cadena
  3310  059E                     l3256:
  3311                           
  3312                           ;PROYECTO.c: 384:                     if (PIR1bits.RCIF == 1){
  3313  059E  1283               	bcf	3,5	;RP0=0, select bank0
  3314  059F  1303               	bcf	3,6	;RP1=0, select bank0
  3315  05A0  1E8C               	btfss	12,5	;volatile
  3316  05A1  2DA3               	goto	u3991
  3317  05A2  2DA4               	goto	u3990
  3318  05A3                     u3991:
  3319  05A3  2D9E               	goto	l3256
  3320  05A4                     u3990:
  3321  05A4                     l3258:
  3322                           
  3323                           ;PROYECTO.c: 385:                         USART_Cadena(" \r");
  3324  05A4  3088               	movlw	low ((STR_35+33)| (0+32768))
  3325  05A5  00F9               	movwf	USART_Cadena@str
  3326  05A6  3089               	movlw	high ((STR_35+33)| (0+32768))
  3327  05A7  00FA               	movwf	USART_Cadena@str+1
  3328  05A8  120A  158A  24B6  120A  118A  	fcall	_USART_Cadena
  3329  05AD                     l3260:
  3330                           
  3331                           ;PROYECTO.c: 386:                         hora_nueva = USART_Rx();
  3332  05AD  120A  118A  27FC  120A  118A  	fcall	_USART_Rx
  3333  05B2  1283               	bcf	3,5	;RP0=0, select bank0
  3334  05B3  1303               	bcf	3,6	;RP1=0, select bank0
  3335  05B4  00B8               	movwf	??_main
  3336  05B5  0838               	movf	??_main,w
  3337  05B6  00F0               	movwf	_hora_nueva
  3338  05B7                     l3262:
  3339                           
  3340                           ;PROYECTO.c: 387:                         USART_Cadena(" \r");
  3341  05B7  3088               	movlw	low ((STR_35+33)| (0+32768))
  3342  05B8  00F9               	movwf	USART_Cadena@str
  3343  05B9  3089               	movlw	high ((STR_35+33)| (0+32768))
  3344  05BA  00FA               	movwf	USART_Cadena@str+1
  3345  05BB  120A  158A  24B6  120A  118A  	fcall	_USART_Cadena
  3346  05C0                     l3264:
  3347                           
  3348                           ;PROYECTO.c: 388:                         min_user2 = CharToNumM(hora_nueva, min_user2);
  3349  05C0  0872               	movf	_min_user2,w
  3350  05C1  1283               	bcf	3,5	;RP0=0, select bank0
  3351  05C2  1303               	bcf	3,6	;RP1=0, select bank0
  3352  05C3  00B8               	movwf	??_main
  3353  05C4  0838               	movf	??_main,w
  3354  05C5  00F8               	movwf	CharToNumM@her
  3355  05C6  0870               	movf	_hora_nueva,w
  3356  05C7  120A  158A  24DC  120A  118A  	fcall	_CharToNumM
  3357  05CC  1283               	bcf	3,5	;RP0=0, select bank0
  3358  05CD  1303               	bcf	3,6	;RP1=0, select bank0
  3359  05CE  00B9               	movwf	??_main+1
  3360  05CF  0839               	movf	??_main+1,w
  3361  05D0  00F2               	movwf	_min_user2
  3362  05D1                     l3266:	
  3363                           ;PROYECTO.c: 389:                         break;
  3364                           
  3365                           
  3366                           ;PROYECTO.c: 392:                 USART_Cadena(" Actualmente se cuenta con 3 medicamento
      +                          s\r");
  3367  05D1  30F0               	movlw	low (STR_38| (0+32768))
  3368  05D2  00F9               	movwf	USART_Cadena@str
  3369  05D3  3088               	movlw	high (STR_38| (0+32768))
  3370  05D4  00FA               	movwf	USART_Cadena@str+1
  3371  05D5  120A  158A  24B6  120A  118A  	fcall	_USART_Cadena
  3372                           
  3373                           ;PROYECTO.c: 393:                 USART_Cadena(" presione el número de medicamento a gu
      +                          ardar \r");
  3374  05DA  3034               	movlw	low (STR_39| (0+32768))
  3375  05DB  00F9               	movwf	USART_Cadena@str
  3376  05DC  3088               	movlw	high (STR_39| (0+32768))
  3377  05DD  00FA               	movwf	USART_Cadena@str+1
  3378  05DE  120A  158A  24B6  120A  118A  	fcall	_USART_Cadena
  3379                           
  3380                           ;PROYECTO.c: 394:                 USART_Cadena(" 1.AFC    2.FFT   3.DHL \r");
  3381  05E3  30C6               	movlw	low (STR_40| (0+32768))
  3382  05E4  00F9               	movwf	USART_Cadena@str
  3383  05E5  308A               	movlw	high (STR_40| (0+32768))
  3384  05E6  00FA               	movwf	USART_Cadena@str+1
  3385  05E7  120A  158A  24B6  120A  118A  	fcall	_USART_Cadena
  3386  05EC                     l3268:
  3387                           
  3388                           ;PROYECTO.c: 396:                     if (PIR1bits.RCIF == 1){
  3389  05EC  1283               	bcf	3,5	;RP0=0, select bank0
  3390  05ED  1303               	bcf	3,6	;RP1=0, select bank0
  3391  05EE  1E8C               	btfss	12,5	;volatile
  3392  05EF  2DF1               	goto	u4001
  3393  05F0  2DF2               	goto	u4000
  3394  05F1                     u4001:
  3395  05F1  2DEC               	goto	l3268
  3396  05F2                     u4000:
  3397  05F2                     l3270:
  3398                           
  3399                           ;PROYECTO.c: 397:                         hora_nueva = USART_Rx();
  3400  05F2  120A  118A  27FC  120A  118A  	fcall	_USART_Rx
  3401  05F7  1283               	bcf	3,5	;RP0=0, select bank0
  3402  05F8  1303               	bcf	3,6	;RP1=0, select bank0
  3403  05F9  00B8               	movwf	??_main
  3404  05FA  0838               	movf	??_main,w
  3405  05FB  00F0               	movwf	_hora_nueva
  3406  05FC                     l3272:
  3407                           
  3408                           ;PROYECTO.c: 398:                         if(hora_nueva == '1'){
  3409  05FC  3031               	movlw	49
  3410  05FD  0670               	xorwf	_hora_nueva,w
  3411  05FE  1D03               	btfss	3,2
  3412  05FF  2E01               	goto	u4011
  3413  0600  2E02               	goto	u4010
  3414  0601                     u4011:
  3415  0601  2E0B               	goto	l3276
  3416  0602                     u4010:
  3417  0602                     l3274:
  3418                           
  3419                           ;PROYECTO.c: 399:                             me_1_us2_h = hora_user2;
  3420  0602  0833               	movf	_hora_user2,w
  3421  0603  00B8               	movwf	??_main
  3422  0604  0838               	movf	??_main,w
  3423  0605  00AE               	movwf	_me_1_us2_h
  3424                           
  3425                           ;PROYECTO.c: 400:                             me_1_us2_m = min_user2;
  3426  0606  0872               	movf	_min_user2,w
  3427  0607  00B8               	movwf	??_main
  3428  0608  0838               	movf	??_main,w
  3429  0609  00A5               	movwf	_me_1_us2_m
  3430                           
  3431                           ;PROYECTO.c: 401:                         }else if(hora_nueva == '2'){
  3432  060A  2BD6               	goto	l3170
  3433  060B                     l3276:
  3434  060B  3032               	movlw	50
  3435  060C  0670               	xorwf	_hora_nueva,w
  3436  060D  1D03               	btfss	3,2
  3437  060E  2E10               	goto	u4021
  3438  060F  2E11               	goto	u4020
  3439  0610                     u4021:
  3440  0610  2E1A               	goto	l3280
  3441  0611                     u4020:
  3442  0611                     l3278:
  3443                           
  3444                           ;PROYECTO.c: 402:                             me_2_us2_h = hora_user2;
  3445  0611  0833               	movf	_hora_user2,w
  3446  0612  00B8               	movwf	??_main
  3447  0613  0838               	movf	??_main,w
  3448  0614  00AD               	movwf	_me_2_us2_h
  3449                           
  3450                           ;PROYECTO.c: 403:                             me_2_us2_m = min_user2;
  3451  0615  0872               	movf	_min_user2,w
  3452  0616  00B8               	movwf	??_main
  3453  0617  0838               	movf	??_main,w
  3454  0618  00A4               	movwf	_me_2_us2_m
  3455                           
  3456                           ;PROYECTO.c: 404:                         }else if(hora_nueva == '3'){
  3457  0619  2BD6               	goto	l3170
  3458  061A                     l3280:
  3459  061A  3033               	movlw	51
  3460  061B  0670               	xorwf	_hora_nueva,w
  3461  061C  1D03               	btfss	3,2
  3462  061D  2E1F               	goto	u4031
  3463  061E  2E20               	goto	u4030
  3464  061F                     u4031:
  3465  061F  2BD6               	goto	l3170
  3466  0620                     u4030:
  3467  0620                     l3282:
  3468                           
  3469                           ;PROYECTO.c: 405:                             me_3_us2_h = hora_user2;
  3470  0620  0833               	movf	_hora_user2,w
  3471  0621  00B8               	movwf	??_main
  3472  0622  0838               	movf	??_main,w
  3473  0623  00AC               	movwf	_me_3_us2_h
  3474                           
  3475                           ;PROYECTO.c: 406:                             me_3_us2_m = min_user2;
  3476  0624  0872               	movf	_min_user2,w
  3477  0625  00B8               	movwf	??_main
  3478  0626  0838               	movf	??_main,w
  3479  0627  00A3               	movwf	_me_3_us2_m
  3480  0628  2BD6               	goto	l3170
  3481  0629                     l3284:
  3482                           
  3483                           ;PROYECTO.c: 414:                 USART_Cadena(" Ingresá la letra de la nueva hora  \r"
      +                          );
  3484  0629  301B               	movlw	low (STR_28| (0+32768))
  3485  062A  00F9               	movwf	USART_Cadena@str
  3486  062B  3089               	movlw	high (STR_28| (0+32768))
  3487  062C  00FA               	movwf	USART_Cadena@str+1
  3488  062D  120A  158A  24B6  120A  118A  	fcall	_USART_Cadena
  3489                           
  3490                           ;PROYECTO.c: 415:                 USART_Cadena(" a.0  b.1   c.2   d.3   e.4   f.5   g.6 
      +                            h.7  i.8\r");
  3491  0632  3000               	movlw	low (STR_29| (0+32768))
  3492  0633  00F9               	movwf	USART_Cadena@str
  3493  0634  3088               	movlw	high (STR_29| (0+32768))
  3494  0635  00FA               	movwf	USART_Cadena@str+1
  3495  0636  120A  158A  24B6  120A  118A  	fcall	_USART_Cadena
  3496                           
  3497                           ;PROYECTO.c: 416:                 USART_Cadena(" j.9  k.10  l.11  m.12  n.13  o.14  p.15
      +                            q.16\r");
  3498  063B  3094               	movlw	low (STR_30| (0+32768))
  3499  063C  00F9               	movwf	USART_Cadena@str
  3500  063D  3088               	movlw	high (STR_30| (0+32768))
  3501  063E  00FA               	movwf	USART_Cadena@str+1
  3502  063F  120A  158A  24B6  120A  118A  	fcall	_USART_Cadena
  3503                           
  3504                           ;PROYECTO.c: 417:                 USART_Cadena("r.17  s.18  t.19  u.20  v.21  w.22  x.23
      +                            y.24\r");
  3505  0644  3064               	movlw	low (STR_31| (0+32768))
  3506  0645  00F9               	movwf	USART_Cadena@str
  3507  0646  3088               	movlw	high (STR_31| (0+32768))
  3508  0647  00FA               	movwf	USART_Cadena@str+1
  3509  0648  120A  158A  24B6  120A  118A  	fcall	_USART_Cadena
  3510  064D                     l3286:
  3511                           
  3512                           ;PROYECTO.c: 419:                     if (PIR1bits.RCIF == 1){
  3513  064D  1283               	bcf	3,5	;RP0=0, select bank0
  3514  064E  1303               	bcf	3,6	;RP1=0, select bank0
  3515  064F  1E8C               	btfss	12,5	;volatile
  3516  0650  2E52               	goto	u4041
  3517  0651  2E53               	goto	u4040
  3518  0652                     u4041:
  3519  0652  2E4D               	goto	l3286
  3520  0653                     u4040:
  3521  0653                     l3288:
  3522                           
  3523                           ;PROYECTO.c: 420:                         USART_Cadena(" \r");
  3524  0653  3088               	movlw	low ((STR_35+33)| (0+32768))
  3525  0654  00F9               	movwf	USART_Cadena@str
  3526  0655  3089               	movlw	high ((STR_35+33)| (0+32768))
  3527  0656  00FA               	movwf	USART_Cadena@str+1
  3528  0657  120A  158A  24B6  120A  118A  	fcall	_USART_Cadena
  3529  065C                     l3290:
  3530                           
  3531                           ;PROYECTO.c: 421:                         hora_nueva = USART_Rx();
  3532  065C  120A  118A  27FC  120A  118A  	fcall	_USART_Rx
  3533  0661  1283               	bcf	3,5	;RP0=0, select bank0
  3534  0662  1303               	bcf	3,6	;RP1=0, select bank0
  3535  0663  00B8               	movwf	??_main
  3536  0664  0838               	movf	??_main,w
  3537  0665  00F0               	movwf	_hora_nueva
  3538  0666                     l3292:
  3539                           
  3540                           ;PROYECTO.c: 422:                         USART_Cadena(" \r");
  3541  0666  3088               	movlw	low ((STR_35+33)| (0+32768))
  3542  0667  00F9               	movwf	USART_Cadena@str
  3543  0668  3089               	movlw	high ((STR_35+33)| (0+32768))
  3544  0669  00FA               	movwf	USART_Cadena@str+1
  3545  066A  120A  158A  24B6  120A  118A  	fcall	_USART_Cadena
  3546  066F                     l3294:
  3547                           
  3548                           ;PROYECTO.c: 423:                         hora_user3 = CharToNumH(hora_nueva, hora_user3
      +                          );
  3549  066F  1283               	bcf	3,5	;RP0=0, select bank0
  3550  0670  1303               	bcf	3,6	;RP1=0, select bank0
  3551  0671  0832               	movf	_hora_user3,w
  3552  0672  00B8               	movwf	??_main
  3553  0673  0838               	movf	??_main,w
  3554  0674  00F8               	movwf	CharToNumH@hora_user
  3555  0675  0870               	movf	_hora_nueva,w
  3556  0676  120A  158A  256A  120A  118A  	fcall	_CharToNumH
  3557  067B  1283               	bcf	3,5	;RP0=0, select bank0
  3558  067C  1303               	bcf	3,6	;RP1=0, select bank0
  3559  067D  00B9               	movwf	??_main+1
  3560  067E  0839               	movf	??_main+1,w
  3561  067F  00B2               	movwf	_hora_user3
  3562  0680                     l3296:	
  3563                           ;PROYECTO.c: 424:                         break;
  3564                           
  3565                           
  3566                           ;PROYECTO.c: 427:                 USART_Cadena(" Ingresá la letra de los minutos nuevos
      +                            \r");
  3567  0680  30C4               	movlw	low (STR_34| (0+32768))
  3568  0681  00F9               	movwf	USART_Cadena@str
  3569  0682  3088               	movlw	high (STR_34| (0+32768))
  3570  0683  00FA               	movwf	USART_Cadena@str+1
  3571  0684  120A  158A  24B6  120A  118A  	fcall	_USART_Cadena
  3572                           
  3573                           ;PROYECTO.c: 428:                 USART_Cadena(" a.0  b.15   c.30   d.45   e.55   \r");
  3574  0689  3067               	movlw	low (STR_35| (0+32768))
  3575  068A  00F9               	movwf	USART_Cadena@str
  3576  068B  3089               	movlw	high (STR_35| (0+32768))
  3577  068C  00FA               	movwf	USART_Cadena@str+1
  3578  068D  120A  158A  24B6  120A  118A  	fcall	_USART_Cadena
  3579  0692                     l3298:
  3580                           
  3581                           ;PROYECTO.c: 430:                     if (PIR1bits.RCIF == 1){
  3582  0692  1283               	bcf	3,5	;RP0=0, select bank0
  3583  0693  1303               	bcf	3,6	;RP1=0, select bank0
  3584  0694  1E8C               	btfss	12,5	;volatile
  3585  0695  2E97               	goto	u4051
  3586  0696  2E98               	goto	u4050
  3587  0697                     u4051:
  3588  0697  2E92               	goto	l3298
  3589  0698                     u4050:
  3590  0698                     l3300:
  3591                           
  3592                           ;PROYECTO.c: 431:                         USART_Cadena(" \r");
  3593  0698  3088               	movlw	low ((STR_35+33)| (0+32768))
  3594  0699  00F9               	movwf	USART_Cadena@str
  3595  069A  3089               	movlw	high ((STR_35+33)| (0+32768))
  3596  069B  00FA               	movwf	USART_Cadena@str+1
  3597  069C  120A  158A  24B6  120A  118A  	fcall	_USART_Cadena
  3598  06A1                     l3302:
  3599                           
  3600                           ;PROYECTO.c: 432:                         hora_nueva = USART_Rx();
  3601  06A1  120A  118A  27FC  120A  118A  	fcall	_USART_Rx
  3602  06A6  1283               	bcf	3,5	;RP0=0, select bank0
  3603  06A7  1303               	bcf	3,6	;RP1=0, select bank0
  3604  06A8  00B8               	movwf	??_main
  3605  06A9  0838               	movf	??_main,w
  3606  06AA  00F0               	movwf	_hora_nueva
  3607  06AB                     l3304:
  3608                           
  3609                           ;PROYECTO.c: 433:                         USART_Cadena(" \r");
  3610  06AB  3088               	movlw	low ((STR_35+33)| (0+32768))
  3611  06AC  00F9               	movwf	USART_Cadena@str
  3612  06AD  3089               	movlw	high ((STR_35+33)| (0+32768))
  3613  06AE  00FA               	movwf	USART_Cadena@str+1
  3614  06AF  120A  158A  24B6  120A  118A  	fcall	_USART_Cadena
  3615  06B4                     l3306:
  3616                           
  3617                           ;PROYECTO.c: 434:                         min_user3 = CharToNumM(hora_nueva, min_user3);
  3618  06B4  0871               	movf	_min_user3,w
  3619  06B5  1283               	bcf	3,5	;RP0=0, select bank0
  3620  06B6  1303               	bcf	3,6	;RP1=0, select bank0
  3621  06B7  00B8               	movwf	??_main
  3622  06B8  0838               	movf	??_main,w
  3623  06B9  00F8               	movwf	CharToNumM@her
  3624  06BA  0870               	movf	_hora_nueva,w
  3625  06BB  120A  158A  24DC  120A  118A  	fcall	_CharToNumM
  3626  06C0  1283               	bcf	3,5	;RP0=0, select bank0
  3627  06C1  1303               	bcf	3,6	;RP1=0, select bank0
  3628  06C2  00B9               	movwf	??_main+1
  3629  06C3  0839               	movf	??_main+1,w
  3630  06C4  00F1               	movwf	_min_user3
  3631  06C5                     l3308:	
  3632                           ;PROYECTO.c: 435:                         break;
  3633                           
  3634                           
  3635                           ;PROYECTO.c: 438:                 USART_Cadena(" Actualmente se cuenta con 3 medicamento
      +                          s\r");
  3636  06C5  30F0               	movlw	low (STR_38| (0+32768))
  3637  06C6  00F9               	movwf	USART_Cadena@str
  3638  06C7  3088               	movlw	high (STR_38| (0+32768))
  3639  06C8  00FA               	movwf	USART_Cadena@str+1
  3640  06C9  120A  158A  24B6  120A  118A  	fcall	_USART_Cadena
  3641                           
  3642                           ;PROYECTO.c: 439:                 USART_Cadena(" presione el número de medicamento a gu
      +                          ardar \r");
  3643  06CE  3034               	movlw	low (STR_39| (0+32768))
  3644  06CF  00F9               	movwf	USART_Cadena@str
  3645  06D0  3088               	movlw	high (STR_39| (0+32768))
  3646  06D1  00FA               	movwf	USART_Cadena@str+1
  3647  06D2  120A  158A  24B6  120A  118A  	fcall	_USART_Cadena
  3648                           
  3649                           ;PROYECTO.c: 440:                 USART_Cadena(" 1.AFC    2.FFT   3.DHL \r");
  3650  06D7  30C6               	movlw	low (STR_40| (0+32768))
  3651  06D8  00F9               	movwf	USART_Cadena@str
  3652  06D9  308A               	movlw	high (STR_40| (0+32768))
  3653  06DA  00FA               	movwf	USART_Cadena@str+1
  3654  06DB  120A  158A  24B6  120A  118A  	fcall	_USART_Cadena
  3655  06E0                     l3310:
  3656                           
  3657                           ;PROYECTO.c: 442:                     if (PIR1bits.RCIF == 1){
  3658  06E0  1283               	bcf	3,5	;RP0=0, select bank0
  3659  06E1  1303               	bcf	3,6	;RP1=0, select bank0
  3660  06E2  1E8C               	btfss	12,5	;volatile
  3661  06E3  2EE5               	goto	u4061
  3662  06E4  2EE6               	goto	u4060
  3663  06E5                     u4061:
  3664  06E5  2EE0               	goto	l3310
  3665  06E6                     u4060:
  3666  06E6                     l3312:
  3667                           
  3668                           ;PROYECTO.c: 443:                         hora_nueva = USART_Rx();
  3669  06E6  120A  118A  27FC  120A  118A  	fcall	_USART_Rx
  3670  06EB  1283               	bcf	3,5	;RP0=0, select bank0
  3671  06EC  1303               	bcf	3,6	;RP1=0, select bank0
  3672  06ED  00B8               	movwf	??_main
  3673  06EE  0838               	movf	??_main,w
  3674  06EF  00F0               	movwf	_hora_nueva
  3675  06F0                     l3314:
  3676                           
  3677                           ;PROYECTO.c: 444:                         if(hora_nueva == '1'){
  3678  06F0  3031               	movlw	49
  3679  06F1  0670               	xorwf	_hora_nueva,w
  3680  06F2  1D03               	btfss	3,2
  3681  06F3  2EF5               	goto	u4071
  3682  06F4  2EF6               	goto	u4070
  3683  06F5                     u4071:
  3684  06F5  2EFF               	goto	l3318
  3685  06F6                     u4070:
  3686  06F6                     l3316:
  3687                           
  3688                           ;PROYECTO.c: 445:                             me_1_us3_h = hora_user3;
  3689  06F6  0832               	movf	_hora_user3,w
  3690  06F7  00B8               	movwf	??_main
  3691  06F8  0838               	movf	??_main,w
  3692  06F9  00AB               	movwf	_me_1_us3_h
  3693                           
  3694                           ;PROYECTO.c: 446:                             me_1_us3_m = min_user3;
  3695  06FA  0871               	movf	_min_user3,w
  3696  06FB  00B8               	movwf	??_main
  3697  06FC  0838               	movf	??_main,w
  3698  06FD  00A2               	movwf	_me_1_us3_m
  3699                           
  3700                           ;PROYECTO.c: 447:                         }else if(hora_nueva == '2'){
  3701  06FE  2BD6               	goto	l3170
  3702  06FF                     l3318:
  3703  06FF  3032               	movlw	50
  3704  0700  0670               	xorwf	_hora_nueva,w
  3705  0701  1D03               	btfss	3,2
  3706  0702  2F04               	goto	u4081
  3707  0703  2F05               	goto	u4080
  3708  0704                     u4081:
  3709  0704  2F0E               	goto	l3322
  3710  0705                     u4080:
  3711  0705                     l3320:
  3712                           
  3713                           ;PROYECTO.c: 448:                             me_2_us3_h = hora_user3;
  3714  0705  0832               	movf	_hora_user3,w
  3715  0706  00B8               	movwf	??_main
  3716  0707  0838               	movf	??_main,w
  3717  0708  00AA               	movwf	_me_2_us3_h
  3718                           
  3719                           ;PROYECTO.c: 449:                             me_2_us3_m = min_user3;
  3720  0709  0871               	movf	_min_user3,w
  3721  070A  00B8               	movwf	??_main
  3722  070B  0838               	movf	??_main,w
  3723  070C  00A1               	movwf	_me_2_us3_m
  3724                           
  3725                           ;PROYECTO.c: 450:                         }else if(hora_nueva == '3'){
  3726  070D  2BD6               	goto	l3170
  3727  070E                     l3322:
  3728  070E  3033               	movlw	51
  3729  070F  0670               	xorwf	_hora_nueva,w
  3730  0710  1D03               	btfss	3,2
  3731  0711  2F13               	goto	u4091
  3732  0712  2F14               	goto	u4090
  3733  0713                     u4091:
  3734  0713  2BD6               	goto	l3170
  3735  0714                     u4090:
  3736  0714                     l3324:
  3737                           
  3738                           ;PROYECTO.c: 451:                             me_3_us3_h = hora_user3;
  3739  0714  0832               	movf	_hora_user3,w
  3740  0715  00B8               	movwf	??_main
  3741  0716  0838               	movf	??_main,w
  3742  0717  00A9               	movwf	_me_3_us3_h
  3743                           
  3744                           ;PROYECTO.c: 452:                             me_3_us3_m = min_user3;
  3745  0718  0871               	movf	_min_user3,w
  3746  0719  00B8               	movwf	??_main
  3747  071A  0838               	movf	??_main,w
  3748  071B  00A0               	movwf	_me_3_us3_m
  3749  071C  2BD6               	goto	l3170
  3750  071D                     l3328:
  3751  071D  0837               	movf	_valor,w
  3752  071E  00B8               	movwf	??_main
  3753  071F  01B9               	clrf	??_main+1
  3754                           
  3755                           ; Switch on 2 bytes has been partitioned into a top level switch of size 1, and 1 sub-sw
      +                          itches
  3756                           ; Switch size 1, requested type "simple"
  3757                           ; Number of cases is 1, Range of values is 0 to 0
  3758                           ; switch strategies available:
  3759                           ; Name         Instructions Cycles
  3760                           ; simple_byte            4     3 (average)
  3761                           ; direct_byte           11     8 (fixed)
  3762                           ; jumptable            260     6 (fixed)
  3763                           ;	Chosen strategy is simple_byte
  3764  0720  0839               	movf	??_main+1,w
  3765  0721  3A00               	xorlw	0	; case 0
  3766  0722  1903               	skipnz
  3767  0723  2F25               	goto	l3468
  3768  0724  2F39               	goto	l3330
  3769  0725                     l3468:
  3770                           
  3771                           ; Switch size 1, requested type "simple"
  3772                           ; Number of cases is 6, Range of values is 49 to 54
  3773                           ; switch strategies available:
  3774                           ; Name         Instructions Cycles
  3775                           ; simple_byte           19    10 (average)
  3776                           ; direct_byte           29    11 (fixed)
  3777                           ; jumptable            263     9 (fixed)
  3778                           ;	Chosen strategy is simple_byte
  3779  0725  0838               	movf	??_main,w
  3780  0726  3A31               	xorlw	49	; case 49
  3781  0727  1903               	skipnz
  3782  0728  2B3A               	goto	l3144
  3783  0729  3A03               	xorlw	3	; case 50
  3784  072A  1903               	skipnz
  3785  072B  2BDB               	goto	l3172
  3786  072C  3A01               	xorlw	1	; case 51
  3787  072D  1903               	skipnz
  3788  072E  2C0E               	goto	l3186
  3789  072F  3A07               	xorlw	7	; case 52
  3790  0730  1903               	skipnz
  3791  0731  2C41               	goto	l3200
  3792  0732  3A01               	xorlw	1	; case 53
  3793  0733  1903               	skipnz
  3794  0734  2D35               	goto	l3242
  3795  0735  3A03               	xorlw	3	; case 54
  3796  0736  1903               	skipnz
  3797  0737  2E29               	goto	l3284
  3798  0738  2F39               	goto	l3330
  3799  0739                     l3330:
  3800                           
  3801                           ;PROYECTO.c: 461:        valor = '0';
  3802  0739  3030               	movlw	48
  3803  073A  00B8               	movwf	??_main
  3804  073B  0838               	movf	??_main,w
  3805  073C  00B7               	movwf	_valor
  3806  073D                     l3332:
  3807                           
  3808                           ;PROYECTO.c: 465:        if (RB7==0 && RB3==1 && RB4==0){
  3809  073D  1B86               	btfsc	6,7	;volatile
  3810  073E  2F40               	goto	u4101
  3811  073F  2F41               	goto	u4100
  3812  0740                     u4101:
  3813  0740  2F52               	goto	l293
  3814  0741                     u4100:
  3815  0741                     l3334:
  3816  0741  1D86               	btfss	6,3	;volatile
  3817  0742  2F44               	goto	u4111
  3818  0743  2F45               	goto	u4110
  3819  0744                     u4111:
  3820  0744  2F52               	goto	l293
  3821  0745                     u4110:
  3822  0745                     l3336:
  3823  0745  1A06               	btfsc	6,4	;volatile
  3824  0746  2F48               	goto	u4121
  3825  0747  2F49               	goto	u4120
  3826  0748                     u4121:
  3827  0748  2F52               	goto	l293
  3828  0749                     u4120:
  3829  0749                     l3338:
  3830                           
  3831                           ;PROYECTO.c: 466:            me_3_us3_m = minuto;
  3832  0749  0874               	movf	_minuto,w
  3833  074A  00B8               	movwf	??_main
  3834  074B  0838               	movf	??_main,w
  3835  074C  00A0               	movwf	_me_3_us3_m
  3836                           
  3837                           ;PROYECTO.c: 467:            me_3_us3_h = hora;
  3838  074D  0875               	movf	_hora,w
  3839  074E  00B8               	movwf	??_main
  3840  074F  0838               	movf	??_main,w
  3841  0750  00A9               	movwf	_me_3_us3_h
  3842                           
  3843                           ;PROYECTO.c: 468:        }else if (RB7==0 && RB3==0 && RB4==1){
  3844  0751  2F7B               	goto	l3352
  3845  0752                     l293:
  3846  0752  1B86               	btfsc	6,7	;volatile
  3847  0753  2F55               	goto	u4131
  3848  0754  2F56               	goto	u4130
  3849  0755                     u4131:
  3850  0755  2F67               	goto	l295
  3851  0756                     u4130:
  3852  0756                     l3340:
  3853  0756  1986               	btfsc	6,3	;volatile
  3854  0757  2F59               	goto	u4141
  3855  0758  2F5A               	goto	u4140
  3856  0759                     u4141:
  3857  0759  2F67               	goto	l295
  3858  075A                     u4140:
  3859  075A                     l3342:
  3860  075A  1E06               	btfss	6,4	;volatile
  3861  075B  2F5D               	goto	u4151
  3862  075C  2F5E               	goto	u4150
  3863  075D                     u4151:
  3864  075D  2F67               	goto	l295
  3865  075E                     u4150:
  3866  075E                     l3344:
  3867                           
  3868                           ;PROYECTO.c: 469:            me_2_us3_m = minuto;
  3869  075E  0874               	movf	_minuto,w
  3870  075F  00B8               	movwf	??_main
  3871  0760  0838               	movf	??_main,w
  3872  0761  00A1               	movwf	_me_2_us3_m
  3873                           
  3874                           ;PROYECTO.c: 470:            me_2_us3_h = hora;
  3875  0762  0875               	movf	_hora,w
  3876  0763  00B8               	movwf	??_main
  3877  0764  0838               	movf	??_main,w
  3878  0765  00AA               	movwf	_me_2_us3_h
  3879                           
  3880                           ;PROYECTO.c: 471:        }else if (RB7==0 && RB3==0 && RB4==0){
  3881  0766  2F7B               	goto	l3352
  3882  0767                     l295:
  3883  0767  1B86               	btfsc	6,7	;volatile
  3884  0768  2F6A               	goto	u4161
  3885  0769  2F6B               	goto	u4160
  3886  076A                     u4161:
  3887  076A  2F7B               	goto	l3352
  3888  076B                     u4160:
  3889  076B                     l3346:
  3890  076B  1986               	btfsc	6,3	;volatile
  3891  076C  2F6E               	goto	u4171
  3892  076D  2F6F               	goto	u4170
  3893  076E                     u4171:
  3894  076E  2F7B               	goto	l3352
  3895  076F                     u4170:
  3896  076F                     l3348:
  3897  076F  1A06               	btfsc	6,4	;volatile
  3898  0770  2F72               	goto	u4181
  3899  0771  2F73               	goto	u4180
  3900  0772                     u4181:
  3901  0772  2F7B               	goto	l3352
  3902  0773                     u4180:
  3903  0773                     l3350:
  3904                           
  3905                           ;PROYECTO.c: 472:            me_1_us3_m = minuto;
  3906  0773  0874               	movf	_minuto,w
  3907  0774  00B8               	movwf	??_main
  3908  0775  0838               	movf	??_main,w
  3909  0776  00A2               	movwf	_me_1_us3_m
  3910                           
  3911                           ;PROYECTO.c: 473:            me_1_us3_h = hora;
  3912  0777  0875               	movf	_hora,w
  3913  0778  00B8               	movwf	??_main
  3914  0779  0838               	movf	??_main,w
  3915  077A  00AB               	movwf	_me_1_us3_h
  3916  077B                     l3352:
  3917                           
  3918                           ;PROYECTO.c: 476:        if (RB6==0 && RB3==1 && RB4==0){
  3919  077B  1B06               	btfsc	6,6	;volatile
  3920  077C  2F7E               	goto	u4191
  3921  077D  2F7F               	goto	u4190
  3922  077E                     u4191:
  3923  077E  2F90               	goto	l298
  3924  077F                     u4190:
  3925  077F                     l3354:
  3926  077F  1D86               	btfss	6,3	;volatile
  3927  0780  2F82               	goto	u4201
  3928  0781  2F83               	goto	u4200
  3929  0782                     u4201:
  3930  0782  2F90               	goto	l298
  3931  0783                     u4200:
  3932  0783                     l3356:
  3933  0783  1A06               	btfsc	6,4	;volatile
  3934  0784  2F86               	goto	u4211
  3935  0785  2F87               	goto	u4210
  3936  0786                     u4211:
  3937  0786  2F90               	goto	l298
  3938  0787                     u4210:
  3939  0787                     l3358:
  3940                           
  3941                           ;PROYECTO.c: 477:            me_3_us2_m = minuto;
  3942  0787  0874               	movf	_minuto,w
  3943  0788  00B8               	movwf	??_main
  3944  0789  0838               	movf	??_main,w
  3945  078A  00A3               	movwf	_me_3_us2_m
  3946                           
  3947                           ;PROYECTO.c: 478:            me_3_us2_h = hora;
  3948  078B  0875               	movf	_hora,w
  3949  078C  00B8               	movwf	??_main
  3950  078D  0838               	movf	??_main,w
  3951  078E  00AC               	movwf	_me_3_us2_h
  3952                           
  3953                           ;PROYECTO.c: 479:        }else if (RB6==0 && RB3==0 && RB4==1){
  3954  078F  2FB9               	goto	l3372
  3955  0790                     l298:
  3956  0790  1B06               	btfsc	6,6	;volatile
  3957  0791  2F93               	goto	u4221
  3958  0792  2F94               	goto	u4220
  3959  0793                     u4221:
  3960  0793  2FA5               	goto	l300
  3961  0794                     u4220:
  3962  0794                     l3360:
  3963  0794  1986               	btfsc	6,3	;volatile
  3964  0795  2F97               	goto	u4231
  3965  0796  2F98               	goto	u4230
  3966  0797                     u4231:
  3967  0797  2FA5               	goto	l300
  3968  0798                     u4230:
  3969  0798                     l3362:
  3970  0798  1E06               	btfss	6,4	;volatile
  3971  0799  2F9B               	goto	u4241
  3972  079A  2F9C               	goto	u4240
  3973  079B                     u4241:
  3974  079B  2FA5               	goto	l300
  3975  079C                     u4240:
  3976  079C                     l3364:
  3977                           
  3978                           ;PROYECTO.c: 480:            me_2_us2_m = minuto;
  3979  079C  0874               	movf	_minuto,w
  3980  079D  00B8               	movwf	??_main
  3981  079E  0838               	movf	??_main,w
  3982  079F  00A4               	movwf	_me_2_us2_m
  3983                           
  3984                           ;PROYECTO.c: 481:            me_2_us2_h = hora;
  3985  07A0  0875               	movf	_hora,w
  3986  07A1  00B8               	movwf	??_main
  3987  07A2  0838               	movf	??_main,w
  3988  07A3  00AD               	movwf	_me_2_us2_h
  3989                           
  3990                           ;PROYECTO.c: 482:        }else if (RB6==0 && RB3==0 && RB4==0){
  3991  07A4  2FB9               	goto	l3372
  3992  07A5                     l300:
  3993  07A5  1B06               	btfsc	6,6	;volatile
  3994  07A6  2FA8               	goto	u4251
  3995  07A7  2FA9               	goto	u4250
  3996  07A8                     u4251:
  3997  07A8  2FB9               	goto	l3372
  3998  07A9                     u4250:
  3999  07A9                     l3366:
  4000  07A9  1986               	btfsc	6,3	;volatile
  4001  07AA  2FAC               	goto	u4261
  4002  07AB  2FAD               	goto	u4260
  4003  07AC                     u4261:
  4004  07AC  2FB9               	goto	l3372
  4005  07AD                     u4260:
  4006  07AD                     l3368:
  4007  07AD  1A06               	btfsc	6,4	;volatile
  4008  07AE  2FB0               	goto	u4271
  4009  07AF  2FB1               	goto	u4270
  4010  07B0                     u4271:
  4011  07B0  2FB9               	goto	l3372
  4012  07B1                     u4270:
  4013  07B1                     l3370:
  4014                           
  4015                           ;PROYECTO.c: 483:            me_1_us2_m = minuto;
  4016  07B1  0874               	movf	_minuto,w
  4017  07B2  00B8               	movwf	??_main
  4018  07B3  0838               	movf	??_main,w
  4019  07B4  00A5               	movwf	_me_1_us2_m
  4020                           
  4021                           ;PROYECTO.c: 484:            me_1_us2_h = hora;
  4022  07B5  0875               	movf	_hora,w
  4023  07B6  00B8               	movwf	??_main
  4024  07B7  0838               	movf	??_main,w
  4025  07B8  00AE               	movwf	_me_1_us2_h
  4026  07B9                     l3372:
  4027                           
  4028                           ;PROYECTO.c: 487:        if (RB5==0 && RB3==0 && RB4==1){
  4029  07B9  1A86               	btfsc	6,5	;volatile
  4030  07BA  2FBC               	goto	u4281
  4031  07BB  2FBD               	goto	u4280
  4032  07BC                     u4281:
  4033  07BC  2FCE               	goto	l303
  4034  07BD                     u4280:
  4035  07BD                     l3374:
  4036  07BD  1986               	btfsc	6,3	;volatile
  4037  07BE  2FC0               	goto	u4291
  4038  07BF  2FC1               	goto	u4290
  4039  07C0                     u4291:
  4040  07C0  2FCE               	goto	l303
  4041  07C1                     u4290:
  4042  07C1                     l3376:
  4043  07C1  1E06               	btfss	6,4	;volatile
  4044  07C2  2FC4               	goto	u4301
  4045  07C3  2FC5               	goto	u4300
  4046  07C4                     u4301:
  4047  07C4  2FCE               	goto	l303
  4048  07C5                     u4300:
  4049  07C5                     l3378:
  4050                           
  4051                           ;PROYECTO.c: 488:            me_3_us1_m = minuto;
  4052  07C5  0874               	movf	_minuto,w
  4053  07C6  00B8               	movwf	??_main
  4054  07C7  0838               	movf	??_main,w
  4055  07C8  00A6               	movwf	_me_3_us1_m
  4056                           
  4057                           ;PROYECTO.c: 489:            me_3_us1_h = hora;
  4058  07C9  0875               	movf	_hora,w
  4059  07CA  00B8               	movwf	??_main
  4060  07CB  0838               	movf	??_main,w
  4061  07CC  00AF               	movwf	_me_3_us1_h
  4062                           
  4063                           ;PROYECTO.c: 490:        }else if (RB5==0 && RB3==1 && RB4==0){
  4064  07CD  287A               	goto	l2910
  4065  07CE                     l303:
  4066  07CE  1A86               	btfsc	6,5	;volatile
  4067  07CF  2FD1               	goto	u4311
  4068  07D0  2FD2               	goto	u4310
  4069  07D1                     u4311:
  4070  07D1  2FE3               	goto	l305
  4071  07D2                     u4310:
  4072  07D2                     l3380:
  4073  07D2  1D86               	btfss	6,3	;volatile
  4074  07D3  2FD5               	goto	u4321
  4075  07D4  2FD6               	goto	u4320
  4076  07D5                     u4321:
  4077  07D5  2FE3               	goto	l305
  4078  07D6                     u4320:
  4079  07D6                     l3382:
  4080  07D6  1A06               	btfsc	6,4	;volatile
  4081  07D7  2FD9               	goto	u4331
  4082  07D8  2FDA               	goto	u4330
  4083  07D9                     u4331:
  4084  07D9  2FE3               	goto	l305
  4085  07DA                     u4330:
  4086  07DA                     l3384:
  4087                           
  4088                           ;PROYECTO.c: 491:            me_2_us1_m = minuto;
  4089  07DA  0874               	movf	_minuto,w
  4090  07DB  00B8               	movwf	??_main
  4091  07DC  0838               	movf	??_main,w
  4092  07DD  00A7               	movwf	_me_2_us1_m
  4093                           
  4094                           ;PROYECTO.c: 492:            me_2_us1_h = hora;
  4095  07DE  0875               	movf	_hora,w
  4096  07DF  00B8               	movwf	??_main
  4097  07E0  0838               	movf	??_main,w
  4098  07E1  00B0               	movwf	_me_2_us1_h
  4099                           
  4100                           ;PROYECTO.c: 493:        }else if (RB5==0 && RB3==0 && RB4==0){
  4101  07E2  287A               	goto	l2910
  4102  07E3                     l305:
  4103  07E3  1A86               	btfsc	6,5	;volatile
  4104  07E4  2FE6               	goto	u4341
  4105  07E5  2FE7               	goto	u4340
  4106  07E6                     u4341:
  4107  07E6  2FF8               	goto	l304
  4108  07E7                     u4340:
  4109  07E7                     l3386:
  4110  07E7  1986               	btfsc	6,3	;volatile
  4111  07E8  2FEA               	goto	u4351
  4112  07E9  2FEB               	goto	u4350
  4113  07EA                     u4351:
  4114  07EA  2FF8               	goto	l304
  4115  07EB                     u4350:
  4116  07EB                     l3388:
  4117  07EB  1A06               	btfsc	6,4	;volatile
  4118  07EC  2FEE               	goto	u4361
  4119  07ED  2FEF               	goto	u4360
  4120  07EE                     u4361:
  4121  07EE  2FF8               	goto	l304
  4122  07EF                     u4360:
  4123  07EF                     l3390:
  4124                           
  4125                           ;PROYECTO.c: 494:            me_1_us1_m = minuto;
  4126  07EF  0874               	movf	_minuto,w
  4127  07F0  00B8               	movwf	??_main
  4128  07F1  0838               	movf	??_main,w
  4129  07F2  00A8               	movwf	_me_1_us1_m
  4130                           
  4131                           ;PROYECTO.c: 495:            me_1_us1_h = hora;
  4132  07F3  0875               	movf	_hora,w
  4133  07F4  00B8               	movwf	??_main
  4134  07F5  0838               	movf	??_main,w
  4135  07F6  00B1               	movwf	_me_1_us1_h
  4136  07F7  287A               	goto	l2910
  4137  07F8                     l304:
  4138  07F8  287A               	goto	l2910
  4139  07F9  120A  118A  280C   	ljmp	start
  4140  07FC                     __end_of_main:
  4141                           
  4142                           	psect	text1
  4143  07FC                     __ptext1:	
  4144 ;; *************** function _USART_Rx *****************
  4145 ;; Defined at:
  4146 ;;		line 510 in file "PROYECTO.c"
  4147 ;; Parameters:    Size  Location     Type
  4148 ;;		None
  4149 ;; Auto vars:     Size  Location     Type
  4150 ;;		None
  4151 ;; Return value:  Size  Location     Type
  4152 ;;                  1    wreg      unsigned char 
  4153 ;; Registers used:
  4154 ;;		wreg
  4155 ;; Tracked objects:
  4156 ;;		On entry : 0/0
  4157 ;;		On exit  : 0/0
  4158 ;;		Unchanged: 0/0
  4159 ;; Data sizes:     COMMON   BANK0   BANK1   BANK3   BANK2
  4160 ;;      Params:         0       0       0       0       0
  4161 ;;      Locals:         0       0       0       0       0
  4162 ;;      Temps:          0       0       0       0       0
  4163 ;;      Totals:         0       0       0       0       0
  4164 ;;Total ram usage:        0 bytes
  4165 ;; Hardware stack levels used:    1
  4166 ;; Hardware stack levels required when called:    1
  4167 ;; This function calls:
  4168 ;;		Nothing
  4169 ;; This function is called by:
  4170 ;;		_main
  4171 ;; This function uses a non-reentrant model
  4172 ;;
  4173                           
  4174                           
  4175                           ;psect for function _USART_Rx
  4176  07FC                     _USART_Rx:
  4177  07FC                     l1988:	
  4178                           ;incstack = 0
  4179                           ; Regs used in _USART_Rx: [wreg]
  4180                           
  4181                           
  4182                           ;PROYECTO.c: 511:     return RCREG;
  4183  07FC  1283               	bcf	3,5	;RP0=0, select bank0
  4184  07FD  1303               	bcf	3,6	;RP1=0, select bank0
  4185  07FE  081A               	movf	26,w	;volatile
  4186  07FF                     l319:
  4187  07FF  0008               	return
  4188  0800                     __end_of_USART_Rx:
  4189                           
  4190                           	psect	text2
  4191  0D13                     __ptext2:	
  4192 ;; *************** function _SendCharM *****************
  4193 ;; Defined at:
  4194 ;;		line 680 in file "PROYECTO.c"
  4195 ;; Parameters:    Size  Location     Type
  4196 ;;  in              1    wreg     unsigned char 
  4197 ;; Auto vars:     Size  Location     Type
  4198 ;;  in              1    5[COMMON] unsigned char 
  4199 ;; Return value:  Size  Location     Type
  4200 ;;                  1    wreg      void 
  4201 ;; Registers used:
  4202 ;;		wreg, fsr0l, fsr0h, status,2, status,0, btemp+1, pclath, cstack
  4203 ;; Tracked objects:
  4204 ;;		On entry : 0/0
  4205 ;;		On exit  : 0/0
  4206 ;;		Unchanged: 0/0
  4207 ;; Data sizes:     COMMON   BANK0   BANK1   BANK3   BANK2
  4208 ;;      Params:         0       0       0       0       0
  4209 ;;      Locals:         1       0       0       0       0
  4210 ;;      Temps:          0       0       0       0       0
  4211 ;;      Totals:         1       0       0       0       0
  4212 ;;Total ram usage:        1 bytes
  4213 ;; Hardware stack levels used:    1
  4214 ;; Hardware stack levels required when called:    3
  4215 ;; This function calls:
  4216 ;;		_USART_Cadena
  4217 ;; This function is called by:
  4218 ;;		_main
  4219 ;; This function uses a non-reentrant model
  4220 ;;
  4221                           
  4222                           
  4223                           ;psect for function _SendCharM
  4224  0D13                     _SendCharM:
  4225                           
  4226                           ;incstack = 0
  4227                           ; Regs used in _SendCharM: [wreg-fsr0h+status,2+status,0+btemp+1+pclath+cstack]
  4228                           ;SendCharM@in stored from wreg
  4229  0D13  00FB               	movwf	SendCharM@in
  4230  0D14                     l2082:
  4231  0D14                     l478:	
  4232                           ;PROYECTO.c: 681:     while(TXSTAbits.TRMT == 0);
  4233                           
  4234  0D14  1683               	bsf	3,5	;RP0=1, select bank1
  4235  0D15  1303               	bcf	3,6	;RP1=0, select bank1
  4236  0D16  1C98               	btfss	24,1	;volatile
  4237  0D17  2D19               	goto	u2061
  4238  0D18  2D1A               	goto	u2060
  4239  0D19                     u2061:
  4240  0D19  2D14               	goto	l478
  4241  0D1A                     u2060:
  4242  0D1A                     l2084:
  4243                           
  4244                           ;PROYECTO.c: 682:         if(in == 0) {
  4245  0D1A  087B               	movf	SendCharM@in,w
  4246  0D1B  1D03               	btfss	3,2
  4247  0D1C  2D1E               	goto	u2071
  4248  0D1D  2D1F               	goto	u2070
  4249  0D1E                     u2071:
  4250  0D1E  2D29               	goto	l2088
  4251  0D1F                     u2070:
  4252  0D1F                     l2086:
  4253                           
  4254                           ;PROYECTO.c: 683:             USART_Cadena("0");
  4255  0D1F  30FB               	movlw	low ((STR_69+1)| (0+32768))
  4256  0D20  00F9               	movwf	USART_Cadena@str
  4257  0D21  308A               	movlw	high ((STR_69+1)| (0+32768))
  4258  0D22  00FA               	movwf	USART_Cadena@str+1
  4259  0D23  120A  158A  24B6  120A  158A  	fcall	_USART_Cadena
  4260                           
  4261                           ;PROYECTO.c: 684:         }else if (in == 15){
  4262  0D28  2D69               	goto	l490
  4263  0D29                     l2088:
  4264  0D29  300F               	movlw	15
  4265  0D2A  067B               	xorwf	SendCharM@in,w
  4266  0D2B  1D03               	btfss	3,2
  4267  0D2C  2D2E               	goto	u2081
  4268  0D2D  2D2F               	goto	u2080
  4269  0D2E                     u2081:
  4270  0D2E  2D39               	goto	l2092
  4271  0D2F                     u2080:
  4272  0D2F                     l2090:
  4273                           
  4274                           ;PROYECTO.c: 685:             USART_Cadena("15");
  4275  0D2F  30FD               	movlw	low (STR_68| (0+32768))
  4276  0D30  00F9               	movwf	USART_Cadena@str
  4277  0D31  308A               	movlw	high (STR_68| (0+32768))
  4278  0D32  00FA               	movwf	USART_Cadena@str+1
  4279  0D33  120A  158A  24B6  120A  158A  	fcall	_USART_Cadena
  4280                           
  4281                           ;PROYECTO.c: 686:         }else if (in == 30){
  4282  0D38  2D69               	goto	l490
  4283  0D39                     l2092:
  4284  0D39  301E               	movlw	30
  4285  0D3A  067B               	xorwf	SendCharM@in,w
  4286  0D3B  1D03               	btfss	3,2
  4287  0D3C  2D3E               	goto	u2091
  4288  0D3D  2D3F               	goto	u2090
  4289  0D3E                     u2091:
  4290  0D3E  2D49               	goto	l2096
  4291  0D3F                     u2090:
  4292  0D3F                     l2094:
  4293                           
  4294                           ;PROYECTO.c: 687:             USART_Cadena("30");
  4295  0D3F  30FA               	movlw	low (STR_69| (0+32768))
  4296  0D40  00F9               	movwf	USART_Cadena@str
  4297  0D41  308A               	movlw	high (STR_69| (0+32768))
  4298  0D42  00FA               	movwf	USART_Cadena@str+1
  4299  0D43  120A  158A  24B6  120A  158A  	fcall	_USART_Cadena
  4300                           
  4301                           ;PROYECTO.c: 688:         }else if (in == 45){
  4302  0D48  2D69               	goto	l490
  4303  0D49                     l2096:
  4304  0D49  302D               	movlw	45
  4305  0D4A  067B               	xorwf	SendCharM@in,w
  4306  0D4B  1D03               	btfss	3,2
  4307  0D4C  2D4E               	goto	u2101
  4308  0D4D  2D4F               	goto	u2100
  4309  0D4E                     u2101:
  4310  0D4E  2D59               	goto	l2100
  4311  0D4F                     u2100:
  4312  0D4F                     l2098:
  4313                           
  4314                           ;PROYECTO.c: 689:             USART_Cadena("45");
  4315  0D4F  3000               	movlw	low (STR_70| (0+32768))
  4316  0D50  00F9               	movwf	USART_Cadena@str
  4317  0D51  308B               	movlw	high (STR_70| (0+32768))
  4318  0D52  00FA               	movwf	USART_Cadena@str+1
  4319  0D53  120A  158A  24B6  120A  158A  	fcall	_USART_Cadena
  4320                           
  4321                           ;PROYECTO.c: 690:         }else if (in == 55){
  4322  0D58  2D69               	goto	l490
  4323  0D59                     l2100:
  4324  0D59  3037               	movlw	55
  4325  0D5A  067B               	xorwf	SendCharM@in,w
  4326  0D5B  1D03               	btfss	3,2
  4327  0D5C  2D5E               	goto	u2111
  4328  0D5D  2D5F               	goto	u2110
  4329  0D5E                     u2111:
  4330  0D5E  2D69               	goto	l484
  4331  0D5F                     u2110:
  4332  0D5F                     l2102:
  4333                           
  4334                           ;PROYECTO.c: 691:             USART_Cadena("55");
  4335  0D5F  3003               	movlw	low (STR_71| (0+32768))
  4336  0D60  00F9               	movwf	USART_Cadena@str
  4337  0D61  308B               	movlw	high (STR_71| (0+32768))
  4338  0D62  00FA               	movwf	USART_Cadena@str+1
  4339  0D63  120A  158A  24B6  120A  158A  	fcall	_USART_Cadena
  4340  0D68  2D69               	goto	l490
  4341  0D69                     l484:
  4342  0D69                     l490:
  4343  0D69  0008               	return
  4344  0D6A                     __end_of_SendCharM:
  4345                           
  4346                           	psect	text3
  4347  0CB6                     __ptext3:	
  4348 ;; *************** function _USART_Cadena *****************
  4349 ;; Defined at:
  4350 ;;		line 514 in file "PROYECTO.c"
  4351 ;; Parameters:    Size  Location     Type
  4352 ;;  str             2    3[COMMON] PTR unsigned char 
  4353 ;;		 -> STR_71(3), STR_70(3), STR_69(3), STR_68(3), 
  4354 ;;		 -> STR_67(2), STR_66(26), STR_65(48), STR_64(43), 
  4355 ;;		 -> STR_63(3), STR_62(3), STR_61(36), STR_60(44), 
  4356 ;;		 -> STR_59(3), STR_58(3), STR_57(48), STR_56(48), 
  4357 ;;		 -> STR_55(52), STR_54(39), STR_53(26), STR_52(48), 
  4358 ;;		 -> STR_51(43), STR_50(3), STR_49(3), STR_48(36), 
  4359 ;;		 -> STR_47(44), STR_46(3), STR_45(3), STR_44(48), 
  4360 ;;		 -> STR_43(48), STR_42(52), STR_41(39), STR_40(26), 
  4361 ;;		 -> STR_39(48), STR_38(43), STR_37(3), STR_36(3), 
  4362 ;;		 -> STR_35(36), STR_34(44), STR_33(3), STR_32(3), 
  4363 ;;		 -> STR_31(48), STR_30(48), STR_29(52), STR_28(39), 
  4364 ;;		 -> STR_27(31), STR_26(7), STR_25(8), STR_24(11), 
  4365 ;;		 -> STR_23(31), STR_22(7), STR_21(8), STR_20(11), 
  4366 ;;		 -> STR_19(32), STR_18(7), STR_17(8), STR_16(11), 
  4367 ;;		 -> STR_15(31), STR_14(7), STR_13(8), STR_12(11), 
  4368 ;;		 -> STR_11(31), STR_10(7), STR_9(8), STR_8(11), 
  4369 ;;		 -> STR_7(37), STR_6(34), STR_5(35), STR_4(31), 
  4370 ;;		 -> STR_3(29), STR_2(30), STR_1(31), 
  4371 ;; Auto vars:     Size  Location     Type
  4372 ;;		None
  4373 ;; Return value:  Size  Location     Type
  4374 ;;                  1    wreg      void 
  4375 ;; Registers used:
  4376 ;;		wreg, fsr0l, fsr0h, status,2, status,0, btemp+1, pclath, cstack
  4377 ;; Tracked objects:
  4378 ;;		On entry : 0/0
  4379 ;;		On exit  : 0/0
  4380 ;;		Unchanged: 0/0
  4381 ;; Data sizes:     COMMON   BANK0   BANK1   BANK3   BANK2
  4382 ;;      Params:         2       0       0       0       0
  4383 ;;      Locals:         0       0       0       0       0
  4384 ;;      Temps:          0       0       0       0       0
  4385 ;;      Totals:         2       0       0       0       0
  4386 ;;Total ram usage:        2 bytes
  4387 ;; Hardware stack levels used:    1
  4388 ;; Hardware stack levels required when called:    2
  4389 ;; This function calls:
  4390 ;;		_USART_Tx
  4391 ;; This function is called by:
  4392 ;;		_main
  4393 ;;		_SendCharM
  4394 ;; This function uses a non-reentrant model
  4395 ;;
  4396                           
  4397                           
  4398                           ;psect for function _USART_Cadena
  4399  0CB6                     _USART_Cadena:
  4400  0CB6                     l1980:	
  4401                           ;incstack = 0
  4402                           ; Regs used in _USART_Cadena: [wreg-fsr0h+status,2+status,0+btemp+1+pclath+cstack]
  4403                           
  4404                           
  4405                           ;PROYECTO.c: 515:     while(*str != '\0'){
  4406  0CB6  2CCB               	goto	l1986
  4407  0CB7                     l1982:
  4408                           
  4409                           ;PROYECTO.c: 516:         USART_Tx(*str);
  4410  0CB7  087A               	movf	USART_Cadena@str+1,w
  4411  0CB8  00FF               	movwf	btemp+1
  4412  0CB9  0879               	movf	USART_Cadena@str,w
  4413  0CBA  0084               	movwf	4
  4414  0CBB  120A  158A  2306  120A  158A  	fcall	stringtab
  4415  0CC0  120A  158A  24AA  120A  158A  	fcall	_USART_Tx
  4416  0CC5                     l1984:
  4417                           
  4418                           ;PROYECTO.c: 517:         str++;
  4419  0CC5  3001               	movlw	1
  4420  0CC6  07F9               	addwf	USART_Cadena@str,f
  4421  0CC7  1803               	skipnc
  4422  0CC8  0AFA               	incf	USART_Cadena@str+1,f
  4423  0CC9  3000               	movlw	0
  4424  0CCA  07FA               	addwf	USART_Cadena@str+1,f
  4425  0CCB                     l1986:
  4426                           
  4427                           ;PROYECTO.c: 515:     while(*str != '\0'){
  4428  0CCB  087A               	movf	USART_Cadena@str+1,w
  4429  0CCC  1283               	bcf	3,5	;RP0=0, select bank0
  4430  0CCD  1303               	bcf	3,6	;RP1=0, select bank0
  4431  0CCE  00FF               	movwf	btemp+1
  4432  0CCF  0879               	movf	USART_Cadena@str,w
  4433  0CD0  0084               	movwf	4
  4434  0CD1  120A  158A  2306  120A  158A  	fcall	stringtab
  4435  0CD6  3A00               	xorlw	0
  4436  0CD7  1D03               	skipz
  4437  0CD8  2CDA               	goto	u1651
  4438  0CD9  2CDB               	goto	u1650
  4439  0CDA                     u1651:
  4440  0CDA  2CB7               	goto	l1982
  4441  0CDB                     u1650:
  4442  0CDB                     l325:
  4443  0CDB  0008               	return
  4444  0CDC                     __end_of_USART_Cadena:
  4445                           
  4446                           	psect	text4
  4447  0CAA                     __ptext4:	
  4448 ;; *************** function _USART_Tx *****************
  4449 ;; Defined at:
  4450 ;;		line 505 in file "PROYECTO.c"
  4451 ;; Parameters:    Size  Location     Type
  4452 ;;  data            1    wreg     unsigned char 
  4453 ;; Auto vars:     Size  Location     Type
  4454 ;;  data            1    2[COMMON] unsigned char 
  4455 ;; Return value:  Size  Location     Type
  4456 ;;                  1    wreg      void 
  4457 ;; Registers used:
  4458 ;;		wreg
  4459 ;; Tracked objects:
  4460 ;;		On entry : 0/0
  4461 ;;		On exit  : 0/0
  4462 ;;		Unchanged: 0/0
  4463 ;; Data sizes:     COMMON   BANK0   BANK1   BANK3   BANK2
  4464 ;;      Params:         0       0       0       0       0
  4465 ;;      Locals:         1       0       0       0       0
  4466 ;;      Temps:          0       0       0       0       0
  4467 ;;      Totals:         1       0       0       0       0
  4468 ;;Total ram usage:        1 bytes
  4469 ;; Hardware stack levels used:    1
  4470 ;; Hardware stack levels required when called:    1
  4471 ;; This function calls:
  4472 ;;		Nothing
  4473 ;; This function is called by:
  4474 ;;		_USART_Cadena
  4475 ;; This function uses a non-reentrant model
  4476 ;;
  4477                           
  4478                           
  4479                           ;psect for function _USART_Tx
  4480  0CAA                     _USART_Tx:
  4481                           
  4482                           ;incstack = 0
  4483                           ; Regs used in _USART_Tx: [wreg]
  4484                           ;USART_Tx@data stored from wreg
  4485  0CAA  00F8               	movwf	USART_Tx@data
  4486  0CAB                     l1976:
  4487  0CAB                     l313:	
  4488                           ;PROYECTO.c: 506:     while(TXSTAbits.TRMT == 0);
  4489                           
  4490  0CAB  1683               	bsf	3,5	;RP0=1, select bank1
  4491  0CAC  1303               	bcf	3,6	;RP1=0, select bank1
  4492  0CAD  1C98               	btfss	24,1	;volatile
  4493  0CAE  2CB0               	goto	u1641
  4494  0CAF  2CB1               	goto	u1640
  4495  0CB0                     u1641:
  4496  0CB0  2CAB               	goto	l313
  4497  0CB1                     u1640:
  4498  0CB1                     l1978:
  4499                           
  4500                           ;PROYECTO.c: 507:     TXREG = data;
  4501  0CB1  0878               	movf	USART_Tx@data,w
  4502  0CB2  1283               	bcf	3,5	;RP0=0, select bank0
  4503  0CB3  1303               	bcf	3,6	;RP1=0, select bank0
  4504  0CB4  0099               	movwf	25	;volatile
  4505  0CB5                     l316:
  4506  0CB5  0008               	return
  4507  0CB6                     __end_of_USART_Tx:
  4508                           
  4509                           	psect	text5
  4510  0E3B                     __ptext5:	
  4511 ;; *************** function _SendCharH *****************
  4512 ;; Defined at:
  4513 ;;		line 521 in file "PROYECTO.c"
  4514 ;; Parameters:    Size  Location     Type
  4515 ;;  in              1    wreg     unsigned char 
  4516 ;; Auto vars:     Size  Location     Type
  4517 ;;  in              1    4[COMMON] unsigned char 
  4518 ;; Return value:  Size  Location     Type
  4519 ;;                  1    wreg      void 
  4520 ;; Registers used:
  4521 ;;		wreg, fsr0l, fsr0h, status,2, status,0
  4522 ;; Tracked objects:
  4523 ;;		On entry : 0/0
  4524 ;;		On exit  : 0/0
  4525 ;;		Unchanged: 0/0
  4526 ;; Data sizes:     COMMON   BANK0   BANK1   BANK3   BANK2
  4527 ;;      Params:         0       0       0       0       0
  4528 ;;      Locals:         1       0       0       0       0
  4529 ;;      Temps:          2       0       0       0       0
  4530 ;;      Totals:         3       0       0       0       0
  4531 ;;Total ram usage:        3 bytes
  4532 ;; Hardware stack levels used:    1
  4533 ;; Hardware stack levels required when called:    1
  4534 ;; This function calls:
  4535 ;;		Nothing
  4536 ;; This function is called by:
  4537 ;;		_main
  4538 ;; This function uses a non-reentrant model
  4539 ;;
  4540                           
  4541                           
  4542                           ;psect for function _SendCharH
  4543  0E3B                     _SendCharH:
  4544                           
  4545                           ;incstack = 0
  4546                           ; Regs used in _SendCharH: [wreg-fsr0h+status,2+status,0]
  4547                           ;SendCharH@in stored from wreg
  4548  0E3B  00FA               	movwf	SendCharH@in
  4549  0E3C                     l1992:
  4550                           
  4551                           ;PROYECTO.c: 522:     switch(in){
  4552  0E3C  2FAA               	goto	l2076
  4553  0E3D                     l330:
  4554  0E3D  1683               	bsf	3,5	;RP0=1, select bank1
  4555  0E3E  1303               	bcf	3,6	;RP1=0, select bank1
  4556  0E3F  1C98               	btfss	24,1	;volatile
  4557  0E40  2E42               	goto	u1661
  4558  0E41  2E43               	goto	u1660
  4559  0E42                     u1661:
  4560  0E42  2E3D               	goto	l330
  4561  0E43                     u1660:
  4562  0E43                     l1994:
  4563                           
  4564                           ;PROYECTO.c: 525:             TXREG = 48;
  4565  0E43  3030               	movlw	48
  4566  0E44  1283               	bcf	3,5	;RP0=0, select bank0
  4567  0E45  1303               	bcf	3,6	;RP1=0, select bank0
  4568  0E46  0099               	movwf	25	;volatile
  4569                           
  4570                           ;PROYECTO.c: 526:         break;
  4571  0E47  2FFF               	goto	l475
  4572  0E48                     l335:
  4573  0E48  1683               	bsf	3,5	;RP0=1, select bank1
  4574  0E49  1303               	bcf	3,6	;RP1=0, select bank1
  4575  0E4A  1C98               	btfss	24,1	;volatile
  4576  0E4B  2E4D               	goto	u1671
  4577  0E4C  2E4E               	goto	u1670
  4578  0E4D                     u1671:
  4579  0E4D  2E48               	goto	l335
  4580  0E4E                     u1670:
  4581  0E4E                     l1996:
  4582                           
  4583                           ;PROYECTO.c: 530:             TXREG = 49;
  4584  0E4E  3031               	movlw	49
  4585  0E4F  1283               	bcf	3,5	;RP0=0, select bank0
  4586  0E50  1303               	bcf	3,6	;RP1=0, select bank0
  4587  0E51  0099               	movwf	25	;volatile
  4588                           
  4589                           ;PROYECTO.c: 531:         break;
  4590  0E52  2FFF               	goto	l475
  4591  0E53                     l339:
  4592  0E53  1683               	bsf	3,5	;RP0=1, select bank1
  4593  0E54  1303               	bcf	3,6	;RP1=0, select bank1
  4594  0E55  1C98               	btfss	24,1	;volatile
  4595  0E56  2E58               	goto	u1681
  4596  0E57  2E59               	goto	u1680
  4597  0E58                     u1681:
  4598  0E58  2E53               	goto	l339
  4599  0E59                     u1680:
  4600  0E59                     l1998:
  4601                           
  4602                           ;PROYECTO.c: 535:             TXREG = 50;
  4603  0E59  3032               	movlw	50
  4604  0E5A  1283               	bcf	3,5	;RP0=0, select bank0
  4605  0E5B  1303               	bcf	3,6	;RP1=0, select bank0
  4606  0E5C  0099               	movwf	25	;volatile
  4607                           
  4608                           ;PROYECTO.c: 536:         break;
  4609  0E5D  2FFF               	goto	l475
  4610  0E5E                     l343:
  4611  0E5E  1683               	bsf	3,5	;RP0=1, select bank1
  4612  0E5F  1303               	bcf	3,6	;RP1=0, select bank1
  4613  0E60  1C98               	btfss	24,1	;volatile
  4614  0E61  2E63               	goto	u1691
  4615  0E62  2E64               	goto	u1690
  4616  0E63                     u1691:
  4617  0E63  2E5E               	goto	l343
  4618  0E64                     u1690:
  4619  0E64                     l2000:
  4620                           
  4621                           ;PROYECTO.c: 540:             TXREG = 51;
  4622  0E64  3033               	movlw	51
  4623  0E65  1283               	bcf	3,5	;RP0=0, select bank0
  4624  0E66  1303               	bcf	3,6	;RP1=0, select bank0
  4625  0E67  0099               	movwf	25	;volatile
  4626                           
  4627                           ;PROYECTO.c: 541:         break;
  4628  0E68  2FFF               	goto	l475
  4629  0E69                     l347:
  4630  0E69  1683               	bsf	3,5	;RP0=1, select bank1
  4631  0E6A  1303               	bcf	3,6	;RP1=0, select bank1
  4632  0E6B  1C98               	btfss	24,1	;volatile
  4633  0E6C  2E6E               	goto	u1701
  4634  0E6D  2E6F               	goto	u1700
  4635  0E6E                     u1701:
  4636  0E6E  2E69               	goto	l347
  4637  0E6F                     u1700:
  4638  0E6F                     l2002:
  4639                           
  4640                           ;PROYECTO.c: 545:             TXREG = 52;
  4641  0E6F  3034               	movlw	52
  4642  0E70  1283               	bcf	3,5	;RP0=0, select bank0
  4643  0E71  1303               	bcf	3,6	;RP1=0, select bank0
  4644  0E72  0099               	movwf	25	;volatile
  4645                           
  4646                           ;PROYECTO.c: 546:         break;
  4647  0E73  2FFF               	goto	l475
  4648  0E74                     l351:
  4649  0E74  1683               	bsf	3,5	;RP0=1, select bank1
  4650  0E75  1303               	bcf	3,6	;RP1=0, select bank1
  4651  0E76  1C98               	btfss	24,1	;volatile
  4652  0E77  2E79               	goto	u1711
  4653  0E78  2E7A               	goto	u1710
  4654  0E79                     u1711:
  4655  0E79  2E74               	goto	l351
  4656  0E7A                     u1710:
  4657  0E7A                     l2004:
  4658                           
  4659                           ;PROYECTO.c: 550:             TXREG = 53;
  4660  0E7A  3035               	movlw	53
  4661  0E7B  1283               	bcf	3,5	;RP0=0, select bank0
  4662  0E7C  1303               	bcf	3,6	;RP1=0, select bank0
  4663  0E7D  0099               	movwf	25	;volatile
  4664                           
  4665                           ;PROYECTO.c: 551:         break;
  4666  0E7E  2FFF               	goto	l475
  4667  0E7F                     l355:
  4668  0E7F  1683               	bsf	3,5	;RP0=1, select bank1
  4669  0E80  1303               	bcf	3,6	;RP1=0, select bank1
  4670  0E81  1C98               	btfss	24,1	;volatile
  4671  0E82  2E84               	goto	u1721
  4672  0E83  2E85               	goto	u1720
  4673  0E84                     u1721:
  4674  0E84  2E7F               	goto	l355
  4675  0E85                     u1720:
  4676  0E85                     l2006:
  4677                           
  4678                           ;PROYECTO.c: 555:             TXREG = 54;
  4679  0E85  3036               	movlw	54
  4680  0E86  1283               	bcf	3,5	;RP0=0, select bank0
  4681  0E87  1303               	bcf	3,6	;RP1=0, select bank0
  4682  0E88  0099               	movwf	25	;volatile
  4683                           
  4684                           ;PROYECTO.c: 556:         break;
  4685  0E89  2FFF               	goto	l475
  4686  0E8A                     l359:
  4687  0E8A  1683               	bsf	3,5	;RP0=1, select bank1
  4688  0E8B  1303               	bcf	3,6	;RP1=0, select bank1
  4689  0E8C  1C98               	btfss	24,1	;volatile
  4690  0E8D  2E8F               	goto	u1731
  4691  0E8E  2E90               	goto	u1730
  4692  0E8F                     u1731:
  4693  0E8F  2E8A               	goto	l359
  4694  0E90                     u1730:
  4695  0E90                     l2008:
  4696                           
  4697                           ;PROYECTO.c: 560:             TXREG = 55;
  4698  0E90  3037               	movlw	55
  4699  0E91  1283               	bcf	3,5	;RP0=0, select bank0
  4700  0E92  1303               	bcf	3,6	;RP1=0, select bank0
  4701  0E93  0099               	movwf	25	;volatile
  4702                           
  4703                           ;PROYECTO.c: 561:         break;
  4704  0E94  2FFF               	goto	l475
  4705  0E95                     l363:
  4706  0E95  1683               	bsf	3,5	;RP0=1, select bank1
  4707  0E96  1303               	bcf	3,6	;RP1=0, select bank1
  4708  0E97  1C98               	btfss	24,1	;volatile
  4709  0E98  2E9A               	goto	u1741
  4710  0E99  2E9B               	goto	u1740
  4711  0E9A                     u1741:
  4712  0E9A  2E95               	goto	l363
  4713  0E9B                     u1740:
  4714  0E9B                     l2010:
  4715                           
  4716                           ;PROYECTO.c: 565:             TXREG = 56;
  4717  0E9B  3038               	movlw	56
  4718  0E9C  1283               	bcf	3,5	;RP0=0, select bank0
  4719  0E9D  1303               	bcf	3,6	;RP1=0, select bank0
  4720  0E9E  0099               	movwf	25	;volatile
  4721                           
  4722                           ;PROYECTO.c: 566:         break;
  4723  0E9F  2FFF               	goto	l475
  4724  0EA0                     l367:
  4725  0EA0  1683               	bsf	3,5	;RP0=1, select bank1
  4726  0EA1  1303               	bcf	3,6	;RP1=0, select bank1
  4727  0EA2  1C98               	btfss	24,1	;volatile
  4728  0EA3  2EA5               	goto	u1751
  4729  0EA4  2EA6               	goto	u1750
  4730  0EA5                     u1751:
  4731  0EA5  2EA0               	goto	l367
  4732  0EA6                     u1750:
  4733  0EA6                     l2012:
  4734                           
  4735                           ;PROYECTO.c: 570:             TXREG = 57;
  4736  0EA6  3039               	movlw	57
  4737  0EA7  1283               	bcf	3,5	;RP0=0, select bank0
  4738  0EA8  1303               	bcf	3,6	;RP1=0, select bank0
  4739  0EA9  0099               	movwf	25	;volatile
  4740                           
  4741                           ;PROYECTO.c: 571:         break;
  4742  0EAA  2FFF               	goto	l475
  4743  0EAB                     l371:
  4744  0EAB  1683               	bsf	3,5	;RP0=1, select bank1
  4745  0EAC  1303               	bcf	3,6	;RP1=0, select bank1
  4746  0EAD  1C98               	btfss	24,1	;volatile
  4747  0EAE  2EB0               	goto	u1761
  4748  0EAF  2EB1               	goto	u1760
  4749  0EB0                     u1761:
  4750  0EB0  2EAB               	goto	l371
  4751  0EB1                     u1760:
  4752  0EB1                     l2014:
  4753                           
  4754                           ;PROYECTO.c: 575:             TXREG = 49;
  4755  0EB1  3031               	movlw	49
  4756  0EB2  1283               	bcf	3,5	;RP0=0, select bank0
  4757  0EB3  1303               	bcf	3,6	;RP1=0, select bank0
  4758  0EB4  0099               	movwf	25	;volatile
  4759  0EB5                     l374:	
  4760                           ;PROYECTO.c: 576:             while(TXSTAbits.TRMT == 0);
  4761                           
  4762  0EB5  1683               	bsf	3,5	;RP0=1, select bank1
  4763  0EB6  1303               	bcf	3,6	;RP1=0, select bank1
  4764  0EB7  1C98               	btfss	24,1	;volatile
  4765  0EB8  2EBA               	goto	u1771
  4766  0EB9  2EBB               	goto	u1770
  4767  0EBA                     u1771:
  4768  0EBA  2EB5               	goto	l374
  4769  0EBB                     u1770:
  4770  0EBB  2E43               	goto	l1994
  4771  0EBC                     l378:
  4772  0EBC  1683               	bsf	3,5	;RP0=1, select bank1
  4773  0EBD  1303               	bcf	3,6	;RP1=0, select bank1
  4774  0EBE  1C98               	btfss	24,1	;volatile
  4775  0EBF  2EC1               	goto	u1781
  4776  0EC0  2EC2               	goto	u1780
  4777  0EC1                     u1781:
  4778  0EC1  2EBC               	goto	l378
  4779  0EC2                     u1780:
  4780  0EC2                     l2018:
  4781                           
  4782                           ;PROYECTO.c: 582:             TXREG = 49;
  4783  0EC2  3031               	movlw	49
  4784  0EC3  1283               	bcf	3,5	;RP0=0, select bank0
  4785  0EC4  1303               	bcf	3,6	;RP1=0, select bank0
  4786  0EC5  0099               	movwf	25	;volatile
  4787  0EC6                     l381:	
  4788                           ;PROYECTO.c: 583:             while(TXSTAbits.TRMT == 0);
  4789                           
  4790  0EC6  1683               	bsf	3,5	;RP0=1, select bank1
  4791  0EC7  1303               	bcf	3,6	;RP1=0, select bank1
  4792  0EC8  1C98               	btfss	24,1	;volatile
  4793  0EC9  2ECB               	goto	u1791
  4794  0ECA  2ECC               	goto	u1790
  4795  0ECB                     u1791:
  4796  0ECB  2EC6               	goto	l381
  4797  0ECC                     u1790:
  4798  0ECC  2E4E               	goto	l1996
  4799  0ECD                     l385:
  4800  0ECD  1683               	bsf	3,5	;RP0=1, select bank1
  4801  0ECE  1303               	bcf	3,6	;RP1=0, select bank1
  4802  0ECF  1C98               	btfss	24,1	;volatile
  4803  0ED0  2ED2               	goto	u1801
  4804  0ED1  2ED3               	goto	u1800
  4805  0ED2                     u1801:
  4806  0ED2  2ECD               	goto	l385
  4807  0ED3                     u1800:
  4808  0ED3                     l2022:
  4809                           
  4810                           ;PROYECTO.c: 589:             TXREG = 49;
  4811  0ED3  3031               	movlw	49
  4812  0ED4  1283               	bcf	3,5	;RP0=0, select bank0
  4813  0ED5  1303               	bcf	3,6	;RP1=0, select bank0
  4814  0ED6  0099               	movwf	25	;volatile
  4815  0ED7                     l388:	
  4816                           ;PROYECTO.c: 590:             while(TXSTAbits.TRMT == 0);
  4817                           
  4818  0ED7  1683               	bsf	3,5	;RP0=1, select bank1
  4819  0ED8  1303               	bcf	3,6	;RP1=0, select bank1
  4820  0ED9  1C98               	btfss	24,1	;volatile
  4821  0EDA  2EDC               	goto	u1811
  4822  0EDB  2EDD               	goto	u1810
  4823  0EDC                     u1811:
  4824  0EDC  2ED7               	goto	l388
  4825  0EDD                     u1810:
  4826  0EDD  2E59               	goto	l1998
  4827  0EDE                     l392:
  4828  0EDE  1683               	bsf	3,5	;RP0=1, select bank1
  4829  0EDF  1303               	bcf	3,6	;RP1=0, select bank1
  4830  0EE0  1C98               	btfss	24,1	;volatile
  4831  0EE1  2EE3               	goto	u1821
  4832  0EE2  2EE4               	goto	u1820
  4833  0EE3                     u1821:
  4834  0EE3  2EDE               	goto	l392
  4835  0EE4                     u1820:
  4836  0EE4                     l2026:
  4837                           
  4838                           ;PROYECTO.c: 596:             TXREG = 49;
  4839  0EE4  3031               	movlw	49
  4840  0EE5  1283               	bcf	3,5	;RP0=0, select bank0
  4841  0EE6  1303               	bcf	3,6	;RP1=0, select bank0
  4842  0EE7  0099               	movwf	25	;volatile
  4843  0EE8                     l395:	
  4844                           ;PROYECTO.c: 597:             while(TXSTAbits.TRMT == 0);
  4845                           
  4846  0EE8  1683               	bsf	3,5	;RP0=1, select bank1
  4847  0EE9  1303               	bcf	3,6	;RP1=0, select bank1
  4848  0EEA  1C98               	btfss	24,1	;volatile
  4849  0EEB  2EED               	goto	u1831
  4850  0EEC  2EEE               	goto	u1830
  4851  0EED                     u1831:
  4852  0EED  2EE8               	goto	l395
  4853  0EEE                     u1830:
  4854  0EEE  2E64               	goto	l2000
  4855  0EEF                     l399:
  4856  0EEF  1683               	bsf	3,5	;RP0=1, select bank1
  4857  0EF0  1303               	bcf	3,6	;RP1=0, select bank1
  4858  0EF1  1C98               	btfss	24,1	;volatile
  4859  0EF2  2EF4               	goto	u1841
  4860  0EF3  2EF5               	goto	u1840
  4861  0EF4                     u1841:
  4862  0EF4  2EEF               	goto	l399
  4863  0EF5                     u1840:
  4864  0EF5                     l2030:
  4865                           
  4866                           ;PROYECTO.c: 603:             TXREG = 49;
  4867  0EF5  3031               	movlw	49
  4868  0EF6  1283               	bcf	3,5	;RP0=0, select bank0
  4869  0EF7  1303               	bcf	3,6	;RP1=0, select bank0
  4870  0EF8  0099               	movwf	25	;volatile
  4871  0EF9                     l402:	
  4872                           ;PROYECTO.c: 604:             while(TXSTAbits.TRMT == 0);
  4873                           
  4874  0EF9  1683               	bsf	3,5	;RP0=1, select bank1
  4875  0EFA  1303               	bcf	3,6	;RP1=0, select bank1
  4876  0EFB  1C98               	btfss	24,1	;volatile
  4877  0EFC  2EFE               	goto	u1851
  4878  0EFD  2EFF               	goto	u1850
  4879  0EFE                     u1851:
  4880  0EFE  2EF9               	goto	l402
  4881  0EFF                     u1850:
  4882  0EFF  2E6F               	goto	l2002
  4883  0F00                     l406:
  4884  0F00  1683               	bsf	3,5	;RP0=1, select bank1
  4885  0F01  1303               	bcf	3,6	;RP1=0, select bank1
  4886  0F02  1C98               	btfss	24,1	;volatile
  4887  0F03  2F05               	goto	u1861
  4888  0F04  2F06               	goto	u1860
  4889  0F05                     u1861:
  4890  0F05  2F00               	goto	l406
  4891  0F06                     u1860:
  4892  0F06                     l2034:
  4893                           
  4894                           ;PROYECTO.c: 610:             TXREG = 49;
  4895  0F06  3031               	movlw	49
  4896  0F07  1283               	bcf	3,5	;RP0=0, select bank0
  4897  0F08  1303               	bcf	3,6	;RP1=0, select bank0
  4898  0F09  0099               	movwf	25	;volatile
  4899  0F0A                     l409:	
  4900                           ;PROYECTO.c: 611:             while(TXSTAbits.TRMT == 0);
  4901                           
  4902  0F0A  1683               	bsf	3,5	;RP0=1, select bank1
  4903  0F0B  1303               	bcf	3,6	;RP1=0, select bank1
  4904  0F0C  1C98               	btfss	24,1	;volatile
  4905  0F0D  2F0F               	goto	u1871
  4906  0F0E  2F10               	goto	u1870
  4907  0F0F                     u1871:
  4908  0F0F  2F0A               	goto	l409
  4909  0F10                     u1870:
  4910  0F10  2E7A               	goto	l2004
  4911  0F11                     l413:
  4912  0F11  1683               	bsf	3,5	;RP0=1, select bank1
  4913  0F12  1303               	bcf	3,6	;RP1=0, select bank1
  4914  0F13  1C98               	btfss	24,1	;volatile
  4915  0F14  2F16               	goto	u1881
  4916  0F15  2F17               	goto	u1880
  4917  0F16                     u1881:
  4918  0F16  2F11               	goto	l413
  4919  0F17                     u1880:
  4920  0F17                     l2038:
  4921                           
  4922                           ;PROYECTO.c: 617:             TXREG = 49;
  4923  0F17  3031               	movlw	49
  4924  0F18  1283               	bcf	3,5	;RP0=0, select bank0
  4925  0F19  1303               	bcf	3,6	;RP1=0, select bank0
  4926  0F1A  0099               	movwf	25	;volatile
  4927  0F1B                     l416:	
  4928                           ;PROYECTO.c: 618:             while(TXSTAbits.TRMT == 0);
  4929                           
  4930  0F1B  1683               	bsf	3,5	;RP0=1, select bank1
  4931  0F1C  1303               	bcf	3,6	;RP1=0, select bank1
  4932  0F1D  1C98               	btfss	24,1	;volatile
  4933  0F1E  2F20               	goto	u1891
  4934  0F1F  2F21               	goto	u1890
  4935  0F20                     u1891:
  4936  0F20  2F1B               	goto	l416
  4937  0F21                     u1890:
  4938  0F21  2E85               	goto	l2006
  4939  0F22                     l420:
  4940  0F22  1683               	bsf	3,5	;RP0=1, select bank1
  4941  0F23  1303               	bcf	3,6	;RP1=0, select bank1
  4942  0F24  1C98               	btfss	24,1	;volatile
  4943  0F25  2F27               	goto	u1901
  4944  0F26  2F28               	goto	u1900
  4945  0F27                     u1901:
  4946  0F27  2F22               	goto	l420
  4947  0F28                     u1900:
  4948  0F28                     l2042:
  4949                           
  4950                           ;PROYECTO.c: 624:             TXREG = 49;
  4951  0F28  3031               	movlw	49
  4952  0F29  1283               	bcf	3,5	;RP0=0, select bank0
  4953  0F2A  1303               	bcf	3,6	;RP1=0, select bank0
  4954  0F2B  0099               	movwf	25	;volatile
  4955  0F2C                     l423:	
  4956                           ;PROYECTO.c: 625:             while(TXSTAbits.TRMT == 0);
  4957                           
  4958  0F2C  1683               	bsf	3,5	;RP0=1, select bank1
  4959  0F2D  1303               	bcf	3,6	;RP1=0, select bank1
  4960  0F2E  1C98               	btfss	24,1	;volatile
  4961  0F2F  2F31               	goto	u1911
  4962  0F30  2F32               	goto	u1910
  4963  0F31                     u1911:
  4964  0F31  2F2C               	goto	l423
  4965  0F32                     u1910:
  4966  0F32  2E90               	goto	l2008
  4967  0F33                     l427:
  4968  0F33  1683               	bsf	3,5	;RP0=1, select bank1
  4969  0F34  1303               	bcf	3,6	;RP1=0, select bank1
  4970  0F35  1C98               	btfss	24,1	;volatile
  4971  0F36  2F38               	goto	u1921
  4972  0F37  2F39               	goto	u1920
  4973  0F38                     u1921:
  4974  0F38  2F33               	goto	l427
  4975  0F39                     u1920:
  4976  0F39                     l2046:
  4977                           
  4978                           ;PROYECTO.c: 631:             TXREG = 49;
  4979  0F39  3031               	movlw	49
  4980  0F3A  1283               	bcf	3,5	;RP0=0, select bank0
  4981  0F3B  1303               	bcf	3,6	;RP1=0, select bank0
  4982  0F3C  0099               	movwf	25	;volatile
  4983  0F3D                     l430:	
  4984                           ;PROYECTO.c: 632:             while(TXSTAbits.TRMT == 0);
  4985                           
  4986  0F3D  1683               	bsf	3,5	;RP0=1, select bank1
  4987  0F3E  1303               	bcf	3,6	;RP1=0, select bank1
  4988  0F3F  1C98               	btfss	24,1	;volatile
  4989  0F40  2F42               	goto	u1931
  4990  0F41  2F43               	goto	u1930
  4991  0F42                     u1931:
  4992  0F42  2F3D               	goto	l430
  4993  0F43                     u1930:
  4994  0F43  2E9B               	goto	l2010
  4995  0F44                     l434:
  4996  0F44  1683               	bsf	3,5	;RP0=1, select bank1
  4997  0F45  1303               	bcf	3,6	;RP1=0, select bank1
  4998  0F46  1C98               	btfss	24,1	;volatile
  4999  0F47  2F49               	goto	u1941
  5000  0F48  2F4A               	goto	u1940
  5001  0F49                     u1941:
  5002  0F49  2F44               	goto	l434
  5003  0F4A                     u1940:
  5004  0F4A                     l2050:
  5005                           
  5006                           ;PROYECTO.c: 638:             TXREG = 49;
  5007  0F4A  3031               	movlw	49
  5008  0F4B  1283               	bcf	3,5	;RP0=0, select bank0
  5009  0F4C  1303               	bcf	3,6	;RP1=0, select bank0
  5010  0F4D  0099               	movwf	25	;volatile
  5011  0F4E                     l437:	
  5012                           ;PROYECTO.c: 639:             while(TXSTAbits.TRMT == 0);
  5013                           
  5014  0F4E  1683               	bsf	3,5	;RP0=1, select bank1
  5015  0F4F  1303               	bcf	3,6	;RP1=0, select bank1
  5016  0F50  1C98               	btfss	24,1	;volatile
  5017  0F51  2F53               	goto	u1951
  5018  0F52  2F54               	goto	u1950
  5019  0F53                     u1951:
  5020  0F53  2F4E               	goto	l437
  5021  0F54                     u1950:
  5022  0F54  2EA6               	goto	l2012
  5023  0F55                     l441:
  5024  0F55  1683               	bsf	3,5	;RP0=1, select bank1
  5025  0F56  1303               	bcf	3,6	;RP1=0, select bank1
  5026  0F57  1C98               	btfss	24,1	;volatile
  5027  0F58  2F5A               	goto	u1961
  5028  0F59  2F5B               	goto	u1960
  5029  0F5A                     u1961:
  5030  0F5A  2F55               	goto	l441
  5031  0F5B                     u1960:
  5032  0F5B                     l2054:
  5033                           
  5034                           ;PROYECTO.c: 645:             TXREG = 50;
  5035  0F5B  3032               	movlw	50
  5036  0F5C  1283               	bcf	3,5	;RP0=0, select bank0
  5037  0F5D  1303               	bcf	3,6	;RP1=0, select bank0
  5038  0F5E  0099               	movwf	25	;volatile
  5039  0F5F                     l444:	
  5040                           ;PROYECTO.c: 646:             while(TXSTAbits.TRMT == 0);
  5041                           
  5042  0F5F  1683               	bsf	3,5	;RP0=1, select bank1
  5043  0F60  1303               	bcf	3,6	;RP1=0, select bank1
  5044  0F61  1C98               	btfss	24,1	;volatile
  5045  0F62  2F64               	goto	u1971
  5046  0F63  2F65               	goto	u1970
  5047  0F64                     u1971:
  5048  0F64  2F5F               	goto	l444
  5049  0F65                     u1970:
  5050  0F65  2E43               	goto	l1994
  5051  0F66                     l448:
  5052  0F66  1683               	bsf	3,5	;RP0=1, select bank1
  5053  0F67  1303               	bcf	3,6	;RP1=0, select bank1
  5054  0F68  1C98               	btfss	24,1	;volatile
  5055  0F69  2F6B               	goto	u1981
  5056  0F6A  2F6C               	goto	u1980
  5057  0F6B                     u1981:
  5058  0F6B  2F66               	goto	l448
  5059  0F6C                     u1980:
  5060  0F6C                     l2058:
  5061                           
  5062                           ;PROYECTO.c: 652:             TXREG = 50;
  5063  0F6C  3032               	movlw	50
  5064  0F6D  1283               	bcf	3,5	;RP0=0, select bank0
  5065  0F6E  1303               	bcf	3,6	;RP1=0, select bank0
  5066  0F6F  0099               	movwf	25	;volatile
  5067  0F70                     l451:	
  5068                           ;PROYECTO.c: 653:             while(TXSTAbits.TRMT == 0);
  5069                           
  5070  0F70  1683               	bsf	3,5	;RP0=1, select bank1
  5071  0F71  1303               	bcf	3,6	;RP1=0, select bank1
  5072  0F72  1C98               	btfss	24,1	;volatile
  5073  0F73  2F75               	goto	u1991
  5074  0F74  2F76               	goto	u1990
  5075  0F75                     u1991:
  5076  0F75  2F70               	goto	l451
  5077  0F76                     u1990:
  5078  0F76  2E4E               	goto	l1996
  5079  0F77                     l455:
  5080  0F77  1683               	bsf	3,5	;RP0=1, select bank1
  5081  0F78  1303               	bcf	3,6	;RP1=0, select bank1
  5082  0F79  1C98               	btfss	24,1	;volatile
  5083  0F7A  2F7C               	goto	u2001
  5084  0F7B  2F7D               	goto	u2000
  5085  0F7C                     u2001:
  5086  0F7C  2F77               	goto	l455
  5087  0F7D                     u2000:
  5088  0F7D                     l2062:
  5089                           
  5090                           ;PROYECTO.c: 659:             TXREG = 50;
  5091  0F7D  3032               	movlw	50
  5092  0F7E  1283               	bcf	3,5	;RP0=0, select bank0
  5093  0F7F  1303               	bcf	3,6	;RP1=0, select bank0
  5094  0F80  0099               	movwf	25	;volatile
  5095  0F81                     l458:	
  5096                           ;PROYECTO.c: 660:             while(TXSTAbits.TRMT == 0);
  5097                           
  5098  0F81  1683               	bsf	3,5	;RP0=1, select bank1
  5099  0F82  1303               	bcf	3,6	;RP1=0, select bank1
  5100  0F83  1C98               	btfss	24,1	;volatile
  5101  0F84  2F86               	goto	u2011
  5102  0F85  2F87               	goto	u2010
  5103  0F86                     u2011:
  5104  0F86  2F81               	goto	l458
  5105  0F87                     u2010:
  5106  0F87  2E59               	goto	l1998
  5107  0F88                     l462:
  5108  0F88  1683               	bsf	3,5	;RP0=1, select bank1
  5109  0F89  1303               	bcf	3,6	;RP1=0, select bank1
  5110  0F8A  1C98               	btfss	24,1	;volatile
  5111  0F8B  2F8D               	goto	u2021
  5112  0F8C  2F8E               	goto	u2020
  5113  0F8D                     u2021:
  5114  0F8D  2F88               	goto	l462
  5115  0F8E                     u2020:
  5116  0F8E                     l2066:
  5117                           
  5118                           ;PROYECTO.c: 666:             TXREG = 50;
  5119  0F8E  3032               	movlw	50
  5120  0F8F  1283               	bcf	3,5	;RP0=0, select bank0
  5121  0F90  1303               	bcf	3,6	;RP1=0, select bank0
  5122  0F91  0099               	movwf	25	;volatile
  5123  0F92                     l465:	
  5124                           ;PROYECTO.c: 667:             while(TXSTAbits.TRMT == 0);
  5125                           
  5126  0F92  1683               	bsf	3,5	;RP0=1, select bank1
  5127  0F93  1303               	bcf	3,6	;RP1=0, select bank1
  5128  0F94  1C98               	btfss	24,1	;volatile
  5129  0F95  2F97               	goto	u2031
  5130  0F96  2F98               	goto	u2030
  5131  0F97                     u2031:
  5132  0F97  2F92               	goto	l465
  5133  0F98                     u2030:
  5134  0F98  2E64               	goto	l2000
  5135  0F99                     l469:
  5136  0F99  1683               	bsf	3,5	;RP0=1, select bank1
  5137  0F9A  1303               	bcf	3,6	;RP1=0, select bank1
  5138  0F9B  1C98               	btfss	24,1	;volatile
  5139  0F9C  2F9E               	goto	u2041
  5140  0F9D  2F9F               	goto	u2040
  5141  0F9E                     u2041:
  5142  0F9E  2F99               	goto	l469
  5143  0F9F                     u2040:
  5144  0F9F                     l2070:
  5145                           
  5146                           ;PROYECTO.c: 673:             TXREG = 50;
  5147  0F9F  3032               	movlw	50
  5148  0FA0  1283               	bcf	3,5	;RP0=0, select bank0
  5149  0FA1  1303               	bcf	3,6	;RP1=0, select bank0
  5150  0FA2  0099               	movwf	25	;volatile
  5151  0FA3                     l472:	
  5152                           ;PROYECTO.c: 674:             while(TXSTAbits.TRMT == 0);
  5153                           
  5154  0FA3  1683               	bsf	3,5	;RP0=1, select bank1
  5155  0FA4  1303               	bcf	3,6	;RP1=0, select bank1
  5156  0FA5  1C98               	btfss	24,1	;volatile
  5157  0FA6  2FA8               	goto	u2051
  5158  0FA7  2FA9               	goto	u2050
  5159  0FA8                     u2051:
  5160  0FA8  2FA3               	goto	l472
  5161  0FA9                     u2050:
  5162  0FA9  2E6F               	goto	l2002
  5163  0FAA                     l2076:
  5164  0FAA  087A               	movf	SendCharH@in,w
  5165  0FAB  00F8               	movwf	??_SendCharH
  5166  0FAC  01F9               	clrf	??_SendCharH+1
  5167                           
  5168                           ; Switch on 2 bytes has been partitioned into a top level switch of size 1, and 1 sub-sw
      +                          itches
  5169                           ; Switch size 1, requested type "simple"
  5170                           ; Number of cases is 1, Range of values is 0 to 0
  5171                           ; switch strategies available:
  5172                           ; Name         Instructions Cycles
  5173                           ; simple_byte            4     3 (average)
  5174                           ; direct_byte           11     8 (fixed)
  5175                           ; jumptable            260     6 (fixed)
  5176                           ;	Chosen strategy is simple_byte
  5177  0FAD  0879               	movf	??_SendCharH+1,w
  5178  0FAE  3A00               	xorlw	0	; case 0
  5179  0FAF  1903               	skipnz
  5180  0FB0  2FB2               	goto	l3470
  5181  0FB1  2FFF               	goto	l475
  5182  0FB2                     l3470:
  5183                           
  5184                           ; Switch size 1, requested type "simple"
  5185                           ; Number of cases is 25, Range of values is 0 to 24
  5186                           ; switch strategies available:
  5187                           ; Name         Instructions Cycles
  5188                           ; simple_byte           76    39 (average)
  5189                           ; direct_byte           83     8 (fixed)
  5190                           ; jumptable            260     6 (fixed)
  5191                           ;	Chosen strategy is simple_byte
  5192  0FB2  0878               	movf	??_SendCharH,w
  5193  0FB3  3A00               	xorlw	0	; case 0
  5194  0FB4  1903               	skipnz
  5195  0FB5  2E3D               	goto	l330
  5196  0FB6  3A01               	xorlw	1	; case 1
  5197  0FB7  1903               	skipnz
  5198  0FB8  2E48               	goto	l335
  5199  0FB9  3A03               	xorlw	3	; case 2
  5200  0FBA  1903               	skipnz
  5201  0FBB  2E53               	goto	l339
  5202  0FBC  3A01               	xorlw	1	; case 3
  5203  0FBD  1903               	skipnz
  5204  0FBE  2E5E               	goto	l343
  5205  0FBF  3A07               	xorlw	7	; case 4
  5206  0FC0  1903               	skipnz
  5207  0FC1  2E69               	goto	l347
  5208  0FC2  3A01               	xorlw	1	; case 5
  5209  0FC3  1903               	skipnz
  5210  0FC4  2E74               	goto	l351
  5211  0FC5  3A03               	xorlw	3	; case 6
  5212  0FC6  1903               	skipnz
  5213  0FC7  2E7F               	goto	l355
  5214  0FC8  3A01               	xorlw	1	; case 7
  5215  0FC9  1903               	skipnz
  5216  0FCA  2E8A               	goto	l359
  5217  0FCB  3A0F               	xorlw	15	; case 8
  5218  0FCC  1903               	skipnz
  5219  0FCD  2E95               	goto	l363
  5220  0FCE  3A01               	xorlw	1	; case 9
  5221  0FCF  1903               	skipnz
  5222  0FD0  2EA0               	goto	l367
  5223  0FD1  3A03               	xorlw	3	; case 10
  5224  0FD2  1903               	skipnz
  5225  0FD3  2EAB               	goto	l371
  5226  0FD4  3A01               	xorlw	1	; case 11
  5227  0FD5  1903               	skipnz
  5228  0FD6  2EBC               	goto	l378
  5229  0FD7  3A07               	xorlw	7	; case 12
  5230  0FD8  1903               	skipnz
  5231  0FD9  2ECD               	goto	l385
  5232  0FDA  3A01               	xorlw	1	; case 13
  5233  0FDB  1903               	skipnz
  5234  0FDC  2EDE               	goto	l392
  5235  0FDD  3A03               	xorlw	3	; case 14
  5236  0FDE  1903               	skipnz
  5237  0FDF  2EEF               	goto	l399
  5238  0FE0  3A01               	xorlw	1	; case 15
  5239  0FE1  1903               	skipnz
  5240  0FE2  2F00               	goto	l406
  5241  0FE3  3A1F               	xorlw	31	; case 16
  5242  0FE4  1903               	skipnz
  5243  0FE5  2F11               	goto	l413
  5244  0FE6  3A01               	xorlw	1	; case 17
  5245  0FE7  1903               	skipnz
  5246  0FE8  2F22               	goto	l420
  5247  0FE9  3A03               	xorlw	3	; case 18
  5248  0FEA  1903               	skipnz
  5249  0FEB  2F33               	goto	l427
  5250  0FEC  3A01               	xorlw	1	; case 19
  5251  0FED  1903               	skipnz
  5252  0FEE  2F44               	goto	l434
  5253  0FEF  3A07               	xorlw	7	; case 20
  5254  0FF0  1903               	skipnz
  5255  0FF1  2F55               	goto	l441
  5256  0FF2  3A01               	xorlw	1	; case 21
  5257  0FF3  1903               	skipnz
  5258  0FF4  2F66               	goto	l448
  5259  0FF5  3A03               	xorlw	3	; case 22
  5260  0FF6  1903               	skipnz
  5261  0FF7  2F77               	goto	l455
  5262  0FF8  3A01               	xorlw	1	; case 23
  5263  0FF9  1903               	skipnz
  5264  0FFA  2F88               	goto	l462
  5265  0FFB  3A0F               	xorlw	15	; case 24
  5266  0FFC  1903               	skipnz
  5267  0FFD  2F99               	goto	l469
  5268  0FFE  2FFF               	goto	l475
  5269  0FFF                     l475:
  5270  0FFF  0008               	return
  5271  1000                     __end_of_SendCharH:
  5272                           
  5273                           	psect	text6
  5274  0CDC                     __ptext6:	
  5275 ;; *************** function _CharToNumM *****************
  5276 ;; Defined at:
  5277 ;;		line 775 in file "PROYECTO.c"
  5278 ;; Parameters:    Size  Location     Type
  5279 ;;  in              1    wreg     unsigned char 
  5280 ;;  her             1    2[COMMON] unsigned char 
  5281 ;; Auto vars:     Size  Location     Type
  5282 ;;  in              1    4[COMMON] unsigned char 
  5283 ;; Return value:  Size  Location     Type
  5284 ;;                  1    wreg      unsigned char 
  5285 ;; Registers used:
  5286 ;;		wreg, status,2, status,0
  5287 ;; Tracked objects:
  5288 ;;		On entry : 0/0
  5289 ;;		On exit  : 0/0
  5290 ;;		Unchanged: 0/0
  5291 ;; Data sizes:     COMMON   BANK0   BANK1   BANK3   BANK2
  5292 ;;      Params:         1       0       0       0       0
  5293 ;;      Locals:         1       0       0       0       0
  5294 ;;      Temps:          1       0       0       0       0
  5295 ;;      Totals:         3       0       0       0       0
  5296 ;;Total ram usage:        3 bytes
  5297 ;; Hardware stack levels used:    1
  5298 ;; Hardware stack levels required when called:    1
  5299 ;; This function calls:
  5300 ;;		Nothing
  5301 ;; This function is called by:
  5302 ;;		_main
  5303 ;; This function uses a non-reentrant model
  5304 ;;
  5305                           
  5306                           
  5307                           ;psect for function _CharToNumM
  5308  0CDC                     _CharToNumM:
  5309                           
  5310                           ;incstack = 0
  5311                           ; Regs used in _CharToNumM: [wreg+status,2+status,0]
  5312                           ;CharToNumM@in stored from wreg
  5313  0CDC  00FA               	movwf	CharToNumM@in
  5314  0CDD                     l2166:
  5315                           
  5316                           ;PROYECTO.c: 776:     if(in == 'a'){
  5317  0CDD  3061               	movlw	97
  5318  0CDE  067A               	xorwf	CharToNumM@in,w
  5319  0CDF  1D03               	btfss	3,2
  5320  0CE0  2CE2               	goto	u2121
  5321  0CE1  2CE3               	goto	u2120
  5322  0CE2                     u2121:
  5323  0CE2  2CE5               	goto	l2170
  5324  0CE3                     u2120:
  5325  0CE3                     l2168:
  5326                           
  5327                           ;PROYECTO.c: 777:         her = 0;
  5328  0CE3  01F8               	clrf	CharToNumM@her
  5329                           
  5330                           ;PROYECTO.c: 778:     }else if(in == 'b'){
  5331  0CE4  2D11               	goto	l524
  5332  0CE5                     l2170:
  5333  0CE5  3062               	movlw	98
  5334  0CE6  067A               	xorwf	CharToNumM@in,w
  5335  0CE7  1D03               	btfss	3,2
  5336  0CE8  2CEA               	goto	u2131
  5337  0CE9  2CEB               	goto	u2130
  5338  0CEA                     u2131:
  5339  0CEA  2CF0               	goto	l2174
  5340  0CEB                     u2130:
  5341  0CEB                     l2172:
  5342                           
  5343                           ;PROYECTO.c: 779:         her = 15;
  5344  0CEB  300F               	movlw	15
  5345  0CEC  00F9               	movwf	??_CharToNumM
  5346  0CED  0879               	movf	??_CharToNumM,w
  5347  0CEE  00F8               	movwf	CharToNumM@her
  5348                           
  5349                           ;PROYECTO.c: 780:     }else if(in == 'c'){
  5350  0CEF  2D11               	goto	l524
  5351  0CF0                     l2174:
  5352  0CF0  3063               	movlw	99
  5353  0CF1  067A               	xorwf	CharToNumM@in,w
  5354  0CF2  1D03               	btfss	3,2
  5355  0CF3  2CF5               	goto	u2141
  5356  0CF4  2CF6               	goto	u2140
  5357  0CF5                     u2141:
  5358  0CF5  2CFB               	goto	l2178
  5359  0CF6                     u2140:
  5360  0CF6                     l2176:
  5361                           
  5362                           ;PROYECTO.c: 781:         her = 30;
  5363  0CF6  301E               	movlw	30
  5364  0CF7  00F9               	movwf	??_CharToNumM
  5365  0CF8  0879               	movf	??_CharToNumM,w
  5366  0CF9  00F8               	movwf	CharToNumM@her
  5367                           
  5368                           ;PROYECTO.c: 782:     }else if(in == 'd'){
  5369  0CFA  2D11               	goto	l524
  5370  0CFB                     l2178:
  5371  0CFB  3064               	movlw	100
  5372  0CFC  067A               	xorwf	CharToNumM@in,w
  5373  0CFD  1D03               	btfss	3,2
  5374  0CFE  2D00               	goto	u2151
  5375  0CFF  2D01               	goto	u2150
  5376  0D00                     u2151:
  5377  0D00  2D06               	goto	l2182
  5378  0D01                     u2150:
  5379  0D01                     l2180:
  5380                           
  5381                           ;PROYECTO.c: 783:         her = 45;
  5382  0D01  302D               	movlw	45
  5383  0D02  00F9               	movwf	??_CharToNumM
  5384  0D03  0879               	movf	??_CharToNumM,w
  5385  0D04  00F8               	movwf	CharToNumM@her
  5386                           
  5387                           ;PROYECTO.c: 784:     }else if(in == 'e'){
  5388  0D05  2D11               	goto	l524
  5389  0D06                     l2182:
  5390  0D06  3065               	movlw	101
  5391  0D07  067A               	xorwf	CharToNumM@in,w
  5392  0D08  1D03               	btfss	3,2
  5393  0D09  2D0B               	goto	u2161
  5394  0D0A  2D0C               	goto	u2160
  5395  0D0B                     u2161:
  5396  0D0B  2D11               	goto	l528
  5397  0D0C                     u2160:
  5398  0D0C                     l2184:
  5399                           
  5400                           ;PROYECTO.c: 785:         her = 55;
  5401  0D0C  3037               	movlw	55
  5402  0D0D  00F9               	movwf	??_CharToNumM
  5403  0D0E  0879               	movf	??_CharToNumM,w
  5404  0D0F  00F8               	movwf	CharToNumM@her
  5405  0D10  2D11               	goto	l524
  5406  0D11                     l528:
  5407  0D11                     l524:
  5408                           
  5409                           ;PROYECTO.c: 787:     return her;
  5410  0D11  0878               	movf	CharToNumM@her,w
  5411  0D12                     l532:
  5412  0D12  0008               	return
  5413  0D13                     __end_of_CharToNumM:
  5414                           
  5415                           	psect	text7
  5416  0D6A                     __ptext7:	
  5417 ;; *************** function _CharToNumH *****************
  5418 ;; Defined at:
  5419 ;;		line 695 in file "PROYECTO.c"
  5420 ;; Parameters:    Size  Location     Type
  5421 ;;  in              1    wreg     unsigned char 
  5422 ;;  hora_user       1    2[COMMON] unsigned char 
  5423 ;; Auto vars:     Size  Location     Type
  5424 ;;  in              1    5[COMMON] unsigned char 
  5425 ;; Return value:  Size  Location     Type
  5426 ;;                  1    wreg      unsigned char 
  5427 ;; Registers used:
  5428 ;;		wreg, fsr0l, fsr0h, status,2, status,0
  5429 ;; Tracked objects:
  5430 ;;		On entry : 0/0
  5431 ;;		On exit  : 0/0
  5432 ;;		Unchanged: 0/0
  5433 ;; Data sizes:     COMMON   BANK0   BANK1   BANK3   BANK2
  5434 ;;      Params:         1       0       0       0       0
  5435 ;;      Locals:         1       0       0       0       0
  5436 ;;      Temps:          2       0       0       0       0
  5437 ;;      Totals:         4       0       0       0       0
  5438 ;;Total ram usage:        4 bytes
  5439 ;; Hardware stack levels used:    1
  5440 ;; Hardware stack levels required when called:    1
  5441 ;; This function calls:
  5442 ;;		Nothing
  5443 ;; This function is called by:
  5444 ;;		_main
  5445 ;; This function uses a non-reentrant model
  5446 ;;
  5447                           
  5448                           
  5449                           ;psect for function _CharToNumH
  5450  0D6A                     _CharToNumH:
  5451                           
  5452                           ;incstack = 0
  5453                           ; Regs used in _CharToNumH: [wreg-fsr0h+status,2+status,0]
  5454                           ;CharToNumH@in stored from wreg
  5455  0D6A  00FB               	movwf	CharToNumH@in
  5456  0D6B                     l2104:
  5457                           
  5458                           ;PROYECTO.c: 696:     switch(in){
  5459  0D6B  2DE4               	goto	l2156
  5460  0D6C                     l2106:
  5461                           
  5462                           ;PROYECTO.c: 698:             hora_user = 0;
  5463  0D6C  01F8               	clrf	CharToNumH@hora_user
  5464                           
  5465                           ;PROYECTO.c: 699:             break;
  5466  0D6D  2E39               	goto	l2158
  5467  0D6E                     l496:	
  5468                           ;PROYECTO.c: 700:         case('b'):
  5469                           
  5470                           
  5471                           ;PROYECTO.c: 701:             hora_user = 1;
  5472  0D6E  01F8               	clrf	CharToNumH@hora_user
  5473  0D6F  0AF8               	incf	CharToNumH@hora_user,f
  5474                           
  5475                           ;PROYECTO.c: 702:             break;
  5476  0D70  2E39               	goto	l2158
  5477  0D71                     l2108:
  5478                           
  5479                           ;PROYECTO.c: 704:             hora_user = 2;
  5480  0D71  3002               	movlw	2
  5481  0D72  00F9               	movwf	??_CharToNumH
  5482  0D73  0879               	movf	??_CharToNumH,w
  5483  0D74  00F8               	movwf	CharToNumH@hora_user
  5484                           
  5485                           ;PROYECTO.c: 705:             break;
  5486  0D75  2E39               	goto	l2158
  5487  0D76                     l2110:
  5488                           
  5489                           ;PROYECTO.c: 707:             hora_user = 3;
  5490  0D76  3003               	movlw	3
  5491  0D77  00F9               	movwf	??_CharToNumH
  5492  0D78  0879               	movf	??_CharToNumH,w
  5493  0D79  00F8               	movwf	CharToNumH@hora_user
  5494                           
  5495                           ;PROYECTO.c: 708:             break;
  5496  0D7A  2E39               	goto	l2158
  5497  0D7B                     l2112:
  5498                           
  5499                           ;PROYECTO.c: 710:             hora_user = 4;
  5500  0D7B  3004               	movlw	4
  5501  0D7C  00F9               	movwf	??_CharToNumH
  5502  0D7D  0879               	movf	??_CharToNumH,w
  5503  0D7E  00F8               	movwf	CharToNumH@hora_user
  5504                           
  5505                           ;PROYECTO.c: 711:             break;
  5506  0D7F  2E39               	goto	l2158
  5507  0D80                     l2114:
  5508                           
  5509                           ;PROYECTO.c: 713:             hora_user = 5;
  5510  0D80  3005               	movlw	5
  5511  0D81  00F9               	movwf	??_CharToNumH
  5512  0D82  0879               	movf	??_CharToNumH,w
  5513  0D83  00F8               	movwf	CharToNumH@hora_user
  5514                           
  5515                           ;PROYECTO.c: 714:             break;
  5516  0D84  2E39               	goto	l2158
  5517  0D85                     l2116:
  5518                           
  5519                           ;PROYECTO.c: 716:             hora_user = 6;
  5520  0D85  3006               	movlw	6
  5521  0D86  00F9               	movwf	??_CharToNumH
  5522  0D87  0879               	movf	??_CharToNumH,w
  5523  0D88  00F8               	movwf	CharToNumH@hora_user
  5524                           
  5525                           ;PROYECTO.c: 717:             break;
  5526  0D89  2E39               	goto	l2158
  5527  0D8A                     l2118:
  5528                           
  5529                           ;PROYECTO.c: 719:             hora_user = 7;
  5530  0D8A  3007               	movlw	7
  5531  0D8B  00F9               	movwf	??_CharToNumH
  5532  0D8C  0879               	movf	??_CharToNumH,w
  5533  0D8D  00F8               	movwf	CharToNumH@hora_user
  5534                           
  5535                           ;PROYECTO.c: 720:             break;
  5536  0D8E  2E39               	goto	l2158
  5537  0D8F                     l2120:
  5538                           
  5539                           ;PROYECTO.c: 722:             hora_user = 8;
  5540  0D8F  3008               	movlw	8
  5541  0D90  00F9               	movwf	??_CharToNumH
  5542  0D91  0879               	movf	??_CharToNumH,w
  5543  0D92  00F8               	movwf	CharToNumH@hora_user
  5544                           
  5545                           ;PROYECTO.c: 723:             break;
  5546  0D93  2E39               	goto	l2158
  5547  0D94                     l2122:
  5548                           
  5549                           ;PROYECTO.c: 725:             hora_user = 9;
  5550  0D94  3009               	movlw	9
  5551  0D95  00F9               	movwf	??_CharToNumH
  5552  0D96  0879               	movf	??_CharToNumH,w
  5553  0D97  00F8               	movwf	CharToNumH@hora_user
  5554                           
  5555                           ;PROYECTO.c: 726:             break;
  5556  0D98  2E39               	goto	l2158
  5557  0D99                     l2124:
  5558                           
  5559                           ;PROYECTO.c: 728:             hora_user = 10;
  5560  0D99  300A               	movlw	10
  5561  0D9A  00F9               	movwf	??_CharToNumH
  5562  0D9B  0879               	movf	??_CharToNumH,w
  5563  0D9C  00F8               	movwf	CharToNumH@hora_user
  5564                           
  5565                           ;PROYECTO.c: 729:             break;
  5566  0D9D  2E39               	goto	l2158
  5567  0D9E                     l2126:
  5568                           
  5569                           ;PROYECTO.c: 731:             hora_user = 11;
  5570  0D9E  300B               	movlw	11
  5571  0D9F  00F9               	movwf	??_CharToNumH
  5572  0DA0  0879               	movf	??_CharToNumH,w
  5573  0DA1  00F8               	movwf	CharToNumH@hora_user
  5574                           
  5575                           ;PROYECTO.c: 732:             break;
  5576  0DA2  2E39               	goto	l2158
  5577  0DA3                     l2128:
  5578                           
  5579                           ;PROYECTO.c: 734:             hora_user = 12;
  5580  0DA3  300C               	movlw	12
  5581  0DA4  00F9               	movwf	??_CharToNumH
  5582  0DA5  0879               	movf	??_CharToNumH,w
  5583  0DA6  00F8               	movwf	CharToNumH@hora_user
  5584                           
  5585                           ;PROYECTO.c: 735:             break;
  5586  0DA7  2E39               	goto	l2158
  5587  0DA8                     l2130:
  5588                           
  5589                           ;PROYECTO.c: 737:             hora_user = 13;
  5590  0DA8  300D               	movlw	13
  5591  0DA9  00F9               	movwf	??_CharToNumH
  5592  0DAA  0879               	movf	??_CharToNumH,w
  5593  0DAB  00F8               	movwf	CharToNumH@hora_user
  5594                           
  5595                           ;PROYECTO.c: 738:             break;
  5596  0DAC  2E39               	goto	l2158
  5597  0DAD                     l2132:
  5598                           
  5599                           ;PROYECTO.c: 740:             hora_user = 14;
  5600  0DAD  300E               	movlw	14
  5601  0DAE  00F9               	movwf	??_CharToNumH
  5602  0DAF  0879               	movf	??_CharToNumH,w
  5603  0DB0  00F8               	movwf	CharToNumH@hora_user
  5604                           
  5605                           ;PROYECTO.c: 741:             break;
  5606  0DB1  2E39               	goto	l2158
  5607  0DB2                     l2134:
  5608                           
  5609                           ;PROYECTO.c: 743:             hora_user = 15;
  5610  0DB2  300F               	movlw	15
  5611  0DB3  00F9               	movwf	??_CharToNumH
  5612  0DB4  0879               	movf	??_CharToNumH,w
  5613  0DB5  00F8               	movwf	CharToNumH@hora_user
  5614                           
  5615                           ;PROYECTO.c: 744:             break;
  5616  0DB6  2E39               	goto	l2158
  5617  0DB7                     l2136:
  5618                           
  5619                           ;PROYECTO.c: 746:             hora_user = 16;
  5620  0DB7  3010               	movlw	16
  5621  0DB8  00F9               	movwf	??_CharToNumH
  5622  0DB9  0879               	movf	??_CharToNumH,w
  5623  0DBA  00F8               	movwf	CharToNumH@hora_user
  5624                           
  5625                           ;PROYECTO.c: 747:             break;
  5626  0DBB  2E39               	goto	l2158
  5627  0DBC                     l2138:
  5628                           
  5629                           ;PROYECTO.c: 749:             hora_user = 17;
  5630  0DBC  3011               	movlw	17
  5631  0DBD  00F9               	movwf	??_CharToNumH
  5632  0DBE  0879               	movf	??_CharToNumH,w
  5633  0DBF  00F8               	movwf	CharToNumH@hora_user
  5634                           
  5635                           ;PROYECTO.c: 750:             break;
  5636  0DC0  2E39               	goto	l2158
  5637  0DC1                     l2140:
  5638                           
  5639                           ;PROYECTO.c: 752:             hora_user = 18;
  5640  0DC1  3012               	movlw	18
  5641  0DC2  00F9               	movwf	??_CharToNumH
  5642  0DC3  0879               	movf	??_CharToNumH,w
  5643  0DC4  00F8               	movwf	CharToNumH@hora_user
  5644                           
  5645                           ;PROYECTO.c: 753:             break;
  5646  0DC5  2E39               	goto	l2158
  5647  0DC6                     l2142:
  5648                           
  5649                           ;PROYECTO.c: 755:             hora_user = 19;
  5650  0DC6  3013               	movlw	19
  5651  0DC7  00F9               	movwf	??_CharToNumH
  5652  0DC8  0879               	movf	??_CharToNumH,w
  5653  0DC9  00F8               	movwf	CharToNumH@hora_user
  5654                           
  5655                           ;PROYECTO.c: 756:             break;
  5656  0DCA  2E39               	goto	l2158
  5657  0DCB                     l2144:
  5658                           
  5659                           ;PROYECTO.c: 758:             hora_user = 20;
  5660  0DCB  3014               	movlw	20
  5661  0DCC  00F9               	movwf	??_CharToNumH
  5662  0DCD  0879               	movf	??_CharToNumH,w
  5663  0DCE  00F8               	movwf	CharToNumH@hora_user
  5664                           
  5665                           ;PROYECTO.c: 759:             break;
  5666  0DCF  2E39               	goto	l2158
  5667  0DD0                     l2146:
  5668                           
  5669                           ;PROYECTO.c: 761:             hora_user = 21;
  5670  0DD0  3015               	movlw	21
  5671  0DD1  00F9               	movwf	??_CharToNumH
  5672  0DD2  0879               	movf	??_CharToNumH,w
  5673  0DD3  00F8               	movwf	CharToNumH@hora_user
  5674                           
  5675                           ;PROYECTO.c: 762:             break;
  5676  0DD4  2E39               	goto	l2158
  5677  0DD5                     l2148:
  5678                           
  5679                           ;PROYECTO.c: 764:             hora_user = 22;
  5680  0DD5  3016               	movlw	22
  5681  0DD6  00F9               	movwf	??_CharToNumH
  5682  0DD7  0879               	movf	??_CharToNumH,w
  5683  0DD8  00F8               	movwf	CharToNumH@hora_user
  5684                           
  5685                           ;PROYECTO.c: 765:             break;
  5686  0DD9  2E39               	goto	l2158
  5687  0DDA                     l2150:
  5688                           
  5689                           ;PROYECTO.c: 767:             hora_user = 23;
  5690  0DDA  3017               	movlw	23
  5691  0DDB  00F9               	movwf	??_CharToNumH
  5692  0DDC  0879               	movf	??_CharToNumH,w
  5693  0DDD  00F8               	movwf	CharToNumH@hora_user
  5694                           
  5695                           ;PROYECTO.c: 768:             break;
  5696  0DDE  2E39               	goto	l2158
  5697  0DDF                     l2152:
  5698                           
  5699                           ;PROYECTO.c: 770:             hora_user = 24;
  5700  0DDF  3018               	movlw	24
  5701  0DE0  00F9               	movwf	??_CharToNumH
  5702  0DE1  0879               	movf	??_CharToNumH,w
  5703  0DE2  00F8               	movwf	CharToNumH@hora_user
  5704                           
  5705                           ;PROYECTO.c: 771:             break;
  5706  0DE3  2E39               	goto	l2158
  5707  0DE4                     l2156:
  5708  0DE4  087B               	movf	CharToNumH@in,w
  5709  0DE5  00F9               	movwf	??_CharToNumH
  5710  0DE6  01FA               	clrf	??_CharToNumH+1
  5711                           
  5712                           ; Switch on 2 bytes has been partitioned into a top level switch of size 1, and 1 sub-sw
      +                          itches
  5713                           ; Switch size 1, requested type "simple"
  5714                           ; Number of cases is 1, Range of values is 0 to 0
  5715                           ; switch strategies available:
  5716                           ; Name         Instructions Cycles
  5717                           ; simple_byte            4     3 (average)
  5718                           ; direct_byte           11     8 (fixed)
  5719                           ; jumptable            260     6 (fixed)
  5720                           ;	Chosen strategy is simple_byte
  5721  0DE7  087A               	movf	??_CharToNumH+1,w
  5722  0DE8  3A00               	xorlw	0	; case 0
  5723  0DE9  1903               	skipnz
  5724  0DEA  2DEC               	goto	l3472
  5725  0DEB  2E39               	goto	l2158
  5726  0DEC                     l3472:
  5727                           
  5728                           ; Switch size 1, requested type "simple"
  5729                           ; Number of cases is 25, Range of values is 97 to 121
  5730                           ; switch strategies available:
  5731                           ; Name         Instructions Cycles
  5732                           ; simple_byte           76    39 (average)
  5733                           ; direct_byte           86    11 (fixed)
  5734                           ; jumptable            263     9 (fixed)
  5735                           ;	Chosen strategy is simple_byte
  5736  0DEC  0879               	movf	??_CharToNumH,w
  5737  0DED  3A61               	xorlw	97	; case 97
  5738  0DEE  1903               	skipnz
  5739  0DEF  2D6C               	goto	l2106
  5740  0DF0  3A03               	xorlw	3	; case 98
  5741  0DF1  1903               	skipnz
  5742  0DF2  2D6E               	goto	l496
  5743  0DF3  3A01               	xorlw	1	; case 99
  5744  0DF4  1903               	skipnz
  5745  0DF5  2D71               	goto	l2108
  5746  0DF6  3A07               	xorlw	7	; case 100
  5747  0DF7  1903               	skipnz
  5748  0DF8  2D76               	goto	l2110
  5749  0DF9  3A01               	xorlw	1	; case 101
  5750  0DFA  1903               	skipnz
  5751  0DFB  2D7B               	goto	l2112
  5752  0DFC  3A03               	xorlw	3	; case 102
  5753  0DFD  1903               	skipnz
  5754  0DFE  2D80               	goto	l2114
  5755  0DFF  3A01               	xorlw	1	; case 103
  5756  0E00  1903               	skipnz
  5757  0E01  2D85               	goto	l2116
  5758  0E02  3A0F               	xorlw	15	; case 104
  5759  0E03  1903               	skipnz
  5760  0E04  2D8A               	goto	l2118
  5761  0E05  3A01               	xorlw	1	; case 105
  5762  0E06  1903               	skipnz
  5763  0E07  2D8F               	goto	l2120
  5764  0E08  3A03               	xorlw	3	; case 106
  5765  0E09  1903               	skipnz
  5766  0E0A  2D94               	goto	l2122
  5767  0E0B  3A01               	xorlw	1	; case 107
  5768  0E0C  1903               	skipnz
  5769  0E0D  2D99               	goto	l2124
  5770  0E0E  3A07               	xorlw	7	; case 108
  5771  0E0F  1903               	skipnz
  5772  0E10  2D9E               	goto	l2126
  5773  0E11  3A01               	xorlw	1	; case 109
  5774  0E12  1903               	skipnz
  5775  0E13  2DA3               	goto	l2128
  5776  0E14  3A03               	xorlw	3	; case 110
  5777  0E15  1903               	skipnz
  5778  0E16  2DA8               	goto	l2130
  5779  0E17  3A01               	xorlw	1	; case 111
  5780  0E18  1903               	skipnz
  5781  0E19  2DAD               	goto	l2132
  5782  0E1A  3A1F               	xorlw	31	; case 112
  5783  0E1B  1903               	skipnz
  5784  0E1C  2DB2               	goto	l2134
  5785  0E1D  3A01               	xorlw	1	; case 113
  5786  0E1E  1903               	skipnz
  5787  0E1F  2DB7               	goto	l2136
  5788  0E20  3A03               	xorlw	3	; case 114
  5789  0E21  1903               	skipnz
  5790  0E22  2DBC               	goto	l2138
  5791  0E23  3A01               	xorlw	1	; case 115
  5792  0E24  1903               	skipnz
  5793  0E25  2DC1               	goto	l2140
  5794  0E26  3A07               	xorlw	7	; case 116
  5795  0E27  1903               	skipnz
  5796  0E28  2DC6               	goto	l2142
  5797  0E29  3A01               	xorlw	1	; case 117
  5798  0E2A  1903               	skipnz
  5799  0E2B  2DCB               	goto	l2144
  5800  0E2C  3A03               	xorlw	3	; case 118
  5801  0E2D  1903               	skipnz
  5802  0E2E  2DD0               	goto	l2146
  5803  0E2F  3A01               	xorlw	1	; case 119
  5804  0E30  1903               	skipnz
  5805  0E31  2DD5               	goto	l2148
  5806  0E32  3A0F               	xorlw	15	; case 120
  5807  0E33  1903               	skipnz
  5808  0E34  2DDA               	goto	l2150
  5809  0E35  3A01               	xorlw	1	; case 121
  5810  0E36  1903               	skipnz
  5811  0E37  2DDF               	goto	l2152
  5812  0E38  2E39               	goto	l2158
  5813  0E39                     l2158:
  5814                           
  5815                           ;PROYECTO.c: 773:     return hora_user;
  5816  0E39  0878               	movf	CharToNumH@hora_user,w
  5817  0E3A                     l520:
  5818  0E3A  0008               	return
  5819  0E3B                     __end_of_CharToNumH:
  5820                           
  5821                           	psect	text8
  5822  0C9B                     __ptext8:	
  5823 ;; *************** function _isr *****************
  5824 ;; Defined at:
  5825 ;;		line 70 in file "PROYECTO.c"
  5826 ;; Parameters:    Size  Location     Type
  5827 ;;		None
  5828 ;; Auto vars:     Size  Location     Type
  5829 ;;		None
  5830 ;; Return value:  Size  Location     Type
  5831 ;;                  1    wreg      void 
  5832 ;; Registers used:
  5833 ;;		None
  5834 ;; Tracked objects:
  5835 ;;		On entry : 0/0
  5836 ;;		On exit  : 0/0
  5837 ;;		Unchanged: 0/0
  5838 ;; Data sizes:     COMMON   BANK0   BANK1   BANK3   BANK2
  5839 ;;      Params:         0       0       0       0       0
  5840 ;;      Locals:         0       0       0       0       0
  5841 ;;      Temps:          2       0       0       0       0
  5842 ;;      Totals:         2       0       0       0       0
  5843 ;;Total ram usage:        2 bytes
  5844 ;; Hardware stack levels used:    1
  5845 ;; This function calls:
  5846 ;;		Nothing
  5847 ;; This function is called by:
  5848 ;;		Interrupt level 1
  5849 ;; This function uses a non-reentrant model
  5850 ;;
  5851                           
  5852                           
  5853                           ;psect for function _isr
  5854  0C9B                     _isr:
  5855  0C9B                     i1l157:
  5856  0C9B  0877               	movf	??_isr+1,w
  5857  0C9C  008A               	movwf	10
  5858  0C9D  0E76               	swapf	??_isr,w
  5859  0C9E  0083               	movwf	3
  5860  0C9F  0EFE               	swapf	btemp,f
  5861  0CA0  0E7E               	swapf	btemp,w
  5862  0CA1  0009               	retfie
  5863  0CA2                     __end_of_isr:
  5864  007E                     btemp	set	126	;btemp
  5865  007E                     wtemp0	set	126
  5866                           
  5867                           	psect	intentry
  5868  0004                     __pintentry:	
  5869                           ;incstack = 0
  5870                           ; Regs used in _isr: []
  5871                           
  5872  0004                     interrupt_function:
  5873  007E                     saved_w	set	btemp
  5874  0004  00FE               	movwf	btemp
  5875  0005  0E03               	swapf	3,w
  5876  0006  00F6               	movwf	??_isr
  5877  0007  080A               	movf	10,w
  5878  0008  00F7               	movwf	??_isr+1
  5879  0009  120A  158A  2C9B   	ljmp	_isr
  5880                           
  5881                           	psect	config
  5882                           
  5883                           ;Config register CONFIG1 @ 0x2007
  5884                           ;	Oscillator Selection bits
  5885                           ;	FOSC = INTRC_NOCLKOUT, INTOSCIO oscillator: I/O function on RA6/OSC2/CLKOUT pin, I/O f
      +                          unction on RA7/OSC1/CLKIN
  5886                           ;	Watchdog Timer Enable bit
  5887                           ;	WDTE = OFF, WDT disabled and can be enabled by SWDTEN bit of the WDTCON register
  5888                           ;	Power-up Timer Enable bit
  5889                           ;	PWRTE = OFF, PWRT disabled
  5890                           ;	RE3/MCLR pin function select bit
  5891                           ;	MCLRE = OFF, RE3/MCLR pin function is digital input, MCLR internally tied to VDD
  5892                           ;	Code Protection bit
  5893                           ;	CP = OFF, Program memory code protection is disabled
  5894                           ;	Data Code Protection bit
  5895                           ;	CPD = OFF, Data memory code protection is disabled
  5896                           ;	Brown Out Reset Selection bits
  5897                           ;	BOREN = OFF, BOR disabled
  5898                           ;	Internal External Switchover bit
  5899                           ;	IESO = OFF, Internal/External Switchover mode is disabled
  5900                           ;	Fail-Safe Clock Monitor Enabled bit
  5901                           ;	FCMEN = OFF, Fail-Safe Clock Monitor is disabled
  5902                           ;	Low Voltage Programming Enable bit
  5903                           ;	LVP = ON, RB3/PGM pin has PGM function, low voltage programming enabled
  5904                           ;	In-Circuit Debugger Mode bit
  5905                           ;	DEBUG = 0x1, unprogrammed default
  5906  2007                     	org	8199
  5907  2007  30D4               	dw	12500
  5908                           
  5909                           ;Config register CONFIG2 @ 0x2008
  5910                           ;	Brown-out Reset Selection bit
  5911                           ;	BOR4V = BOR40V, Brown-out Reset set to 4.0V
  5912                           ;	Flash Program Memory Self Write Enable bits
  5913                           ;	WRT = OFF, Write protection off
  5914  2008                     	org	8200
  5915  2008  3FFF               	dw	16383

Data Sizes:
    Strings     774
    Constant    0
    Data        0
    BSS         30
    Persistent  0
    Stack       0

Auto Spaces:
    Space          Size  Autos    Used
    COMMON           14      6      12
    BANK0            80      2      26
    BANK1            80      0       0
    BANK3            96      0       0
    BANK2            96      0       0

Pointer List with Targets:

    USART_Cadena@str	PTR unsigned char  size(2) Largest target is 52
		 -> STR_71(CODE[3]), STR_70(CODE[3]), STR_69(CODE[3]), STR_68(CODE[3]), 
		 -> STR_67(CODE[2]), STR_66(CODE[26]), STR_65(CODE[48]), STR_64(CODE[43]), 
		 -> STR_63(CODE[3]), STR_62(CODE[3]), STR_61(CODE[36]), STR_60(CODE[44]), 
		 -> STR_59(CODE[3]), STR_58(CODE[3]), STR_57(CODE[48]), STR_56(CODE[48]), 
		 -> STR_55(CODE[52]), STR_54(CODE[39]), STR_53(CODE[26]), STR_52(CODE[48]), 
		 -> STR_51(CODE[43]), STR_50(CODE[3]), STR_49(CODE[3]), STR_48(CODE[36]), 
		 -> STR_47(CODE[44]), STR_46(CODE[3]), STR_45(CODE[3]), STR_44(CODE[48]), 
		 -> STR_43(CODE[48]), STR_42(CODE[52]), STR_41(CODE[39]), STR_40(CODE[26]), 
		 -> STR_39(CODE[48]), STR_38(CODE[43]), STR_37(CODE[3]), STR_36(CODE[3]), 
		 -> STR_35(CODE[36]), STR_34(CODE[44]), STR_33(CODE[3]), STR_32(CODE[3]), 
		 -> STR_31(CODE[48]), STR_30(CODE[48]), STR_29(CODE[52]), STR_28(CODE[39]), 
		 -> STR_27(CODE[31]), STR_26(CODE[7]), STR_25(CODE[8]), STR_24(CODE[11]), 
		 -> STR_23(CODE[31]), STR_22(CODE[7]), STR_21(CODE[8]), STR_20(CODE[11]), 
		 -> STR_19(CODE[32]), STR_18(CODE[7]), STR_17(CODE[8]), STR_16(CODE[11]), 
		 -> STR_15(CODE[31]), STR_14(CODE[7]), STR_13(CODE[8]), STR_12(CODE[11]), 
		 -> STR_11(CODE[31]), STR_10(CODE[7]), STR_9(CODE[8]), STR_8(CODE[11]), 
		 -> STR_7(CODE[37]), STR_6(CODE[34]), STR_5(CODE[35]), STR_4(CODE[31]), 
		 -> STR_3(CODE[29]), STR_2(CODE[30]), STR_1(CODE[31]), 


Critical Paths under _main in COMMON

    _main->_CharToNumH
    _main->_SendCharM
    _SendCharM->_USART_Cadena
    _USART_Cadena->_USART_Tx

Critical Paths under _isr in COMMON

    None.

Critical Paths under _main in BANK0

    None.

Critical Paths under _isr in BANK0

    None.

Critical Paths under _main in BANK1

    None.

Critical Paths under _isr in BANK1

    None.

Critical Paths under _main in BANK3

    None.

Critical Paths under _isr in BANK3

    None.

Critical Paths under _main in BANK2

    None.

Critical Paths under _isr in BANK2

    None.

Call Graph Tables:

 ---------------------------------------------------------------------------------
 (Depth) Function   	        Calls       Base Space   Used Autos Params    Refs
 ---------------------------------------------------------------------------------
 (0) _main                                                 2     2      0   11720
                                              0 BANK0      2     2      0
                         _CharToNumH
                         _CharToNumM
                          _SendCharH
                          _SendCharM
                       _USART_Cadena
                           _USART_Rx
 ---------------------------------------------------------------------------------
 (1) _USART_Rx                                             0     0      0       0
 ---------------------------------------------------------------------------------
 (1) _SendCharM                                            1     1      0    5573
                                              5 COMMON     1     1      0
                       _USART_Cadena
 ---------------------------------------------------------------------------------
 (1) _USART_Cadena                                         2     0      2    5463
                                              3 COMMON     2     0      2
                           _USART_Tx
 ---------------------------------------------------------------------------------
 (2) _USART_Tx                                             1     1      0      22
                                              2 COMMON     1     1      0
 ---------------------------------------------------------------------------------
 (1) _SendCharH                                            3     3      0      22
                                              2 COMMON     3     3      0
 ---------------------------------------------------------------------------------
 (1) _CharToNumM                                           3     2      1     365
                                              2 COMMON     3     2      1
 ---------------------------------------------------------------------------------
 (1) _CharToNumH                                           4     3      1     297
                                              2 COMMON     4     3      1
 ---------------------------------------------------------------------------------
 Estimated maximum stack depth 2
 ---------------------------------------------------------------------------------
 (Depth) Function   	        Calls       Base Space   Used Autos Params    Refs
 ---------------------------------------------------------------------------------
 (4) _isr                                                  2     2      0       0
                                              0 COMMON     2     2      0
 ---------------------------------------------------------------------------------
 Estimated maximum stack depth 4
 ---------------------------------------------------------------------------------

 Call Graph Graphs:

 _main (ROOT)
   _CharToNumH
   _CharToNumM
   _SendCharH
   _SendCharM
     _USART_Cadena
       _USART_Tx
   _USART_Cadena
     _USART_Tx
   _USART_Rx

 _isr (ROOT)

 Address spaces:
Name               Size   Autos  Total    Cost      Usage
BITCOMMON            E      0       0       0        0.0%
EEDATA             100      0       0       0        0.0%
NULL                 0      0       0       0        0.0%
CODE                 0      0       0       0        0.0%
COMMON               E      6       C       1       85.7%
BITSFR0              0      0       0       1        0.0%
SFR0                 0      0       0       1        0.0%
BITSFR1              0      0       0       2        0.0%
SFR1                 0      0       0       2        0.0%
STACK                0      0       0       2        0.0%
ABS                  0      0      26       3        0.0%
BITBANK0            50      0       0       4        0.0%
BITSFR3              0      0       0       4        0.0%
SFR3                 0      0       0       4        0.0%
BANK0               50      2      1A       5       32.5%
BITSFR2              0      0       0       5        0.0%
SFR2                 0      0       0       5        0.0%
BITBANK1            50      0       0       6        0.0%
BANK1               50      0       0       7        0.0%
BITBANK3            60      0       0       8        0.0%
BANK3               60      0       0       9        0.0%
BITBANK2            60      0       0      10        0.0%
BANK2               60      0       0      11        0.0%
DATA                 0      0      26      12        0.0%


Microchip Technology PIC Macro Assembler V2.31 build 20201012212115 
Symbol Table                                                                                   Fri May 28 12:53:46 2021

                      pc 0002                       fsr 0004                      l300 07A5  
                    l303 07CE                      l304 07F8                      l313 0CAB  
                    l305 07E3                      l402 0EF9                      l330 0E3D  
                    l226 02D4                      l170 02E2                      l420 0F22  
                    l316 0CB5                      l164 0094                      l413 0F11  
                    l325 0CDB                      l430 0F3D                      l406 0F00  
                    l166 00AA                      l423 0F2C                      l351 0E74  
                    l343 0E5E                      l335 0E48                      l319 07FF  
                    l175 012A                      l520 0E3A                      l416 0F1B  
                    l168 00C0                      l441 0F55                      l409 0F0A  
                    l434 0F44                      l451 0F70                      l427 0F33  
                    l371 0EAB                      l363 0E95                      l355 0E7F  
                    l347 0E69                      l339 0E53                      l532 0D12  
                    l524 0D11                      l444 0F5F                      l437 0F4E  
                    l381 0EC6                      l293 0752                      l462 0F88  
                    l374 0EB5                      l455 0F77                      l367 0EA0  
                    l359 0E8A                      l295 0767                      l528 0D11  
                    l472 0FA3                      l448 0F66                      l392 0EDE  
                    l465 0F92                      l385 0ECD                      l458 0F81  
                    l378 0EBC                      l490 0D69                      l298 0790  
                    l395 0EE8                      l475 0FFF                      l388 0ED7  
                    l484 0D69                      l469 0F99                      l478 0D14  
                    l399 0EEF                      l496 0D6E                      _RB0 0030  
                    _RB1 0031                      _RB2 0032                      _RB3 0033  
                    _RD0 0040                      _RB4 0034                      _RD1 0041  
                    _RB5 0035                      _RD2 0042                      _RB6 0036  
                    _RB7 0037                      _isr 0C9B                      fsr0 0004  
                    indf 0000               _CharToNumH 0D6A               _CharToNumM 0CDC  
                   l2000 0E64                     l2010 0E9B                     l2002 0E6F  
                   l2012 0EA6                     l2004 0E7A                     l2100 0D59  
                   l2110 0D76                     l2030 0EF5                     l2022 0ED3  
                   l2014 0EB1                     l2006 0E85                     l2102 0D5F  
                   l2120 0D8F                     l2112 0D7B                     l2104 0D6B  
                   l2008 0E90                     l3000 016A                     l2130 0DA8  
                   l2122 0D94                     l2114 0D80                     l2106 0D6C  
                   l2050 0F4A                     l2042 0F28                     l2034 0F06  
                   l2026 0EE4                     l2018 0EC2                     l3010 0186  
                   l3002 0170                     l2140 0DC1                     l2132 0DAD  
                   l2124 0D99                     l2116 0D85                     l2108 0D71  
                   l3100 0285                     l3020 01A3                     l3012 018C  
                   l3004 0175                     l2150 0DDA                     l2142 0DC6  
                   l2134 0DB2                     l2126 0D9E                     l2118 0D8A  
                   l2070 0F9F                     l2062 0F7D                     l2054 0F5B  
                   l2046 0F39                     l2038 0F17                     l3110 02A2  
                   l3102 028B                     l3030 01BF                     l3022 01A8  
                   l3014 0192                     l3006 017B                     l2152 0DDF  
                   l2144 0DCB                     l2136 0DB7                     l2128 0DA3  
                   l3200 0441                     l3120 02BE                     l3112 02A7  
                   l3104 0291                     l3040 01DB                     l3032 01C5  
                   l3024 01AE                     l3016 0197                     l3008 0181  
                   l2146 0DD0                     l2138 0DBC                     l2170 0CE5  
                   l2066 0F8E                     l2058 0F6C                     l2090 0D2F  
                   l2082 0D14                     l3210 0487                     l3202 0465  
                   l3122 02C4                     l3114 02AD                     l3106 0296  
                   l3050 01F8                     l3042 01E1                     l3034 01CA  
                   l3026 01B4                     l3018 019D                     l3130 02D8  
                   l2148 0DD5                     l2156 0DE4                     l2180 0D01  
                   l2172 0CEB                     l2076 0FAA                     l2092 0D39  
                   l2084 0D1A                     l3300 0698                     l3220 04C3  
                   l3212 0498                     l3204 046B                     l3140 032D  
                   l3132 02DF                     l3124 02C9                     l3116 02B3  
                   l3108 029C                     l3060 0214                     l3052 01FD  
                   l3044 01E7                     l3036 01D0                     l3028 01B9  
                   l2158 0E39                     l2182 0D06                     l2174 0CF0  
                   l2166 0CDD                     l2094 0D3F                     l2086 0D1F  
                   l3310 06E0                     l3302 06A1                     l3230 0508  
                   l3222 04CC                     l3214 04AA                     l3206 0474  
                   l3150 0354                     l3142 0337                     l3134 02E7  
                   l3126 02CF                     l3118 02B8                     l3070 0230  
                   l3062 021A                     l3054 0203                     l3046 01EC  
                   l3038 01D6                     l2184 0D0C                     l2176 0CF6  
                   l2168 0CE3                     l2096 0D49                     l2088 0D29  
                   l3320 0705                     l3312 06E6                     l3304 06AB  
                   l3240 052C                     l3232 050E                     l3224 04DD  
                   l3216 04B0                     l3208 047E                     l3160 0388  
                   l3152 035D                     l3144 033A                     l3136 0326  
                   l3080 024D                     l3072 0236                     l3064 021F  
                   l3056 0209                     l3048 01F2                     l3128 02D4  
                   l2178 0CFB                     l2098 0D4F                     l3322 070E  
                   l3314 06F0                     l3306 06B4                     l3250 0572  
                   l3242 0535                     l3234 0517                     l3226 04F8  
                   l3218 04B9                     l3330 0739                     l3170 03D6  
                   l3162 0391                     l3154 0365                     l3146 0343  
                   l3138 0329                     l3090 0269                     l3082 0252  
                   l3074 023C                     l3066 0225                     l3058 020E  
                   l3340 0756                     l3332 073D                     l3324 0714  
                   l3316 06F6                     l3308 06C5                     l3260 05AD  
                   l3252 057B                     l3244 0559                     l3236 051D  
                   l3228 04FE                     l3180 03FE                     l3172 03DB  
                   l3164 0399                     l3156 036E                     l3148 034B  
                   l3092 026F                     l3084 0258                     l3076 0241  
                   l3068 022B                     l3350 0773                     l3342 075A  
                   l3334 0741                     l3318 06FF                     l3270 05F2  
                   l3262 05B7                     l3254 058C                     l3246 055F  
                   l3238 0526                     l3190 041F                     l3182 0404  
                   l3174 03E4                     l3166 03A2                     l3158 037F  
                   l3094 0274                     l3086 025E                     l3078 0247  
                   l3360 0794                     l3344 075E                     l3352 077B  
                   l3336 0745                     l3280 061A                     l3272 05FC  
                   l3264 05C0                     l3256 059E                     l3248 0568  
                   l3192 0428                     l3176 03EC                     l3168 03AB  
                   l3328 071D                     l3096 027A                     l3088 0263  
                   l3370 07B1                     l3362 0798                     l3354 077F  
                   l3346 076B                     l3338 0749                     l3290 065C  
                   l3282 0620                     l3274 0602                     l3266 05D1  
                   l3258 05A4                     l3194 0431                     l3186 040E  
                   l3178 03F5                     l3098 0280                     l3380 07D2  
                   l3364 079C                     l3372 07B9                     l3356 0783  
                   l3348 076F                     l3292 0666                     l3284 0629  
                   l3276 060B                     l3268 05EC                     l3196 0437  
                   l3188 0417                     l2900 0074                     l3470 0FB2  
                   l3390 07EF                     l3382 07D6                     l3374 07BD  
                   l3366 07A9                     l3358 0787                     l3294 066F  
                   l3286 064D                     l3278 0611                     l2910 007A  
                   l2902 0075                     l2830 0029                     l3472 0DEC  
                   l3384 07DA                     l3376 07C1                     l3368 07AD  
                   l3296 0680                     l3288 0653                     l2920 0092  
                   l2912 007E                     l2904 0076                     l2840 0031  
                   l2832 002B                     l3386 07E7                     l3378 07C5  
                   l3298 0692                     l2930 00AE                     l2922 0098  
                   l2914 0082                     l2906 0077                     l2850 0043  
                   l2842 0034                     l2834 002E                     l1980 0CB6  
                   l3388 07EB                     l3468 0725                     l2940 00CB  
                   l2932 00AF                     l2924 0099                     l2916 0083  
                   l2908 0078                     l2860 004A                     l2852 0046  
                   l2844 0035                     l2836 002F                     l2828 0022  
                   l1982 0CB7                     l2950 00D7                     l2942 00CE  
                   l2934 00B9                     l2926 00A3                     l2918 008D  
                   l2870 0055                     l2862 004B                     l2854 0047  
                   l2846 0039                     l2838 0030                     l1992 0E3C  
                   l1976 0CAB                     l1984 0CC5                     l2960 00F8  
                   l2952 00E0                     l2944 00CF                     l2936 00BE  
                   l2928 00A8                     l2880 0064                     l2872 0059  
                   l2864 0050                     l2856 0048                     l2848 0040  
                   l1994 0E43                     l1978 0CB1                     l1986 0CCB  
                   l2970 0114                     l2962 00FD                     l2954 00EA  
                   l2946 00D2                     l2938 00C3                     l2890 006D  
                   l2882 0065                     l2874 005C                     l2866 0051  
                   l2858 0049                     l1996 0E4E                     l1988 07FC  
                   l2972 011A                     l2964 0103                     l2956 00EC  
                   l2980 012F                     l2948 00D3                     l2892 006E  
                   l2884 0068                     l2876 005D                     l2868 0052  
                   l1998 0E59                     l2990 0150                     l2982 0138  
                   l2974 011F                     l2966 0109                     l2958 00F2  
                   l2894 006F                     l2886 0069                     l2878 0060  
                   l2992 0153                     l2984 0142                     l2976 0125  
                   l2968 010E                     l2896 0070                     l2888 006A  
                   l2994 0159                     l2986 0144                     l2978 012A  
                   l2898 0073                     l2996 015F                     l2988 014A  
                   l2998 0164                     ?_isr 0076                     STR_1 0A4D  
                   STR_2 0A8B                     STR_3 0AA9                     STR_4 0A6C  
                   STR_5 098B                     STR_6 09AE                     STR_7 0942  
                   STR_8 0AE0                     STR_9 0AEB                     _T0IF 005A  
                   u2000 0F7D                     u2001 0F7C                     u2010 0F87  
                   u2011 0F86                     u2020 0F8E                     u2100 0D4F  
                   u2021 0F8D                     u2101 0D4E                     u2030 0F98  
                   u2110 0D5F                     u2031 0F97                     u2111 0D5E  
                   u2120 0CE3                     u2040 0F9F                     u2121 0CE2  
                   u2041 0F9E                     u2130 0CEB                     u2050 0FA9  
                   u2131 0CEA                     u2051 0FA8                     u2140 0CF6  
                   u2060 0D1A                     u2141 0CF5                     u2061 0D19  
                   u2150 0D01                     u2070 0D1F                     u2151 0D00  
                   u2071 0D1E                     u2160 0D0C                     u2080 0D2F  
                   u4000 05F2                     u2161 0D0B                     u2081 0D2E  
                   u4001 05F1                     u2090 0D3F                     u4010 0602  
                   u2091 0D3E                     u4011 0601                     u1700 0E6F  
                   u4100 0741                     u4020 0611                     u3300 00AE  
                   u1701 0E6E                     u4101 0740                     u4021 0610  
                   u3301 00AD                     u1710 0E7A                     u4110 0745  
                   u4030 0620                     u3310 00D7                     u1711 0E79  
                   u4111 0744                     u4031 061F                     u3311 00D6  
                   u1800 0ED3                     u1720 0E85                     u1640 0CB1  
                   u4200 0783                     u4120 0749                     u4040 0653  
                   u3400 0125                     u3320 00E0                     u1801 0ED2  
                   u1721 0E84                     u1641 0CB0                     u4201 0782  
                   u4121 0748                     u4041 0652                     u3401 0124  
                   u3321 00DF                     u1810 0EDD                     u1730 0E90  
                   u1650 0CDB                     u4210 0787                     u4130 0756  
                   u4050 0698                     u3410 0138                     u3330 00EA  
                   u1811 0EDC                     u1731 0E8F                     u1651 0CDA  
                   u4211 0786                     u4131 0755                     u4051 0697  
                   u3411 0137                     u3331 00E9                     u1900 0F28  
                   u1820 0EE4                     u1740 0E9B                     u1660 0E43  
                   u4300 07C5                     u4220 0794                     u4140 075A  
                   u4060 06E6                     u3500 0181                     u3420 0142  
                   u3340 00F2                     u1901 0F27                     u1821 0EE3  
                   u1741 0E9A                     u1661 0E42                     u4301 07C4  
                   u4221 0793                     u4141 0759                     u4061 06E5  
                   u3501 0180                     u3421 0141                     u3341 00F1  
                   u1910 0F32                     u1830 0EEE                     u1750 0EA6  
                   u1670 0E4E                     u4310 07D2                     u4230 0798  
                   u4150 075E                     u4070 06F6                     u3510 018C  
                   u3430 014A                     u3350 00F8                     u3270 007E  
                   u1911 0F31                     u1831 0EED                     u1751 0EA5  
                   u1671 0E4D                     u4311 07D1                     u4231 0797  
                   u4151 075D                     u4071 06F5                     u3511 018B  
                   u3431 0149                     u3351 00F7                     u3271 007D  
                   u1920 0F39                     u1840 0EF5                     u1760 0EB1  
                   u1680 0E59                     u4320 07D6                     u4240 079C  
                   u4160 076B                     u4080 0705                     u3600 01D6  
                   u3520 0192                     u3440 0150                     u3360 0103  
                   u3280 0082                     u1921 0F38                     u1841 0EF4  
                   u1761 0EB0                     u1681 0E58                     u4321 07D5  
                   u4241 079B                     u4161 076A                     u4081 0704  
                   u3601 01D5                     u3521 0191                     u3441 014F  
                   u3361 0102                     u3281 0081                     u1930 0F43  
                   u1850 0EFF                     u1770 0EBB                     u1690 0E64  
                   u4330 07DA                     u4250 07A9                     u4170 076F  
                   u4090 0714                     u3610 01E1                     u3530 019D  
                   u3450 0159                     u3370 0109                     u3290 0098  
                   u1931 0F42                     u1851 0EFE                     u1771 0EBA  
                   u1691 0E63                     u4331 07D9                     u4251 07A8  
                   u4171 076E                     u4091 0713                     u3611 01E0  
                   u3531 019C                     u3451 0158                     u3371 0108  
                   u3291 0097                     u1940 0F4A                     u1860 0F06  
                   u1780 0EC2                     u4340 07E7                     u4260 07AD  
                   u4180 0773                     u3700 022B                     u3620 01E7  
                   u3540 01A3                     u3460 015F                     u3380 0114  
                   u1941 0F49                     u1861 0F05                     u1781 0EC1  
                   u4341 07E6                     u4261 07AC                     u4181 0772  
                   u3701 022A                     u3621 01E6                     u3541 01A2  
                   u3461 015E                     u3381 0113                     u1950 0F54  
                   u1870 0F10                     u1790 0ECC                     u4350 07EB  
                   u4270 07B1                     u4190 077F                     u3710 0236  
                   u3630 01F2                     u3550 01AE                     u3470 016A  
                   u3390 011A                     u1951 0F53                     u1871 0F0F  
                   u1791 0ECB                     u4351 07EA                     u4271 07B0  
                   u4191 077E                     u3711 0235                     u3631 01F1  
                   u3551 01AD                     u3471 0169                     u3391 0119  
                   u4407 00B5                     u1960 0F5B                     u1880 0F17  
                   u4360 07EF                     u4280 07BD                     u3800 0280  
                   u3720 023C                     u3640 01F8                     u3560 01B4  
                   u3480 0170                     u1961 0F5A                     u1881 0F16  
                   u4361 07EE                     u4281 07BC                     u3801 027F  
                   u3721 023B                     u3641 01F7                     u3561 01B3  
                   u3481 016F                     u4417 00C7                     u1970 0F65  
                   u1890 0F21                     u4290 07C1                     u3810 028B  
                   u3730 0247                     u3650 0203                     u3570 01BF  
                   u3490 017B                     u1971 0F64                     u1891 0F20  
                   u4291 07C0                     u4427 02DC                     u3811 028A  
                   u3731 0246                     u3651 0202                     u3571 01BE  
                   u3491 017A                     u1980 0F6C                     u3900 02E7  
                   u3820 0291                     u3740 024D                     u3660 0209  
                   u3580 01C5                     u1981 0F6B                     u3901 02E6  
                   u3821 0290                     u3741 024C                     u3661 0208  
                   u3581 01C4                     u1990 0F76                     u3910 032D  
                   u3830 029C                     u3750 0258                     u3670 0214  
                   u3590 01D0                     u1991 0F75                     u3911 032C  
                   u3831 029B                     u3751 0257                     u3671 0213  
                   u3591 01CF                     u3920 046B                     u3840 02A2  
                   u3760 025E                     u3680 021A                     u3921 046A  
                   u3841 02A1                     u3761 025D                     u3681 0219  
                   u4377 003D                     u3930 04B0                     u3850 02AD  
                   u3770 0269                     u3690 0225                     u3931 04AF  
                   u3851 02AC                     u3771 0268                     u3691 0224  
                   u4387 0089                     u3940 04FE                     u3860 02B3  
                   u3780 026F                     u3941 04FD                     u3861 02B2  
                   u3781 026E                     u4397 009F                     u3950 050E  
                   u3870 02BE                     u3790 027A                     u3951 050D  
                   u3871 02BD                     u3791 0279                     u3960 051D  
                   u3880 02C4                     u3961 051C                     u3881 02C3  
                   u3970 052C                     u3890 02CF                     u3971 052B  
                   u3891 02CE                     u3980 055F                     u3981 055E  
                   u3990 05A4                     u3991 05A3                     _TMR0 0001  
                   _main 0022                     _hora 0075                     btemp 007E  
                   start 000C                    ??_isr 0076                    ?_main 0076  
                  STR_10 0AF3                    STR_11 0A0F                    STR_20 0AE0  
                  STR_12 0AE0                    STR_21 0AEB                    STR_13 0AEB  
                  STR_22 0AF3                    STR_14 0AF3                    STR_30 0894  
                  STR_15 0A2E                    STR_23 09F0                    STR_31 0864  
                  STR_32 0988                    STR_24 0AE0                    STR_16 0AE0  
                  STR_40 0AC6                    STR_33 0988                    STR_41 091B  
                  STR_25 0AEB                    STR_17 0AEB                    STR_50 0988  
                  STR_42 0800                    STR_26 0AF3                    STR_18 0AF3  
                  STR_34 08C4                    STR_27 09F0                    STR_43 0894  
                  STR_51 08F0                    STR_19 09D0                    STR_35 0967  
                  STR_36 0988                    STR_60 08C4                    STR_52 0834  
                  STR_44 0864                    STR_28 091B                    STR_45 0988  
                  STR_37 0988                    STR_61 0967                    STR_53 0AC6  
                  STR_29 0800                    STR_62 0988                    STR_46 0988  
                  STR_54 091B                    STR_70 0B00                    STR_38 08F0  
                  STR_63 0988                    STR_47 08C4                    STR_55 0800  
                  STR_71 0B03                    STR_39 0834                    STR_48 0967  
                  STR_56 0894                    STR_64 08F0                    STR_49 0988  
                  STR_65 0834                    STR_57 0864                    STR_58 0988  
                  STR_66 0AC6                    STR_59 0988                    STR_67 0AFB  
                  STR_68 0AFD                    STR_69 0AFA                    _ANSEL 0188  
                  i1l157 0C9B                    _RCREG 001A                    _SPBRG 0099  
                  _PORTA 0005                    _PORTB 0006                    _PORTC 0007  
                  _PORTD 0008                    _PORTE 0009                    _TRISA 0085  
                  _TRISB 0086                    _TRISD 0088                    _TRISE 0089  
                  _TXREG 0019                    _valor 0037         __end_of_USART_Rx 0800  
       __end_of_USART_Tx 0CB6             USART_Tx@data 0078                    pclath 000A  
                  status 0003                    wtemp0 007E          __initialization 000F  
           __end_of_main 07FC                   ??_main 0038              ?_CharToNumH 0078  
            ?_CharToNumM 0078                   _ADRESH 001E                   _ANSELH 0189  
                 _SPBRGH 009A       __size_of_SendCharH 01C5       __size_of_SendCharM 0057  
                 _escala 0073                   _minuto 0074              SendCharH@in 007A  
            SendCharM@in 007B                   saved_w 007E  __end_of__initialization 001E  
         __pcstackCOMMON 0076      __size_of_CharToNumH 00D1      __size_of_CharToNumM 0037  
              ?_USART_Rx 0076                ?_USART_Tx 0076           _OPTION_REGbits 0081  
      __end_of_SendCharH 1000        __end_of_SendCharM 0D6A               __pbssBANK0 0020  
             _me_1_us1_h 0031               _me_1_us2_h 002E               _me_1_us1_m 0028  
             _me_1_us3_h 002B               _me_1_us2_m 0025               _me_1_us3_m 0022  
             _me_2_us1_h 0030               _me_2_us2_h 002D               _me_2_us1_m 0027  
             _me_2_us3_h 002A               _me_2_us2_m 0024               _me_2_us3_m 0021  
             _me_3_us1_h 002F               _me_3_us2_h 002C               _me_3_us1_m 0026  
             _me_3_us3_h 0029               _me_3_us2_m 0023               _me_3_us3_m 0020  
             __pmaintext 0022               __pintentry 0004               ??_USART_Rx 0078  
             ??_USART_Tx 0078               __stringtab 0B06               _hora_nueva 0070  
             _hora_user1 0034               _hora_user2 0033               _hora_user3 0032  
                __ptext1 07FC                  __ptext2 0D13                  __ptext3 0CB6  
                __ptext4 0CAA                  __ptext5 0E3B                  __ptext6 0CDC  
                __ptext7 0D6A                  __ptext8 0C9B             __size_of_isr 0007  
                _ventana 0036             ??_CharToNumH 0079             ??_CharToNumM 0079  
                clrloop0 0CA3      CharToNumH@hora_user 0078     end_of_initialization 001E  
           CharToNumH@in 007B             CharToNumM@in 007A                _RCSTAbits 0018  
           __pstringtext 0800       __end_of_CharToNumH 0E3B       __end_of_CharToNumM 0D13  
          ?_USART_Cadena 0079                _TXSTAbits 0098              _BAUDCTLbits 0187  
      __size_of_USART_Rx 0004        __size_of_USART_Tx 000C      start_initialization 000F  
            __end_of_isr 0CA2           ??_USART_Cadena 007B                _SendCharH 0E3B  
              _SendCharM 0D13              __pbssCOMMON 0070                ___latbits 0002  
          __pcstackBANK0 0038               ?_SendCharH 0076               ?_SendCharM 0076  
              __pstrings 0B06                _min_user1 0035                _min_user2 0072  
              _min_user3 0071        interrupt_function 0004                clear_ram0 0CA2  
               _PIR1bits 000C          USART_Cadena@str 0079     __end_of_USART_Cadena 0CDC  
               _USART_Rx 07FC                 _USART_Tx 0CAA               _ADCON0bits 001F  
            __stringbase 0B18               _ADCON1bits 009F                 _WPUBbits 0095  
            ??_SendCharH 0078              ??_SendCharM 007B       __end_of__stringtab 0B18  
          __size_of_main 07DA               _INTCONbits 000B            CharToNumM@her 0078  
               intlevel1 0000                stringcode 0B10    __size_of_USART_Cadena 0026  
             _OSCCONbits 008F                 stringtab 0B06             _USART_Cadena 0CB6  
