

Microchip MPLAB XC8 Assembler V2.31 build 20201012212115 
                                                                                               Fri May 28 13:17:23 2021

Microchip MPLAB XC8 C Compiler v2.31 (Free license) build 20201012212115 Og1 
     1                           	processor	16F887
     2                           	pagewidth 120
     3                           	opt	flic
     4                           	psect	strings,global,class=STRING,delta=2,noexec
     5                           	psect	stringtext,global,reloc=256,class=STRCODE,delta=2,noexec
     6                           	psect	cinit,global,class=CODE,merge=1,delta=2
     7                           	psect	bssCOMMON,global,class=COMMON,space=1,delta=1,noexec
     8                           	psect	bssBANK0,global,class=BANK0,space=1,delta=1,noexec
     9                           	psect	clrtext,global,class=CODE,delta=2
    10                           	psect	cstackCOMMON,global,class=COMMON,space=1,delta=1,noexec
    11                           	psect	cstackBANK0,global,class=BANK0,space=1,delta=1,noexec
    12                           	psect	maintext,global,class=CODE,split=1,delta=2
    13                           	psect	text1,local,class=CODE,merge=1,delta=2
    14                           	psect	text2,local,class=CODE,merge=1,delta=2
    15                           	psect	text3,local,class=CODE,merge=1,delta=2
    16                           	psect	text4,local,class=CODE,merge=1,delta=2
    17                           	psect	text5,local,class=CODE,merge=1,delta=2
    18                           	psect	text6,local,class=CODE,merge=1,delta=2
    19                           	psect	text7,local,class=CODE,merge=1,delta=2
    20                           	psect	text8,local,class=CODE,merge=1,delta=2
    21                           	psect	intentry,global,class=CODE,delta=2
    22                           	psect	config,global,abs,ovrld,class=CONFIG,space=4,delta=2,noexec
    23                           	psect	maintext_split_1,global,class=CODE,split=1,delta=2
    24                           	dabs	1,0x7E,2
    25  0000                     
    26                           ; Version 2.20
    27                           ; Generated 12/02/2020 GMT
    28                           ; 
    29                           ; Copyright © 2020, Microchip Technology Inc. and its subsidiaries ("Microchip")
    30                           ; All rights reserved.
    31                           ; 
    32                           ; This software is developed by Microchip Technology Inc. and its subsidiaries ("Microch
      +                          ip").
    33                           ; 
    34                           ; Redistribution and use in source and binary forms, with or without modification, are
    35                           ; permitted provided that the following conditions are met:
    36                           ; 
    37                           ;     1. Redistributions of source code must retain the above copyright notice, this lis
      +                          t of
    38                           ;        conditions and the following disclaimer.
    39                           ; 
    40                           ;     2. Redistributions in binary form must reproduce the above copyright notice, this 
      +                          list
    41                           ;        of conditions and the following disclaimer in the documentation and/or other
    42                           ;        materials provided with the distribution.
    43                           ; 
    44                           ;     3. Microchip's name may not be used to endorse or promote products derived from th
      +                          is
    45                           ;        software without specific prior written permission.
    46                           ; 
    47                           ; THIS SOFTWARE IS PROVIDED BY MICROCHIP "AS IS" AND ANY EXPRESS OR IMPLIED WARRANTIES,
    48                           ; INCLUDING, BUT NOT LIMITED TO, THE IMPLIED WARRANTIES OF MERCHANTABILITY AND FITNESS F
      +                          OR
    49                           ; PURPOSE ARE DISCLAIMED.  IN NO EVENT SHALL MICROCHIP BE LIABLE FOR ANY DIRECT, INDIREC
      +                          T,
    50                           ; INCIDENTAL, SPECIAL, EXEMPLARY, OR CONSEQUENTIAL DAMAGES (INCLUDING BUT NOT LIMITED TO
    51                           ; PROCUREMENT OF SUBSTITUTE GOODS OR SERVICES; LOSS OF USE, DATA OR PROFITS; OR BUSINESS
    52                           ; INTERRUPTION) HOWSOEVER CAUSED AND ON ANY THEORY OF LIABILITY, WHETHER IN CONTRACT, ST
      +                          RICT
    53                           ; LIABILITY, OR TORT (INCLUDING NEGLIGENCE OR OTHERWISE) ARISING IN ANY WAY OUT OF THE U
      +                          SE OF
    54                           ; THIS SOFTWARE, EVEN IF ADVISED OF THE POSSIBILITY OF SUCH DAMAGE.
    55                           ; 
    56                           ; 
    57                           ; Code-generator required, PIC16F887 Definitions
    58                           ; 
    59                           ; SFR Addresses
    60  0000                     	;# 
    61  0001                     	;# 
    62  0002                     	;# 
    63  0003                     	;# 
    64  0004                     	;# 
    65  0005                     	;# 
    66  0006                     	;# 
    67  0007                     	;# 
    68  0008                     	;# 
    69  0009                     	;# 
    70  000A                     	;# 
    71  000B                     	;# 
    72  000C                     	;# 
    73  000D                     	;# 
    74  000E                     	;# 
    75  000E                     	;# 
    76  000F                     	;# 
    77  0010                     	;# 
    78  0011                     	;# 
    79  0012                     	;# 
    80  0013                     	;# 
    81  0014                     	;# 
    82  0015                     	;# 
    83  0015                     	;# 
    84  0016                     	;# 
    85  0017                     	;# 
    86  0018                     	;# 
    87  0019                     	;# 
    88  001A                     	;# 
    89  001B                     	;# 
    90  001B                     	;# 
    91  001C                     	;# 
    92  001D                     	;# 
    93  001E                     	;# 
    94  001F                     	;# 
    95  0081                     	;# 
    96  0085                     	;# 
    97  0086                     	;# 
    98  0087                     	;# 
    99  0088                     	;# 
   100  0089                     	;# 
   101  008C                     	;# 
   102  008D                     	;# 
   103  008E                     	;# 
   104  008F                     	;# 
   105  0090                     	;# 
   106  0091                     	;# 
   107  0092                     	;# 
   108  0093                     	;# 
   109  0093                     	;# 
   110  0093                     	;# 
   111  0094                     	;# 
   112  0095                     	;# 
   113  0096                     	;# 
   114  0097                     	;# 
   115  0098                     	;# 
   116  0099                     	;# 
   117  009A                     	;# 
   118  009B                     	;# 
   119  009C                     	;# 
   120  009D                     	;# 
   121  009E                     	;# 
   122  009F                     	;# 
   123  0105                     	;# 
   124  0107                     	;# 
   125  0108                     	;# 
   126  0109                     	;# 
   127  010C                     	;# 
   128  010C                     	;# 
   129  010D                     	;# 
   130  010E                     	;# 
   131  010F                     	;# 
   132  0185                     	;# 
   133  0187                     	;# 
   134  0188                     	;# 
   135  0189                     	;# 
   136  018C                     	;# 
   137  018D                     	;# 
   138  0000                     	;# 
   139  0001                     	;# 
   140  0002                     	;# 
   141  0003                     	;# 
   142  0004                     	;# 
   143  0005                     	;# 
   144  0006                     	;# 
   145  0007                     	;# 
   146  0008                     	;# 
   147  0009                     	;# 
   148  000A                     	;# 
   149  000B                     	;# 
   150  000C                     	;# 
   151  000D                     	;# 
   152  000E                     	;# 
   153  000E                     	;# 
   154  000F                     	;# 
   155  0010                     	;# 
   156  0011                     	;# 
   157  0012                     	;# 
   158  0013                     	;# 
   159  0014                     	;# 
   160  0015                     	;# 
   161  0015                     	;# 
   162  0016                     	;# 
   163  0017                     	;# 
   164  0018                     	;# 
   165  0019                     	;# 
   166  001A                     	;# 
   167  001B                     	;# 
   168  001B                     	;# 
   169  001C                     	;# 
   170  001D                     	;# 
   171  001E                     	;# 
   172  001F                     	;# 
   173  0081                     	;# 
   174  0085                     	;# 
   175  0086                     	;# 
   176  0087                     	;# 
   177  0088                     	;# 
   178  0089                     	;# 
   179  008C                     	;# 
   180  008D                     	;# 
   181  008E                     	;# 
   182  008F                     	;# 
   183  0090                     	;# 
   184  0091                     	;# 
   185  0092                     	;# 
   186  0093                     	;# 
   187  0093                     	;# 
   188  0093                     	;# 
   189  0094                     	;# 
   190  0095                     	;# 
   191  0096                     	;# 
   192  0097                     	;# 
   193  0098                     	;# 
   194  0099                     	;# 
   195  009A                     	;# 
   196  009B                     	;# 
   197  009C                     	;# 
   198  009D                     	;# 
   199  009E                     	;# 
   200  009F                     	;# 
   201  0105                     	;# 
   202  0107                     	;# 
   203  0108                     	;# 
   204  0109                     	;# 
   205  010C                     	;# 
   206  010C                     	;# 
   207  010D                     	;# 
   208  010E                     	;# 
   209  010F                     	;# 
   210  0185                     	;# 
   211  0187                     	;# 
   212  0188                     	;# 
   213  0189                     	;# 
   214  018C                     	;# 
   215  018D                     	;# 
   216  001A                     _RCREG	set	26
   217  0019                     _TXREG	set	25
   218  000C                     _PIR1bits	set	12
   219  001E                     _ADRESH	set	30
   220  0009                     _PORTE	set	9
   221  0008                     _PORTD	set	8
   222  0007                     _PORTC	set	7
   223  0006                     _PORTB	set	6
   224  0005                     _PORTA	set	5
   225  000B                     _INTCONbits	set	11
   226  0018                     _RCSTAbits	set	24
   227  0001                     _TMR0	set	1
   228  001F                     _ADCON0bits	set	31
   229  0035                     _RB5	set	53
   230  0036                     _RB6	set	54
   231  0034                     _RB4	set	52
   232  0033                     _RB3	set	51
   233  0037                     _RB7	set	55
   234  0042                     _RD2	set	66
   235  0032                     _RB2	set	50
   236  0041                     _RD1	set	65
   237  0031                     _RB1	set	49
   238  0040                     _RD0	set	64
   239  0030                     _RB0	set	48
   240  005A                     _T0IF	set	90
   241  009A                     _SPBRGH	set	154
   242  0099                     _SPBRG	set	153
   243  0098                     _TXSTAbits	set	152
   244  008F                     _OSCCONbits	set	143
   245  0095                     _WPUBbits	set	149
   246  0081                     _OPTION_REGbits	set	129
   247  009F                     _ADCON1bits	set	159
   248  0089                     _TRISE	set	137
   249  0088                     _TRISD	set	136
   250  0086                     _TRISB	set	134
   251  0085                     _TRISA	set	133
   252  0187                     _BAUDCTLbits	set	391
   253  0189                     _ANSELH	set	393
   254  0188                     _ANSEL	set	392
   255                           
   256                           	psect	strings
   257  0AE7                     __pstrings:
   258  0AE7                     stringtab:
   259  0AE7                     __stringtab:
   260                           
   261                           ;	String table - string pointers are 2 bytes each
   262  0AE7  1BFF               	btfsc	btemp+1,7
   263  0AE8  2AF1               	ljmp	stringcode
   264  0AE9  1383               	bcf	3,7
   265  0AEA  187F               	btfsc	btemp+1,0
   266  0AEB  1783               	bsf	3,7
   267  0AEC  0800               	movf	0,w
   268  0AED  0A84               	incf	4,f
   269  0AEE  1903               	skipnz
   270  0AEF  0AFF               	incf	btemp+1,f
   271  0AF0  0008               	return
   272  0AF1                     stringcode:
   273  0AF1  087F               	movf	btemp+1,w
   274  0AF2  397F               	andlw	127
   275  0AF3  008A               	movwf	10
   276  0AF4  0804               	movf	4,w
   277  0AF5  0A84               	incf	4,f
   278  0AF6  1903               	skipnz
   279  0AF7  0AFF               	incf	btemp+1,f
   280  0AF8  0082               	movwf	2
   281  0AF9                     __stringbase:
   282  0AF9                     __end_of__stringtab:
   283                           
   284                           	psect	stringtext
   285  0800                     __pstringtext:
   286  0800                     STR_45:
   287  0800  3420               	retlw	32	;' '
   288  0801  3461               	retlw	97	;'a'
   289  0802  342E               	retlw	46	;'.'
   290  0803  3430               	retlw	48	;'0'
   291  0804  3420               	retlw	32	;' '
   292  0805  3420               	retlw	32	;' '
   293  0806  3462               	retlw	98	;'b'
   294  0807  342E               	retlw	46	;'.'
   295  0808  3431               	retlw	49	;'1'
   296  0809  3420               	retlw	32	;' '
   297  080A  3420               	retlw	32	;' '
   298  080B  3420               	retlw	32	;' '
   299  080C  3463               	retlw	99	;'c'
   300  080D  342E               	retlw	46	;'.'
   301  080E  3432               	retlw	50	;'2'
   302  080F  3420               	retlw	32	;' '
   303  0810  3420               	retlw	32	;' '
   304  0811  3420               	retlw	32	;' '
   305  0812  3464               	retlw	100	;'d'
   306  0813  342E               	retlw	46	;'.'
   307  0814  3433               	retlw	51	;'3'
   308  0815  3420               	retlw	32	;' '
   309  0816  3420               	retlw	32	;' '
   310  0817  3420               	retlw	32	;' '
   311  0818  3465               	retlw	101	;'e'
   312  0819  342E               	retlw	46	;'.'
   313  081A  3434               	retlw	52	;'4'
   314  081B  3420               	retlw	32	;' '
   315  081C  3420               	retlw	32	;' '
   316  081D  3420               	retlw	32	;' '
   317  081E  3466               	retlw	102	;'f'
   318  081F  342E               	retlw	46	;'.'
   319  0820  3435               	retlw	53	;'5'
   320  0821  3420               	retlw	32	;' '
   321  0822  3420               	retlw	32	;' '
   322  0823  3420               	retlw	32	;' '
   323  0824  3467               	retlw	103	;'g'
   324  0825  342E               	retlw	46	;'.'
   325  0826  3436               	retlw	54	;'6'
   326  0827  3420               	retlw	32	;' '
   327  0828  3420               	retlw	32	;' '
   328  0829  3420               	retlw	32	;' '
   329  082A  3468               	retlw	104	;'h'
   330  082B  342E               	retlw	46	;'.'
   331  082C  3437               	retlw	55	;'7'
   332  082D  3420               	retlw	32	;' '
   333  082E  3420               	retlw	32	;' '
   334  082F  3469               	retlw	105	;'i'
   335  0830  342E               	retlw	46	;'.'
   336  0831  3438               	retlw	56	;'8'
   337  0832  340D               	retlw	13
   338  0833  3400               	retlw	0
   339  0834                     STR_55:
   340  0834  3420               	retlw	32	;' '
   341  0835  3470               	retlw	112	;'p'
   342  0836  3472               	retlw	114	;'r'
   343  0837  3465               	retlw	101	;'e'
   344  0838  3473               	retlw	115	;'s'
   345  0839  3469               	retlw	105	;'i'
   346  083A  346F               	retlw	111	;'o'
   347  083B  346E               	retlw	110	;'n'
   348  083C  3465               	retlw	101	;'e'
   349  083D  3420               	retlw	32	;' '
   350  083E  3465               	retlw	101	;'e'
   351  083F  346C               	retlw	108	;'l'
   352  0840  3420               	retlw	32	;' '
   353  0841  346E               	retlw	110	;'n'
   354  0842  34C3               	retlw	-61
   355  0843  34BA               	retlw	-70
   356  0844  346D               	retlw	109	;'m'
   357  0845  3465               	retlw	101	;'e'
   358  0846  3472               	retlw	114	;'r'
   359  0847  346F               	retlw	111	;'o'
   360  0848  3420               	retlw	32	;' '
   361  0849  3464               	retlw	100	;'d'
   362  084A  3465               	retlw	101	;'e'
   363  084B  3420               	retlw	32	;' '
   364  084C  346D               	retlw	109	;'m'
   365  084D  3465               	retlw	101	;'e'
   366  084E  3464               	retlw	100	;'d'
   367  084F  3469               	retlw	105	;'i'
   368  0850  3463               	retlw	99	;'c'
   369  0851  3461               	retlw	97	;'a'
   370  0852  346D               	retlw	109	;'m'
   371  0853  3465               	retlw	101	;'e'
   372  0854  346E               	retlw	110	;'n'
   373  0855  3474               	retlw	116	;'t'
   374  0856  346F               	retlw	111	;'o'
   375  0857  3420               	retlw	32	;' '
   376  0858  3461               	retlw	97	;'a'
   377  0859  3420               	retlw	32	;' '
   378  085A  3467               	retlw	103	;'g'
   379  085B  3475               	retlw	117	;'u'
   380  085C  3461               	retlw	97	;'a'
   381  085D  3472               	retlw	114	;'r'
   382  085E  3464               	retlw	100	;'d'
   383  085F  3461               	retlw	97	;'a'
   384  0860  3472               	retlw	114	;'r'
   385  0861  3420               	retlw	32	;' '
   386  0862  340D               	retlw	13
   387  0863  3400               	retlw	0
   388  0864                     STR_47:
   389  0864  3472               	retlw	114	;'r'
   390  0865  342E               	retlw	46	;'.'
   391  0866  3431               	retlw	49	;'1'
   392  0867  3437               	retlw	55	;'7'
   393  0868  3420               	retlw	32	;' '
   394  0869  3420               	retlw	32	;' '
   395  086A  3473               	retlw	115	;'s'
   396  086B  342E               	retlw	46	;'.'
   397  086C  3431               	retlw	49	;'1'
   398  086D  3438               	retlw	56	;'8'
   399  086E  3420               	retlw	32	;' '
   400  086F  3420               	retlw	32	;' '
   401  0870  3474               	retlw	116	;'t'
   402  0871  342E               	retlw	46	;'.'
   403  0872  3431               	retlw	49	;'1'
   404  0873  3439               	retlw	57	;'9'
   405  0874  3420               	retlw	32	;' '
   406  0875  3420               	retlw	32	;' '
   407  0876  3475               	retlw	117	;'u'
   408  0877  342E               	retlw	46	;'.'
   409  0878  3432               	retlw	50	;'2'
   410  0879  3430               	retlw	48	;'0'
   411  087A  3420               	retlw	32	;' '
   412  087B  3420               	retlw	32	;' '
   413  087C  3476               	retlw	118	;'v'
   414  087D  342E               	retlw	46	;'.'
   415  087E  3432               	retlw	50	;'2'
   416  087F  3431               	retlw	49	;'1'
   417  0880  3420               	retlw	32	;' '
   418  0881  3420               	retlw	32	;' '
   419  0882  3477               	retlw	119	;'w'
   420  0883  342E               	retlw	46	;'.'
   421  0884  3432               	retlw	50	;'2'
   422  0885  3432               	retlw	50	;'2'
   423  0886  3420               	retlw	32	;' '
   424  0887  3420               	retlw	32	;' '
   425  0888  3478               	retlw	120	;'x'
   426  0889  342E               	retlw	46	;'.'
   427  088A  3432               	retlw	50	;'2'
   428  088B  3433               	retlw	51	;'3'
   429  088C  3420               	retlw	32	;' '
   430  088D  3420               	retlw	32	;' '
   431  088E  3479               	retlw	121	;'y'
   432  088F  342E               	retlw	46	;'.'
   433  0890  3432               	retlw	50	;'2'
   434  0891  3434               	retlw	52	;'4'
   435  0892  340D               	retlw	13
   436  0893  3400               	retlw	0
   437  0894                     STR_46:
   438  0894  3420               	retlw	32	;' '
   439  0895  346A               	retlw	106	;'j'
   440  0896  342E               	retlw	46	;'.'
   441  0897  3439               	retlw	57	;'9'
   442  0898  3420               	retlw	32	;' '
   443  0899  3420               	retlw	32	;' '
   444  089A  346B               	retlw	107	;'k'
   445  089B  342E               	retlw	46	;'.'
   446  089C  3431               	retlw	49	;'1'
   447  089D  3430               	retlw	48	;'0'
   448  089E  3420               	retlw	32	;' '
   449  089F  3420               	retlw	32	;' '
   450  08A0  346C               	retlw	108	;'l'
   451  08A1  342E               	retlw	46	;'.'
   452  08A2  3431               	retlw	49	;'1'
   453  08A3  3431               	retlw	49	;'1'
   454  08A4  3420               	retlw	32	;' '
   455  08A5  3420               	retlw	32	;' '
   456  08A6  346D               	retlw	109	;'m'
   457  08A7  342E               	retlw	46	;'.'
   458  08A8  3431               	retlw	49	;'1'
   459  08A9  3432               	retlw	50	;'2'
   460  08AA  3420               	retlw	32	;' '
   461  08AB  3420               	retlw	32	;' '
   462  08AC  346E               	retlw	110	;'n'
   463  08AD  342E               	retlw	46	;'.'
   464  08AE  3431               	retlw	49	;'1'
   465  08AF  3433               	retlw	51	;'3'
   466  08B0  3420               	retlw	32	;' '
   467  08B1  3420               	retlw	32	;' '
   468  08B2  346F               	retlw	111	;'o'
   469  08B3  342E               	retlw	46	;'.'
   470  08B4  3431               	retlw	49	;'1'
   471  08B5  3434               	retlw	52	;'4'
   472  08B6  3420               	retlw	32	;' '
   473  08B7  3420               	retlw	32	;' '
   474  08B8  3470               	retlw	112	;'p'
   475  08B9  342E               	retlw	46	;'.'
   476  08BA  3431               	retlw	49	;'1'
   477  08BB  3435               	retlw	53	;'5'
   478  08BC  3420               	retlw	32	;' '
   479  08BD  3420               	retlw	32	;' '
   480  08BE  3471               	retlw	113	;'q'
   481  08BF  342E               	retlw	46	;'.'
   482  08C0  3431               	retlw	49	;'1'
   483  08C1  3436               	retlw	54	;'6'
   484  08C2  340D               	retlw	13
   485  08C3  3400               	retlw	0
   486  08C4                     STR_50:
   487  08C4  3420               	retlw	32	;' '
   488  08C5  3449               	retlw	73	;'I'
   489  08C6  346E               	retlw	110	;'n'
   490  08C7  3467               	retlw	103	;'g'
   491  08C8  3472               	retlw	114	;'r'
   492  08C9  3465               	retlw	101	;'e'
   493  08CA  3473               	retlw	115	;'s'
   494  08CB  34C3               	retlw	-61
   495  08CC  34A1               	retlw	-95
   496  08CD  3420               	retlw	32	;' '
   497  08CE  346C               	retlw	108	;'l'
   498  08CF  3461               	retlw	97	;'a'
   499  08D0  3420               	retlw	32	;' '
   500  08D1  346C               	retlw	108	;'l'
   501  08D2  3465               	retlw	101	;'e'
   502  08D3  3474               	retlw	116	;'t'
   503  08D4  3472               	retlw	114	;'r'
   504  08D5  3461               	retlw	97	;'a'
   505  08D6  3420               	retlw	32	;' '
   506  08D7  3464               	retlw	100	;'d'
   507  08D8  3465               	retlw	101	;'e'
   508  08D9  3420               	retlw	32	;' '
   509  08DA  346C               	retlw	108	;'l'
   510  08DB  346F               	retlw	111	;'o'
   511  08DC  3473               	retlw	115	;'s'
   512  08DD  3420               	retlw	32	;' '
   513  08DE  346D               	retlw	109	;'m'
   514  08DF  3469               	retlw	105	;'i'
   515  08E0  346E               	retlw	110	;'n'
   516  08E1  3475               	retlw	117	;'u'
   517  08E2  3474               	retlw	116	;'t'
   518  08E3  346F               	retlw	111	;'o'
   519  08E4  3473               	retlw	115	;'s'
   520  08E5  3420               	retlw	32	;' '
   521  08E6  346E               	retlw	110	;'n'
   522  08E7  3475               	retlw	117	;'u'
   523  08E8  3465               	retlw	101	;'e'
   524  08E9  3476               	retlw	118	;'v'
   525  08EA  346F               	retlw	111	;'o'
   526  08EB  3473               	retlw	115	;'s'
   527  08EC  3420               	retlw	32	;' '
   528  08ED  3420               	retlw	32	;' '
   529  08EE  340D               	retlw	13
   530  08EF  3400               	retlw	0
   531  08F0                     STR_54:
   532  08F0  3420               	retlw	32	;' '
   533  08F1  3441               	retlw	65	;'A'
   534  08F2  3463               	retlw	99	;'c'
   535  08F3  3474               	retlw	116	;'t'
   536  08F4  3475               	retlw	117	;'u'
   537  08F5  3461               	retlw	97	;'a'
   538  08F6  346C               	retlw	108	;'l'
   539  08F7  346D               	retlw	109	;'m'
   540  08F8  3465               	retlw	101	;'e'
   541  08F9  346E               	retlw	110	;'n'
   542  08FA  3474               	retlw	116	;'t'
   543  08FB  3465               	retlw	101	;'e'
   544  08FC  3420               	retlw	32	;' '
   545  08FD  3473               	retlw	115	;'s'
   546  08FE  3465               	retlw	101	;'e'
   547  08FF  3420               	retlw	32	;' '
   548  0900  3463               	retlw	99	;'c'
   549  0901  3475               	retlw	117	;'u'
   550  0902  3465               	retlw	101	;'e'
   551  0903  346E               	retlw	110	;'n'
   552  0904  3474               	retlw	116	;'t'
   553  0905  3461               	retlw	97	;'a'
   554  0906  3420               	retlw	32	;' '
   555  0907  3463               	retlw	99	;'c'
   556  0908  346F               	retlw	111	;'o'
   557  0909  346E               	retlw	110	;'n'
   558  090A  3420               	retlw	32	;' '
   559  090B  3433               	retlw	51	;'3'
   560  090C  3420               	retlw	32	;' '
   561  090D  346D               	retlw	109	;'m'
   562  090E  3465               	retlw	101	;'e'
   563  090F  3464               	retlw	100	;'d'
   564  0910  3469               	retlw	105	;'i'
   565  0911  3463               	retlw	99	;'c'
   566  0912  3461               	retlw	97	;'a'
   567  0913  346D               	retlw	109	;'m'
   568  0914  3465               	retlw	101	;'e'
   569  0915  346E               	retlw	110	;'n'
   570  0916  3474               	retlw	116	;'t'
   571  0917  346F               	retlw	111	;'o'
   572  0918  3473               	retlw	115	;'s'
   573  0919  340D               	retlw	13
   574  091A  3400               	retlw	0
   575  091B                     STR_44:
   576  091B  3420               	retlw	32	;' '
   577  091C  3449               	retlw	73	;'I'
   578  091D  346E               	retlw	110	;'n'
   579  091E  3467               	retlw	103	;'g'
   580  091F  3472               	retlw	114	;'r'
   581  0920  3465               	retlw	101	;'e'
   582  0921  3473               	retlw	115	;'s'
   583  0922  34C3               	retlw	-61
   584  0923  34A1               	retlw	-95
   585  0924  3420               	retlw	32	;' '
   586  0925  346C               	retlw	108	;'l'
   587  0926  3461               	retlw	97	;'a'
   588  0927  3420               	retlw	32	;' '
   589  0928  346C               	retlw	108	;'l'
   590  0929  3465               	retlw	101	;'e'
   591  092A  3474               	retlw	116	;'t'
   592  092B  3472               	retlw	114	;'r'
   593  092C  3461               	retlw	97	;'a'
   594  092D  3420               	retlw	32	;' '
   595  092E  3464               	retlw	100	;'d'
   596  092F  3465               	retlw	101	;'e'
   597  0930  3420               	retlw	32	;' '
   598  0931  346C               	retlw	108	;'l'
   599  0932  3461               	retlw	97	;'a'
   600  0933  3420               	retlw	32	;' '
   601  0934  346E               	retlw	110	;'n'
   602  0935  3475               	retlw	117	;'u'
   603  0936  3465               	retlw	101	;'e'
   604  0937  3476               	retlw	118	;'v'
   605  0938  3461               	retlw	97	;'a'
   606  0939  3420               	retlw	32	;' '
   607  093A  3468               	retlw	104	;'h'
   608  093B  346F               	retlw	111	;'o'
   609  093C  3472               	retlw	114	;'r'
   610  093D  3461               	retlw	97	;'a'
   611  093E  3420               	retlw	32	;' '
   612  093F  3420               	retlw	32	;' '
   613  0940  340D               	retlw	13
   614  0941  3400               	retlw	0
   615  0942                     STR_7:
   616  0942  3436               	retlw	54	;'6'
   617  0943  3429               	retlw	41	;')'
   618  0944  3420               	retlw	32	;' '
   619  0945  344D               	retlw	77	;'M'
   620  0946  346F               	retlw	111	;'o'
   621  0947  3464               	retlw	100	;'d'
   622  0948  3469               	retlw	105	;'i'
   623  0949  3466               	retlw	102	;'f'
   624  094A  3469               	retlw	105	;'i'
   625  094B  3463               	retlw	99	;'c'
   626  094C  3461               	retlw	97	;'a'
   627  094D  3472               	retlw	114	;'r'
   628  094E  3420               	retlw	32	;' '
   629  094F  3468               	retlw	104	;'h'
   630  0950  346F               	retlw	111	;'o'
   631  0951  3472               	retlw	114	;'r'
   632  0952  3461               	retlw	97	;'a'
   633  0953  3472               	retlw	114	;'r'
   634  0954  3469               	retlw	105	;'i'
   635  0955  346F               	retlw	111	;'o'
   636  0956  3420               	retlw	32	;' '
   637  0957  3475               	retlw	117	;'u'
   638  0958  3473               	retlw	115	;'s'
   639  0959  3475               	retlw	117	;'u'
   640  095A  3461               	retlw	97	;'a'
   641  095B  3472               	retlw	114	;'r'
   642  095C  3469               	retlw	105	;'i'
   643  095D  346F               	retlw	111	;'o'
   644  095E  3420               	retlw	32	;' '
   645  095F  3474               	retlw	116	;'t'
   646  0960  3472               	retlw	114	;'r'
   647  0961  3465               	retlw	101	;'e'
   648  0962  3473               	retlw	115	;'s'
   649  0963  3420               	retlw	32	;' '
   650  0964  340D               	retlw	13
   651  0965  340D               	retlw	13
   652  0966  3400               	retlw	0
   653  0967                     STR_51:
   654  0967  3420               	retlw	32	;' '
   655  0968  3461               	retlw	97	;'a'
   656  0969  342E               	retlw	46	;'.'
   657  096A  3430               	retlw	48	;'0'
   658  096B  3420               	retlw	32	;' '
   659  096C  3420               	retlw	32	;' '
   660  096D  3462               	retlw	98	;'b'
   661  096E  342E               	retlw	46	;'.'
   662  096F  3431               	retlw	49	;'1'
   663  0970  3435               	retlw	53	;'5'
   664  0971  3420               	retlw	32	;' '
   665  0972  3420               	retlw	32	;' '
   666  0973  3420               	retlw	32	;' '
   667  0974  3463               	retlw	99	;'c'
   668  0975  342E               	retlw	46	;'.'
   669  0976  3433               	retlw	51	;'3'
   670  0977  3430               	retlw	48	;'0'
   671  0978  3420               	retlw	32	;' '
   672  0979  3420               	retlw	32	;' '
   673  097A  3420               	retlw	32	;' '
   674  097B  3464               	retlw	100	;'d'
   675  097C  342E               	retlw	46	;'.'
   676  097D  3434               	retlw	52	;'4'
   677  097E  3435               	retlw	53	;'5'
   678  097F  3420               	retlw	32	;' '
   679  0980  3420               	retlw	32	;' '
   680  0981  3420               	retlw	32	;' '
   681  0982  3465               	retlw	101	;'e'
   682  0983  342E               	retlw	46	;'.'
   683  0984  3435               	retlw	53	;'5'
   684  0985  3435               	retlw	53	;'5'
   685  0986  3420               	retlw	32	;' '
   686  0987  3420               	retlw	32	;' '
   687  0988  3420               	retlw	32	;' '
   688  0989  340D               	retlw	13
   689  098A  3400               	retlw	0
   690  098B                     STR_5:
   691  098B  3434               	retlw	52	;'4'
   692  098C  3429               	retlw	41	;')'
   693  098D  3420               	retlw	32	;' '
   694  098E  344D               	retlw	77	;'M'
   695  098F  346F               	retlw	111	;'o'
   696  0990  3464               	retlw	100	;'d'
   697  0991  3469               	retlw	105	;'i'
   698  0992  3466               	retlw	102	;'f'
   699  0993  3469               	retlw	105	;'i'
   700  0994  3463               	retlw	99	;'c'
   701  0995  3461               	retlw	97	;'a'
   702  0996  3472               	retlw	114	;'r'
   703  0997  3420               	retlw	32	;' '
   704  0998  3468               	retlw	104	;'h'
   705  0999  346F               	retlw	111	;'o'
   706  099A  3472               	retlw	114	;'r'
   707  099B  3461               	retlw	97	;'a'
   708  099C  3472               	retlw	114	;'r'
   709  099D  3469               	retlw	105	;'i'
   710  099E  346F               	retlw	111	;'o'
   711  099F  3420               	retlw	32	;' '
   712  09A0  3475               	retlw	117	;'u'
   713  09A1  3473               	retlw	115	;'s'
   714  09A2  3475               	retlw	117	;'u'
   715  09A3  3461               	retlw	97	;'a'
   716  09A4  3472               	retlw	114	;'r'
   717  09A5  3469               	retlw	105	;'i'
   718  09A6  346F               	retlw	111	;'o'
   719  09A7  3420               	retlw	32	;' '
   720  09A8  3475               	retlw	117	;'u'
   721  09A9  346E               	retlw	110	;'n'
   722  09AA  346F               	retlw	111	;'o'
   723  09AB  3420               	retlw	32	;' '
   724  09AC  340D               	retlw	13
   725  09AD  3400               	retlw	0
   726  09AE                     STR_6:
   727  09AE  3435               	retlw	53	;'5'
   728  09AF  3429               	retlw	41	;')'
   729  09B0  3420               	retlw	32	;' '
   730  09B1  344D               	retlw	77	;'M'
   731  09B2  346F               	retlw	111	;'o'
   732  09B3  3464               	retlw	100	;'d'
   733  09B4  3469               	retlw	105	;'i'
   734  09B5  3466               	retlw	102	;'f'
   735  09B6  3469               	retlw	105	;'i'
   736  09B7  3463               	retlw	99	;'c'
   737  09B8  3461               	retlw	97	;'a'
   738  09B9  3472               	retlw	114	;'r'
   739  09BA  3420               	retlw	32	;' '
   740  09BB  3468               	retlw	104	;'h'
   741  09BC  346F               	retlw	111	;'o'
   742  09BD  3472               	retlw	114	;'r'
   743  09BE  3461               	retlw	97	;'a'
   744  09BF  3472               	retlw	114	;'r'
   745  09C0  3469               	retlw	105	;'i'
   746  09C1  346F               	retlw	111	;'o'
   747  09C2  3420               	retlw	32	;' '
   748  09C3  3475               	retlw	117	;'u'
   749  09C4  3473               	retlw	115	;'s'
   750  09C5  3475               	retlw	117	;'u'
   751  09C6  3461               	retlw	97	;'a'
   752  09C7  3472               	retlw	114	;'r'
   753  09C8  3469               	retlw	105	;'i'
   754  09C9  346F               	retlw	111	;'o'
   755  09CA  3420               	retlw	32	;' '
   756  09CB  3464               	retlw	100	;'d'
   757  09CC  346F               	retlw	111	;'o'
   758  09CD  3473               	retlw	115	;'s'
   759  09CE  340D               	retlw	13
   760  09CF  3400               	retlw	0
   761  09D0                     STR_19:
   762  09D0  3420               	retlw	32	;' '
   763  09D1  346D               	retlw	109	;'m'
   764  09D2  3469               	retlw	105	;'i'
   765  09D3  346E               	retlw	110	;'n'
   766  09D4  3473               	retlw	115	;'s'
   767  09D5  342E               	retlw	46	;'.'
   768  09D6  3420               	retlw	32	;' '
   769  09D7  3470               	retlw	112	;'p'
   770  09D8  3461               	retlw	97	;'a'
   771  09D9  3472               	retlw	114	;'r'
   772  09DA  3461               	retlw	97	;'a'
   773  09DB  3420               	retlw	32	;' '
   774  09DC  3465               	retlw	101	;'e'
   775  09DD  346C               	retlw	108	;'l'
   776  09DE  3420               	retlw	32	;' '
   777  09DF  346D               	retlw	109	;'m'
   778  09E0  3465               	retlw	101	;'e'
   779  09E1  3464               	retlw	100	;'d'
   780  09E2  3469               	retlw	105	;'i'
   781  09E3  3463               	retlw	99	;'c'
   782  09E4  3461               	retlw	97	;'a'
   783  09E5  346D               	retlw	109	;'m'
   784  09E6  3465               	retlw	101	;'e'
   785  09E7  346E               	retlw	110	;'n'
   786  09E8  3474               	retlw	116	;'t'
   787  09E9  346F               	retlw	111	;'o'
   788  09EA  3420               	retlw	32	;' '
   789  09EB  3433               	retlw	51	;'3'
   790  09EC  3420               	retlw	32	;' '
   791  09ED  340D               	retlw	13
   792  09EE  340D               	retlw	13
   793  09EF  3400               	retlw	0
   794  09F0                     STR_11:
   795  09F0  3420               	retlw	32	;' '
   796  09F1  346D               	retlw	109	;'m'
   797  09F2  3469               	retlw	105	;'i'
   798  09F3  346E               	retlw	110	;'n'
   799  09F4  3473               	retlw	115	;'s'
   800  09F5  342E               	retlw	46	;'.'
   801  09F6  3420               	retlw	32	;' '
   802  09F7  3470               	retlw	112	;'p'
   803  09F8  3461               	retlw	97	;'a'
   804  09F9  3472               	retlw	114	;'r'
   805  09FA  3461               	retlw	97	;'a'
   806  09FB  3420               	retlw	32	;' '
   807  09FC  3465               	retlw	101	;'e'
   808  09FD  346C               	retlw	108	;'l'
   809  09FE  3420               	retlw	32	;' '
   810  09FF  346D               	retlw	109	;'m'
   811  0A00  3465               	retlw	101	;'e'
   812  0A01  3464               	retlw	100	;'d'
   813  0A02  3469               	retlw	105	;'i'
   814  0A03  3463               	retlw	99	;'c'
   815  0A04  3461               	retlw	97	;'a'
   816  0A05  346D               	retlw	109	;'m'
   817  0A06  3465               	retlw	101	;'e'
   818  0A07  346E               	retlw	110	;'n'
   819  0A08  3474               	retlw	116	;'t'
   820  0A09  346F               	retlw	111	;'o'
   821  0A0A  3420               	retlw	32	;' '
   822  0A0B  3431               	retlw	49	;'1'
   823  0A0C  3420               	retlw	32	;' '
   824  0A0D  340D               	retlw	13
   825  0A0E  3400               	retlw	0
   826  0A0F                     STR_15:
   827  0A0F  3420               	retlw	32	;' '
   828  0A10  346D               	retlw	109	;'m'
   829  0A11  3469               	retlw	105	;'i'
   830  0A12  346E               	retlw	110	;'n'
   831  0A13  3473               	retlw	115	;'s'
   832  0A14  342E               	retlw	46	;'.'
   833  0A15  3420               	retlw	32	;' '
   834  0A16  3470               	retlw	112	;'p'
   835  0A17  3461               	retlw	97	;'a'
   836  0A18  3472               	retlw	114	;'r'
   837  0A19  3461               	retlw	97	;'a'
   838  0A1A  3420               	retlw	32	;' '
   839  0A1B  3465               	retlw	101	;'e'
   840  0A1C  346C               	retlw	108	;'l'
   841  0A1D  3420               	retlw	32	;' '
   842  0A1E  346D               	retlw	109	;'m'
   843  0A1F  3465               	retlw	101	;'e'
   844  0A20  3464               	retlw	100	;'d'
   845  0A21  3469               	retlw	105	;'i'
   846  0A22  3463               	retlw	99	;'c'
   847  0A23  3461               	retlw	97	;'a'
   848  0A24  346D               	retlw	109	;'m'
   849  0A25  3465               	retlw	101	;'e'
   850  0A26  346E               	retlw	110	;'n'
   851  0A27  3474               	retlw	116	;'t'
   852  0A28  346F               	retlw	111	;'o'
   853  0A29  3420               	retlw	32	;' '
   854  0A2A  3432               	retlw	50	;'2'
   855  0A2B  3420               	retlw	32	;' '
   856  0A2C  340D               	retlw	13
   857  0A2D  3400               	retlw	0
   858  0A2E                     STR_1:
   859  0A2E  340D               	retlw	13
   860  0A2F  3420               	retlw	32	;' '
   861  0A30  3451               	retlw	81	;'Q'
   862  0A31  3475               	retlw	117	;'u'
   863  0A32  3465               	retlw	101	;'e'
   864  0A33  3420               	retlw	32	;' '
   865  0A34  3461               	retlw	97	;'a'
   866  0A35  3463               	retlw	99	;'c'
   867  0A36  3463               	retlw	99	;'c'
   868  0A37  3469               	retlw	105	;'i'
   869  0A38  346F               	retlw	111	;'o'
   870  0A39  346E               	retlw	110	;'n'
   871  0A3A  3420               	retlw	32	;' '
   872  0A3B  3464               	retlw	100	;'d'
   873  0A3C  3465               	retlw	101	;'e'
   874  0A3D  3473               	retlw	115	;'s'
   875  0A3E  3465               	retlw	101	;'e'
   876  0A3F  3461               	retlw	97	;'a'
   877  0A40  3420               	retlw	32	;' '
   878  0A41  3465               	retlw	101	;'e'
   879  0A42  346A               	retlw	106	;'j'
   880  0A43  3465               	retlw	101	;'e'
   881  0A44  3463               	retlw	99	;'c'
   882  0A45  3475               	retlw	117	;'u'
   883  0A46  3474               	retlw	116	;'t'
   884  0A47  3461               	retlw	97	;'a'
   885  0A48  3472               	retlw	114	;'r'
   886  0A49  343F               	retlw	63	;'?'
   887  0A4A  3420               	retlw	32	;' '
   888  0A4B  340D               	retlw	13
   889  0A4C  3400               	retlw	0
   890  0A4D                     STR_4:
   891  0A4D  3433               	retlw	51	;'3'
   892  0A4E  3429               	retlw	41	;')'
   893  0A4F  3420               	retlw	32	;' '
   894  0A50  3476               	retlw	118	;'v'
   895  0A51  3465               	retlw	101	;'e'
   896  0A52  3472               	retlw	114	;'r'
   897  0A53  3420               	retlw	32	;' '
   898  0A54  3464               	retlw	100	;'d'
   899  0A55  3461               	retlw	97	;'a'
   900  0A56  3474               	retlw	116	;'t'
   901  0A57  346F               	retlw	111	;'o'
   902  0A58  3473               	retlw	115	;'s'
   903  0A59  3420               	retlw	32	;' '
   904  0A5A  3464               	retlw	100	;'d'
   905  0A5B  3465               	retlw	101	;'e'
   906  0A5C  3420               	retlw	32	;' '
   907  0A5D  3475               	retlw	117	;'u'
   908  0A5E  3473               	retlw	115	;'s'
   909  0A5F  3475               	retlw	117	;'u'
   910  0A60  3461               	retlw	97	;'a'
   911  0A61  3472               	retlw	114	;'r'
   912  0A62  3469               	retlw	105	;'i'
   913  0A63  346F               	retlw	111	;'o'
   914  0A64  3420               	retlw	32	;' '
   915  0A65  3474               	retlw	116	;'t'
   916  0A66  3472               	retlw	114	;'r'
   917  0A67  3465               	retlw	101	;'e'
   918  0A68  3473               	retlw	115	;'s'
   919  0A69  3420               	retlw	32	;' '
   920  0A6A  340D               	retlw	13
   921  0A6B  3400               	retlw	0
   922  0A6C                     STR_2:
   923  0A6C  3431               	retlw	49	;'1'
   924  0A6D  3429               	retlw	41	;')'
   925  0A6E  3420               	retlw	32	;' '
   926  0A6F  3476               	retlw	118	;'v'
   927  0A70  3465               	retlw	101	;'e'
   928  0A71  3472               	retlw	114	;'r'
   929  0A72  3420               	retlw	32	;' '
   930  0A73  3464               	retlw	100	;'d'
   931  0A74  3461               	retlw	97	;'a'
   932  0A75  3474               	retlw	116	;'t'
   933  0A76  346F               	retlw	111	;'o'
   934  0A77  3473               	retlw	115	;'s'
   935  0A78  3420               	retlw	32	;' '
   936  0A79  3464               	retlw	100	;'d'
   937  0A7A  3465               	retlw	101	;'e'
   938  0A7B  3420               	retlw	32	;' '
   939  0A7C  3475               	retlw	117	;'u'
   940  0A7D  3473               	retlw	115	;'s'
   941  0A7E  3475               	retlw	117	;'u'
   942  0A7F  3461               	retlw	97	;'a'
   943  0A80  3472               	retlw	114	;'r'
   944  0A81  3469               	retlw	105	;'i'
   945  0A82  346F               	retlw	111	;'o'
   946  0A83  3420               	retlw	32	;' '
   947  0A84  3475               	retlw	117	;'u'
   948  0A85  346E               	retlw	110	;'n'
   949  0A86  346F               	retlw	111	;'o'
   950  0A87  3420               	retlw	32	;' '
   951  0A88  340D               	retlw	13
   952  0A89  3400               	retlw	0
   953  0A8A                     STR_3:
   954  0A8A  3432               	retlw	50	;'2'
   955  0A8B  3429               	retlw	41	;')'
   956  0A8C  3420               	retlw	32	;' '
   957  0A8D  3476               	retlw	118	;'v'
   958  0A8E  3465               	retlw	101	;'e'
   959  0A8F  3472               	retlw	114	;'r'
   960  0A90  3420               	retlw	32	;' '
   961  0A91  3464               	retlw	100	;'d'
   962  0A92  3461               	retlw	97	;'a'
   963  0A93  3474               	retlw	116	;'t'
   964  0A94  346F               	retlw	111	;'o'
   965  0A95  3473               	retlw	115	;'s'
   966  0A96  3420               	retlw	32	;' '
   967  0A97  3464               	retlw	100	;'d'
   968  0A98  3465               	retlw	101	;'e'
   969  0A99  3420               	retlw	32	;' '
   970  0A9A  3475               	retlw	117	;'u'
   971  0A9B  3473               	retlw	115	;'s'
   972  0A9C  3475               	retlw	117	;'u'
   973  0A9D  3461               	retlw	97	;'a'
   974  0A9E  3472               	retlw	114	;'r'
   975  0A9F  3469               	retlw	105	;'i'
   976  0AA0  346F               	retlw	111	;'o'
   977  0AA1  3420               	retlw	32	;' '
   978  0AA2  3464               	retlw	100	;'d'
   979  0AA3  346F               	retlw	111	;'o'
   980  0AA4  3473               	retlw	115	;'s'
   981  0AA5  340D               	retlw	13
   982  0AA6  3400               	retlw	0
   983  0AA7                     STR_56:
   984  0AA7  3420               	retlw	32	;' '
   985  0AA8  3431               	retlw	49	;'1'
   986  0AA9  342E               	retlw	46	;'.'
   987  0AAA  3441               	retlw	65	;'A'
   988  0AAB  3446               	retlw	70	;'F'
   989  0AAC  3443               	retlw	67	;'C'
   990  0AAD  3420               	retlw	32	;' '
   991  0AAE  3420               	retlw	32	;' '
   992  0AAF  3420               	retlw	32	;' '
   993  0AB0  3420               	retlw	32	;' '
   994  0AB1  3432               	retlw	50	;'2'
   995  0AB2  342E               	retlw	46	;'.'
   996  0AB3  3446               	retlw	70	;'F'
   997  0AB4  3446               	retlw	70	;'F'
   998  0AB5  3454               	retlw	84	;'T'
   999  0AB6  3420               	retlw	32	;' '
  1000  0AB7  3420               	retlw	32	;' '
  1001  0AB8  3420               	retlw	32	;' '
  1002  0AB9  3433               	retlw	51	;'3'
  1003  0ABA  342E               	retlw	46	;'.'
  1004  0ABB  3444               	retlw	68	;'D'
  1005  0ABC  3448               	retlw	72	;'H'
  1006  0ABD  344C               	retlw	76	;'L'
  1007  0ABE  3420               	retlw	32	;' '
  1008  0ABF  340D               	retlw	13
  1009  0AC0  3400               	retlw	0
  1010  0AC1                     STR_8:
  1011  0AC1  3420               	retlw	32	;' '
  1012  0AC2  3445               	retlw	69	;'E'
  1013  0AC3  3473               	retlw	115	;'s'
  1014  0AC4  3470               	retlw	112	;'p'
  1015  0AC5  3465               	retlw	101	;'e'
  1016  0AC6  3472               	retlw	114	;'r'
  1017  0AC7  3461               	retlw	97	;'a'
  1018  0AC8  3472               	retlw	114	;'r'
  1019  0AC9  3420               	retlw	32	;' '
  1020  0ACA  3420               	retlw	32	;' '
  1021  0ACB  3400               	retlw	0
  1022  0ACC                     STR_9:
  1023  0ACC  3420               	retlw	32	;' '
  1024  0ACD  3448               	retlw	72	;'H'
  1025  0ACE  346F               	retlw	111	;'o'
  1026  0ACF  3472               	retlw	114	;'r'
  1027  0AD0  3461               	retlw	97	;'a'
  1028  0AD1  3473               	retlw	115	;'s'
  1029  0AD2  3420               	retlw	32	;' '
  1030  0AD3  3400               	retlw	0
  1031  0AD4                     STR_10:
  1032  0AD4  3420               	retlw	32	;' '
  1033  0AD5  3463               	retlw	99	;'c'
  1034  0AD6  346F               	retlw	111	;'o'
  1035  0AD7  346E               	retlw	110	;'n'
  1036  0AD8  3420               	retlw	32	;' '
  1037  0AD9  3420               	retlw	32	;' '
  1038  0ADA  3400               	retlw	0
  1039  0ADB                     STR_85:
  1040  0ADB  3433               	retlw	51	;'3'
  1041  0ADC  3430               	retlw	48	;'0'
  1042  0ADD  3400               	retlw	0
  1043  0ADE                     STR_84:
  1044  0ADE  3431               	retlw	49	;'1'
  1045  0ADF  3435               	retlw	53	;'5'
  1046  0AE0  3400               	retlw	0
  1047  0AE1                     STR_86:
  1048  0AE1  3434               	retlw	52	;'4'
  1049  0AE2  3435               	retlw	53	;'5'
  1050  0AE3  3400               	retlw	0
  1051  0AE4                     STR_87:
  1052  0AE4  3435               	retlw	53	;'5'
  1053  0AE5  3435               	retlw	53	;'5'
  1054  0AE6  3400               	retlw	0
  1055  09D0                     
  1056                           	psect	cinit
  1057  000F                     start_initialization:	
  1058                           ; #config settings
  1059                           
  1060  000F                     __initialization:
  1061                           
  1062                           ; Clear objects allocated to COMMON
  1063  000F  01F0               	clrf	__pbssCOMMON& (0+127)
  1064  0010  01F1               	clrf	(__pbssCOMMON+1)& (0+127)
  1065  0011  01F2               	clrf	(__pbssCOMMON+2)& (0+127)
  1066  0012  01F3               	clrf	(__pbssCOMMON+3)& (0+127)
  1067  0013  01F4               	clrf	(__pbssCOMMON+4)& (0+127)
  1068  0014  01F5               	clrf	(__pbssCOMMON+5)& (0+127)
  1069                           
  1070                           ; Clear objects allocated to BANK0
  1071  0015  1383               	bcf	3,7	;select IRP bank0
  1072  0016  3020               	movlw	low __pbssBANK0
  1073  0017  0084               	movwf	4
  1074  0018  3038               	movlw	low (__pbssBANK0+24)
  1075  0019  120A  158A  23C6  120A  118A  	fcall	clear_ram0
  1076  001E                     end_of_initialization:	
  1077                           ;End of C runtime variable initialization code
  1078                           
  1079  001E                     __end_of__initialization:
  1080  001E  0183               	clrf	3
  1081  001F  120A  158A  2D28   	ljmp	_main	;jump to C main() function
  1082                           
  1083                           	psect	bssCOMMON
  1084  0070                     __pbssCOMMON:
  1085  0070                     _hora_nueva:
  1086  0070                     	ds	1
  1087  0071                     _min_user2:
  1088  0071                     	ds	1
  1089  0072                     _min_user1:
  1090  0072                     	ds	1
  1091  0073                     _escala:
  1092  0073                     	ds	1
  1093  0074                     _minuto:
  1094  0074                     	ds	1
  1095  0075                     _hora:
  1096  0075                     	ds	1
  1097                           
  1098                           	psect	bssBANK0
  1099  0020                     __pbssBANK0:
  1100  0020                     _me_3_us3_m:
  1101  0020                     	ds	1
  1102  0021                     _me_2_us3_m:
  1103  0021                     	ds	1
  1104  0022                     _me_1_us3_m:
  1105  0022                     	ds	1
  1106  0023                     _me_3_us2_m:
  1107  0023                     	ds	1
  1108  0024                     _me_2_us2_m:
  1109  0024                     	ds	1
  1110  0025                     _me_1_us2_m:
  1111  0025                     	ds	1
  1112  0026                     _me_3_us1_m:
  1113  0026                     	ds	1
  1114  0027                     _me_2_us1_m:
  1115  0027                     	ds	1
  1116  0028                     _me_1_us1_m:
  1117  0028                     	ds	1
  1118  0029                     _me_3_us3_h:
  1119  0029                     	ds	1
  1120  002A                     _me_2_us3_h:
  1121  002A                     	ds	1
  1122  002B                     _me_1_us3_h:
  1123  002B                     	ds	1
  1124  002C                     _me_3_us2_h:
  1125  002C                     	ds	1
  1126  002D                     _me_2_us2_h:
  1127  002D                     	ds	1
  1128  002E                     _me_1_us2_h:
  1129  002E                     	ds	1
  1130  002F                     _me_3_us1_h:
  1131  002F                     	ds	1
  1132  0030                     _me_2_us1_h:
  1133  0030                     	ds	1
  1134  0031                     _me_1_us1_h:
  1135  0031                     	ds	1
  1136  0032                     _hora_user3:
  1137  0032                     	ds	1
  1138  0033                     _hora_user2:
  1139  0033                     	ds	1
  1140  0034                     _hora_user1:
  1141  0034                     	ds	1
  1142  0035                     _min_user3:
  1143  0035                     	ds	1
  1144  0036                     _ventana:
  1145  0036                     	ds	1
  1146  0037                     _valor:
  1147  0037                     	ds	1
  1148                           
  1149                           	psect	clrtext
  1150  0BC6                     clear_ram0:	
  1151                           ;	Called with FSR containing the base address, and
  1152                           ;	W with the last address+1
  1153                           
  1154  0BC6  0064               	clrwdt	;clear the watchdog before getting into this loop
  1155  0BC7                     clrloop0:
  1156  0BC7  0180               	clrf	0	;clear RAM location pointed to by FSR
  1157  0BC8  0A84               	incf	4,f	;increment pointer
  1158  0BC9  0604               	xorwf	4,w	;XOR with final address
  1159  0BCA  1903               	btfsc	3,2	;have we reached the end yet?
  1160  0BCB  3400               	retlw	0	;all done for this memory range, return
  1161  0BCC  0604               	xorwf	4,w	;XOR again to restore value
  1162  0BCD  2BC7               	goto	clrloop0	;do the next byte
  1163                           
  1164                           	psect	cstackCOMMON
  1165  0076                     __pcstackCOMMON:
  1166  0076                     ?_USART_Rx:
  1167  0076                     ?_SendCharH:	
  1168                           ; 1 bytes @ 0x0
  1169                           
  1170  0076                     ?_SendCharM:	
  1171                           ; 1 bytes @ 0x0
  1172                           
  1173  0076                     ?_isr:	
  1174                           ; 1 bytes @ 0x0
  1175                           
  1176  0076                     ??_isr:	
  1177                           ; 1 bytes @ 0x0
  1178                           
  1179  0076                     ?_main:	
  1180                           ; 1 bytes @ 0x0
  1181                           
  1182  0076                     ?_USART_Tx:	
  1183                           ; 1 bytes @ 0x0
  1184                           
  1185                           
  1186                           ; 1 bytes @ 0x0
  1187  0076                     	ds	2
  1188  0078                     ??_USART_Rx:
  1189  0078                     ??_SendCharH:	
  1190                           ; 1 bytes @ 0x2
  1191                           
  1192  0078                     ?_CharToNumH:	
  1193                           ; 1 bytes @ 0x2
  1194                           
  1195  0078                     ?_CharToNumM:	
  1196                           ; 1 bytes @ 0x2
  1197                           
  1198  0078                     ??_USART_Tx:	
  1199                           ; 1 bytes @ 0x2
  1200                           
  1201  0078                     USART_Tx@data:	
  1202                           ; 1 bytes @ 0x2
  1203                           
  1204  0078                     CharToNumH@hora_user:	
  1205                           ; 1 bytes @ 0x2
  1206                           
  1207  0078                     CharToNumM@her:	
  1208                           ; 1 bytes @ 0x2
  1209                           
  1210                           
  1211                           ; 1 bytes @ 0x2
  1212  0078                     	ds	1
  1213  0079                     ?_USART_Cadena:
  1214  0079                     ??_CharToNumH:	
  1215                           ; 1 bytes @ 0x3
  1216                           
  1217  0079                     ??_CharToNumM:	
  1218                           ; 1 bytes @ 0x3
  1219                           
  1220  0079                     USART_Cadena@str:	
  1221                           ; 1 bytes @ 0x3
  1222                           
  1223                           
  1224                           ; 2 bytes @ 0x3
  1225  0079                     	ds	1
  1226  007A                     SendCharH@in:
  1227  007A                     CharToNumM@in:	
  1228                           ; 1 bytes @ 0x4
  1229                           
  1230                           
  1231                           ; 1 bytes @ 0x4
  1232  007A                     	ds	1
  1233  007B                     ??_USART_Cadena:
  1234  007B                     ??_SendCharM:	
  1235                           ; 1 bytes @ 0x5
  1236                           
  1237  007B                     SendCharM@in:	
  1238                           ; 1 bytes @ 0x5
  1239                           
  1240  007B                     CharToNumH@in:	
  1241                           ; 1 bytes @ 0x5
  1242                           
  1243                           
  1244                           ; 1 bytes @ 0x5
  1245  007B                     	ds	1
  1246                           
  1247                           	psect	cstackBANK0
  1248  0038                     __pcstackBANK0:
  1249  0038                     ??_main:
  1250                           
  1251                           ; 1 bytes @ 0x0
  1252  0038                     	ds	2
  1253                           
  1254                           	psect	maintext
  1255  0D28                     __pmaintext:	
  1256 ;;
  1257 ;;Main: autosize = 0, tempsize = 2, incstack = 0, save=0
  1258 ;;
  1259 ;; *************** function _main *****************
  1260 ;; Defined at:
  1261 ;;		line 76 in file "PROYECTO.c"
  1262 ;; Parameters:    Size  Location     Type
  1263 ;;		None
  1264 ;; Auto vars:     Size  Location     Type
  1265 ;;		None
  1266 ;; Return value:  Size  Location     Type
  1267 ;;                  1    wreg      void 
  1268 ;; Registers used:
  1269 ;;		wreg, fsr0l, fsr0h, status,2, status,0, btemp+1, pclath, cstack
  1270 ;; Tracked objects:
  1271 ;;		On entry : B00/0
  1272 ;;		On exit  : 0/0
  1273 ;;		Unchanged: 0/0
  1274 ;; Data sizes:     COMMON   BANK0   BANK1   BANK3   BANK2
  1275 ;;      Params:         0       0       0       0       0
  1276 ;;      Locals:         0       0       0       0       0
  1277 ;;      Temps:          0       2       0       0       0
  1278 ;;      Totals:         0       2       0       0       0
  1279 ;;Total ram usage:        2 bytes
  1280 ;; Hardware stack levels required when called:    4
  1281 ;; This function calls:
  1282 ;;		_CharToNumH
  1283 ;;		_CharToNumM
  1284 ;;		_SendCharH
  1285 ;;		_SendCharM
  1286 ;;		_USART_Cadena
  1287 ;;		_USART_Rx
  1288 ;; This function is called by:
  1289 ;;		Startup code after reset
  1290 ;; This function uses a non-reentrant model
  1291 ;;
  1292                           
  1293                           
  1294                           ;psect for function _main
  1295  0D28                     _main:
  1296  0D28                     l2884:	
  1297                           ;incstack = 0
  1298                           ; Regs used in _main: [wreg-fsr0h+status,2+status,0+btemp+1+pclath+cstack]
  1299                           
  1300                           
  1301                           ;PROYECTO.c: 77:     ANSEL = 0x00;
  1302  0D28  1683               	bsf	3,5	;RP0=1, select bank3
  1303  0D29  1703               	bsf	3,6	;RP1=1, select bank3
  1304  0D2A  0188               	clrf	8	;volatile
  1305                           
  1306                           ;PROYECTO.c: 78:     ANSELH = 0x00;
  1307  0D2B  0189               	clrf	9	;volatile
  1308                           
  1309                           ;PROYECTO.c: 80:     TRISA = 0x00;
  1310  0D2C  1683               	bsf	3,5	;RP0=1, select bank1
  1311  0D2D  1303               	bcf	3,6	;RP1=0, select bank1
  1312  0D2E  0185               	clrf	5	;volatile
  1313  0D2F                     l2886:
  1314                           
  1315                           ;PROYECTO.c: 81:     TRISB = 0xff;
  1316  0D2F  30FF               	movlw	255
  1317  0D30  0086               	movwf	6	;volatile
  1318  0D31                     l2888:
  1319                           
  1320                           ;PROYECTO.c: 82:     TRISD = 0x00;
  1321  0D31  0188               	clrf	8	;volatile
  1322                           
  1323                           ;PROYECTO.c: 83:     TRISE = 0b0011;
  1324  0D32  3003               	movlw	3
  1325  0D33  0089               	movwf	9	;volatile
  1326  0D34                     l2890:
  1327                           
  1328                           ;PROYECTO.c: 86:     ADCON1bits.ADFM = 0;
  1329  0D34  139F               	bcf	31,7	;volatile
  1330  0D35                     l2892:
  1331                           
  1332                           ;PROYECTO.c: 87:     ADCON1bits.VCFG0 = 0;
  1333  0D35  121F               	bcf	31,4	;volatile
  1334  0D36                     l2894:
  1335                           
  1336                           ;PROYECTO.c: 88:     ADCON1bits.VCFG1 = 0;
  1337  0D36  129F               	bcf	31,5	;volatile
  1338  0D37                     l2896:
  1339                           
  1340                           ;PROYECTO.c: 89:     ADCON0bits.ADCS0 = 1;
  1341  0D37  1283               	bcf	3,5	;RP0=0, select bank0
  1342  0D38  1303               	bcf	3,6	;RP1=0, select bank0
  1343  0D39  171F               	bsf	31,6	;volatile
  1344  0D3A                     l2898:
  1345                           
  1346                           ;PROYECTO.c: 90:     ADCON0bits.ADCS1 = 0;
  1347  0D3A  139F               	bcf	31,7	;volatile
  1348  0D3B                     l2900:
  1349                           
  1350                           ;PROYECTO.c: 91:     ADCON0bits.CHS = 5;
  1351  0D3B  081F               	movf	31,w	;volatile
  1352  0D3C  39C3               	andlw	-61
  1353  0D3D  3814               	iorlw	20
  1354  0D3E  009F               	movwf	31	;volatile
  1355  0D3F                     l2902:
  1356                           
  1357                           ;PROYECTO.c: 92:     _delay((unsigned long)((100)*(4000000/4000000.0)));
  1358  0D3F  3020               	movlw	32
  1359  0D40  1283               	bcf	3,5	;RP0=0, select bank0
  1360  0D41  1303               	bcf	3,6	;RP1=0, select bank0
  1361  0D42  00B8               	movwf	??_main
  1362  0D43                     u4377:
  1363  0D43  0BB8               	decfsz	??_main,f
  1364  0D44  2D43               	goto	u4377
  1365  0D45  0000               	nop
  1366  0D46                     l2904:
  1367                           
  1368                           ;PROYECTO.c: 93:     ADCON0bits.ADON = 1;
  1369  0D46  1283               	bcf	3,5	;RP0=0, select bank0
  1370  0D47  1303               	bcf	3,6	;RP1=0, select bank0
  1371  0D48  141F               	bsf	31,0	;volatile
  1372  0D49                     l2906:
  1373                           
  1374                           ;PROYECTO.c: 95:     OPTION_REGbits.nRBPU = 0;
  1375  0D49  1683               	bsf	3,5	;RP0=1, select bank1
  1376  0D4A  1303               	bcf	3,6	;RP1=0, select bank1
  1377  0D4B  1381               	bcf	1,7	;volatile
  1378  0D4C                     l2908:
  1379                           
  1380                           ;PROYECTO.c: 96:     WPUBbits.WPUB0 = 1;
  1381  0D4C  1415               	bsf	21,0	;volatile
  1382  0D4D                     l2910:
  1383                           
  1384                           ;PROYECTO.c: 97:     WPUBbits.WPUB1 = 1;
  1385  0D4D  1495               	bsf	21,1	;volatile
  1386  0D4E                     l2912:
  1387                           
  1388                           ;PROYECTO.c: 98:     WPUBbits.WPUB2 = 1;
  1389  0D4E  1515               	bsf	21,2	;volatile
  1390  0D4F                     l2914:
  1391                           
  1392                           ;PROYECTO.c: 99:     WPUBbits.WPUB5 = 1;
  1393  0D4F  1695               	bsf	21,5	;volatile
  1394  0D50                     l2916:
  1395                           
  1396                           ;PROYECTO.c: 100:     WPUBbits.WPUB6 = 1;
  1397  0D50  1715               	bsf	21,6	;volatile
  1398  0D51                     l2918:
  1399                           
  1400                           ;PROYECTO.c: 101:     WPUBbits.WPUB7 = 1;
  1401  0D51  1795               	bsf	21,7	;volatile
  1402                           
  1403                           ;PROYECTO.c: 104:     OSCCONbits.IRCF = 0b110;
  1404  0D52  080F               	movf	15,w	;volatile
  1405  0D53  398F               	andlw	-113
  1406  0D54  3860               	iorlw	96
  1407  0D55  008F               	movwf	15	;volatile
  1408  0D56                     l2920:
  1409                           
  1410                           ;PROYECTO.c: 105:     OSCCONbits.SCS = 1;
  1411  0D56  140F               	bsf	15,0	;volatile
  1412  0D57                     l2922:
  1413                           
  1414                           ;PROYECTO.c: 108:     OPTION_REGbits.T0CS = 0;
  1415  0D57  1281               	bcf	1,5	;volatile
  1416  0D58                     l2924:
  1417                           
  1418                           ;PROYECTO.c: 109:     OPTION_REGbits.PSA = 0;
  1419  0D58  1181               	bcf	1,3	;volatile
  1420                           
  1421                           ;PROYECTO.c: 110:     OPTION_REGbits.PS = 0b111;
  1422  0D59  3007               	movlw	7
  1423  0D5A  0481               	iorwf	1,f	;volatile
  1424  0D5B                     l2926:
  1425                           
  1426                           ;PROYECTO.c: 111:     TMR0 = 78;
  1427  0D5B  304E               	movlw	78
  1428  0D5C  1283               	bcf	3,5	;RP0=0, select bank0
  1429  0D5D  1303               	bcf	3,6	;RP1=0, select bank0
  1430  0D5E  0081               	movwf	1	;volatile
  1431  0D5F                     l2928:
  1432                           
  1433                           ;PROYECTO.c: 114:     TXSTAbits.SYNC = 0;
  1434  0D5F  1683               	bsf	3,5	;RP0=1, select bank1
  1435  0D60  1303               	bcf	3,6	;RP1=0, select bank1
  1436  0D61  1218               	bcf	24,4	;volatile
  1437  0D62                     l2930:
  1438                           
  1439                           ;PROYECTO.c: 115:     TXSTAbits.BRGH = 1;
  1440  0D62  1518               	bsf	24,2	;volatile
  1441  0D63                     l2932:
  1442                           
  1443                           ;PROYECTO.c: 116:     BAUDCTLbits.BRG16 = 1;
  1444  0D63  1683               	bsf	3,5	;RP0=1, select bank3
  1445  0D64  1703               	bsf	3,6	;RP1=1, select bank3
  1446  0D65  1587               	bsf	7,3	;volatile
  1447  0D66                     l2934:
  1448                           
  1449                           ;PROYECTO.c: 118:     SPBRG = 103;
  1450  0D66  3067               	movlw	103
  1451  0D67  1683               	bsf	3,5	;RP0=1, select bank1
  1452  0D68  1303               	bcf	3,6	;RP1=0, select bank1
  1453  0D69  0099               	movwf	25	;volatile
  1454  0D6A                     l2936:
  1455                           
  1456                           ;PROYECTO.c: 119:     SPBRGH = 0;
  1457  0D6A  019A               	clrf	26	;volatile
  1458  0D6B                     l2938:
  1459                           
  1460                           ;PROYECTO.c: 121:     RCSTAbits.SPEN = 1;
  1461  0D6B  1283               	bcf	3,5	;RP0=0, select bank0
  1462  0D6C  1303               	bcf	3,6	;RP1=0, select bank0
  1463  0D6D  1798               	bsf	24,7	;volatile
  1464  0D6E                     l2940:
  1465                           
  1466                           ;PROYECTO.c: 122:     RCSTAbits.RX9 = 0;
  1467  0D6E  1318               	bcf	24,6	;volatile
  1468  0D6F                     l2942:
  1469                           
  1470                           ;PROYECTO.c: 123:     RCSTAbits.CREN = 1;
  1471  0D6F  1618               	bsf	24,4	;volatile
  1472  0D70                     l2944:
  1473                           
  1474                           ;PROYECTO.c: 124:     TXSTAbits.TXEN = 1;
  1475  0D70  1683               	bsf	3,5	;RP0=1, select bank1
  1476  0D71  1303               	bcf	3,6	;RP1=0, select bank1
  1477  0D72  1698               	bsf	24,5	;volatile
  1478  0D73                     l2946:
  1479                           
  1480                           ;PROYECTO.c: 126:     INTCONbits.GIE = 1;
  1481  0D73  178B               	bsf	11,7	;volatile
  1482  0D74                     l2948:
  1483                           
  1484                           ;PROYECTO.c: 127:     INTCONbits.T0IE = 0;
  1485  0D74  128B               	bcf	11,5	;volatile
  1486  0D75                     l2950:
  1487                           
  1488                           ;PROYECTO.c: 128:     INTCONbits.T0IF = 0;
  1489  0D75  110B               	bcf	11,2	;volatile
  1490  0D76                     l2952:
  1491                           
  1492                           ;PROYECTO.c: 132:     ADCON0bits.GO = 1;
  1493  0D76  1283               	bcf	3,5	;RP0=0, select bank0
  1494  0D77  1303               	bcf	3,6	;RP1=0, select bank0
  1495  0D78  149F               	bsf	31,1	;volatile
  1496  0D79                     l2954:
  1497                           
  1498                           ;PROYECTO.c: 134:     PORTA = 0;
  1499  0D79  0185               	clrf	5	;volatile
  1500  0D7A                     l2956:
  1501                           
  1502                           ;PROYECTO.c: 135:     PORTB = 0;
  1503  0D7A  0186               	clrf	6	;volatile
  1504  0D7B                     l2958:
  1505                           
  1506                           ;PROYECTO.c: 136:     PORTC = 0;
  1507  0D7B  0187               	clrf	7	;volatile
  1508  0D7C                     l2960:
  1509                           
  1510                           ;PROYECTO.c: 137:     PORTD = 0;
  1511  0D7C  0188               	clrf	8	;volatile
  1512  0D7D                     l2962:
  1513                           
  1514                           ;PROYECTO.c: 138:     PORTE = 0;
  1515  0D7D  0189               	clrf	9	;volatile
  1516  0D7E                     l2964:
  1517                           
  1518                           ;PROYECTO.c: 140:     ventana = 1;
  1519  0D7E  01B6               	clrf	_ventana
  1520  0D7F  0AB6               	incf	_ventana,f
  1521  0D80                     l2966:
  1522                           
  1523                           ;PROYECTO.c: 144:        if (T0IF == 1) {
  1524  0D80  1D0B               	btfss	11,2	;volatile
  1525  0D81  2D83               	goto	u3271
  1526  0D82  2D84               	goto	u3270
  1527  0D83                     u3271:
  1528  0D83  2DD9               	goto	l3004
  1529  0D84                     u3270:
  1530  0D84                     l2968:
  1531                           
  1532                           ;PROYECTO.c: 145:             if(!RB0){
  1533  0D84  1806               	btfsc	6,0	;volatile
  1534  0D85  2D87               	goto	u3281
  1535  0D86  2D88               	goto	u3280
  1536  0D87                     u3281:
  1537  0D87  2D9A               	goto	l164
  1538  0D88                     u3280:
  1539  0D88                     l2970:
  1540                           
  1541                           ;PROYECTO.c: 146:                 RD0 = 1;
  1542  0D88  1408               	bsf	8,0	;volatile
  1543  0D89                     l2972:
  1544                           
  1545                           ;PROYECTO.c: 147:                 _delay((unsigned long)((2)*(4000000/4000.0)));
  1546  0D89  3003               	movlw	3
  1547  0D8A  1283               	bcf	3,5	;RP0=0, select bank0
  1548  0D8B  1303               	bcf	3,6	;RP1=0, select bank0
  1549  0D8C  00B9               	movwf	??_main+1
  1550  0D8D  3097               	movlw	151
  1551  0D8E  00B8               	movwf	??_main
  1552  0D8F                     u4387:
  1553  0D8F  0BB8               	decfsz	??_main,f
  1554  0D90  2D8F               	goto	u4387
  1555  0D91  0BB9               	decfsz	??_main+1,f
  1556  0D92  2D8F               	goto	u4387
  1557  0D93                     l2974:
  1558                           
  1559                           ;PROYECTO.c: 148:                 RD0 = 0;
  1560  0D93  1283               	bcf	3,5	;RP0=0, select bank0
  1561  0D94  1303               	bcf	3,6	;RP1=0, select bank0
  1562  0D95  1008               	bcf	8,0	;volatile
  1563                           
  1564                           ;PROYECTO.c: 149:                 TMR0 = 70;
  1565  0D96  3046               	movlw	70
  1566  0D97  0081               	movwf	1	;volatile
  1567  0D98                     l2976:
  1568                           
  1569                           ;PROYECTO.c: 150:                 INTCONbits.T0IF = 0;
  1570  0D98  110B               	bcf	11,2	;volatile
  1571                           
  1572                           ;PROYECTO.c: 151:             }
  1573  0D99  2DD9               	goto	l3004
  1574  0D9A                     l164:	
  1575                           ;PROYECTO.c: 152:             else if(!RB1){
  1576                           
  1577  0D9A  1886               	btfsc	6,1	;volatile
  1578  0D9B  2D9D               	goto	u3291
  1579  0D9C  2D9E               	goto	u3290
  1580  0D9D                     u3291:
  1581  0D9D  2DB0               	goto	l166
  1582  0D9E                     u3290:
  1583  0D9E                     l2978:
  1584                           
  1585                           ;PROYECTO.c: 153:                 RD1 = 1;
  1586  0D9E  1488               	bsf	8,1	;volatile
  1587  0D9F                     l2980:
  1588                           
  1589                           ;PROYECTO.c: 154:                 _delay((unsigned long)((2)*(4000000/4000.0)));
  1590  0D9F  3003               	movlw	3
  1591  0DA0  1283               	bcf	3,5	;RP0=0, select bank0
  1592  0DA1  1303               	bcf	3,6	;RP1=0, select bank0
  1593  0DA2  00B9               	movwf	??_main+1
  1594  0DA3  3097               	movlw	151
  1595  0DA4  00B8               	movwf	??_main
  1596  0DA5                     u4397:
  1597  0DA5  0BB8               	decfsz	??_main,f
  1598  0DA6  2DA5               	goto	u4397
  1599  0DA7  0BB9               	decfsz	??_main+1,f
  1600  0DA8  2DA5               	goto	u4397
  1601  0DA9                     l2982:
  1602                           
  1603                           ;PROYECTO.c: 155:                 RD1 = 0;
  1604  0DA9  1283               	bcf	3,5	;RP0=0, select bank0
  1605  0DAA  1303               	bcf	3,6	;RP1=0, select bank0
  1606  0DAB  1088               	bcf	8,1	;volatile
  1607                           
  1608                           ;PROYECTO.c: 156:                 TMR0 = 70;
  1609  0DAC  3046               	movlw	70
  1610  0DAD  0081               	movwf	1	;volatile
  1611  0DAE                     l2984:
  1612                           
  1613                           ;PROYECTO.c: 157:                 INTCONbits.T0IF = 0;
  1614  0DAE  110B               	bcf	11,2	;volatile
  1615                           
  1616                           ;PROYECTO.c: 158:             }
  1617  0DAF  2DD9               	goto	l3004
  1618  0DB0                     l166:	
  1619                           ;PROYECTO.c: 159:             else if(!RB2){
  1620                           
  1621  0DB0  1906               	btfsc	6,2	;volatile
  1622  0DB1  2DB3               	goto	u3301
  1623  0DB2  2DB4               	goto	u3300
  1624  0DB3                     u3301:
  1625  0DB3  2DC6               	goto	l168
  1626  0DB4                     u3300:
  1627  0DB4                     l2986:
  1628                           
  1629                           ;PROYECTO.c: 160:                 RD2 = 1;
  1630  0DB4  1508               	bsf	8,2	;volatile
  1631  0DB5                     l2988:
  1632                           
  1633                           ;PROYECTO.c: 161:                 _delay((unsigned long)((2)*(4000000/4000.0)));
  1634  0DB5  3003               	movlw	3
  1635  0DB6  1283               	bcf	3,5	;RP0=0, select bank0
  1636  0DB7  1303               	bcf	3,6	;RP1=0, select bank0
  1637  0DB8  00B9               	movwf	??_main+1
  1638  0DB9  3097               	movlw	151
  1639  0DBA  00B8               	movwf	??_main
  1640  0DBB                     u4407:
  1641  0DBB  0BB8               	decfsz	??_main,f
  1642  0DBC  2DBB               	goto	u4407
  1643  0DBD  0BB9               	decfsz	??_main+1,f
  1644  0DBE  2DBB               	goto	u4407
  1645  0DBF                     l2990:
  1646                           
  1647                           ;PROYECTO.c: 162:                 RD2 = 0;
  1648  0DBF  1283               	bcf	3,5	;RP0=0, select bank0
  1649  0DC0  1303               	bcf	3,6	;RP1=0, select bank0
  1650  0DC1  1108               	bcf	8,2	;volatile
  1651                           
  1652                           ;PROYECTO.c: 163:                 TMR0 = 70;
  1653  0DC2  3046               	movlw	70
  1654  0DC3  0081               	movwf	1	;volatile
  1655  0DC4                     l2992:
  1656                           
  1657                           ;PROYECTO.c: 164:                 INTCONbits.T0IF = 0;
  1658  0DC4  110B               	bcf	11,2	;volatile
  1659                           
  1660                           ;PROYECTO.c: 165:             }
  1661  0DC5  2DD9               	goto	l3004
  1662  0DC6                     l168:	
  1663                           ;PROYECTO.c: 166:             else{
  1664                           
  1665                           
  1666                           ;PROYECTO.c: 167:                 RD0 = 1;
  1667  0DC6  1408               	bsf	8,0	;volatile
  1668                           
  1669                           ;PROYECTO.c: 168:                 RD1 = 1;
  1670  0DC7  1488               	bsf	8,1	;volatile
  1671                           
  1672                           ;PROYECTO.c: 169:                 RD2 = 1;
  1673  0DC8  1508               	bsf	8,2	;volatile
  1674  0DC9                     l2994:
  1675                           
  1676                           ;PROYECTO.c: 170:                 _delay((unsigned long)((1)*(4000000/4000.0)));
  1677  0DC9  30C7               	movlw	199
  1678  0DCA  1283               	bcf	3,5	;RP0=0, select bank0
  1679  0DCB  1303               	bcf	3,6	;RP1=0, select bank0
  1680  0DCC  00B8               	movwf	??_main
  1681  0DCD                     u4417:
  1682  0DCD  2DCE               	nop2
  1683  0DCE  0BB8               	decfsz	??_main,f
  1684  0DCF  2DCD               	goto	u4417
  1685  0DD0  2DD1               	nop2
  1686  0DD1                     l2996:
  1687                           
  1688                           ;PROYECTO.c: 171:                 RD1 = 0;
  1689  0DD1  1283               	bcf	3,5	;RP0=0, select bank0
  1690  0DD2  1303               	bcf	3,6	;RP1=0, select bank0
  1691  0DD3  1088               	bcf	8,1	;volatile
  1692  0DD4                     l2998:
  1693                           
  1694                           ;PROYECTO.c: 172:                 RD2 = 0;
  1695  0DD4  1108               	bcf	8,2	;volatile
  1696  0DD5                     l3000:
  1697                           
  1698                           ;PROYECTO.c: 173:                 RD0 = 0;
  1699  0DD5  1008               	bcf	8,0	;volatile
  1700                           
  1701                           ;PROYECTO.c: 174:                 TMR0 = 74;
  1702  0DD6  304A               	movlw	74
  1703  0DD7  0081               	movwf	1	;volatile
  1704  0DD8                     l3002:
  1705                           
  1706                           ;PROYECTO.c: 175:                 INTCONbits.T0IF = 0;
  1707  0DD8  110B               	bcf	11,2	;volatile
  1708  0DD9                     l3004:
  1709                           
  1710                           ;PROYECTO.c: 179:        if(ADCON0bits.GO == 0){
  1711  0DD9  189F               	btfsc	31,1	;volatile
  1712  0DDA  2DDC               	goto	u3311
  1713  0DDB  2DDF               	goto	u3310
  1714  0DDC                     u3311:
  1715  0DDC  120A  118A  29D5   	goto	l170
  1716  0DDF                     u3310:
  1717  0DDF                     l3006:
  1718                           
  1719                           ;PROYECTO.c: 181:             if(ADCON0bits.CHS == 6){
  1720  0DDF  0C1F               	rrf	31,w	;volatile
  1721  0DE0  00B8               	movwf	??_main
  1722  0DE1  0C38               	rrf	??_main,w
  1723  0DE2  390F               	andlw	15
  1724  0DE3  3A06               	xorlw	6
  1725  0DE4  1D03               	skipz
  1726  0DE5  2DE7               	goto	u3321
  1727  0DE6  2DEA               	goto	u3320
  1728  0DE7                     u3321:
  1729  0DE7  120A  118A  2822   	goto	l3036
  1730  0DEA                     u3320:
  1731  0DEA                     l3008:
  1732                           
  1733                           ;PROYECTO.c: 182:                 escala = ADRESH;
  1734  0DEA  081E               	movf	30,w	;volatile
  1735  0DEB  00B8               	movwf	??_main
  1736  0DEC  0838               	movf	??_main,w
  1737  0DED  00F3               	movwf	_escala
  1738                           
  1739                           ;PROYECTO.c: 183:                 if (escala >= 0 && escala <=42){
  1740  0DEE  302B               	movlw	43
  1741  0DEF  0273               	subwf	_escala,w
  1742  0DF0  1803               	skipnc
  1743  0DF1  2DF3               	goto	u3331
  1744  0DF2  2DF4               	goto	u3330
  1745  0DF3                     u3331:
  1746  0DF3  2DF6               	goto	l3012
  1747  0DF4                     u3330:
  1748  0DF4                     l3010:
  1749                           
  1750                           ;PROYECTO.c: 184:                     minuto = 0;
  1751  0DF4  01F4               	clrf	_minuto
  1752                           
  1753                           ;PROYECTO.c: 185:                 }else if(escala >= 43 && escala <= 84 ){
  1754  0DF5  2E34               	goto	l3034
  1755  0DF6                     l3012:
  1756  0DF6  302B               	movlw	43
  1757  0DF7  0273               	subwf	_escala,w
  1758  0DF8  1C03               	skipc
  1759  0DF9  2DFB               	goto	u3341
  1760  0DFA  2DFC               	goto	u3340
  1761  0DFB                     u3341:
  1762  0DFB  2E07               	goto	l3018
  1763  0DFC                     u3340:
  1764  0DFC                     l3014:
  1765  0DFC  3055               	movlw	85
  1766  0DFD  0273               	subwf	_escala,w
  1767  0DFE  1803               	skipnc
  1768  0DFF  2E01               	goto	u3351
  1769  0E00  2E02               	goto	u3350
  1770  0E01                     u3351:
  1771  0E01  2E07               	goto	l3018
  1772  0E02                     u3350:
  1773  0E02                     l3016:
  1774                           
  1775                           ;PROYECTO.c: 186:                     minuto = 15;
  1776  0E02  300F               	movlw	15
  1777  0E03  00B8               	movwf	??_main
  1778  0E04  0838               	movf	??_main,w
  1779  0E05  00F4               	movwf	_minuto
  1780                           
  1781                           ;PROYECTO.c: 187:                 }else if(escala >= 85 && escala <= 126 ){
  1782  0E06  2E34               	goto	l3034
  1783  0E07                     l3018:
  1784  0E07  3055               	movlw	85
  1785  0E08  0273               	subwf	_escala,w
  1786  0E09  1C03               	skipc
  1787  0E0A  2E0C               	goto	u3361
  1788  0E0B  2E0D               	goto	u3360
  1789  0E0C                     u3361:
  1790  0E0C  2E18               	goto	l3024
  1791  0E0D                     u3360:
  1792  0E0D                     l3020:
  1793  0E0D  307F               	movlw	127
  1794  0E0E  0273               	subwf	_escala,w
  1795  0E0F  1803               	skipnc
  1796  0E10  2E12               	goto	u3371
  1797  0E11  2E13               	goto	u3370
  1798  0E12                     u3371:
  1799  0E12  2E18               	goto	l3024
  1800  0E13                     u3370:
  1801  0E13                     l3022:
  1802                           
  1803                           ;PROYECTO.c: 188:                     minuto = 30;
  1804  0E13  301E               	movlw	30
  1805  0E14  00B8               	movwf	??_main
  1806  0E15  0838               	movf	??_main,w
  1807  0E16  00F4               	movwf	_minuto
  1808                           
  1809                           ;PROYECTO.c: 189:                 }else if(escala >= 127 && escala <= 168 ){
  1810  0E17  2E34               	goto	l3034
  1811  0E18                     l3024:
  1812  0E18  307F               	movlw	127
  1813  0E19  0273               	subwf	_escala,w
  1814  0E1A  1C03               	skipc
  1815  0E1B  2E1D               	goto	u3381
  1816  0E1C  2E1E               	goto	u3380
  1817  0E1D                     u3381:
  1818  0E1D  2E29               	goto	l3030
  1819  0E1E                     u3380:
  1820  0E1E                     l3026:
  1821  0E1E  30A9               	movlw	169
  1822  0E1F  0273               	subwf	_escala,w
  1823  0E20  1803               	skipnc
  1824  0E21  2E23               	goto	u3391
  1825  0E22  2E24               	goto	u3390
  1826  0E23                     u3391:
  1827  0E23  2E29               	goto	l3030
  1828  0E24                     u3390:
  1829  0E24                     l3028:
  1830                           
  1831                           ;PROYECTO.c: 190:                     minuto = 45;
  1832  0E24  302D               	movlw	45
  1833  0E25  00B8               	movwf	??_main
  1834  0E26  0838               	movf	??_main,w
  1835  0E27  00F4               	movwf	_minuto
  1836                           
  1837                           ;PROYECTO.c: 191:                 }else if(escala >= 210 && escala <= 255 ){
  1838  0E28  2E34               	goto	l3034
  1839  0E29                     l3030:
  1840  0E29  30D2               	movlw	210
  1841  0E2A  0273               	subwf	_escala,w
  1842  0E2B  1C03               	skipc
  1843  0E2C  2E2E               	goto	u3401
  1844  0E2D  2E2F               	goto	u3400
  1845  0E2E                     u3401:
  1846  0E2E  2E34               	goto	l175
  1847  0E2F                     u3400:
  1848  0E2F                     l3032:
  1849                           
  1850                           ;PROYECTO.c: 192:                     minuto = 55;
  1851  0E2F  3037               	movlw	55
  1852  0E30  00B8               	movwf	??_main
  1853  0E31  0838               	movf	??_main,w
  1854  0E32  00F4               	movwf	_minuto
  1855  0E33  2E34               	goto	l3034
  1856  0E34                     l175:
  1857  0E34                     l3034:
  1858                           
  1859                           ;PROYECTO.c: 195:                 ADCON0bits.CHS = 5;
  1860  0E34  081F               	movf	31,w	;volatile
  1861  0E35  39C3               	andlw	-61
  1862  0E36  3814               	iorlw	20
  1863  0E37  009F               	movwf	31	;volatile
  1864                           
  1865                           ;PROYECTO.c: 196:             }
  1866  0E38  120A  118A  29CB   	goto	l3186
  1867                           
  1868                           	psect	text1
  1869  07FC                     __ptext1:	
  1870 ;; *************** function _USART_Rx *****************
  1871 ;; Defined at:
  1872 ;;		line 533 in file "PROYECTO.c"
  1873 ;; Parameters:    Size  Location     Type
  1874 ;;		None
  1875 ;; Auto vars:     Size  Location     Type
  1876 ;;		None
  1877 ;; Return value:  Size  Location     Type
  1878 ;;                  1    wreg      unsigned char 
  1879 ;; Registers used:
  1880 ;;		wreg
  1881 ;; Tracked objects:
  1882 ;;		On entry : 0/0
  1883 ;;		On exit  : 0/0
  1884 ;;		Unchanged: 0/0
  1885 ;; Data sizes:     COMMON   BANK0   BANK1   BANK3   BANK2
  1886 ;;      Params:         0       0       0       0       0
  1887 ;;      Locals:         0       0       0       0       0
  1888 ;;      Temps:          0       0       0       0       0
  1889 ;;      Totals:         0       0       0       0       0
  1890 ;;Total ram usage:        0 bytes
  1891 ;; Hardware stack levels used:    1
  1892 ;; Hardware stack levels required when called:    1
  1893 ;; This function calls:
  1894 ;;		Nothing
  1895 ;; This function is called by:
  1896 ;;		_main
  1897 ;; This function uses a non-reentrant model
  1898 ;;
  1899                           
  1900                           
  1901                           ;psect for function _USART_Rx
  1902  07FC                     _USART_Rx:
  1903  07FC                     l2016:	
  1904                           ;incstack = 0
  1905                           ; Regs used in _USART_Rx: [wreg]
  1906                           
  1907                           
  1908                           ;PROYECTO.c: 534:     return RCREG;
  1909  07FC  1283               	bcf	3,5	;RP0=0, select bank0
  1910  07FD  1303               	bcf	3,6	;RP1=0, select bank0
  1911  07FE  081A               	movf	26,w	;volatile
  1912  07FF                     l319:
  1913  07FF  0008               	return
  1914  0800                     __end_of_USART_Rx:
  1915                           
  1916                           	psect	text2
  1917  0C00                     __ptext2:	
  1918 ;; *************** function _SendCharM *****************
  1919 ;; Defined at:
  1920 ;;		line 703 in file "PROYECTO.c"
  1921 ;; Parameters:    Size  Location     Type
  1922 ;;  in              1    wreg     unsigned char 
  1923 ;; Auto vars:     Size  Location     Type
  1924 ;;  in              1    5[COMMON] unsigned char 
  1925 ;; Return value:  Size  Location     Type
  1926 ;;                  1    wreg      void 
  1927 ;; Registers used:
  1928 ;;		wreg, fsr0l, fsr0h, status,2, status,0, btemp+1, pclath, cstack
  1929 ;; Tracked objects:
  1930 ;;		On entry : 0/0
  1931 ;;		On exit  : 0/0
  1932 ;;		Unchanged: 0/0
  1933 ;; Data sizes:     COMMON   BANK0   BANK1   BANK3   BANK2
  1934 ;;      Params:         0       0       0       0       0
  1935 ;;      Locals:         1       0       0       0       0
  1936 ;;      Temps:          0       0       0       0       0
  1937 ;;      Totals:         1       0       0       0       0
  1938 ;;Total ram usage:        1 bytes
  1939 ;; Hardware stack levels used:    1
  1940 ;; Hardware stack levels required when called:    3
  1941 ;; This function calls:
  1942 ;;		_USART_Cadena
  1943 ;; This function is called by:
  1944 ;;		_main
  1945 ;; This function uses a non-reentrant model
  1946 ;;
  1947                           
  1948                           
  1949                           ;psect for function _SendCharM
  1950  0C00                     _SendCharM:
  1951                           
  1952                           ;incstack = 0
  1953                           ; Regs used in _SendCharM: [wreg-fsr0h+status,2+status,0+btemp+1+pclath+cstack]
  1954                           ;SendCharM@in stored from wreg
  1955  0C00  00FB               	movwf	SendCharM@in
  1956  0C01                     l2110:
  1957  0C01                     l478:	
  1958                           ;PROYECTO.c: 704:     while(TXSTAbits.TRMT == 0);
  1959                           
  1960  0C01  1683               	bsf	3,5	;RP0=1, select bank1
  1961  0C02  1303               	bcf	3,6	;RP1=0, select bank1
  1962  0C03  1C98               	btfss	24,1	;volatile
  1963  0C04  2C06               	goto	u2061
  1964  0C05  2C07               	goto	u2060
  1965  0C06                     u2061:
  1966  0C06  2C01               	goto	l478
  1967  0C07                     u2060:
  1968  0C07                     l2112:
  1969                           
  1970                           ;PROYECTO.c: 705:         if(in == 0) {
  1971  0C07  087B               	movf	SendCharM@in,w
  1972  0C08  1D03               	btfss	3,2
  1973  0C09  2C0B               	goto	u2071
  1974  0C0A  2C0C               	goto	u2070
  1975  0C0B                     u2071:
  1976  0C0B  2C16               	goto	l2116
  1977  0C0C                     u2070:
  1978  0C0C                     l2114:
  1979                           
  1980                           ;PROYECTO.c: 706:             USART_Cadena("0");
  1981  0C0C  30DC               	movlw	low ((STR_85+1)| (0+32768))
  1982  0C0D  00F9               	movwf	USART_Cadena@str
  1983  0C0E  308A               	movlw	high ((STR_85+1)| (0+32768))
  1984  0C0F  00FA               	movwf	USART_Cadena@str+1
  1985  0C10  120A  158A  23DA  120A  158A  	fcall	_USART_Cadena
  1986                           
  1987                           ;PROYECTO.c: 707:         }else if (in == 15){
  1988  0C15  2C56               	goto	l490
  1989  0C16                     l2116:
  1990  0C16  300F               	movlw	15
  1991  0C17  067B               	xorwf	SendCharM@in,w
  1992  0C18  1D03               	btfss	3,2
  1993  0C19  2C1B               	goto	u2081
  1994  0C1A  2C1C               	goto	u2080
  1995  0C1B                     u2081:
  1996  0C1B  2C26               	goto	l2120
  1997  0C1C                     u2080:
  1998  0C1C                     l2118:
  1999                           
  2000                           ;PROYECTO.c: 708:             USART_Cadena("15");
  2001  0C1C  30DE               	movlw	low (STR_84| (0+32768))
  2002  0C1D  00F9               	movwf	USART_Cadena@str
  2003  0C1E  308A               	movlw	high (STR_84| (0+32768))
  2004  0C1F  00FA               	movwf	USART_Cadena@str+1
  2005  0C20  120A  158A  23DA  120A  158A  	fcall	_USART_Cadena
  2006                           
  2007                           ;PROYECTO.c: 709:         }else if (in == 30){
  2008  0C25  2C56               	goto	l490
  2009  0C26                     l2120:
  2010  0C26  301E               	movlw	30
  2011  0C27  067B               	xorwf	SendCharM@in,w
  2012  0C28  1D03               	btfss	3,2
  2013  0C29  2C2B               	goto	u2091
  2014  0C2A  2C2C               	goto	u2090
  2015  0C2B                     u2091:
  2016  0C2B  2C36               	goto	l2124
  2017  0C2C                     u2090:
  2018  0C2C                     l2122:
  2019                           
  2020                           ;PROYECTO.c: 710:             USART_Cadena("30");
  2021  0C2C  30DB               	movlw	low (STR_85| (0+32768))
  2022  0C2D  00F9               	movwf	USART_Cadena@str
  2023  0C2E  308A               	movlw	high (STR_85| (0+32768))
  2024  0C2F  00FA               	movwf	USART_Cadena@str+1
  2025  0C30  120A  158A  23DA  120A  158A  	fcall	_USART_Cadena
  2026                           
  2027                           ;PROYECTO.c: 711:         }else if (in == 45){
  2028  0C35  2C56               	goto	l490
  2029  0C36                     l2124:
  2030  0C36  302D               	movlw	45
  2031  0C37  067B               	xorwf	SendCharM@in,w
  2032  0C38  1D03               	btfss	3,2
  2033  0C39  2C3B               	goto	u2101
  2034  0C3A  2C3C               	goto	u2100
  2035  0C3B                     u2101:
  2036  0C3B  2C46               	goto	l2128
  2037  0C3C                     u2100:
  2038  0C3C                     l2126:
  2039                           
  2040                           ;PROYECTO.c: 712:             USART_Cadena("45");
  2041  0C3C  30E1               	movlw	low (STR_86| (0+32768))
  2042  0C3D  00F9               	movwf	USART_Cadena@str
  2043  0C3E  308A               	movlw	high (STR_86| (0+32768))
  2044  0C3F  00FA               	movwf	USART_Cadena@str+1
  2045  0C40  120A  158A  23DA  120A  158A  	fcall	_USART_Cadena
  2046                           
  2047                           ;PROYECTO.c: 713:         }else if (in == 55){
  2048  0C45  2C56               	goto	l490
  2049  0C46                     l2128:
  2050  0C46  3037               	movlw	55
  2051  0C47  067B               	xorwf	SendCharM@in,w
  2052  0C48  1D03               	btfss	3,2
  2053  0C49  2C4B               	goto	u2111
  2054  0C4A  2C4C               	goto	u2110
  2055  0C4B                     u2111:
  2056  0C4B  2C56               	goto	l484
  2057  0C4C                     u2110:
  2058  0C4C                     l2130:
  2059                           
  2060                           ;PROYECTO.c: 714:             USART_Cadena("55");
  2061  0C4C  30E4               	movlw	low (STR_87| (0+32768))
  2062  0C4D  00F9               	movwf	USART_Cadena@str
  2063  0C4E  308A               	movlw	high (STR_87| (0+32768))
  2064  0C4F  00FA               	movwf	USART_Cadena@str+1
  2065  0C50  120A  158A  23DA  120A  158A  	fcall	_USART_Cadena
  2066  0C55  2C56               	goto	l490
  2067  0C56                     l484:
  2068  0C56                     l490:
  2069  0C56  0008               	return
  2070  0C57                     __end_of_SendCharM:
  2071                           
  2072                           	psect	text3
  2073  0BDA                     __ptext3:	
  2074 ;; *************** function _USART_Cadena *****************
  2075 ;; Defined at:
  2076 ;;		line 537 in file "PROYECTO.c"
  2077 ;; Parameters:    Size  Location     Type
  2078 ;;  str             2    3[COMMON] PTR unsigned char 
  2079 ;;		 -> STR_87(3), STR_86(3), STR_85(3), STR_84(3), 
  2080 ;;		 -> STR_83(2), STR_82(26), STR_81(48), STR_80(43), 
  2081 ;;		 -> STR_79(3), STR_78(3), STR_77(36), STR_76(44), 
  2082 ;;		 -> STR_75(3), STR_74(3), STR_73(48), STR_72(48), 
  2083 ;;		 -> STR_71(52), STR_70(39), STR_69(26), STR_68(48), 
  2084 ;;		 -> STR_67(43), STR_66(3), STR_65(3), STR_64(36), 
  2085 ;;		 -> STR_63(44), STR_62(3), STR_61(3), STR_60(48), 
  2086 ;;		 -> STR_59(48), STR_58(52), STR_57(39), STR_56(26), 
  2087 ;;		 -> STR_55(48), STR_54(43), STR_53(3), STR_52(3), 
  2088 ;;		 -> STR_51(36), STR_50(44), STR_49(3), STR_48(3), 
  2089 ;;		 -> STR_47(48), STR_46(48), STR_45(52), STR_44(39), 
  2090 ;;		 -> STR_43(32), STR_42(7), STR_41(8), STR_40(11), 
  2091 ;;		 -> STR_39(31), STR_38(7), STR_37(8), STR_36(11), 
  2092 ;;		 -> STR_35(31), STR_34(7), STR_33(8), STR_32(11), 
  2093 ;;		 -> STR_31(32), STR_30(7), STR_29(8), STR_28(11), 
  2094 ;;		 -> STR_27(31), STR_26(7), STR_25(8), STR_24(11), 
  2095 ;;		 -> STR_23(31), STR_22(7), STR_21(8), STR_20(11), 
  2096 ;;		 -> STR_19(32), STR_18(7), STR_17(8), STR_16(11), 
  2097 ;;		 -> STR_15(31), STR_14(7), STR_13(8), STR_12(11), 
  2098 ;;		 -> STR_11(31), STR_10(7), STR_9(8), STR_8(11), 
  2099 ;;		 -> STR_7(37), STR_6(34), STR_5(35), STR_4(31), 
  2100 ;;		 -> STR_3(29), STR_2(30), STR_1(31), 
  2101 ;; Auto vars:     Size  Location     Type
  2102 ;;		None
  2103 ;; Return value:  Size  Location     Type
  2104 ;;                  1    wreg      void 
  2105 ;; Registers used:
  2106 ;;		wreg, fsr0l, fsr0h, status,2, status,0, btemp+1, pclath, cstack
  2107 ;; Tracked objects:
  2108 ;;		On entry : 0/0
  2109 ;;		On exit  : 0/0
  2110 ;;		Unchanged: 0/0
  2111 ;; Data sizes:     COMMON   BANK0   BANK1   BANK3   BANK2
  2112 ;;      Params:         2       0       0       0       0
  2113 ;;      Locals:         0       0       0       0       0
  2114 ;;      Temps:          0       0       0       0       0
  2115 ;;      Totals:         2       0       0       0       0
  2116 ;;Total ram usage:        2 bytes
  2117 ;; Hardware stack levels used:    1
  2118 ;; Hardware stack levels required when called:    2
  2119 ;; This function calls:
  2120 ;;		_USART_Tx
  2121 ;; This function is called by:
  2122 ;;		_main
  2123 ;;		_SendCharM
  2124 ;; This function uses a non-reentrant model
  2125 ;;
  2126                           
  2127                           
  2128                           ;psect for function _USART_Cadena
  2129  0BDA                     _USART_Cadena:
  2130  0BDA                     l2008:	
  2131                           ;incstack = 0
  2132                           ; Regs used in _USART_Cadena: [wreg-fsr0h+status,2+status,0+btemp+1+pclath+cstack]
  2133                           
  2134                           
  2135                           ;PROYECTO.c: 538:     while(*str != '\0'){
  2136  0BDA  2BEF               	goto	l2014
  2137  0BDB                     l2010:
  2138                           
  2139                           ;PROYECTO.c: 539:         USART_Tx(*str);
  2140  0BDB  087A               	movf	USART_Cadena@str+1,w
  2141  0BDC  00FF               	movwf	btemp+1
  2142  0BDD  0879               	movf	USART_Cadena@str,w
  2143  0BDE  0084               	movwf	4
  2144  0BDF  120A  158A  22E7  120A  158A  	fcall	stringtab
  2145  0BE4  120A  158A  23CE  120A  158A  	fcall	_USART_Tx
  2146  0BE9                     l2012:
  2147                           
  2148                           ;PROYECTO.c: 540:         str++;
  2149  0BE9  3001               	movlw	1
  2150  0BEA  07F9               	addwf	USART_Cadena@str,f
  2151  0BEB  1803               	skipnc
  2152  0BEC  0AFA               	incf	USART_Cadena@str+1,f
  2153  0BED  3000               	movlw	0
  2154  0BEE  07FA               	addwf	USART_Cadena@str+1,f
  2155  0BEF                     l2014:
  2156                           
  2157                           ;PROYECTO.c: 538:     while(*str != '\0'){
  2158  0BEF  087A               	movf	USART_Cadena@str+1,w
  2159  0BF0  1283               	bcf	3,5	;RP0=0, select bank0
  2160  0BF1  1303               	bcf	3,6	;RP1=0, select bank0
  2161  0BF2  00FF               	movwf	btemp+1
  2162  0BF3  0879               	movf	USART_Cadena@str,w
  2163  0BF4  0084               	movwf	4
  2164  0BF5  120A  158A  22E7  120A  158A  	fcall	stringtab
  2165  0BFA  3A00               	xorlw	0
  2166  0BFB  1D03               	skipz
  2167  0BFC  2BFE               	goto	u1651
  2168  0BFD  2BFF               	goto	u1650
  2169  0BFE                     u1651:
  2170  0BFE  2BDB               	goto	l2010
  2171  0BFF                     u1650:
  2172  0BFF                     l325:
  2173  0BFF  0008               	return
  2174  0C00                     __end_of_USART_Cadena:
  2175                           
  2176                           	psect	text4
  2177  0BCE                     __ptext4:	
  2178 ;; *************** function _USART_Tx *****************
  2179 ;; Defined at:
  2180 ;;		line 528 in file "PROYECTO.c"
  2181 ;; Parameters:    Size  Location     Type
  2182 ;;  data            1    wreg     unsigned char 
  2183 ;; Auto vars:     Size  Location     Type
  2184 ;;  data            1    2[COMMON] unsigned char 
  2185 ;; Return value:  Size  Location     Type
  2186 ;;                  1    wreg      void 
  2187 ;; Registers used:
  2188 ;;		wreg
  2189 ;; Tracked objects:
  2190 ;;		On entry : 0/0
  2191 ;;		On exit  : 0/0
  2192 ;;		Unchanged: 0/0
  2193 ;; Data sizes:     COMMON   BANK0   BANK1   BANK3   BANK2
  2194 ;;      Params:         0       0       0       0       0
  2195 ;;      Locals:         1       0       0       0       0
  2196 ;;      Temps:          0       0       0       0       0
  2197 ;;      Totals:         1       0       0       0       0
  2198 ;;Total ram usage:        1 bytes
  2199 ;; Hardware stack levels used:    1
  2200 ;; Hardware stack levels required when called:    1
  2201 ;; This function calls:
  2202 ;;		Nothing
  2203 ;; This function is called by:
  2204 ;;		_USART_Cadena
  2205 ;; This function uses a non-reentrant model
  2206 ;;
  2207                           
  2208                           
  2209                           ;psect for function _USART_Tx
  2210  0BCE                     _USART_Tx:
  2211                           
  2212                           ;incstack = 0
  2213                           ; Regs used in _USART_Tx: [wreg]
  2214                           ;USART_Tx@data stored from wreg
  2215  0BCE  00F8               	movwf	USART_Tx@data
  2216  0BCF                     l2004:
  2217  0BCF                     l313:	
  2218                           ;PROYECTO.c: 529:     while(TXSTAbits.TRMT == 0);
  2219                           
  2220  0BCF  1683               	bsf	3,5	;RP0=1, select bank1
  2221  0BD0  1303               	bcf	3,6	;RP1=0, select bank1
  2222  0BD1  1C98               	btfss	24,1	;volatile
  2223  0BD2  2BD4               	goto	u1641
  2224  0BD3  2BD5               	goto	u1640
  2225  0BD4                     u1641:
  2226  0BD4  2BCF               	goto	l313
  2227  0BD5                     u1640:
  2228  0BD5                     l2006:
  2229                           
  2230                           ;PROYECTO.c: 530:     TXREG = data;
  2231  0BD5  0878               	movf	USART_Tx@data,w
  2232  0BD6  1283               	bcf	3,5	;RP0=0, select bank0
  2233  0BD7  1303               	bcf	3,6	;RP1=0, select bank0
  2234  0BD8  0099               	movwf	25	;volatile
  2235  0BD9                     l316:
  2236  0BD9  0008               	return
  2237  0BDA                     __end_of_USART_Tx:
  2238                           
  2239                           	psect	text5
  2240  0E3B                     __ptext5:	
  2241 ;; *************** function _SendCharH *****************
  2242 ;; Defined at:
  2243 ;;		line 544 in file "PROYECTO.c"
  2244 ;; Parameters:    Size  Location     Type
  2245 ;;  in              1    wreg     unsigned char 
  2246 ;; Auto vars:     Size  Location     Type
  2247 ;;  in              1    4[COMMON] unsigned char 
  2248 ;; Return value:  Size  Location     Type
  2249 ;;                  1    wreg      void 
  2250 ;; Registers used:
  2251 ;;		wreg, fsr0l, fsr0h, status,2, status,0
  2252 ;; Tracked objects:
  2253 ;;		On entry : 0/0
  2254 ;;		On exit  : 0/0
  2255 ;;		Unchanged: 0/0
  2256 ;; Data sizes:     COMMON   BANK0   BANK1   BANK3   BANK2
  2257 ;;      Params:         0       0       0       0       0
  2258 ;;      Locals:         1       0       0       0       0
  2259 ;;      Temps:          2       0       0       0       0
  2260 ;;      Totals:         3       0       0       0       0
  2261 ;;Total ram usage:        3 bytes
  2262 ;; Hardware stack levels used:    1
  2263 ;; Hardware stack levels required when called:    1
  2264 ;; This function calls:
  2265 ;;		Nothing
  2266 ;; This function is called by:
  2267 ;;		_main
  2268 ;; This function uses a non-reentrant model
  2269 ;;
  2270                           
  2271                           
  2272                           ;psect for function _SendCharH
  2273  0E3B                     _SendCharH:
  2274                           
  2275                           ;incstack = 0
  2276                           ; Regs used in _SendCharH: [wreg-fsr0h+status,2+status,0]
  2277                           ;SendCharH@in stored from wreg
  2278  0E3B  00FA               	movwf	SendCharH@in
  2279  0E3C                     l2020:
  2280                           
  2281                           ;PROYECTO.c: 545:     switch(in){
  2282  0E3C  2FAA               	goto	l2104
  2283  0E3D                     l330:
  2284  0E3D  1683               	bsf	3,5	;RP0=1, select bank1
  2285  0E3E  1303               	bcf	3,6	;RP1=0, select bank1
  2286  0E3F  1C98               	btfss	24,1	;volatile
  2287  0E40  2E42               	goto	u1661
  2288  0E41  2E43               	goto	u1660
  2289  0E42                     u1661:
  2290  0E42  2E3D               	goto	l330
  2291  0E43                     u1660:
  2292  0E43                     l2022:
  2293                           
  2294                           ;PROYECTO.c: 548:             TXREG = 48;
  2295  0E43  3030               	movlw	48
  2296  0E44  1283               	bcf	3,5	;RP0=0, select bank0
  2297  0E45  1303               	bcf	3,6	;RP1=0, select bank0
  2298  0E46  0099               	movwf	25	;volatile
  2299                           
  2300                           ;PROYECTO.c: 549:         break;
  2301  0E47  2FFF               	goto	l475
  2302  0E48                     l335:
  2303  0E48  1683               	bsf	3,5	;RP0=1, select bank1
  2304  0E49  1303               	bcf	3,6	;RP1=0, select bank1
  2305  0E4A  1C98               	btfss	24,1	;volatile
  2306  0E4B  2E4D               	goto	u1671
  2307  0E4C  2E4E               	goto	u1670
  2308  0E4D                     u1671:
  2309  0E4D  2E48               	goto	l335
  2310  0E4E                     u1670:
  2311  0E4E                     l2024:
  2312                           
  2313                           ;PROYECTO.c: 553:             TXREG = 49;
  2314  0E4E  3031               	movlw	49
  2315  0E4F  1283               	bcf	3,5	;RP0=0, select bank0
  2316  0E50  1303               	bcf	3,6	;RP1=0, select bank0
  2317  0E51  0099               	movwf	25	;volatile
  2318                           
  2319                           ;PROYECTO.c: 554:         break;
  2320  0E52  2FFF               	goto	l475
  2321  0E53                     l339:
  2322  0E53  1683               	bsf	3,5	;RP0=1, select bank1
  2323  0E54  1303               	bcf	3,6	;RP1=0, select bank1
  2324  0E55  1C98               	btfss	24,1	;volatile
  2325  0E56  2E58               	goto	u1681
  2326  0E57  2E59               	goto	u1680
  2327  0E58                     u1681:
  2328  0E58  2E53               	goto	l339
  2329  0E59                     u1680:
  2330  0E59                     l2026:
  2331                           
  2332                           ;PROYECTO.c: 558:             TXREG = 50;
  2333  0E59  3032               	movlw	50
  2334  0E5A  1283               	bcf	3,5	;RP0=0, select bank0
  2335  0E5B  1303               	bcf	3,6	;RP1=0, select bank0
  2336  0E5C  0099               	movwf	25	;volatile
  2337                           
  2338                           ;PROYECTO.c: 559:         break;
  2339  0E5D  2FFF               	goto	l475
  2340  0E5E                     l343:
  2341  0E5E  1683               	bsf	3,5	;RP0=1, select bank1
  2342  0E5F  1303               	bcf	3,6	;RP1=0, select bank1
  2343  0E60  1C98               	btfss	24,1	;volatile
  2344  0E61  2E63               	goto	u1691
  2345  0E62  2E64               	goto	u1690
  2346  0E63                     u1691:
  2347  0E63  2E5E               	goto	l343
  2348  0E64                     u1690:
  2349  0E64                     l2028:
  2350                           
  2351                           ;PROYECTO.c: 563:             TXREG = 51;
  2352  0E64  3033               	movlw	51
  2353  0E65  1283               	bcf	3,5	;RP0=0, select bank0
  2354  0E66  1303               	bcf	3,6	;RP1=0, select bank0
  2355  0E67  0099               	movwf	25	;volatile
  2356                           
  2357                           ;PROYECTO.c: 564:         break;
  2358  0E68  2FFF               	goto	l475
  2359  0E69                     l347:
  2360  0E69  1683               	bsf	3,5	;RP0=1, select bank1
  2361  0E6A  1303               	bcf	3,6	;RP1=0, select bank1
  2362  0E6B  1C98               	btfss	24,1	;volatile
  2363  0E6C  2E6E               	goto	u1701
  2364  0E6D  2E6F               	goto	u1700
  2365  0E6E                     u1701:
  2366  0E6E  2E69               	goto	l347
  2367  0E6F                     u1700:
  2368  0E6F                     l2030:
  2369                           
  2370                           ;PROYECTO.c: 568:             TXREG = 52;
  2371  0E6F  3034               	movlw	52
  2372  0E70  1283               	bcf	3,5	;RP0=0, select bank0
  2373  0E71  1303               	bcf	3,6	;RP1=0, select bank0
  2374  0E72  0099               	movwf	25	;volatile
  2375                           
  2376                           ;PROYECTO.c: 569:         break;
  2377  0E73  2FFF               	goto	l475
  2378  0E74                     l351:
  2379  0E74  1683               	bsf	3,5	;RP0=1, select bank1
  2380  0E75  1303               	bcf	3,6	;RP1=0, select bank1
  2381  0E76  1C98               	btfss	24,1	;volatile
  2382  0E77  2E79               	goto	u1711
  2383  0E78  2E7A               	goto	u1710
  2384  0E79                     u1711:
  2385  0E79  2E74               	goto	l351
  2386  0E7A                     u1710:
  2387  0E7A                     l2032:
  2388                           
  2389                           ;PROYECTO.c: 573:             TXREG = 53;
  2390  0E7A  3035               	movlw	53
  2391  0E7B  1283               	bcf	3,5	;RP0=0, select bank0
  2392  0E7C  1303               	bcf	3,6	;RP1=0, select bank0
  2393  0E7D  0099               	movwf	25	;volatile
  2394                           
  2395                           ;PROYECTO.c: 574:         break;
  2396  0E7E  2FFF               	goto	l475
  2397  0E7F                     l355:
  2398  0E7F  1683               	bsf	3,5	;RP0=1, select bank1
  2399  0E80  1303               	bcf	3,6	;RP1=0, select bank1
  2400  0E81  1C98               	btfss	24,1	;volatile
  2401  0E82  2E84               	goto	u1721
  2402  0E83  2E85               	goto	u1720
  2403  0E84                     u1721:
  2404  0E84  2E7F               	goto	l355
  2405  0E85                     u1720:
  2406  0E85                     l2034:
  2407                           
  2408                           ;PROYECTO.c: 578:             TXREG = 54;
  2409  0E85  3036               	movlw	54
  2410  0E86  1283               	bcf	3,5	;RP0=0, select bank0
  2411  0E87  1303               	bcf	3,6	;RP1=0, select bank0
  2412  0E88  0099               	movwf	25	;volatile
  2413                           
  2414                           ;PROYECTO.c: 579:         break;
  2415  0E89  2FFF               	goto	l475
  2416  0E8A                     l359:
  2417  0E8A  1683               	bsf	3,5	;RP0=1, select bank1
  2418  0E8B  1303               	bcf	3,6	;RP1=0, select bank1
  2419  0E8C  1C98               	btfss	24,1	;volatile
  2420  0E8D  2E8F               	goto	u1731
  2421  0E8E  2E90               	goto	u1730
  2422  0E8F                     u1731:
  2423  0E8F  2E8A               	goto	l359
  2424  0E90                     u1730:
  2425  0E90                     l2036:
  2426                           
  2427                           ;PROYECTO.c: 583:             TXREG = 55;
  2428  0E90  3037               	movlw	55
  2429  0E91  1283               	bcf	3,5	;RP0=0, select bank0
  2430  0E92  1303               	bcf	3,6	;RP1=0, select bank0
  2431  0E93  0099               	movwf	25	;volatile
  2432                           
  2433                           ;PROYECTO.c: 584:         break;
  2434  0E94  2FFF               	goto	l475
  2435  0E95                     l363:
  2436  0E95  1683               	bsf	3,5	;RP0=1, select bank1
  2437  0E96  1303               	bcf	3,6	;RP1=0, select bank1
  2438  0E97  1C98               	btfss	24,1	;volatile
  2439  0E98  2E9A               	goto	u1741
  2440  0E99  2E9B               	goto	u1740
  2441  0E9A                     u1741:
  2442  0E9A  2E95               	goto	l363
  2443  0E9B                     u1740:
  2444  0E9B                     l2038:
  2445                           
  2446                           ;PROYECTO.c: 588:             TXREG = 56;
  2447  0E9B  3038               	movlw	56
  2448  0E9C  1283               	bcf	3,5	;RP0=0, select bank0
  2449  0E9D  1303               	bcf	3,6	;RP1=0, select bank0
  2450  0E9E  0099               	movwf	25	;volatile
  2451                           
  2452                           ;PROYECTO.c: 589:         break;
  2453  0E9F  2FFF               	goto	l475
  2454  0EA0                     l367:
  2455  0EA0  1683               	bsf	3,5	;RP0=1, select bank1
  2456  0EA1  1303               	bcf	3,6	;RP1=0, select bank1
  2457  0EA2  1C98               	btfss	24,1	;volatile
  2458  0EA3  2EA5               	goto	u1751
  2459  0EA4  2EA6               	goto	u1750
  2460  0EA5                     u1751:
  2461  0EA5  2EA0               	goto	l367
  2462  0EA6                     u1750:
  2463  0EA6                     l2040:
  2464                           
  2465                           ;PROYECTO.c: 593:             TXREG = 57;
  2466  0EA6  3039               	movlw	57
  2467  0EA7  1283               	bcf	3,5	;RP0=0, select bank0
  2468  0EA8  1303               	bcf	3,6	;RP1=0, select bank0
  2469  0EA9  0099               	movwf	25	;volatile
  2470                           
  2471                           ;PROYECTO.c: 594:         break;
  2472  0EAA  2FFF               	goto	l475
  2473  0EAB                     l371:
  2474  0EAB  1683               	bsf	3,5	;RP0=1, select bank1
  2475  0EAC  1303               	bcf	3,6	;RP1=0, select bank1
  2476  0EAD  1C98               	btfss	24,1	;volatile
  2477  0EAE  2EB0               	goto	u1761
  2478  0EAF  2EB1               	goto	u1760
  2479  0EB0                     u1761:
  2480  0EB0  2EAB               	goto	l371
  2481  0EB1                     u1760:
  2482  0EB1                     l2042:
  2483                           
  2484                           ;PROYECTO.c: 598:             TXREG = 49;
  2485  0EB1  3031               	movlw	49
  2486  0EB2  1283               	bcf	3,5	;RP0=0, select bank0
  2487  0EB3  1303               	bcf	3,6	;RP1=0, select bank0
  2488  0EB4  0099               	movwf	25	;volatile
  2489  0EB5                     l374:	
  2490                           ;PROYECTO.c: 599:             while(TXSTAbits.TRMT == 0);
  2491                           
  2492  0EB5  1683               	bsf	3,5	;RP0=1, select bank1
  2493  0EB6  1303               	bcf	3,6	;RP1=0, select bank1
  2494  0EB7  1C98               	btfss	24,1	;volatile
  2495  0EB8  2EBA               	goto	u1771
  2496  0EB9  2EBB               	goto	u1770
  2497  0EBA                     u1771:
  2498  0EBA  2EB5               	goto	l374
  2499  0EBB                     u1770:
  2500  0EBB  2E43               	goto	l2022
  2501  0EBC                     l378:
  2502  0EBC  1683               	bsf	3,5	;RP0=1, select bank1
  2503  0EBD  1303               	bcf	3,6	;RP1=0, select bank1
  2504  0EBE  1C98               	btfss	24,1	;volatile
  2505  0EBF  2EC1               	goto	u1781
  2506  0EC0  2EC2               	goto	u1780
  2507  0EC1                     u1781:
  2508  0EC1  2EBC               	goto	l378
  2509  0EC2                     u1780:
  2510  0EC2                     l2046:
  2511                           
  2512                           ;PROYECTO.c: 605:             TXREG = 49;
  2513  0EC2  3031               	movlw	49
  2514  0EC3  1283               	bcf	3,5	;RP0=0, select bank0
  2515  0EC4  1303               	bcf	3,6	;RP1=0, select bank0
  2516  0EC5  0099               	movwf	25	;volatile
  2517  0EC6                     l381:	
  2518                           ;PROYECTO.c: 606:             while(TXSTAbits.TRMT == 0);
  2519                           
  2520  0EC6  1683               	bsf	3,5	;RP0=1, select bank1
  2521  0EC7  1303               	bcf	3,6	;RP1=0, select bank1
  2522  0EC8  1C98               	btfss	24,1	;volatile
  2523  0EC9  2ECB               	goto	u1791
  2524  0ECA  2ECC               	goto	u1790
  2525  0ECB                     u1791:
  2526  0ECB  2EC6               	goto	l381
  2527  0ECC                     u1790:
  2528  0ECC  2E4E               	goto	l2024
  2529  0ECD                     l385:
  2530  0ECD  1683               	bsf	3,5	;RP0=1, select bank1
  2531  0ECE  1303               	bcf	3,6	;RP1=0, select bank1
  2532  0ECF  1C98               	btfss	24,1	;volatile
  2533  0ED0  2ED2               	goto	u1801
  2534  0ED1  2ED3               	goto	u1800
  2535  0ED2                     u1801:
  2536  0ED2  2ECD               	goto	l385
  2537  0ED3                     u1800:
  2538  0ED3                     l2050:
  2539                           
  2540                           ;PROYECTO.c: 612:             TXREG = 49;
  2541  0ED3  3031               	movlw	49
  2542  0ED4  1283               	bcf	3,5	;RP0=0, select bank0
  2543  0ED5  1303               	bcf	3,6	;RP1=0, select bank0
  2544  0ED6  0099               	movwf	25	;volatile
  2545  0ED7                     l388:	
  2546                           ;PROYECTO.c: 613:             while(TXSTAbits.TRMT == 0);
  2547                           
  2548  0ED7  1683               	bsf	3,5	;RP0=1, select bank1
  2549  0ED8  1303               	bcf	3,6	;RP1=0, select bank1
  2550  0ED9  1C98               	btfss	24,1	;volatile
  2551  0EDA  2EDC               	goto	u1811
  2552  0EDB  2EDD               	goto	u1810
  2553  0EDC                     u1811:
  2554  0EDC  2ED7               	goto	l388
  2555  0EDD                     u1810:
  2556  0EDD  2E59               	goto	l2026
  2557  0EDE                     l392:
  2558  0EDE  1683               	bsf	3,5	;RP0=1, select bank1
  2559  0EDF  1303               	bcf	3,6	;RP1=0, select bank1
  2560  0EE0  1C98               	btfss	24,1	;volatile
  2561  0EE1  2EE3               	goto	u1821
  2562  0EE2  2EE4               	goto	u1820
  2563  0EE3                     u1821:
  2564  0EE3  2EDE               	goto	l392
  2565  0EE4                     u1820:
  2566  0EE4                     l2054:
  2567                           
  2568                           ;PROYECTO.c: 619:             TXREG = 49;
  2569  0EE4  3031               	movlw	49
  2570  0EE5  1283               	bcf	3,5	;RP0=0, select bank0
  2571  0EE6  1303               	bcf	3,6	;RP1=0, select bank0
  2572  0EE7  0099               	movwf	25	;volatile
  2573  0EE8                     l395:	
  2574                           ;PROYECTO.c: 620:             while(TXSTAbits.TRMT == 0);
  2575                           
  2576  0EE8  1683               	bsf	3,5	;RP0=1, select bank1
  2577  0EE9  1303               	bcf	3,6	;RP1=0, select bank1
  2578  0EEA  1C98               	btfss	24,1	;volatile
  2579  0EEB  2EED               	goto	u1831
  2580  0EEC  2EEE               	goto	u1830
  2581  0EED                     u1831:
  2582  0EED  2EE8               	goto	l395
  2583  0EEE                     u1830:
  2584  0EEE  2E64               	goto	l2028
  2585  0EEF                     l399:
  2586  0EEF  1683               	bsf	3,5	;RP0=1, select bank1
  2587  0EF0  1303               	bcf	3,6	;RP1=0, select bank1
  2588  0EF1  1C98               	btfss	24,1	;volatile
  2589  0EF2  2EF4               	goto	u1841
  2590  0EF3  2EF5               	goto	u1840
  2591  0EF4                     u1841:
  2592  0EF4  2EEF               	goto	l399
  2593  0EF5                     u1840:
  2594  0EF5                     l2058:
  2595                           
  2596                           ;PROYECTO.c: 626:             TXREG = 49;
  2597  0EF5  3031               	movlw	49
  2598  0EF6  1283               	bcf	3,5	;RP0=0, select bank0
  2599  0EF7  1303               	bcf	3,6	;RP1=0, select bank0
  2600  0EF8  0099               	movwf	25	;volatile
  2601  0EF9                     l402:	
  2602                           ;PROYECTO.c: 627:             while(TXSTAbits.TRMT == 0);
  2603                           
  2604  0EF9  1683               	bsf	3,5	;RP0=1, select bank1
  2605  0EFA  1303               	bcf	3,6	;RP1=0, select bank1
  2606  0EFB  1C98               	btfss	24,1	;volatile
  2607  0EFC  2EFE               	goto	u1851
  2608  0EFD  2EFF               	goto	u1850
  2609  0EFE                     u1851:
  2610  0EFE  2EF9               	goto	l402
  2611  0EFF                     u1850:
  2612  0EFF  2E6F               	goto	l2030
  2613  0F00                     l406:
  2614  0F00  1683               	bsf	3,5	;RP0=1, select bank1
  2615  0F01  1303               	bcf	3,6	;RP1=0, select bank1
  2616  0F02  1C98               	btfss	24,1	;volatile
  2617  0F03  2F05               	goto	u1861
  2618  0F04  2F06               	goto	u1860
  2619  0F05                     u1861:
  2620  0F05  2F00               	goto	l406
  2621  0F06                     u1860:
  2622  0F06                     l2062:
  2623                           
  2624                           ;PROYECTO.c: 633:             TXREG = 49;
  2625  0F06  3031               	movlw	49
  2626  0F07  1283               	bcf	3,5	;RP0=0, select bank0
  2627  0F08  1303               	bcf	3,6	;RP1=0, select bank0
  2628  0F09  0099               	movwf	25	;volatile
  2629  0F0A                     l409:	
  2630                           ;PROYECTO.c: 634:             while(TXSTAbits.TRMT == 0);
  2631                           
  2632  0F0A  1683               	bsf	3,5	;RP0=1, select bank1
  2633  0F0B  1303               	bcf	3,6	;RP1=0, select bank1
  2634  0F0C  1C98               	btfss	24,1	;volatile
  2635  0F0D  2F0F               	goto	u1871
  2636  0F0E  2F10               	goto	u1870
  2637  0F0F                     u1871:
  2638  0F0F  2F0A               	goto	l409
  2639  0F10                     u1870:
  2640  0F10  2E7A               	goto	l2032
  2641  0F11                     l413:
  2642  0F11  1683               	bsf	3,5	;RP0=1, select bank1
  2643  0F12  1303               	bcf	3,6	;RP1=0, select bank1
  2644  0F13  1C98               	btfss	24,1	;volatile
  2645  0F14  2F16               	goto	u1881
  2646  0F15  2F17               	goto	u1880
  2647  0F16                     u1881:
  2648  0F16  2F11               	goto	l413
  2649  0F17                     u1880:
  2650  0F17                     l2066:
  2651                           
  2652                           ;PROYECTO.c: 640:             TXREG = 49;
  2653  0F17  3031               	movlw	49
  2654  0F18  1283               	bcf	3,5	;RP0=0, select bank0
  2655  0F19  1303               	bcf	3,6	;RP1=0, select bank0
  2656  0F1A  0099               	movwf	25	;volatile
  2657  0F1B                     l416:	
  2658                           ;PROYECTO.c: 641:             while(TXSTAbits.TRMT == 0);
  2659                           
  2660  0F1B  1683               	bsf	3,5	;RP0=1, select bank1
  2661  0F1C  1303               	bcf	3,6	;RP1=0, select bank1
  2662  0F1D  1C98               	btfss	24,1	;volatile
  2663  0F1E  2F20               	goto	u1891
  2664  0F1F  2F21               	goto	u1890
  2665  0F20                     u1891:
  2666  0F20  2F1B               	goto	l416
  2667  0F21                     u1890:
  2668  0F21  2E85               	goto	l2034
  2669  0F22                     l420:
  2670  0F22  1683               	bsf	3,5	;RP0=1, select bank1
  2671  0F23  1303               	bcf	3,6	;RP1=0, select bank1
  2672  0F24  1C98               	btfss	24,1	;volatile
  2673  0F25  2F27               	goto	u1901
  2674  0F26  2F28               	goto	u1900
  2675  0F27                     u1901:
  2676  0F27  2F22               	goto	l420
  2677  0F28                     u1900:
  2678  0F28                     l2070:
  2679                           
  2680                           ;PROYECTO.c: 647:             TXREG = 49;
  2681  0F28  3031               	movlw	49
  2682  0F29  1283               	bcf	3,5	;RP0=0, select bank0
  2683  0F2A  1303               	bcf	3,6	;RP1=0, select bank0
  2684  0F2B  0099               	movwf	25	;volatile
  2685  0F2C                     l423:	
  2686                           ;PROYECTO.c: 648:             while(TXSTAbits.TRMT == 0);
  2687                           
  2688  0F2C  1683               	bsf	3,5	;RP0=1, select bank1
  2689  0F2D  1303               	bcf	3,6	;RP1=0, select bank1
  2690  0F2E  1C98               	btfss	24,1	;volatile
  2691  0F2F  2F31               	goto	u1911
  2692  0F30  2F32               	goto	u1910
  2693  0F31                     u1911:
  2694  0F31  2F2C               	goto	l423
  2695  0F32                     u1910:
  2696  0F32  2E90               	goto	l2036
  2697  0F33                     l427:
  2698  0F33  1683               	bsf	3,5	;RP0=1, select bank1
  2699  0F34  1303               	bcf	3,6	;RP1=0, select bank1
  2700  0F35  1C98               	btfss	24,1	;volatile
  2701  0F36  2F38               	goto	u1921
  2702  0F37  2F39               	goto	u1920
  2703  0F38                     u1921:
  2704  0F38  2F33               	goto	l427
  2705  0F39                     u1920:
  2706  0F39                     l2074:
  2707                           
  2708                           ;PROYECTO.c: 654:             TXREG = 49;
  2709  0F39  3031               	movlw	49
  2710  0F3A  1283               	bcf	3,5	;RP0=0, select bank0
  2711  0F3B  1303               	bcf	3,6	;RP1=0, select bank0
  2712  0F3C  0099               	movwf	25	;volatile
  2713  0F3D                     l430:	
  2714                           ;PROYECTO.c: 655:             while(TXSTAbits.TRMT == 0);
  2715                           
  2716  0F3D  1683               	bsf	3,5	;RP0=1, select bank1
  2717  0F3E  1303               	bcf	3,6	;RP1=0, select bank1
  2718  0F3F  1C98               	btfss	24,1	;volatile
  2719  0F40  2F42               	goto	u1931
  2720  0F41  2F43               	goto	u1930
  2721  0F42                     u1931:
  2722  0F42  2F3D               	goto	l430
  2723  0F43                     u1930:
  2724  0F43  2E9B               	goto	l2038
  2725  0F44                     l434:
  2726  0F44  1683               	bsf	3,5	;RP0=1, select bank1
  2727  0F45  1303               	bcf	3,6	;RP1=0, select bank1
  2728  0F46  1C98               	btfss	24,1	;volatile
  2729  0F47  2F49               	goto	u1941
  2730  0F48  2F4A               	goto	u1940
  2731  0F49                     u1941:
  2732  0F49  2F44               	goto	l434
  2733  0F4A                     u1940:
  2734  0F4A                     l2078:
  2735                           
  2736                           ;PROYECTO.c: 661:             TXREG = 49;
  2737  0F4A  3031               	movlw	49
  2738  0F4B  1283               	bcf	3,5	;RP0=0, select bank0
  2739  0F4C  1303               	bcf	3,6	;RP1=0, select bank0
  2740  0F4D  0099               	movwf	25	;volatile
  2741  0F4E                     l437:	
  2742                           ;PROYECTO.c: 662:             while(TXSTAbits.TRMT == 0);
  2743                           
  2744  0F4E  1683               	bsf	3,5	;RP0=1, select bank1
  2745  0F4F  1303               	bcf	3,6	;RP1=0, select bank1
  2746  0F50  1C98               	btfss	24,1	;volatile
  2747  0F51  2F53               	goto	u1951
  2748  0F52  2F54               	goto	u1950
  2749  0F53                     u1951:
  2750  0F53  2F4E               	goto	l437
  2751  0F54                     u1950:
  2752  0F54  2EA6               	goto	l2040
  2753  0F55                     l441:
  2754  0F55  1683               	bsf	3,5	;RP0=1, select bank1
  2755  0F56  1303               	bcf	3,6	;RP1=0, select bank1
  2756  0F57  1C98               	btfss	24,1	;volatile
  2757  0F58  2F5A               	goto	u1961
  2758  0F59  2F5B               	goto	u1960
  2759  0F5A                     u1961:
  2760  0F5A  2F55               	goto	l441
  2761  0F5B                     u1960:
  2762  0F5B                     l2082:
  2763                           
  2764                           ;PROYECTO.c: 668:             TXREG = 50;
  2765  0F5B  3032               	movlw	50
  2766  0F5C  1283               	bcf	3,5	;RP0=0, select bank0
  2767  0F5D  1303               	bcf	3,6	;RP1=0, select bank0
  2768  0F5E  0099               	movwf	25	;volatile
  2769  0F5F                     l444:	
  2770                           ;PROYECTO.c: 669:             while(TXSTAbits.TRMT == 0);
  2771                           
  2772  0F5F  1683               	bsf	3,5	;RP0=1, select bank1
  2773  0F60  1303               	bcf	3,6	;RP1=0, select bank1
  2774  0F61  1C98               	btfss	24,1	;volatile
  2775  0F62  2F64               	goto	u1971
  2776  0F63  2F65               	goto	u1970
  2777  0F64                     u1971:
  2778  0F64  2F5F               	goto	l444
  2779  0F65                     u1970:
  2780  0F65  2E43               	goto	l2022
  2781  0F66                     l448:
  2782  0F66  1683               	bsf	3,5	;RP0=1, select bank1
  2783  0F67  1303               	bcf	3,6	;RP1=0, select bank1
  2784  0F68  1C98               	btfss	24,1	;volatile
  2785  0F69  2F6B               	goto	u1981
  2786  0F6A  2F6C               	goto	u1980
  2787  0F6B                     u1981:
  2788  0F6B  2F66               	goto	l448
  2789  0F6C                     u1980:
  2790  0F6C                     l2086:
  2791                           
  2792                           ;PROYECTO.c: 675:             TXREG = 50;
  2793  0F6C  3032               	movlw	50
  2794  0F6D  1283               	bcf	3,5	;RP0=0, select bank0
  2795  0F6E  1303               	bcf	3,6	;RP1=0, select bank0
  2796  0F6F  0099               	movwf	25	;volatile
  2797  0F70                     l451:	
  2798                           ;PROYECTO.c: 676:             while(TXSTAbits.TRMT == 0);
  2799                           
  2800  0F70  1683               	bsf	3,5	;RP0=1, select bank1
  2801  0F71  1303               	bcf	3,6	;RP1=0, select bank1
  2802  0F72  1C98               	btfss	24,1	;volatile
  2803  0F73  2F75               	goto	u1991
  2804  0F74  2F76               	goto	u1990
  2805  0F75                     u1991:
  2806  0F75  2F70               	goto	l451
  2807  0F76                     u1990:
  2808  0F76  2E4E               	goto	l2024
  2809  0F77                     l455:
  2810  0F77  1683               	bsf	3,5	;RP0=1, select bank1
  2811  0F78  1303               	bcf	3,6	;RP1=0, select bank1
  2812  0F79  1C98               	btfss	24,1	;volatile
  2813  0F7A  2F7C               	goto	u2001
  2814  0F7B  2F7D               	goto	u2000
  2815  0F7C                     u2001:
  2816  0F7C  2F77               	goto	l455
  2817  0F7D                     u2000:
  2818  0F7D                     l2090:
  2819                           
  2820                           ;PROYECTO.c: 682:             TXREG = 50;
  2821  0F7D  3032               	movlw	50
  2822  0F7E  1283               	bcf	3,5	;RP0=0, select bank0
  2823  0F7F  1303               	bcf	3,6	;RP1=0, select bank0
  2824  0F80  0099               	movwf	25	;volatile
  2825  0F81                     l458:	
  2826                           ;PROYECTO.c: 683:             while(TXSTAbits.TRMT == 0);
  2827                           
  2828  0F81  1683               	bsf	3,5	;RP0=1, select bank1
  2829  0F82  1303               	bcf	3,6	;RP1=0, select bank1
  2830  0F83  1C98               	btfss	24,1	;volatile
  2831  0F84  2F86               	goto	u2011
  2832  0F85  2F87               	goto	u2010
  2833  0F86                     u2011:
  2834  0F86  2F81               	goto	l458
  2835  0F87                     u2010:
  2836  0F87  2E59               	goto	l2026
  2837  0F88                     l462:
  2838  0F88  1683               	bsf	3,5	;RP0=1, select bank1
  2839  0F89  1303               	bcf	3,6	;RP1=0, select bank1
  2840  0F8A  1C98               	btfss	24,1	;volatile
  2841  0F8B  2F8D               	goto	u2021
  2842  0F8C  2F8E               	goto	u2020
  2843  0F8D                     u2021:
  2844  0F8D  2F88               	goto	l462
  2845  0F8E                     u2020:
  2846  0F8E                     l2094:
  2847                           
  2848                           ;PROYECTO.c: 689:             TXREG = 50;
  2849  0F8E  3032               	movlw	50
  2850  0F8F  1283               	bcf	3,5	;RP0=0, select bank0
  2851  0F90  1303               	bcf	3,6	;RP1=0, select bank0
  2852  0F91  0099               	movwf	25	;volatile
  2853  0F92                     l465:	
  2854                           ;PROYECTO.c: 690:             while(TXSTAbits.TRMT == 0);
  2855                           
  2856  0F92  1683               	bsf	3,5	;RP0=1, select bank1
  2857  0F93  1303               	bcf	3,6	;RP1=0, select bank1
  2858  0F94  1C98               	btfss	24,1	;volatile
  2859  0F95  2F97               	goto	u2031
  2860  0F96  2F98               	goto	u2030
  2861  0F97                     u2031:
  2862  0F97  2F92               	goto	l465
  2863  0F98                     u2030:
  2864  0F98  2E64               	goto	l2028
  2865  0F99                     l469:
  2866  0F99  1683               	bsf	3,5	;RP0=1, select bank1
  2867  0F9A  1303               	bcf	3,6	;RP1=0, select bank1
  2868  0F9B  1C98               	btfss	24,1	;volatile
  2869  0F9C  2F9E               	goto	u2041
  2870  0F9D  2F9F               	goto	u2040
  2871  0F9E                     u2041:
  2872  0F9E  2F99               	goto	l469
  2873  0F9F                     u2040:
  2874  0F9F                     l2098:
  2875                           
  2876                           ;PROYECTO.c: 696:             TXREG = 50;
  2877  0F9F  3032               	movlw	50
  2878  0FA0  1283               	bcf	3,5	;RP0=0, select bank0
  2879  0FA1  1303               	bcf	3,6	;RP1=0, select bank0
  2880  0FA2  0099               	movwf	25	;volatile
  2881  0FA3                     l472:	
  2882                           ;PROYECTO.c: 697:             while(TXSTAbits.TRMT == 0);
  2883                           
  2884  0FA3  1683               	bsf	3,5	;RP0=1, select bank1
  2885  0FA4  1303               	bcf	3,6	;RP1=0, select bank1
  2886  0FA5  1C98               	btfss	24,1	;volatile
  2887  0FA6  2FA8               	goto	u2051
  2888  0FA7  2FA9               	goto	u2050
  2889  0FA8                     u2051:
  2890  0FA8  2FA3               	goto	l472
  2891  0FA9                     u2050:
  2892  0FA9  2E6F               	goto	l2030
  2893  0FAA                     l2104:
  2894  0FAA  087A               	movf	SendCharH@in,w
  2895  0FAB  00F8               	movwf	??_SendCharH
  2896  0FAC  01F9               	clrf	??_SendCharH+1
  2897                           
  2898                           ; Switch on 2 bytes has been partitioned into a top level switch of size 1, and 1 sub-sw
      +                          itches
  2899                           ; Switch size 1, requested type "simple"
  2900                           ; Number of cases is 1, Range of values is 0 to 0
  2901                           ; switch strategies available:
  2902                           ; Name         Instructions Cycles
  2903                           ; simple_byte            4     3 (average)
  2904                           ; direct_byte           11     8 (fixed)
  2905                           ; jumptable            260     6 (fixed)
  2906                           ;	Chosen strategy is simple_byte
  2907  0FAD  0879               	movf	??_SendCharH+1,w
  2908  0FAE  3A00               	xorlw	0	; case 0
  2909  0FAF  1903               	skipnz
  2910  0FB0  2FB2               	goto	l3554
  2911  0FB1  2FFF               	goto	l475
  2912  0FB2                     l3554:
  2913                           
  2914                           ; Switch size 1, requested type "simple"
  2915                           ; Number of cases is 25, Range of values is 0 to 24
  2916                           ; switch strategies available:
  2917                           ; Name         Instructions Cycles
  2918                           ; simple_byte           76    39 (average)
  2919                           ; direct_byte           83     8 (fixed)
  2920                           ; jumptable            260     6 (fixed)
  2921                           ;	Chosen strategy is simple_byte
  2922  0FB2  0878               	movf	??_SendCharH,w
  2923  0FB3  3A00               	xorlw	0	; case 0
  2924  0FB4  1903               	skipnz
  2925  0FB5  2E3D               	goto	l330
  2926  0FB6  3A01               	xorlw	1	; case 1
  2927  0FB7  1903               	skipnz
  2928  0FB8  2E48               	goto	l335
  2929  0FB9  3A03               	xorlw	3	; case 2
  2930  0FBA  1903               	skipnz
  2931  0FBB  2E53               	goto	l339
  2932  0FBC  3A01               	xorlw	1	; case 3
  2933  0FBD  1903               	skipnz
  2934  0FBE  2E5E               	goto	l343
  2935  0FBF  3A07               	xorlw	7	; case 4
  2936  0FC0  1903               	skipnz
  2937  0FC1  2E69               	goto	l347
  2938  0FC2  3A01               	xorlw	1	; case 5
  2939  0FC3  1903               	skipnz
  2940  0FC4  2E74               	goto	l351
  2941  0FC5  3A03               	xorlw	3	; case 6
  2942  0FC6  1903               	skipnz
  2943  0FC7  2E7F               	goto	l355
  2944  0FC8  3A01               	xorlw	1	; case 7
  2945  0FC9  1903               	skipnz
  2946  0FCA  2E8A               	goto	l359
  2947  0FCB  3A0F               	xorlw	15	; case 8
  2948  0FCC  1903               	skipnz
  2949  0FCD  2E95               	goto	l363
  2950  0FCE  3A01               	xorlw	1	; case 9
  2951  0FCF  1903               	skipnz
  2952  0FD0  2EA0               	goto	l367
  2953  0FD1  3A03               	xorlw	3	; case 10
  2954  0FD2  1903               	skipnz
  2955  0FD3  2EAB               	goto	l371
  2956  0FD4  3A01               	xorlw	1	; case 11
  2957  0FD5  1903               	skipnz
  2958  0FD6  2EBC               	goto	l378
  2959  0FD7  3A07               	xorlw	7	; case 12
  2960  0FD8  1903               	skipnz
  2961  0FD9  2ECD               	goto	l385
  2962  0FDA  3A01               	xorlw	1	; case 13
  2963  0FDB  1903               	skipnz
  2964  0FDC  2EDE               	goto	l392
  2965  0FDD  3A03               	xorlw	3	; case 14
  2966  0FDE  1903               	skipnz
  2967  0FDF  2EEF               	goto	l399
  2968  0FE0  3A01               	xorlw	1	; case 15
  2969  0FE1  1903               	skipnz
  2970  0FE2  2F00               	goto	l406
  2971  0FE3  3A1F               	xorlw	31	; case 16
  2972  0FE4  1903               	skipnz
  2973  0FE5  2F11               	goto	l413
  2974  0FE6  3A01               	xorlw	1	; case 17
  2975  0FE7  1903               	skipnz
  2976  0FE8  2F22               	goto	l420
  2977  0FE9  3A03               	xorlw	3	; case 18
  2978  0FEA  1903               	skipnz
  2979  0FEB  2F33               	goto	l427
  2980  0FEC  3A01               	xorlw	1	; case 19
  2981  0FED  1903               	skipnz
  2982  0FEE  2F44               	goto	l434
  2983  0FEF  3A07               	xorlw	7	; case 20
  2984  0FF0  1903               	skipnz
  2985  0FF1  2F55               	goto	l441
  2986  0FF2  3A01               	xorlw	1	; case 21
  2987  0FF3  1903               	skipnz
  2988  0FF4  2F66               	goto	l448
  2989  0FF5  3A03               	xorlw	3	; case 22
  2990  0FF6  1903               	skipnz
  2991  0FF7  2F77               	goto	l455
  2992  0FF8  3A01               	xorlw	1	; case 23
  2993  0FF9  1903               	skipnz
  2994  0FFA  2F88               	goto	l462
  2995  0FFB  3A0F               	xorlw	15	; case 24
  2996  0FFC  1903               	skipnz
  2997  0FFD  2F99               	goto	l469
  2998  0FFE  2FFF               	goto	l475
  2999  0FFF                     l475:
  3000  0FFF  0008               	return
  3001  1000                     __end_of_SendCharH:
  3002                           
  3003                           	psect	text6
  3004  07C5                     __ptext6:	
  3005 ;; *************** function _CharToNumM *****************
  3006 ;; Defined at:
  3007 ;;		line 798 in file "PROYECTO.c"
  3008 ;; Parameters:    Size  Location     Type
  3009 ;;  in              1    wreg     unsigned char 
  3010 ;;  her             1    2[COMMON] unsigned char 
  3011 ;; Auto vars:     Size  Location     Type
  3012 ;;  in              1    4[COMMON] unsigned char 
  3013 ;; Return value:  Size  Location     Type
  3014 ;;                  1    wreg      unsigned char 
  3015 ;; Registers used:
  3016 ;;		wreg, status,2, status,0
  3017 ;; Tracked objects:
  3018 ;;		On entry : 0/0
  3019 ;;		On exit  : 0/0
  3020 ;;		Unchanged: 0/0
  3021 ;; Data sizes:     COMMON   BANK0   BANK1   BANK3   BANK2
  3022 ;;      Params:         1       0       0       0       0
  3023 ;;      Locals:         1       0       0       0       0
  3024 ;;      Temps:          1       0       0       0       0
  3025 ;;      Totals:         3       0       0       0       0
  3026 ;;Total ram usage:        3 bytes
  3027 ;; Hardware stack levels used:    1
  3028 ;; Hardware stack levels required when called:    1
  3029 ;; This function calls:
  3030 ;;		Nothing
  3031 ;; This function is called by:
  3032 ;;		_main
  3033 ;; This function uses a non-reentrant model
  3034 ;;
  3035                           
  3036                           
  3037                           ;psect for function _CharToNumM
  3038  07C5                     _CharToNumM:
  3039                           
  3040                           ;incstack = 0
  3041                           ; Regs used in _CharToNumM: [wreg+status,2+status,0]
  3042                           ;CharToNumM@in stored from wreg
  3043  07C5  00FA               	movwf	CharToNumM@in
  3044  07C6                     l2194:
  3045                           
  3046                           ;PROYECTO.c: 799:     if(in == 'a'){
  3047  07C6  3061               	movlw	97
  3048  07C7  067A               	xorwf	CharToNumM@in,w
  3049  07C8  1D03               	btfss	3,2
  3050  07C9  2FCB               	goto	u2121
  3051  07CA  2FCC               	goto	u2120
  3052  07CB                     u2121:
  3053  07CB  2FCE               	goto	l2198
  3054  07CC                     u2120:
  3055  07CC                     l2196:
  3056                           
  3057                           ;PROYECTO.c: 800:         her = 0;
  3058  07CC  01F8               	clrf	CharToNumM@her
  3059                           
  3060                           ;PROYECTO.c: 801:     }else if(in == 'b'){
  3061  07CD  2FFA               	goto	l524
  3062  07CE                     l2198:
  3063  07CE  3062               	movlw	98
  3064  07CF  067A               	xorwf	CharToNumM@in,w
  3065  07D0  1D03               	btfss	3,2
  3066  07D1  2FD3               	goto	u2131
  3067  07D2  2FD4               	goto	u2130
  3068  07D3                     u2131:
  3069  07D3  2FD9               	goto	l2202
  3070  07D4                     u2130:
  3071  07D4                     l2200:
  3072                           
  3073                           ;PROYECTO.c: 802:         her = 15;
  3074  07D4  300F               	movlw	15
  3075  07D5  00F9               	movwf	??_CharToNumM
  3076  07D6  0879               	movf	??_CharToNumM,w
  3077  07D7  00F8               	movwf	CharToNumM@her
  3078                           
  3079                           ;PROYECTO.c: 803:     }else if(in == 'c'){
  3080  07D8  2FFA               	goto	l524
  3081  07D9                     l2202:
  3082  07D9  3063               	movlw	99
  3083  07DA  067A               	xorwf	CharToNumM@in,w
  3084  07DB  1D03               	btfss	3,2
  3085  07DC  2FDE               	goto	u2141
  3086  07DD  2FDF               	goto	u2140
  3087  07DE                     u2141:
  3088  07DE  2FE4               	goto	l2206
  3089  07DF                     u2140:
  3090  07DF                     l2204:
  3091                           
  3092                           ;PROYECTO.c: 804:         her = 30;
  3093  07DF  301E               	movlw	30
  3094  07E0  00F9               	movwf	??_CharToNumM
  3095  07E1  0879               	movf	??_CharToNumM,w
  3096  07E2  00F8               	movwf	CharToNumM@her
  3097                           
  3098                           ;PROYECTO.c: 805:     }else if(in == 'd'){
  3099  07E3  2FFA               	goto	l524
  3100  07E4                     l2206:
  3101  07E4  3064               	movlw	100
  3102  07E5  067A               	xorwf	CharToNumM@in,w
  3103  07E6  1D03               	btfss	3,2
  3104  07E7  2FE9               	goto	u2151
  3105  07E8  2FEA               	goto	u2150
  3106  07E9                     u2151:
  3107  07E9  2FEF               	goto	l2210
  3108  07EA                     u2150:
  3109  07EA                     l2208:
  3110                           
  3111                           ;PROYECTO.c: 806:         her = 45;
  3112  07EA  302D               	movlw	45
  3113  07EB  00F9               	movwf	??_CharToNumM
  3114  07EC  0879               	movf	??_CharToNumM,w
  3115  07ED  00F8               	movwf	CharToNumM@her
  3116                           
  3117                           ;PROYECTO.c: 807:     }else if(in == 'e'){
  3118  07EE  2FFA               	goto	l524
  3119  07EF                     l2210:
  3120  07EF  3065               	movlw	101
  3121  07F0  067A               	xorwf	CharToNumM@in,w
  3122  07F1  1D03               	btfss	3,2
  3123  07F2  2FF4               	goto	u2161
  3124  07F3  2FF5               	goto	u2160
  3125  07F4                     u2161:
  3126  07F4  2FFA               	goto	l528
  3127  07F5                     u2160:
  3128  07F5                     l2212:
  3129                           
  3130                           ;PROYECTO.c: 808:         her = 55;
  3131  07F5  3037               	movlw	55
  3132  07F6  00F9               	movwf	??_CharToNumM
  3133  07F7  0879               	movf	??_CharToNumM,w
  3134  07F8  00F8               	movwf	CharToNumM@her
  3135  07F9  2FFA               	goto	l524
  3136  07FA                     l528:
  3137  07FA                     l524:
  3138                           
  3139                           ;PROYECTO.c: 810:     return her;
  3140  07FA  0878               	movf	CharToNumM@her,w
  3141  07FB                     l532:
  3142  07FB  0008               	return
  3143  07FC                     __end_of_CharToNumM:
  3144                           
  3145                           	psect	text7
  3146  0C57                     __ptext7:	
  3147 ;; *************** function _CharToNumH *****************
  3148 ;; Defined at:
  3149 ;;		line 718 in file "PROYECTO.c"
  3150 ;; Parameters:    Size  Location     Type
  3151 ;;  in              1    wreg     unsigned char 
  3152 ;;  hora_user       1    2[COMMON] unsigned char 
  3153 ;; Auto vars:     Size  Location     Type
  3154 ;;  in              1    5[COMMON] unsigned char 
  3155 ;; Return value:  Size  Location     Type
  3156 ;;                  1    wreg      unsigned char 
  3157 ;; Registers used:
  3158 ;;		wreg, fsr0l, fsr0h, status,2, status,0
  3159 ;; Tracked objects:
  3160 ;;		On entry : 0/0
  3161 ;;		On exit  : 0/0
  3162 ;;		Unchanged: 0/0
  3163 ;; Data sizes:     COMMON   BANK0   BANK1   BANK3   BANK2
  3164 ;;      Params:         1       0       0       0       0
  3165 ;;      Locals:         1       0       0       0       0
  3166 ;;      Temps:          2       0       0       0       0
  3167 ;;      Totals:         4       0       0       0       0
  3168 ;;Total ram usage:        4 bytes
  3169 ;; Hardware stack levels used:    1
  3170 ;; Hardware stack levels required when called:    1
  3171 ;; This function calls:
  3172 ;;		Nothing
  3173 ;; This function is called by:
  3174 ;;		_main
  3175 ;; This function uses a non-reentrant model
  3176 ;;
  3177                           
  3178                           
  3179                           ;psect for function _CharToNumH
  3180  0C57                     _CharToNumH:
  3181                           
  3182                           ;incstack = 0
  3183                           ; Regs used in _CharToNumH: [wreg-fsr0h+status,2+status,0]
  3184                           ;CharToNumH@in stored from wreg
  3185  0C57  00FB               	movwf	CharToNumH@in
  3186  0C58                     l2132:
  3187                           
  3188                           ;PROYECTO.c: 719:     switch(in){
  3189  0C58  2CD1               	goto	l2184
  3190  0C59                     l2134:
  3191                           
  3192                           ;PROYECTO.c: 721:             hora_user = 0;
  3193  0C59  01F8               	clrf	CharToNumH@hora_user
  3194                           
  3195                           ;PROYECTO.c: 722:             break;
  3196  0C5A  2D26               	goto	l2186
  3197  0C5B                     l496:	
  3198                           ;PROYECTO.c: 723:         case('b'):
  3199                           
  3200                           
  3201                           ;PROYECTO.c: 724:             hora_user = 1;
  3202  0C5B  01F8               	clrf	CharToNumH@hora_user
  3203  0C5C  0AF8               	incf	CharToNumH@hora_user,f
  3204                           
  3205                           ;PROYECTO.c: 725:             break;
  3206  0C5D  2D26               	goto	l2186
  3207  0C5E                     l2136:
  3208                           
  3209                           ;PROYECTO.c: 727:             hora_user = 2;
  3210  0C5E  3002               	movlw	2
  3211  0C5F  00F9               	movwf	??_CharToNumH
  3212  0C60  0879               	movf	??_CharToNumH,w
  3213  0C61  00F8               	movwf	CharToNumH@hora_user
  3214                           
  3215                           ;PROYECTO.c: 728:             break;
  3216  0C62  2D26               	goto	l2186
  3217  0C63                     l2138:
  3218                           
  3219                           ;PROYECTO.c: 730:             hora_user = 3;
  3220  0C63  3003               	movlw	3
  3221  0C64  00F9               	movwf	??_CharToNumH
  3222  0C65  0879               	movf	??_CharToNumH,w
  3223  0C66  00F8               	movwf	CharToNumH@hora_user
  3224                           
  3225                           ;PROYECTO.c: 731:             break;
  3226  0C67  2D26               	goto	l2186
  3227  0C68                     l2140:
  3228                           
  3229                           ;PROYECTO.c: 733:             hora_user = 4;
  3230  0C68  3004               	movlw	4
  3231  0C69  00F9               	movwf	??_CharToNumH
  3232  0C6A  0879               	movf	??_CharToNumH,w
  3233  0C6B  00F8               	movwf	CharToNumH@hora_user
  3234                           
  3235                           ;PROYECTO.c: 734:             break;
  3236  0C6C  2D26               	goto	l2186
  3237  0C6D                     l2142:
  3238                           
  3239                           ;PROYECTO.c: 736:             hora_user = 5;
  3240  0C6D  3005               	movlw	5
  3241  0C6E  00F9               	movwf	??_CharToNumH
  3242  0C6F  0879               	movf	??_CharToNumH,w
  3243  0C70  00F8               	movwf	CharToNumH@hora_user
  3244                           
  3245                           ;PROYECTO.c: 737:             break;
  3246  0C71  2D26               	goto	l2186
  3247  0C72                     l2144:
  3248                           
  3249                           ;PROYECTO.c: 739:             hora_user = 6;
  3250  0C72  3006               	movlw	6
  3251  0C73  00F9               	movwf	??_CharToNumH
  3252  0C74  0879               	movf	??_CharToNumH,w
  3253  0C75  00F8               	movwf	CharToNumH@hora_user
  3254                           
  3255                           ;PROYECTO.c: 740:             break;
  3256  0C76  2D26               	goto	l2186
  3257  0C77                     l2146:
  3258                           
  3259                           ;PROYECTO.c: 742:             hora_user = 7;
  3260  0C77  3007               	movlw	7
  3261  0C78  00F9               	movwf	??_CharToNumH
  3262  0C79  0879               	movf	??_CharToNumH,w
  3263  0C7A  00F8               	movwf	CharToNumH@hora_user
  3264                           
  3265                           ;PROYECTO.c: 743:             break;
  3266  0C7B  2D26               	goto	l2186
  3267  0C7C                     l2148:
  3268                           
  3269                           ;PROYECTO.c: 745:             hora_user = 8;
  3270  0C7C  3008               	movlw	8
  3271  0C7D  00F9               	movwf	??_CharToNumH
  3272  0C7E  0879               	movf	??_CharToNumH,w
  3273  0C7F  00F8               	movwf	CharToNumH@hora_user
  3274                           
  3275                           ;PROYECTO.c: 746:             break;
  3276  0C80  2D26               	goto	l2186
  3277  0C81                     l2150:
  3278                           
  3279                           ;PROYECTO.c: 748:             hora_user = 9;
  3280  0C81  3009               	movlw	9
  3281  0C82  00F9               	movwf	??_CharToNumH
  3282  0C83  0879               	movf	??_CharToNumH,w
  3283  0C84  00F8               	movwf	CharToNumH@hora_user
  3284                           
  3285                           ;PROYECTO.c: 749:             break;
  3286  0C85  2D26               	goto	l2186
  3287  0C86                     l2152:
  3288                           
  3289                           ;PROYECTO.c: 751:             hora_user = 10;
  3290  0C86  300A               	movlw	10
  3291  0C87  00F9               	movwf	??_CharToNumH
  3292  0C88  0879               	movf	??_CharToNumH,w
  3293  0C89  00F8               	movwf	CharToNumH@hora_user
  3294                           
  3295                           ;PROYECTO.c: 752:             break;
  3296  0C8A  2D26               	goto	l2186
  3297  0C8B                     l2154:
  3298                           
  3299                           ;PROYECTO.c: 754:             hora_user = 11;
  3300  0C8B  300B               	movlw	11
  3301  0C8C  00F9               	movwf	??_CharToNumH
  3302  0C8D  0879               	movf	??_CharToNumH,w
  3303  0C8E  00F8               	movwf	CharToNumH@hora_user
  3304                           
  3305                           ;PROYECTO.c: 755:             break;
  3306  0C8F  2D26               	goto	l2186
  3307  0C90                     l2156:
  3308                           
  3309                           ;PROYECTO.c: 757:             hora_user = 12;
  3310  0C90  300C               	movlw	12
  3311  0C91  00F9               	movwf	??_CharToNumH
  3312  0C92  0879               	movf	??_CharToNumH,w
  3313  0C93  00F8               	movwf	CharToNumH@hora_user
  3314                           
  3315                           ;PROYECTO.c: 758:             break;
  3316  0C94  2D26               	goto	l2186
  3317  0C95                     l2158:
  3318                           
  3319                           ;PROYECTO.c: 760:             hora_user = 13;
  3320  0C95  300D               	movlw	13
  3321  0C96  00F9               	movwf	??_CharToNumH
  3322  0C97  0879               	movf	??_CharToNumH,w
  3323  0C98  00F8               	movwf	CharToNumH@hora_user
  3324                           
  3325                           ;PROYECTO.c: 761:             break;
  3326  0C99  2D26               	goto	l2186
  3327  0C9A                     l2160:
  3328                           
  3329                           ;PROYECTO.c: 763:             hora_user = 14;
  3330  0C9A  300E               	movlw	14
  3331  0C9B  00F9               	movwf	??_CharToNumH
  3332  0C9C  0879               	movf	??_CharToNumH,w
  3333  0C9D  00F8               	movwf	CharToNumH@hora_user
  3334                           
  3335                           ;PROYECTO.c: 764:             break;
  3336  0C9E  2D26               	goto	l2186
  3337  0C9F                     l2162:
  3338                           
  3339                           ;PROYECTO.c: 766:             hora_user = 15;
  3340  0C9F  300F               	movlw	15
  3341  0CA0  00F9               	movwf	??_CharToNumH
  3342  0CA1  0879               	movf	??_CharToNumH,w
  3343  0CA2  00F8               	movwf	CharToNumH@hora_user
  3344                           
  3345                           ;PROYECTO.c: 767:             break;
  3346  0CA3  2D26               	goto	l2186
  3347  0CA4                     l2164:
  3348                           
  3349                           ;PROYECTO.c: 769:             hora_user = 16;
  3350  0CA4  3010               	movlw	16
  3351  0CA5  00F9               	movwf	??_CharToNumH
  3352  0CA6  0879               	movf	??_CharToNumH,w
  3353  0CA7  00F8               	movwf	CharToNumH@hora_user
  3354                           
  3355                           ;PROYECTO.c: 770:             break;
  3356  0CA8  2D26               	goto	l2186
  3357  0CA9                     l2166:
  3358                           
  3359                           ;PROYECTO.c: 772:             hora_user = 17;
  3360  0CA9  3011               	movlw	17
  3361  0CAA  00F9               	movwf	??_CharToNumH
  3362  0CAB  0879               	movf	??_CharToNumH,w
  3363  0CAC  00F8               	movwf	CharToNumH@hora_user
  3364                           
  3365                           ;PROYECTO.c: 773:             break;
  3366  0CAD  2D26               	goto	l2186
  3367  0CAE                     l2168:
  3368                           
  3369                           ;PROYECTO.c: 775:             hora_user = 18;
  3370  0CAE  3012               	movlw	18
  3371  0CAF  00F9               	movwf	??_CharToNumH
  3372  0CB0  0879               	movf	??_CharToNumH,w
  3373  0CB1  00F8               	movwf	CharToNumH@hora_user
  3374                           
  3375                           ;PROYECTO.c: 776:             break;
  3376  0CB2  2D26               	goto	l2186
  3377  0CB3                     l2170:
  3378                           
  3379                           ;PROYECTO.c: 778:             hora_user = 19;
  3380  0CB3  3013               	movlw	19
  3381  0CB4  00F9               	movwf	??_CharToNumH
  3382  0CB5  0879               	movf	??_CharToNumH,w
  3383  0CB6  00F8               	movwf	CharToNumH@hora_user
  3384                           
  3385                           ;PROYECTO.c: 779:             break;
  3386  0CB7  2D26               	goto	l2186
  3387  0CB8                     l2172:
  3388                           
  3389                           ;PROYECTO.c: 781:             hora_user = 20;
  3390  0CB8  3014               	movlw	20
  3391  0CB9  00F9               	movwf	??_CharToNumH
  3392  0CBA  0879               	movf	??_CharToNumH,w
  3393  0CBB  00F8               	movwf	CharToNumH@hora_user
  3394                           
  3395                           ;PROYECTO.c: 782:             break;
  3396  0CBC  2D26               	goto	l2186
  3397  0CBD                     l2174:
  3398                           
  3399                           ;PROYECTO.c: 784:             hora_user = 21;
  3400  0CBD  3015               	movlw	21
  3401  0CBE  00F9               	movwf	??_CharToNumH
  3402  0CBF  0879               	movf	??_CharToNumH,w
  3403  0CC0  00F8               	movwf	CharToNumH@hora_user
  3404                           
  3405                           ;PROYECTO.c: 785:             break;
  3406  0CC1  2D26               	goto	l2186
  3407  0CC2                     l2176:
  3408                           
  3409                           ;PROYECTO.c: 787:             hora_user = 22;
  3410  0CC2  3016               	movlw	22
  3411  0CC3  00F9               	movwf	??_CharToNumH
  3412  0CC4  0879               	movf	??_CharToNumH,w
  3413  0CC5  00F8               	movwf	CharToNumH@hora_user
  3414                           
  3415                           ;PROYECTO.c: 788:             break;
  3416  0CC6  2D26               	goto	l2186
  3417  0CC7                     l2178:
  3418                           
  3419                           ;PROYECTO.c: 790:             hora_user = 23;
  3420  0CC7  3017               	movlw	23
  3421  0CC8  00F9               	movwf	??_CharToNumH
  3422  0CC9  0879               	movf	??_CharToNumH,w
  3423  0CCA  00F8               	movwf	CharToNumH@hora_user
  3424                           
  3425                           ;PROYECTO.c: 791:             break;
  3426  0CCB  2D26               	goto	l2186
  3427  0CCC                     l2180:
  3428                           
  3429                           ;PROYECTO.c: 793:             hora_user = 24;
  3430  0CCC  3018               	movlw	24
  3431  0CCD  00F9               	movwf	??_CharToNumH
  3432  0CCE  0879               	movf	??_CharToNumH,w
  3433  0CCF  00F8               	movwf	CharToNumH@hora_user
  3434                           
  3435                           ;PROYECTO.c: 794:             break;
  3436  0CD0  2D26               	goto	l2186
  3437  0CD1                     l2184:
  3438  0CD1  087B               	movf	CharToNumH@in,w
  3439  0CD2  00F9               	movwf	??_CharToNumH
  3440  0CD3  01FA               	clrf	??_CharToNumH+1
  3441                           
  3442                           ; Switch on 2 bytes has been partitioned into a top level switch of size 1, and 1 sub-sw
      +                          itches
  3443                           ; Switch size 1, requested type "simple"
  3444                           ; Number of cases is 1, Range of values is 0 to 0
  3445                           ; switch strategies available:
  3446                           ; Name         Instructions Cycles
  3447                           ; simple_byte            4     3 (average)
  3448                           ; direct_byte           11     8 (fixed)
  3449                           ; jumptable            260     6 (fixed)
  3450                           ;	Chosen strategy is simple_byte
  3451  0CD4  087A               	movf	??_CharToNumH+1,w
  3452  0CD5  3A00               	xorlw	0	; case 0
  3453  0CD6  1903               	skipnz
  3454  0CD7  2CD9               	goto	l3556
  3455  0CD8  2D26               	goto	l2186
  3456  0CD9                     l3556:
  3457                           
  3458                           ; Switch size 1, requested type "simple"
  3459                           ; Number of cases is 25, Range of values is 97 to 121
  3460                           ; switch strategies available:
  3461                           ; Name         Instructions Cycles
  3462                           ; simple_byte           76    39 (average)
  3463                           ; direct_byte           86    11 (fixed)
  3464                           ; jumptable            263     9 (fixed)
  3465                           ;	Chosen strategy is simple_byte
  3466  0CD9  0879               	movf	??_CharToNumH,w
  3467  0CDA  3A61               	xorlw	97	; case 97
  3468  0CDB  1903               	skipnz
  3469  0CDC  2C59               	goto	l2134
  3470  0CDD  3A03               	xorlw	3	; case 98
  3471  0CDE  1903               	skipnz
  3472  0CDF  2C5B               	goto	l496
  3473  0CE0  3A01               	xorlw	1	; case 99
  3474  0CE1  1903               	skipnz
  3475  0CE2  2C5E               	goto	l2136
  3476  0CE3  3A07               	xorlw	7	; case 100
  3477  0CE4  1903               	skipnz
  3478  0CE5  2C63               	goto	l2138
  3479  0CE6  3A01               	xorlw	1	; case 101
  3480  0CE7  1903               	skipnz
  3481  0CE8  2C68               	goto	l2140
  3482  0CE9  3A03               	xorlw	3	; case 102
  3483  0CEA  1903               	skipnz
  3484  0CEB  2C6D               	goto	l2142
  3485  0CEC  3A01               	xorlw	1	; case 103
  3486  0CED  1903               	skipnz
  3487  0CEE  2C72               	goto	l2144
  3488  0CEF  3A0F               	xorlw	15	; case 104
  3489  0CF0  1903               	skipnz
  3490  0CF1  2C77               	goto	l2146
  3491  0CF2  3A01               	xorlw	1	; case 105
  3492  0CF3  1903               	skipnz
  3493  0CF4  2C7C               	goto	l2148
  3494  0CF5  3A03               	xorlw	3	; case 106
  3495  0CF6  1903               	skipnz
  3496  0CF7  2C81               	goto	l2150
  3497  0CF8  3A01               	xorlw	1	; case 107
  3498  0CF9  1903               	skipnz
  3499  0CFA  2C86               	goto	l2152
  3500  0CFB  3A07               	xorlw	7	; case 108
  3501  0CFC  1903               	skipnz
  3502  0CFD  2C8B               	goto	l2154
  3503  0CFE  3A01               	xorlw	1	; case 109
  3504  0CFF  1903               	skipnz
  3505  0D00  2C90               	goto	l2156
  3506  0D01  3A03               	xorlw	3	; case 110
  3507  0D02  1903               	skipnz
  3508  0D03  2C95               	goto	l2158
  3509  0D04  3A01               	xorlw	1	; case 111
  3510  0D05  1903               	skipnz
  3511  0D06  2C9A               	goto	l2160
  3512  0D07  3A1F               	xorlw	31	; case 112
  3513  0D08  1903               	skipnz
  3514  0D09  2C9F               	goto	l2162
  3515  0D0A  3A01               	xorlw	1	; case 113
  3516  0D0B  1903               	skipnz
  3517  0D0C  2CA4               	goto	l2164
  3518  0D0D  3A03               	xorlw	3	; case 114
  3519  0D0E  1903               	skipnz
  3520  0D0F  2CA9               	goto	l2166
  3521  0D10  3A01               	xorlw	1	; case 115
  3522  0D11  1903               	skipnz
  3523  0D12  2CAE               	goto	l2168
  3524  0D13  3A07               	xorlw	7	; case 116
  3525  0D14  1903               	skipnz
  3526  0D15  2CB3               	goto	l2170
  3527  0D16  3A01               	xorlw	1	; case 117
  3528  0D17  1903               	skipnz
  3529  0D18  2CB8               	goto	l2172
  3530  0D19  3A03               	xorlw	3	; case 118
  3531  0D1A  1903               	skipnz
  3532  0D1B  2CBD               	goto	l2174
  3533  0D1C  3A01               	xorlw	1	; case 119
  3534  0D1D  1903               	skipnz
  3535  0D1E  2CC2               	goto	l2176
  3536  0D1F  3A0F               	xorlw	15	; case 120
  3537  0D20  1903               	skipnz
  3538  0D21  2CC7               	goto	l2178
  3539  0D22  3A01               	xorlw	1	; case 121
  3540  0D23  1903               	skipnz
  3541  0D24  2CCC               	goto	l2180
  3542  0D25  2D26               	goto	l2186
  3543  0D26                     l2186:
  3544                           
  3545                           ;PROYECTO.c: 796:     return hora_user;
  3546  0D26  0878               	movf	CharToNumH@hora_user,w
  3547  0D27                     l520:
  3548  0D27  0008               	return
  3549  0D28                     __end_of_CharToNumH:
  3550                           
  3551                           	psect	text8
  3552  0BBF                     __ptext8:	
  3553 ;; *************** function _isr *****************
  3554 ;; Defined at:
  3555 ;;		line 70 in file "PROYECTO.c"
  3556 ;; Parameters:    Size  Location     Type
  3557 ;;		None
  3558 ;; Auto vars:     Size  Location     Type
  3559 ;;		None
  3560 ;; Return value:  Size  Location     Type
  3561 ;;                  1    wreg      void 
  3562 ;; Registers used:
  3563 ;;		None
  3564 ;; Tracked objects:
  3565 ;;		On entry : 0/0
  3566 ;;		On exit  : 0/0
  3567 ;;		Unchanged: 0/0
  3568 ;; Data sizes:     COMMON   BANK0   BANK1   BANK3   BANK2
  3569 ;;      Params:         0       0       0       0       0
  3570 ;;      Locals:         0       0       0       0       0
  3571 ;;      Temps:          2       0       0       0       0
  3572 ;;      Totals:         2       0       0       0       0
  3573 ;;Total ram usage:        2 bytes
  3574 ;; Hardware stack levels used:    1
  3575 ;; This function calls:
  3576 ;;		Nothing
  3577 ;; This function is called by:
  3578 ;;		Interrupt level 1
  3579 ;; This function uses a non-reentrant model
  3580 ;;
  3581                           
  3582                           
  3583                           ;psect for function _isr
  3584  0BBF                     _isr:
  3585  0BBF                     i1l157:
  3586  0BBF  0877               	movf	??_isr+1,w
  3587  0BC0  008A               	movwf	10
  3588  0BC1  0E76               	swapf	??_isr,w
  3589  0BC2  0083               	movwf	3
  3590  0BC3  0EFE               	swapf	btemp,f
  3591  0BC4  0E7E               	swapf	btemp,w
  3592  0BC5  0009               	retfie
  3593  0BC6                     __end_of_isr:
  3594  007E                     btemp	set	126	;btemp
  3595  007E                     wtemp0	set	126
  3596                           
  3597                           	psect	intentry
  3598  0004                     __pintentry:	
  3599                           ;incstack = 0
  3600                           ; Regs used in _isr: []
  3601                           
  3602  0004                     interrupt_function:
  3603  007E                     saved_w	set	btemp
  3604  0004  00FE               	movwf	btemp
  3605  0005  0E03               	swapf	3,w
  3606  0006  00F6               	movwf	??_isr
  3607  0007  080A               	movf	10,w
  3608  0008  00F7               	movwf	??_isr+1
  3609  0009  120A  158A  2BBF   	ljmp	_isr
  3610                           
  3611                           	psect	config
  3612                           
  3613                           ;Config register CONFIG1 @ 0x2007
  3614                           ;	Oscillator Selection bits
  3615                           ;	FOSC = INTRC_NOCLKOUT, INTOSCIO oscillator: I/O function on RA6/OSC2/CLKOUT pin, I/O f
      +                          unction on RA7/OSC1/CLKIN
  3616                           ;	Watchdog Timer Enable bit
  3617                           ;	WDTE = OFF, WDT disabled and can be enabled by SWDTEN bit of the WDTCON register
  3618                           ;	Power-up Timer Enable bit
  3619                           ;	PWRTE = OFF, PWRT disabled
  3620                           ;	RE3/MCLR pin function select bit
  3621                           ;	MCLRE = OFF, RE3/MCLR pin function is digital input, MCLR internally tied to VDD
  3622                           ;	Code Protection bit
  3623                           ;	CP = OFF, Program memory code protection is disabled
  3624                           ;	Data Code Protection bit
  3625                           ;	CPD = OFF, Data memory code protection is disabled
  3626                           ;	Brown Out Reset Selection bits
  3627                           ;	BOREN = OFF, BOR disabled
  3628                           ;	Internal External Switchover bit
  3629                           ;	IESO = OFF, Internal/External Switchover mode is disabled
  3630                           ;	Fail-Safe Clock Monitor Enabled bit
  3631                           ;	FCMEN = OFF, Fail-Safe Clock Monitor is disabled
  3632                           ;	Low Voltage Programming Enable bit
  3633                           ;	LVP = ON, RB3/PGM pin has PGM function, low voltage programming enabled
  3634                           ;	In-Circuit Debugger Mode bit
  3635                           ;	DEBUG = 0x1, unprogrammed default
  3636  2007                     	org	8199
  3637  2007  30D4               	dw	12500
  3638                           
  3639                           ;Config register CONFIG2 @ 0x2008
  3640                           ;	Brown-out Reset Selection bit
  3641                           ;	BOR4V = BOR40V, Brown-out Reset set to 4.0V
  3642                           ;	Flash Program Memory Self Write Enable bits
  3643                           ;	WRT = OFF, Write protection off
  3644  2008                     	org	8200
  3645  2008  3FFF               	dw	16383
  3646                           
  3647                           	psect	maintext_split_1
  3648  0022                     l3036:
  3649  0022  0C1F               	rrf	31,w	;volatile
  3650  0023  00B8               	movwf	??_main
  3651  0024  0C38               	rrf	??_main,w
  3652  0025  390F               	andlw	15
  3653  0026  3A05               	xorlw	5
  3654  0027  1D03               	skipz
  3655  0028  282A               	goto	u3411
  3656  0029  282B               	goto	u3410
  3657  002A                     u3411:
  3658  002A  29CB               	goto	l3186
  3659  002B                     u3410:
  3660  002B                     l3038:
  3661                           
  3662                           ;PROYECTO.c: 198:                 escala = ADRESH;
  3663  002B  081E               	movf	30,w	;volatile
  3664  002C  00B8               	movwf	??_main
  3665  002D  0838               	movf	??_main,w
  3666  002E  00F3               	movwf	_escala
  3667                           
  3668                           ;PROYECTO.c: 199:                 if (escala >= 0 && escala <=10 ){
  3669  002F  300B               	movlw	11
  3670  0030  0273               	subwf	_escala,w
  3671  0031  1803               	skipnc
  3672  0032  2834               	goto	u3421
  3673  0033  2835               	goto	u3420
  3674  0034                     u3421:
  3675  0034  2837               	goto	l3042
  3676  0035                     u3420:
  3677  0035                     l3040:
  3678                           
  3679                           ;PROYECTO.c: 200:                     hora = 0;
  3680  0035  01F5               	clrf	_hora
  3681                           
  3682                           ;PROYECTO.c: 201:                 }else if(escala >= 11 && escala <=20 ){
  3683  0036  29C7               	goto	l3184
  3684  0037                     l3042:
  3685  0037  300B               	movlw	11
  3686  0038  0273               	subwf	_escala,w
  3687  0039  1C03               	skipc
  3688  003A  283C               	goto	u3431
  3689  003B  283D               	goto	u3430
  3690  003C                     u3431:
  3691  003C  2846               	goto	l3048
  3692  003D                     u3430:
  3693  003D                     l3044:
  3694  003D  3015               	movlw	21
  3695  003E  0273               	subwf	_escala,w
  3696  003F  1803               	skipnc
  3697  0040  2842               	goto	u3441
  3698  0041  2843               	goto	u3440
  3699  0042                     u3441:
  3700  0042  2846               	goto	l3048
  3701  0043                     u3440:
  3702  0043                     l3046:
  3703                           
  3704                           ;PROYECTO.c: 202:                     hora = 1;
  3705  0043  01F5               	clrf	_hora
  3706  0044  0AF5               	incf	_hora,f
  3707                           
  3708                           ;PROYECTO.c: 203:                 }else if(escala >= 21 && escala <=30 ){
  3709  0045  29C7               	goto	l3184
  3710  0046                     l3048:
  3711  0046  3015               	movlw	21
  3712  0047  0273               	subwf	_escala,w
  3713  0048  1C03               	skipc
  3714  0049  284B               	goto	u3451
  3715  004A  284C               	goto	u3450
  3716  004B                     u3451:
  3717  004B  2857               	goto	l3054
  3718  004C                     u3450:
  3719  004C                     l3050:
  3720  004C  301F               	movlw	31
  3721  004D  0273               	subwf	_escala,w
  3722  004E  1803               	skipnc
  3723  004F  2851               	goto	u3461
  3724  0050  2852               	goto	u3460
  3725  0051                     u3461:
  3726  0051  2857               	goto	l3054
  3727  0052                     u3460:
  3728  0052                     l3052:
  3729                           
  3730                           ;PROYECTO.c: 204:                     hora = 2;
  3731  0052  3002               	movlw	2
  3732  0053  00B8               	movwf	??_main
  3733  0054  0838               	movf	??_main,w
  3734  0055  00F5               	movwf	_hora
  3735                           
  3736                           ;PROYECTO.c: 205:                 }else if(escala >= 31 && escala <=40 ){
  3737  0056  29C7               	goto	l3184
  3738  0057                     l3054:
  3739  0057  301F               	movlw	31
  3740  0058  0273               	subwf	_escala,w
  3741  0059  1C03               	skipc
  3742  005A  285C               	goto	u3471
  3743  005B  285D               	goto	u3470
  3744  005C                     u3471:
  3745  005C  2868               	goto	l3060
  3746  005D                     u3470:
  3747  005D                     l3056:
  3748  005D  3029               	movlw	41
  3749  005E  0273               	subwf	_escala,w
  3750  005F  1803               	skipnc
  3751  0060  2862               	goto	u3481
  3752  0061  2863               	goto	u3480
  3753  0062                     u3481:
  3754  0062  2868               	goto	l3060
  3755  0063                     u3480:
  3756  0063                     l3058:
  3757                           
  3758                           ;PROYECTO.c: 206:                     hora = 3;
  3759  0063  3003               	movlw	3
  3760  0064  00B8               	movwf	??_main
  3761  0065  0838               	movf	??_main,w
  3762  0066  00F5               	movwf	_hora
  3763                           
  3764                           ;PROYECTO.c: 207:                 }else if(escala >= 41 && escala <=50 ){
  3765  0067  29C7               	goto	l3184
  3766  0068                     l3060:
  3767  0068  3029               	movlw	41
  3768  0069  0273               	subwf	_escala,w
  3769  006A  1C03               	skipc
  3770  006B  286D               	goto	u3491
  3771  006C  286E               	goto	u3490
  3772  006D                     u3491:
  3773  006D  2879               	goto	l3066
  3774  006E                     u3490:
  3775  006E                     l3062:
  3776  006E  3033               	movlw	51
  3777  006F  0273               	subwf	_escala,w
  3778  0070  1803               	skipnc
  3779  0071  2873               	goto	u3501
  3780  0072  2874               	goto	u3500
  3781  0073                     u3501:
  3782  0073  2879               	goto	l3066
  3783  0074                     u3500:
  3784  0074                     l3064:
  3785                           
  3786                           ;PROYECTO.c: 208:                     hora = 4;
  3787  0074  3004               	movlw	4
  3788  0075  00B8               	movwf	??_main
  3789  0076  0838               	movf	??_main,w
  3790  0077  00F5               	movwf	_hora
  3791                           
  3792                           ;PROYECTO.c: 209:                 }else if(escala >= 51 && escala <=60 ){
  3793  0078  29C7               	goto	l3184
  3794  0079                     l3066:
  3795  0079  3033               	movlw	51
  3796  007A  0273               	subwf	_escala,w
  3797  007B  1C03               	skipc
  3798  007C  287E               	goto	u3511
  3799  007D  287F               	goto	u3510
  3800  007E                     u3511:
  3801  007E  288A               	goto	l3072
  3802  007F                     u3510:
  3803  007F                     l3068:
  3804  007F  303D               	movlw	61
  3805  0080  0273               	subwf	_escala,w
  3806  0081  1803               	skipnc
  3807  0082  2884               	goto	u3521
  3808  0083  2885               	goto	u3520
  3809  0084                     u3521:
  3810  0084  288A               	goto	l3072
  3811  0085                     u3520:
  3812  0085                     l3070:
  3813                           
  3814                           ;PROYECTO.c: 210:                     hora = 5;
  3815  0085  3005               	movlw	5
  3816  0086  00B8               	movwf	??_main
  3817  0087  0838               	movf	??_main,w
  3818  0088  00F5               	movwf	_hora
  3819                           
  3820                           ;PROYECTO.c: 211:                 }else if(escala >= 61 && escala <=70 ){
  3821  0089  29C7               	goto	l3184
  3822  008A                     l3072:
  3823  008A  303D               	movlw	61
  3824  008B  0273               	subwf	_escala,w
  3825  008C  1C03               	skipc
  3826  008D  288F               	goto	u3531
  3827  008E  2890               	goto	u3530
  3828  008F                     u3531:
  3829  008F  289B               	goto	l3078
  3830  0090                     u3530:
  3831  0090                     l3074:
  3832  0090  3047               	movlw	71
  3833  0091  0273               	subwf	_escala,w
  3834  0092  1803               	skipnc
  3835  0093  2895               	goto	u3541
  3836  0094  2896               	goto	u3540
  3837  0095                     u3541:
  3838  0095  289B               	goto	l3078
  3839  0096                     u3540:
  3840  0096                     l3076:
  3841                           
  3842                           ;PROYECTO.c: 212:                     hora = 6;
  3843  0096  3006               	movlw	6
  3844  0097  00B8               	movwf	??_main
  3845  0098  0838               	movf	??_main,w
  3846  0099  00F5               	movwf	_hora
  3847                           
  3848                           ;PROYECTO.c: 213:                 }else if(escala >= 71 && escala <=80 ){
  3849  009A  29C7               	goto	l3184
  3850  009B                     l3078:
  3851  009B  3047               	movlw	71
  3852  009C  0273               	subwf	_escala,w
  3853  009D  1C03               	skipc
  3854  009E  28A0               	goto	u3551
  3855  009F  28A1               	goto	u3550
  3856  00A0                     u3551:
  3857  00A0  28AC               	goto	l3084
  3858  00A1                     u3550:
  3859  00A1                     l3080:
  3860  00A1  3051               	movlw	81
  3861  00A2  0273               	subwf	_escala,w
  3862  00A3  1803               	skipnc
  3863  00A4  28A6               	goto	u3561
  3864  00A5  28A7               	goto	u3560
  3865  00A6                     u3561:
  3866  00A6  28AC               	goto	l3084
  3867  00A7                     u3560:
  3868  00A7                     l3082:
  3869                           
  3870                           ;PROYECTO.c: 214:                     hora = 7;
  3871  00A7  3007               	movlw	7
  3872  00A8  00B8               	movwf	??_main
  3873  00A9  0838               	movf	??_main,w
  3874  00AA  00F5               	movwf	_hora
  3875                           
  3876                           ;PROYECTO.c: 215:                 }else if(escala >= 81 && escala <=90 ){
  3877  00AB  29C7               	goto	l3184
  3878  00AC                     l3084:
  3879  00AC  3051               	movlw	81
  3880  00AD  0273               	subwf	_escala,w
  3881  00AE  1C03               	skipc
  3882  00AF  28B1               	goto	u3571
  3883  00B0  28B2               	goto	u3570
  3884  00B1                     u3571:
  3885  00B1  28BD               	goto	l3090
  3886  00B2                     u3570:
  3887  00B2                     l3086:
  3888  00B2  305B               	movlw	91
  3889  00B3  0273               	subwf	_escala,w
  3890  00B4  1803               	skipnc
  3891  00B5  28B7               	goto	u3581
  3892  00B6  28B8               	goto	u3580
  3893  00B7                     u3581:
  3894  00B7  28BD               	goto	l3090
  3895  00B8                     u3580:
  3896  00B8                     l3088:
  3897                           
  3898                           ;PROYECTO.c: 216:                     hora = 8;
  3899  00B8  3008               	movlw	8
  3900  00B9  00B8               	movwf	??_main
  3901  00BA  0838               	movf	??_main,w
  3902  00BB  00F5               	movwf	_hora
  3903                           
  3904                           ;PROYECTO.c: 217:                 }else if(escala >= 91 && escala <=100 ){
  3905  00BC  29C7               	goto	l3184
  3906  00BD                     l3090:
  3907  00BD  305B               	movlw	91
  3908  00BE  0273               	subwf	_escala,w
  3909  00BF  1C03               	skipc
  3910  00C0  28C2               	goto	u3591
  3911  00C1  28C3               	goto	u3590
  3912  00C2                     u3591:
  3913  00C2  28CE               	goto	l3096
  3914  00C3                     u3590:
  3915  00C3                     l3092:
  3916  00C3  3065               	movlw	101
  3917  00C4  0273               	subwf	_escala,w
  3918  00C5  1803               	skipnc
  3919  00C6  28C8               	goto	u3601
  3920  00C7  28C9               	goto	u3600
  3921  00C8                     u3601:
  3922  00C8  28CE               	goto	l3096
  3923  00C9                     u3600:
  3924  00C9                     l3094:
  3925                           
  3926                           ;PROYECTO.c: 218:                     hora = 9;
  3927  00C9  3009               	movlw	9
  3928  00CA  00B8               	movwf	??_main
  3929  00CB  0838               	movf	??_main,w
  3930  00CC  00F5               	movwf	_hora
  3931                           
  3932                           ;PROYECTO.c: 219:                 }else if(escala >= 101&& escala <=110 ){
  3933  00CD  29C7               	goto	l3184
  3934  00CE                     l3096:
  3935  00CE  3065               	movlw	101
  3936  00CF  0273               	subwf	_escala,w
  3937  00D0  1C03               	skipc
  3938  00D1  28D3               	goto	u3611
  3939  00D2  28D4               	goto	u3610
  3940  00D3                     u3611:
  3941  00D3  28DF               	goto	l3102
  3942  00D4                     u3610:
  3943  00D4                     l3098:
  3944  00D4  306F               	movlw	111
  3945  00D5  0273               	subwf	_escala,w
  3946  00D6  1803               	skipnc
  3947  00D7  28D9               	goto	u3621
  3948  00D8  28DA               	goto	u3620
  3949  00D9                     u3621:
  3950  00D9  28DF               	goto	l3102
  3951  00DA                     u3620:
  3952  00DA                     l3100:
  3953                           
  3954                           ;PROYECTO.c: 220:                     hora = 10;
  3955  00DA  300A               	movlw	10
  3956  00DB  00B8               	movwf	??_main
  3957  00DC  0838               	movf	??_main,w
  3958  00DD  00F5               	movwf	_hora
  3959                           
  3960                           ;PROYECTO.c: 221:                 }else if(escala >= 111 && escala <=120 ){
  3961  00DE  29C7               	goto	l3184
  3962  00DF                     l3102:
  3963  00DF  306F               	movlw	111
  3964  00E0  0273               	subwf	_escala,w
  3965  00E1  1C03               	skipc
  3966  00E2  28E4               	goto	u3631
  3967  00E3  28E5               	goto	u3630
  3968  00E4                     u3631:
  3969  00E4  28F0               	goto	l3108
  3970  00E5                     u3630:
  3971  00E5                     l3104:
  3972  00E5  3079               	movlw	121
  3973  00E6  0273               	subwf	_escala,w
  3974  00E7  1803               	skipnc
  3975  00E8  28EA               	goto	u3641
  3976  00E9  28EB               	goto	u3640
  3977  00EA                     u3641:
  3978  00EA  28F0               	goto	l3108
  3979  00EB                     u3640:
  3980  00EB                     l3106:
  3981                           
  3982                           ;PROYECTO.c: 222:                     hora = 11;
  3983  00EB  300B               	movlw	11
  3984  00EC  00B8               	movwf	??_main
  3985  00ED  0838               	movf	??_main,w
  3986  00EE  00F5               	movwf	_hora
  3987                           
  3988                           ;PROYECTO.c: 223:                 }else if(escala >= 121 && escala <=130 ){
  3989  00EF  29C7               	goto	l3184
  3990  00F0                     l3108:
  3991  00F0  3079               	movlw	121
  3992  00F1  0273               	subwf	_escala,w
  3993  00F2  1C03               	skipc
  3994  00F3  28F5               	goto	u3651
  3995  00F4  28F6               	goto	u3650
  3996  00F5                     u3651:
  3997  00F5  2901               	goto	l3114
  3998  00F6                     u3650:
  3999  00F6                     l3110:
  4000  00F6  3083               	movlw	131
  4001  00F7  0273               	subwf	_escala,w
  4002  00F8  1803               	skipnc
  4003  00F9  28FB               	goto	u3661
  4004  00FA  28FC               	goto	u3660
  4005  00FB                     u3661:
  4006  00FB  2901               	goto	l3114
  4007  00FC                     u3660:
  4008  00FC                     l3112:
  4009                           
  4010                           ;PROYECTO.c: 224:                     hora = 12;
  4011  00FC  300C               	movlw	12
  4012  00FD  00B8               	movwf	??_main
  4013  00FE  0838               	movf	??_main,w
  4014  00FF  00F5               	movwf	_hora
  4015                           
  4016                           ;PROYECTO.c: 225:                 }else if(escala >= 131 && escala <=140 ){
  4017  0100  29C7               	goto	l3184
  4018  0101                     l3114:
  4019  0101  3083               	movlw	131
  4020  0102  0273               	subwf	_escala,w
  4021  0103  1C03               	skipc
  4022  0104  2906               	goto	u3671
  4023  0105  2907               	goto	u3670
  4024  0106                     u3671:
  4025  0106  2912               	goto	l3120
  4026  0107                     u3670:
  4027  0107                     l3116:
  4028  0107  308D               	movlw	141
  4029  0108  0273               	subwf	_escala,w
  4030  0109  1803               	skipnc
  4031  010A  290C               	goto	u3681
  4032  010B  290D               	goto	u3680
  4033  010C                     u3681:
  4034  010C  2912               	goto	l3120
  4035  010D                     u3680:
  4036  010D                     l3118:
  4037                           
  4038                           ;PROYECTO.c: 226:                     hora = 13;
  4039  010D  300D               	movlw	13
  4040  010E  00B8               	movwf	??_main
  4041  010F  0838               	movf	??_main,w
  4042  0110  00F5               	movwf	_hora
  4043                           
  4044                           ;PROYECTO.c: 227:                 }else if(escala >= 141 && escala <=150 ){
  4045  0111  29C7               	goto	l3184
  4046  0112                     l3120:
  4047  0112  308D               	movlw	141
  4048  0113  0273               	subwf	_escala,w
  4049  0114  1C03               	skipc
  4050  0115  2917               	goto	u3691
  4051  0116  2918               	goto	u3690
  4052  0117                     u3691:
  4053  0117  2923               	goto	l3126
  4054  0118                     u3690:
  4055  0118                     l3122:
  4056  0118  3097               	movlw	151
  4057  0119  0273               	subwf	_escala,w
  4058  011A  1803               	skipnc
  4059  011B  291D               	goto	u3701
  4060  011C  291E               	goto	u3700
  4061  011D                     u3701:
  4062  011D  2923               	goto	l3126
  4063  011E                     u3700:
  4064  011E                     l3124:
  4065                           
  4066                           ;PROYECTO.c: 228:                     hora = 14;
  4067  011E  300E               	movlw	14
  4068  011F  00B8               	movwf	??_main
  4069  0120  0838               	movf	??_main,w
  4070  0121  00F5               	movwf	_hora
  4071                           
  4072                           ;PROYECTO.c: 229:                 }else if(escala >= 151 && escala <=160 ){
  4073  0122  29C7               	goto	l3184
  4074  0123                     l3126:
  4075  0123  3097               	movlw	151
  4076  0124  0273               	subwf	_escala,w
  4077  0125  1C03               	skipc
  4078  0126  2928               	goto	u3711
  4079  0127  2929               	goto	u3710
  4080  0128                     u3711:
  4081  0128  2934               	goto	l3132
  4082  0129                     u3710:
  4083  0129                     l3128:
  4084  0129  30A1               	movlw	161
  4085  012A  0273               	subwf	_escala,w
  4086  012B  1803               	skipnc
  4087  012C  292E               	goto	u3721
  4088  012D  292F               	goto	u3720
  4089  012E                     u3721:
  4090  012E  2934               	goto	l3132
  4091  012F                     u3720:
  4092  012F                     l3130:
  4093                           
  4094                           ;PROYECTO.c: 230:                     hora = 15;
  4095  012F  300F               	movlw	15
  4096  0130  00B8               	movwf	??_main
  4097  0131  0838               	movf	??_main,w
  4098  0132  00F5               	movwf	_hora
  4099                           
  4100                           ;PROYECTO.c: 231:                 }else if(escala >= 161 && escala <=170 ){
  4101  0133  29C7               	goto	l3184
  4102  0134                     l3132:
  4103  0134  30A1               	movlw	161
  4104  0135  0273               	subwf	_escala,w
  4105  0136  1C03               	skipc
  4106  0137  2939               	goto	u3731
  4107  0138  293A               	goto	u3730
  4108  0139                     u3731:
  4109  0139  2945               	goto	l3138
  4110  013A                     u3730:
  4111  013A                     l3134:
  4112  013A  30AB               	movlw	171
  4113  013B  0273               	subwf	_escala,w
  4114  013C  1803               	skipnc
  4115  013D  293F               	goto	u3741
  4116  013E  2940               	goto	u3740
  4117  013F                     u3741:
  4118  013F  2945               	goto	l3138
  4119  0140                     u3740:
  4120  0140                     l3136:
  4121                           
  4122                           ;PROYECTO.c: 232:                     hora = 16;
  4123  0140  3010               	movlw	16
  4124  0141  00B8               	movwf	??_main
  4125  0142  0838               	movf	??_main,w
  4126  0143  00F5               	movwf	_hora
  4127                           
  4128                           ;PROYECTO.c: 233:                 }else if(escala >= 171 && escala <=180 ){
  4129  0144  29C7               	goto	l3184
  4130  0145                     l3138:
  4131  0145  30AB               	movlw	171
  4132  0146  0273               	subwf	_escala,w
  4133  0147  1C03               	skipc
  4134  0148  294A               	goto	u3751
  4135  0149  294B               	goto	u3750
  4136  014A                     u3751:
  4137  014A  2956               	goto	l3144
  4138  014B                     u3750:
  4139  014B                     l3140:
  4140  014B  30B5               	movlw	181
  4141  014C  0273               	subwf	_escala,w
  4142  014D  1803               	skipnc
  4143  014E  2950               	goto	u3761
  4144  014F  2951               	goto	u3760
  4145  0150                     u3761:
  4146  0150  2956               	goto	l3144
  4147  0151                     u3760:
  4148  0151                     l3142:
  4149                           
  4150                           ;PROYECTO.c: 234:                     hora = 17;
  4151  0151  3011               	movlw	17
  4152  0152  00B8               	movwf	??_main
  4153  0153  0838               	movf	??_main,w
  4154  0154  00F5               	movwf	_hora
  4155                           
  4156                           ;PROYECTO.c: 235:                 }else if(escala >= 181 && escala <=190 ){
  4157  0155  29C7               	goto	l3184
  4158  0156                     l3144:
  4159  0156  30B5               	movlw	181
  4160  0157  0273               	subwf	_escala,w
  4161  0158  1C03               	skipc
  4162  0159  295B               	goto	u3771
  4163  015A  295C               	goto	u3770
  4164  015B                     u3771:
  4165  015B  2967               	goto	l3150
  4166  015C                     u3770:
  4167  015C                     l3146:
  4168  015C  30BF               	movlw	191
  4169  015D  0273               	subwf	_escala,w
  4170  015E  1803               	skipnc
  4171  015F  2961               	goto	u3781
  4172  0160  2962               	goto	u3780
  4173  0161                     u3781:
  4174  0161  2967               	goto	l3150
  4175  0162                     u3780:
  4176  0162                     l3148:
  4177                           
  4178                           ;PROYECTO.c: 236:                     hora = 18;
  4179  0162  3012               	movlw	18
  4180  0163  00B8               	movwf	??_main
  4181  0164  0838               	movf	??_main,w
  4182  0165  00F5               	movwf	_hora
  4183                           
  4184                           ;PROYECTO.c: 237:                 }else if(escala >= 191 && escala <=200 ){
  4185  0166  29C7               	goto	l3184
  4186  0167                     l3150:
  4187  0167  30BF               	movlw	191
  4188  0168  0273               	subwf	_escala,w
  4189  0169  1C03               	skipc
  4190  016A  296C               	goto	u3791
  4191  016B  296D               	goto	u3790
  4192  016C                     u3791:
  4193  016C  2978               	goto	l3156
  4194  016D                     u3790:
  4195  016D                     l3152:
  4196  016D  30C9               	movlw	201
  4197  016E  0273               	subwf	_escala,w
  4198  016F  1803               	skipnc
  4199  0170  2972               	goto	u3801
  4200  0171  2973               	goto	u3800
  4201  0172                     u3801:
  4202  0172  2978               	goto	l3156
  4203  0173                     u3800:
  4204  0173                     l3154:
  4205                           
  4206                           ;PROYECTO.c: 238:                     hora = 19;
  4207  0173  3013               	movlw	19
  4208  0174  00B8               	movwf	??_main
  4209  0175  0838               	movf	??_main,w
  4210  0176  00F5               	movwf	_hora
  4211                           
  4212                           ;PROYECTO.c: 239:                 }else if(escala >= 201&& escala <=210 ){
  4213  0177  29C7               	goto	l3184
  4214  0178                     l3156:
  4215  0178  30C9               	movlw	201
  4216  0179  0273               	subwf	_escala,w
  4217  017A  1C03               	skipc
  4218  017B  297D               	goto	u3811
  4219  017C  297E               	goto	u3810
  4220  017D                     u3811:
  4221  017D  2989               	goto	l3162
  4222  017E                     u3810:
  4223  017E                     l3158:
  4224  017E  30D3               	movlw	211
  4225  017F  0273               	subwf	_escala,w
  4226  0180  1803               	skipnc
  4227  0181  2983               	goto	u3821
  4228  0182  2984               	goto	u3820
  4229  0183                     u3821:
  4230  0183  2989               	goto	l3162
  4231  0184                     u3820:
  4232  0184                     l3160:
  4233                           
  4234                           ;PROYECTO.c: 240:                     hora = 20;
  4235  0184  3014               	movlw	20
  4236  0185  00B8               	movwf	??_main
  4237  0186  0838               	movf	??_main,w
  4238  0187  00F5               	movwf	_hora
  4239                           
  4240                           ;PROYECTO.c: 241:                 }else if(escala >= 211 && escala <=220 ){
  4241  0188  29C7               	goto	l3184
  4242  0189                     l3162:
  4243  0189  30D3               	movlw	211
  4244  018A  0273               	subwf	_escala,w
  4245  018B  1C03               	skipc
  4246  018C  298E               	goto	u3831
  4247  018D  298F               	goto	u3830
  4248  018E                     u3831:
  4249  018E  299A               	goto	l3168
  4250  018F                     u3830:
  4251  018F                     l3164:
  4252  018F  30DD               	movlw	221
  4253  0190  0273               	subwf	_escala,w
  4254  0191  1803               	skipnc
  4255  0192  2994               	goto	u3841
  4256  0193  2995               	goto	u3840
  4257  0194                     u3841:
  4258  0194  299A               	goto	l3168
  4259  0195                     u3840:
  4260  0195                     l3166:
  4261                           
  4262                           ;PROYECTO.c: 242:                     hora = 21;
  4263  0195  3015               	movlw	21
  4264  0196  00B8               	movwf	??_main
  4265  0197  0838               	movf	??_main,w
  4266  0198  00F5               	movwf	_hora
  4267                           
  4268                           ;PROYECTO.c: 243:                 }else if(escala >= 221 && escala <=230 ){
  4269  0199  29C7               	goto	l3184
  4270  019A                     l3168:
  4271  019A  30DD               	movlw	221
  4272  019B  0273               	subwf	_escala,w
  4273  019C  1C03               	skipc
  4274  019D  299F               	goto	u3851
  4275  019E  29A0               	goto	u3850
  4276  019F                     u3851:
  4277  019F  29AB               	goto	l3174
  4278  01A0                     u3850:
  4279  01A0                     l3170:
  4280  01A0  30E7               	movlw	231
  4281  01A1  0273               	subwf	_escala,w
  4282  01A2  1803               	skipnc
  4283  01A3  29A5               	goto	u3861
  4284  01A4  29A6               	goto	u3860
  4285  01A5                     u3861:
  4286  01A5  29AB               	goto	l3174
  4287  01A6                     u3860:
  4288  01A6                     l3172:
  4289                           
  4290                           ;PROYECTO.c: 244:                     hora = 22;
  4291  01A6  3016               	movlw	22
  4292  01A7  00B8               	movwf	??_main
  4293  01A8  0838               	movf	??_main,w
  4294  01A9  00F5               	movwf	_hora
  4295                           
  4296                           ;PROYECTO.c: 245:                 }else if(escala >= 231 && escala <=240 ){
  4297  01AA  29C7               	goto	l3184
  4298  01AB                     l3174:
  4299  01AB  30E7               	movlw	231
  4300  01AC  0273               	subwf	_escala,w
  4301  01AD  1C03               	skipc
  4302  01AE  29B0               	goto	u3871
  4303  01AF  29B1               	goto	u3870
  4304  01B0                     u3871:
  4305  01B0  29BC               	goto	l3180
  4306  01B1                     u3870:
  4307  01B1                     l3176:
  4308  01B1  30F1               	movlw	241
  4309  01B2  0273               	subwf	_escala,w
  4310  01B3  1803               	skipnc
  4311  01B4  29B6               	goto	u3881
  4312  01B5  29B7               	goto	u3880
  4313  01B6                     u3881:
  4314  01B6  29BC               	goto	l3180
  4315  01B7                     u3880:
  4316  01B7                     l3178:
  4317                           
  4318                           ;PROYECTO.c: 246:                     hora = 23;
  4319  01B7  3017               	movlw	23
  4320  01B8  00B8               	movwf	??_main
  4321  01B9  0838               	movf	??_main,w
  4322  01BA  00F5               	movwf	_hora
  4323                           
  4324                           ;PROYECTO.c: 247:                 }else if(escala >= 241 && escala <=255 ){
  4325  01BB  29C7               	goto	l3184
  4326  01BC                     l3180:
  4327  01BC  30F1               	movlw	241
  4328  01BD  0273               	subwf	_escala,w
  4329  01BE  1C03               	skipc
  4330  01BF  29C1               	goto	u3891
  4331  01C0  29C2               	goto	u3890
  4332  01C1                     u3891:
  4333  01C1  29C7               	goto	l226
  4334  01C2                     u3890:
  4335  01C2                     l3182:
  4336                           
  4337                           ;PROYECTO.c: 248:                     hora = 24;
  4338  01C2  3018               	movlw	24
  4339  01C3  00B8               	movwf	??_main
  4340  01C4  0838               	movf	??_main,w
  4341  01C5  00F5               	movwf	_hora
  4342  01C6  29C7               	goto	l3184
  4343  01C7                     l226:
  4344  01C7                     l3184:
  4345                           
  4346                           ;PROYECTO.c: 250:                 ADCON0bits.CHS = 6;
  4347  01C7  081F               	movf	31,w	;volatile
  4348  01C8  39C3               	andlw	-61
  4349  01C9  3818               	iorlw	24
  4350  01CA  009F               	movwf	31	;volatile
  4351  01CB                     l3186:
  4352                           
  4353                           ;PROYECTO.c: 252:             _delay((unsigned long)((50)*(4000000/4000000.0)));
  4354  01CB  300F               	movlw	15
  4355  01CC  1283               	bcf	3,5	;RP0=0, select bank0
  4356  01CD  1303               	bcf	3,6	;RP1=0, select bank0
  4357  01CE  00B8               	movwf	??_main
  4358  01CF                     u4427:
  4359  01CF  0BB8               	decfsz	??_main,f
  4360  01D0  29CF               	goto	u4427
  4361  01D1  29D2               	nop2
  4362  01D2                     l3188:
  4363                           
  4364                           ;PROYECTO.c: 254:             ADCON0bits.GO = 1;
  4365  01D2  1283               	bcf	3,5	;RP0=0, select bank0
  4366  01D3  1303               	bcf	3,6	;RP1=0, select bank0
  4367  01D4  149F               	bsf	31,1	;volatile
  4368  01D5                     l170:	
  4369                           ;PROYECTO.c: 255:         }
  4370                           
  4371                           
  4372                           ;PROYECTO.c: 257:        if(ventana == 1){
  4373  01D5  0336               	decf	_ventana,w
  4374  01D6  1D03               	btfss	3,2
  4375  01D7  29D9               	goto	u3901
  4376  01D8  29DA               	goto	u3900
  4377  01D9                     u3901:
  4378  01D9  2A1C               	goto	l3194
  4379  01DA                     u3900:
  4380  01DA                     l3190:
  4381                           
  4382                           ;PROYECTO.c: 259:            USART_Cadena("\r Que accion desea ejecutar? \r");
  4383  01DA  302E               	movlw	low (STR_1| (0+32768))
  4384  01DB  00F9               	movwf	USART_Cadena@str
  4385  01DC  308A               	movlw	high (STR_1| (0+32768))
  4386  01DD  00FA               	movwf	USART_Cadena@str+1
  4387  01DE  120A  158A  23DA  120A  118A  	fcall	_USART_Cadena
  4388                           
  4389                           ;PROYECTO.c: 260:            USART_Cadena("1) ver datos de usuario uno \r");
  4390  01E3  306C               	movlw	low (STR_2| (0+32768))
  4391  01E4  00F9               	movwf	USART_Cadena@str
  4392  01E5  308A               	movlw	high (STR_2| (0+32768))
  4393  01E6  00FA               	movwf	USART_Cadena@str+1
  4394  01E7  120A  158A  23DA  120A  118A  	fcall	_USART_Cadena
  4395                           
  4396                           ;PROYECTO.c: 261:            USART_Cadena("2) ver datos de usuario dos\r");
  4397  01EC  308A               	movlw	low (STR_3| (0+32768))
  4398  01ED  00F9               	movwf	USART_Cadena@str
  4399  01EE  308A               	movlw	high (STR_3| (0+32768))
  4400  01EF  00FA               	movwf	USART_Cadena@str+1
  4401  01F0  120A  158A  23DA  120A  118A  	fcall	_USART_Cadena
  4402                           
  4403                           ;PROYECTO.c: 262:            USART_Cadena("3) ver datos de usuario tres \r");
  4404  01F5  304D               	movlw	low (STR_4| (0+32768))
  4405  01F6  00F9               	movwf	USART_Cadena@str
  4406  01F7  308A               	movlw	high (STR_4| (0+32768))
  4407  01F8  00FA               	movwf	USART_Cadena@str+1
  4408  01F9  120A  158A  23DA  120A  118A  	fcall	_USART_Cadena
  4409                           
  4410                           ;PROYECTO.c: 263:            USART_Cadena("4) Modificar horario usuario uno \r");
  4411  01FE  308B               	movlw	low (STR_5| (0+32768))
  4412  01FF  00F9               	movwf	USART_Cadena@str
  4413  0200  3089               	movlw	high (STR_5| (0+32768))
  4414  0201  00FA               	movwf	USART_Cadena@str+1
  4415  0202  120A  158A  23DA  120A  118A  	fcall	_USART_Cadena
  4416                           
  4417                           ;PROYECTO.c: 264:            USART_Cadena("5) Modificar horario usuario dos\r");
  4418  0207  30AE               	movlw	low (STR_6| (0+32768))
  4419  0208  00F9               	movwf	USART_Cadena@str
  4420  0209  3089               	movlw	high (STR_6| (0+32768))
  4421  020A  00FA               	movwf	USART_Cadena@str+1
  4422  020B  120A  158A  23DA  120A  118A  	fcall	_USART_Cadena
  4423                           
  4424                           ;PROYECTO.c: 265:            USART_Cadena("6) Modificar horario usuario tres \r\r");
  4425  0210  3042               	movlw	low (STR_7| (0+32768))
  4426  0211  00F9               	movwf	USART_Cadena@str
  4427  0212  3089               	movlw	high (STR_7| (0+32768))
  4428  0213  00FA               	movwf	USART_Cadena@str+1
  4429  0214  120A  158A  23DA  120A  118A  	fcall	_USART_Cadena
  4430  0219                     l3192:
  4431                           
  4432                           ;PROYECTO.c: 266:            ventana = 0;
  4433  0219  1283               	bcf	3,5	;RP0=0, select bank0
  4434  021A  1303               	bcf	3,6	;RP1=0, select bank0
  4435  021B  01B6               	clrf	_ventana
  4436  021C                     l3194:
  4437                           
  4438                           ;PROYECTO.c: 269:        if (PIR1bits.RCIF == 1){
  4439  021C  1E8C               	btfss	12,5	;volatile
  4440  021D  2A1F               	goto	u3911
  4441  021E  2A20               	goto	u3910
  4442  021F                     u3911:
  4443  021F  2EE4               	goto	l3412
  4444  0220                     u3910:
  4445  0220                     l3196:
  4446                           
  4447                           ;PROYECTO.c: 270:            valor = USART_Rx();
  4448  0220  120A  118A  27FC  120A  118A  	fcall	_USART_Rx
  4449  0225  1283               	bcf	3,5	;RP0=0, select bank0
  4450  0226  1303               	bcf	3,6	;RP1=0, select bank0
  4451  0227  00B8               	movwf	??_main
  4452  0228  0838               	movf	??_main,w
  4453  0229  00B7               	movwf	_valor
  4454  022A                     l3198:
  4455                           
  4456                           ;PROYECTO.c: 271:            ventana = 1;
  4457  022A  01B6               	clrf	_ventana
  4458  022B  0AB6               	incf	_ventana,f
  4459  022C  2EE4               	goto	l3412
  4460  022D                     l3200:
  4461                           
  4462                           ;PROYECTO.c: 276:                 USART_Cadena(" Esperar  ");
  4463  022D  30C1               	movlw	low (STR_8| (0+32768))
  4464  022E  00F9               	movwf	USART_Cadena@str
  4465  022F  308A               	movlw	high (STR_8| (0+32768))
  4466  0230  00FA               	movwf	USART_Cadena@str+1
  4467  0231  120A  158A  23DA  120A  118A  	fcall	_USART_Cadena
  4468  0236                     l3202:
  4469                           
  4470                           ;PROYECTO.c: 277:                 SendCharH(me_1_us1_h);
  4471  0236  1283               	bcf	3,5	;RP0=0, select bank0
  4472  0237  1303               	bcf	3,6	;RP1=0, select bank0
  4473  0238  0831               	movf	_me_1_us1_h,w
  4474  0239  120A  158A  263B  120A  118A  	fcall	_SendCharH
  4475  023E                     l3204:
  4476                           
  4477                           ;PROYECTO.c: 278:                 USART_Cadena(" Horas ");
  4478  023E  30CC               	movlw	low (STR_9| (0+32768))
  4479  023F  00F9               	movwf	USART_Cadena@str
  4480  0240  308A               	movlw	high (STR_9| (0+32768))
  4481  0241  00FA               	movwf	USART_Cadena@str+1
  4482  0242  120A  158A  23DA  120A  118A  	fcall	_USART_Cadena
  4483  0247                     l3206:
  4484                           
  4485                           ;PROYECTO.c: 279:                 USART_Cadena(" con  ");
  4486  0247  30D4               	movlw	low (STR_10| (0+32768))
  4487  0248  00F9               	movwf	USART_Cadena@str
  4488  0249  308A               	movlw	high (STR_10| (0+32768))
  4489  024A  00FA               	movwf	USART_Cadena@str+1
  4490  024B  120A  158A  23DA  120A  118A  	fcall	_USART_Cadena
  4491  0250                     l3208:
  4492                           
  4493                           ;PROYECTO.c: 280:                 SendCharM(me_1_us1_m);
  4494  0250  1283               	bcf	3,5	;RP0=0, select bank0
  4495  0251  1303               	bcf	3,6	;RP1=0, select bank0
  4496  0252  0828               	movf	_me_1_us1_m,w
  4497  0253  120A  158A  2400  120A  118A  	fcall	_SendCharM
  4498  0258                     l3210:
  4499                           
  4500                           ;PROYECTO.c: 281:                 USART_Cadena(" mins. para el medicamento 1 \r");
  4501  0258  30F0               	movlw	low (STR_11| (0+32768))
  4502  0259  00F9               	movwf	USART_Cadena@str
  4503  025A  3089               	movlw	high (STR_11| (0+32768))
  4504  025B  00FA               	movwf	USART_Cadena@str+1
  4505  025C  120A  158A  23DA  120A  118A  	fcall	_USART_Cadena
  4506  0261                     l3212:
  4507                           
  4508                           ;PROYECTO.c: 283:                 USART_Cadena(" Esperar  ");
  4509  0261  30C1               	movlw	low (STR_8| (0+32768))
  4510  0262  00F9               	movwf	USART_Cadena@str
  4511  0263  308A               	movlw	high (STR_8| (0+32768))
  4512  0264  00FA               	movwf	USART_Cadena@str+1
  4513  0265  120A  158A  23DA  120A  118A  	fcall	_USART_Cadena
  4514                           
  4515                           ;PROYECTO.c: 284:                 SendCharH(me_2_us1_h);
  4516  026A  1283               	bcf	3,5	;RP0=0, select bank0
  4517  026B  1303               	bcf	3,6	;RP1=0, select bank0
  4518  026C  0830               	movf	_me_2_us1_h,w
  4519  026D  120A  158A  263B  120A  118A  	fcall	_SendCharH
  4520  0272                     l3214:
  4521                           
  4522                           ;PROYECTO.c: 285:                 USART_Cadena(" Horas ");
  4523  0272  30CC               	movlw	low (STR_9| (0+32768))
  4524  0273  00F9               	movwf	USART_Cadena@str
  4525  0274  308A               	movlw	high (STR_9| (0+32768))
  4526  0275  00FA               	movwf	USART_Cadena@str+1
  4527  0276  120A  158A  23DA  120A  118A  	fcall	_USART_Cadena
  4528  027B                     l3216:
  4529                           
  4530                           ;PROYECTO.c: 286:                 USART_Cadena(" con  ");
  4531  027B  30D4               	movlw	low (STR_10| (0+32768))
  4532  027C  00F9               	movwf	USART_Cadena@str
  4533  027D  308A               	movlw	high (STR_10| (0+32768))
  4534  027E  00FA               	movwf	USART_Cadena@str+1
  4535  027F  120A  158A  23DA  120A  118A  	fcall	_USART_Cadena
  4536  0284                     l3218:
  4537                           
  4538                           ;PROYECTO.c: 287:                 SendCharM(me_2_us1_m);
  4539  0284  1283               	bcf	3,5	;RP0=0, select bank0
  4540  0285  1303               	bcf	3,6	;RP1=0, select bank0
  4541  0286  0827               	movf	_me_2_us1_m,w
  4542  0287  120A  158A  2400  120A  118A  	fcall	_SendCharM
  4543  028C                     l3220:
  4544                           
  4545                           ;PROYECTO.c: 288:                 USART_Cadena(" mins. para el medicamento 2 \r");
  4546  028C  300F               	movlw	low (STR_15| (0+32768))
  4547  028D  00F9               	movwf	USART_Cadena@str
  4548  028E  308A               	movlw	high (STR_15| (0+32768))
  4549  028F  00FA               	movwf	USART_Cadena@str+1
  4550  0290  120A  158A  23DA  120A  118A  	fcall	_USART_Cadena
  4551  0295                     l3222:
  4552                           
  4553                           ;PROYECTO.c: 290:                 USART_Cadena(" Esperar  ");
  4554  0295  30C1               	movlw	low (STR_8| (0+32768))
  4555  0296  00F9               	movwf	USART_Cadena@str
  4556  0297  308A               	movlw	high (STR_8| (0+32768))
  4557  0298  00FA               	movwf	USART_Cadena@str+1
  4558  0299  120A  158A  23DA  120A  118A  	fcall	_USART_Cadena
  4559  029E                     l3224:
  4560                           
  4561                           ;PROYECTO.c: 291:                 SendCharH(me_3_us1_h);
  4562  029E  1283               	bcf	3,5	;RP0=0, select bank0
  4563  029F  1303               	bcf	3,6	;RP1=0, select bank0
  4564  02A0  082F               	movf	_me_3_us1_h,w
  4565  02A1  120A  158A  263B  120A  118A  	fcall	_SendCharH
  4566                           
  4567                           ;PROYECTO.c: 292:                 USART_Cadena(" Horas ");
  4568  02A6  30CC               	movlw	low (STR_9| (0+32768))
  4569  02A7  00F9               	movwf	USART_Cadena@str
  4570  02A8  308A               	movlw	high (STR_9| (0+32768))
  4571  02A9  00FA               	movwf	USART_Cadena@str+1
  4572  02AA  120A  158A  23DA  120A  118A  	fcall	_USART_Cadena
  4573                           
  4574                           ;PROYECTO.c: 293:                 USART_Cadena(" con  ");
  4575  02AF  30D4               	movlw	low (STR_10| (0+32768))
  4576  02B0  00F9               	movwf	USART_Cadena@str
  4577  02B1  308A               	movlw	high (STR_10| (0+32768))
  4578  02B2  00FA               	movwf	USART_Cadena@str+1
  4579  02B3  120A  158A  23DA  120A  118A  	fcall	_USART_Cadena
  4580                           
  4581                           ;PROYECTO.c: 294:                 SendCharM(me_3_us1_m);
  4582  02B8  1283               	bcf	3,5	;RP0=0, select bank0
  4583  02B9  1303               	bcf	3,6	;RP1=0, select bank0
  4584  02BA  0826               	movf	_me_3_us1_m,w
  4585  02BB  120A  158A  2400  120A  118A  	fcall	_SendCharM
  4586                           
  4587                           ;PROYECTO.c: 295:                 USART_Cadena(" mins. para el medicamento 3 \r\r");
  4588  02C0  30D0               	movlw	low (STR_19| (0+32768))
  4589  02C1  00F9               	movwf	USART_Cadena@str
  4590  02C2  3089               	movlw	high (STR_19| (0+32768))
  4591  02C3  00FA               	movwf	USART_Cadena@str+1
  4592  02C4  120A  158A  23DA  120A  118A  	fcall	_USART_Cadena
  4593  02C9                     l3226:
  4594                           
  4595                           ;PROYECTO.c: 296:                 ventana = 1;
  4596  02C9  1283               	bcf	3,5	;RP0=0, select bank0
  4597  02CA  1303               	bcf	3,6	;RP1=0, select bank0
  4598  02CB  01B6               	clrf	_ventana
  4599  02CC  0AB6               	incf	_ventana,f
  4600                           
  4601                           ;PROYECTO.c: 297:                 break;
  4602  02CD  2F00               	goto	l3414
  4603  02CE                     l3228:
  4604                           
  4605                           ;PROYECTO.c: 300:                 USART_Cadena(" Esperar  ");
  4606  02CE  30C1               	movlw	low (STR_8| (0+32768))
  4607  02CF  00F9               	movwf	USART_Cadena@str
  4608  02D0  308A               	movlw	high (STR_8| (0+32768))
  4609  02D1  00FA               	movwf	USART_Cadena@str+1
  4610  02D2  120A  158A  23DA  120A  118A  	fcall	_USART_Cadena
  4611  02D7                     l3230:
  4612                           
  4613                           ;PROYECTO.c: 301:                 SendCharH(me_1_us2_h);
  4614  02D7  1283               	bcf	3,5	;RP0=0, select bank0
  4615  02D8  1303               	bcf	3,6	;RP1=0, select bank0
  4616  02D9  082E               	movf	_me_1_us2_h,w
  4617  02DA  120A  158A  263B  120A  118A  	fcall	_SendCharH
  4618  02DF                     l3232:
  4619                           
  4620                           ;PROYECTO.c: 302:                 USART_Cadena(" Horas ");
  4621  02DF  30CC               	movlw	low (STR_9| (0+32768))
  4622  02E0  00F9               	movwf	USART_Cadena@str
  4623  02E1  308A               	movlw	high (STR_9| (0+32768))
  4624  02E2  00FA               	movwf	USART_Cadena@str+1
  4625  02E3  120A  158A  23DA  120A  118A  	fcall	_USART_Cadena
  4626  02E8                     l3234:
  4627                           
  4628                           ;PROYECTO.c: 303:                 USART_Cadena(" con  ");
  4629  02E8  30D4               	movlw	low (STR_10| (0+32768))
  4630  02E9  00F9               	movwf	USART_Cadena@str
  4631  02EA  308A               	movlw	high (STR_10| (0+32768))
  4632  02EB  00FA               	movwf	USART_Cadena@str+1
  4633  02EC  120A  158A  23DA  120A  118A  	fcall	_USART_Cadena
  4634  02F1                     l3236:
  4635                           
  4636                           ;PROYECTO.c: 304:                 SendCharM(me_1_us2_m);
  4637  02F1  1283               	bcf	3,5	;RP0=0, select bank0
  4638  02F2  1303               	bcf	3,6	;RP1=0, select bank0
  4639  02F3  0825               	movf	_me_1_us2_m,w
  4640  02F4  120A  158A  2400  120A  118A  	fcall	_SendCharM
  4641  02F9                     l3238:
  4642                           
  4643                           ;PROYECTO.c: 305:                 USART_Cadena(" mins. para el medicamento 1 \r");
  4644  02F9  30F0               	movlw	low (STR_11| (0+32768))
  4645  02FA  00F9               	movwf	USART_Cadena@str
  4646  02FB  3089               	movlw	high (STR_11| (0+32768))
  4647  02FC  00FA               	movwf	USART_Cadena@str+1
  4648  02FD  120A  158A  23DA  120A  118A  	fcall	_USART_Cadena
  4649  0302                     l3240:
  4650                           
  4651                           ;PROYECTO.c: 307:                 USART_Cadena(" Esperar  ");
  4652  0302  30C1               	movlw	low (STR_8| (0+32768))
  4653  0303  00F9               	movwf	USART_Cadena@str
  4654  0304  308A               	movlw	high (STR_8| (0+32768))
  4655  0305  00FA               	movwf	USART_Cadena@str+1
  4656  0306  120A  158A  23DA  120A  118A  	fcall	_USART_Cadena
  4657                           
  4658                           ;PROYECTO.c: 308:                 SendCharH(me_2_us2_h);
  4659  030B  1283               	bcf	3,5	;RP0=0, select bank0
  4660  030C  1303               	bcf	3,6	;RP1=0, select bank0
  4661  030D  082D               	movf	_me_2_us2_h,w
  4662  030E  120A  158A  263B  120A  118A  	fcall	_SendCharH
  4663  0313                     l3242:
  4664                           
  4665                           ;PROYECTO.c: 309:                 USART_Cadena(" Horas ");
  4666  0313  30CC               	movlw	low (STR_9| (0+32768))
  4667  0314  00F9               	movwf	USART_Cadena@str
  4668  0315  308A               	movlw	high (STR_9| (0+32768))
  4669  0316  00FA               	movwf	USART_Cadena@str+1
  4670  0317  120A  158A  23DA  120A  118A  	fcall	_USART_Cadena
  4671  031C                     l3244:
  4672                           
  4673                           ;PROYECTO.c: 310:                 USART_Cadena(" con  ");
  4674  031C  30D4               	movlw	low (STR_10| (0+32768))
  4675  031D  00F9               	movwf	USART_Cadena@str
  4676  031E  308A               	movlw	high (STR_10| (0+32768))
  4677  031F  00FA               	movwf	USART_Cadena@str+1
  4678  0320  120A  158A  23DA  120A  118A  	fcall	_USART_Cadena
  4679  0325                     l3246:
  4680                           
  4681                           ;PROYECTO.c: 311:                 SendCharM(me_2_us2_m);
  4682  0325  1283               	bcf	3,5	;RP0=0, select bank0
  4683  0326  1303               	bcf	3,6	;RP1=0, select bank0
  4684  0327  0824               	movf	_me_2_us2_m,w
  4685  0328  120A  158A  2400  120A  118A  	fcall	_SendCharM
  4686  032D                     l3248:
  4687                           
  4688                           ;PROYECTO.c: 312:                 USART_Cadena(" mins. para el medicamento 2 \r");
  4689  032D  300F               	movlw	low (STR_15| (0+32768))
  4690  032E  00F9               	movwf	USART_Cadena@str
  4691  032F  308A               	movlw	high (STR_15| (0+32768))
  4692  0330  00FA               	movwf	USART_Cadena@str+1
  4693  0331  120A  158A  23DA  120A  118A  	fcall	_USART_Cadena
  4694  0336                     l3250:
  4695                           
  4696                           ;PROYECTO.c: 314:                 USART_Cadena(" Esperar  ");
  4697  0336  30C1               	movlw	low (STR_8| (0+32768))
  4698  0337  00F9               	movwf	USART_Cadena@str
  4699  0338  308A               	movlw	high (STR_8| (0+32768))
  4700  0339  00FA               	movwf	USART_Cadena@str+1
  4701  033A  120A  158A  23DA  120A  118A  	fcall	_USART_Cadena
  4702  033F                     l3252:
  4703                           
  4704                           ;PROYECTO.c: 315:                 SendCharH(me_3_us2_h);
  4705  033F  1283               	bcf	3,5	;RP0=0, select bank0
  4706  0340  1303               	bcf	3,6	;RP1=0, select bank0
  4707  0341  082C               	movf	_me_3_us2_h,w
  4708  0342  120A  158A  263B  120A  118A  	fcall	_SendCharH
  4709                           
  4710                           ;PROYECTO.c: 316:                 USART_Cadena(" Horas ");
  4711  0347  30CC               	movlw	low (STR_9| (0+32768))
  4712  0348  00F9               	movwf	USART_Cadena@str
  4713  0349  308A               	movlw	high (STR_9| (0+32768))
  4714  034A  00FA               	movwf	USART_Cadena@str+1
  4715  034B  120A  158A  23DA  120A  118A  	fcall	_USART_Cadena
  4716                           
  4717                           ;PROYECTO.c: 317:                 USART_Cadena(" con  ");
  4718  0350  30D4               	movlw	low (STR_10| (0+32768))
  4719  0351  00F9               	movwf	USART_Cadena@str
  4720  0352  308A               	movlw	high (STR_10| (0+32768))
  4721  0353  00FA               	movwf	USART_Cadena@str+1
  4722  0354  120A  158A  23DA  120A  118A  	fcall	_USART_Cadena
  4723                           
  4724                           ;PROYECTO.c: 318:                 SendCharM(me_3_us2_m);
  4725  0359  1283               	bcf	3,5	;RP0=0, select bank0
  4726  035A  1303               	bcf	3,6	;RP1=0, select bank0
  4727  035B  0823               	movf	_me_3_us2_m,w
  4728  035C  120A  158A  2400  120A  118A  	fcall	_SendCharM
  4729                           
  4730                           ;PROYECTO.c: 319:                 USART_Cadena(" mins. para el medicamento 3 \r\r");
  4731  0361  30D0               	movlw	low (STR_19| (0+32768))
  4732  0362  00F9               	movwf	USART_Cadena@str
  4733  0363  3089               	movlw	high (STR_19| (0+32768))
  4734  0364  00FA               	movwf	USART_Cadena@str+1
  4735  0365  120A  158A  23DA  120A  118A  	fcall	_USART_Cadena
  4736  036A  2AC9               	goto	l3226
  4737  036B                     l3256:
  4738                           
  4739                           ;PROYECTO.c: 324:                 USART_Cadena(" Esperar  ");
  4740  036B  30C1               	movlw	low (STR_8| (0+32768))
  4741  036C  00F9               	movwf	USART_Cadena@str
  4742  036D  308A               	movlw	high (STR_8| (0+32768))
  4743  036E  00FA               	movwf	USART_Cadena@str+1
  4744  036F  120A  158A  23DA  120A  118A  	fcall	_USART_Cadena
  4745  0374                     l3258:
  4746                           
  4747                           ;PROYECTO.c: 325:                 SendCharH(me_1_us3_h);
  4748  0374  1283               	bcf	3,5	;RP0=0, select bank0
  4749  0375  1303               	bcf	3,6	;RP1=0, select bank0
  4750  0376  082B               	movf	_me_1_us3_h,w
  4751  0377  120A  158A  263B  120A  118A  	fcall	_SendCharH
  4752  037C                     l3260:
  4753                           
  4754                           ;PROYECTO.c: 326:                 USART_Cadena(" Horas ");
  4755  037C  30CC               	movlw	low (STR_9| (0+32768))
  4756  037D  00F9               	movwf	USART_Cadena@str
  4757  037E  308A               	movlw	high (STR_9| (0+32768))
  4758  037F  00FA               	movwf	USART_Cadena@str+1
  4759  0380  120A  158A  23DA  120A  118A  	fcall	_USART_Cadena
  4760  0385                     l3262:
  4761                           
  4762                           ;PROYECTO.c: 327:                 USART_Cadena(" con  ");
  4763  0385  30D4               	movlw	low (STR_10| (0+32768))
  4764  0386  00F9               	movwf	USART_Cadena@str
  4765  0387  308A               	movlw	high (STR_10| (0+32768))
  4766  0388  00FA               	movwf	USART_Cadena@str+1
  4767  0389  120A  158A  23DA  120A  118A  	fcall	_USART_Cadena
  4768  038E                     l3264:
  4769                           
  4770                           ;PROYECTO.c: 328:                 SendCharM(me_1_us3_m);
  4771  038E  1283               	bcf	3,5	;RP0=0, select bank0
  4772  038F  1303               	bcf	3,6	;RP1=0, select bank0
  4773  0390  0822               	movf	_me_1_us3_m,w
  4774  0391  120A  158A  2400  120A  118A  	fcall	_SendCharM
  4775  0396                     l3266:
  4776                           
  4777                           ;PROYECTO.c: 329:                 USART_Cadena(" mins. para el medicamento 1 \r");
  4778  0396  30F0               	movlw	low (STR_11| (0+32768))
  4779  0397  00F9               	movwf	USART_Cadena@str
  4780  0398  3089               	movlw	high (STR_11| (0+32768))
  4781  0399  00FA               	movwf	USART_Cadena@str+1
  4782  039A  120A  158A  23DA  120A  118A  	fcall	_USART_Cadena
  4783  039F                     l3268:
  4784                           
  4785                           ;PROYECTO.c: 331:                 USART_Cadena(" Esperar  ");
  4786  039F  30C1               	movlw	low (STR_8| (0+32768))
  4787  03A0  00F9               	movwf	USART_Cadena@str
  4788  03A1  308A               	movlw	high (STR_8| (0+32768))
  4789  03A2  00FA               	movwf	USART_Cadena@str+1
  4790  03A3  120A  158A  23DA  120A  118A  	fcall	_USART_Cadena
  4791                           
  4792                           ;PROYECTO.c: 332:                 SendCharH(me_2_us3_h);
  4793  03A8  1283               	bcf	3,5	;RP0=0, select bank0
  4794  03A9  1303               	bcf	3,6	;RP1=0, select bank0
  4795  03AA  082A               	movf	_me_2_us3_h,w
  4796  03AB  120A  158A  263B  120A  118A  	fcall	_SendCharH
  4797  03B0                     l3270:
  4798                           
  4799                           ;PROYECTO.c: 333:                 USART_Cadena(" Horas ");
  4800  03B0  30CC               	movlw	low (STR_9| (0+32768))
  4801  03B1  00F9               	movwf	USART_Cadena@str
  4802  03B2  308A               	movlw	high (STR_9| (0+32768))
  4803  03B3  00FA               	movwf	USART_Cadena@str+1
  4804  03B4  120A  158A  23DA  120A  118A  	fcall	_USART_Cadena
  4805  03B9                     l3272:
  4806                           
  4807                           ;PROYECTO.c: 334:                 USART_Cadena(" con  ");
  4808  03B9  30D4               	movlw	low (STR_10| (0+32768))
  4809  03BA  00F9               	movwf	USART_Cadena@str
  4810  03BB  308A               	movlw	high (STR_10| (0+32768))
  4811  03BC  00FA               	movwf	USART_Cadena@str+1
  4812  03BD  120A  158A  23DA  120A  118A  	fcall	_USART_Cadena
  4813  03C2                     l3274:
  4814                           
  4815                           ;PROYECTO.c: 335:                 SendCharM(me_2_us3_m);
  4816  03C2  1283               	bcf	3,5	;RP0=0, select bank0
  4817  03C3  1303               	bcf	3,6	;RP1=0, select bank0
  4818  03C4  0821               	movf	_me_2_us3_m,w
  4819  03C5  120A  158A  2400  120A  118A  	fcall	_SendCharM
  4820  03CA                     l3276:
  4821                           
  4822                           ;PROYECTO.c: 336:                 USART_Cadena(" mins. para el medicamento 2 \r");
  4823  03CA  300F               	movlw	low (STR_15| (0+32768))
  4824  03CB  00F9               	movwf	USART_Cadena@str
  4825  03CC  308A               	movlw	high (STR_15| (0+32768))
  4826  03CD  00FA               	movwf	USART_Cadena@str+1
  4827  03CE  120A  158A  23DA  120A  118A  	fcall	_USART_Cadena
  4828  03D3                     l3278:
  4829                           
  4830                           ;PROYECTO.c: 338:                 USART_Cadena(" Esperar  ");
  4831  03D3  30C1               	movlw	low (STR_8| (0+32768))
  4832  03D4  00F9               	movwf	USART_Cadena@str
  4833  03D5  308A               	movlw	high (STR_8| (0+32768))
  4834  03D6  00FA               	movwf	USART_Cadena@str+1
  4835  03D7  120A  158A  23DA  120A  118A  	fcall	_USART_Cadena
  4836  03DC                     l3280:
  4837                           
  4838                           ;PROYECTO.c: 339:                 SendCharH(me_3_us3_h);
  4839  03DC  1283               	bcf	3,5	;RP0=0, select bank0
  4840  03DD  1303               	bcf	3,6	;RP1=0, select bank0
  4841  03DE  0829               	movf	_me_3_us3_h,w
  4842  03DF  120A  158A  263B  120A  118A  	fcall	_SendCharH
  4843                           
  4844                           ;PROYECTO.c: 340:                 USART_Cadena(" Horas ");
  4845  03E4  30CC               	movlw	low (STR_9| (0+32768))
  4846  03E5  00F9               	movwf	USART_Cadena@str
  4847  03E6  308A               	movlw	high (STR_9| (0+32768))
  4848  03E7  00FA               	movwf	USART_Cadena@str+1
  4849  03E8  120A  158A  23DA  120A  118A  	fcall	_USART_Cadena
  4850                           
  4851                           ;PROYECTO.c: 341:                 USART_Cadena(" con  ");
  4852  03ED  30D4               	movlw	low (STR_10| (0+32768))
  4853  03EE  00F9               	movwf	USART_Cadena@str
  4854  03EF  308A               	movlw	high (STR_10| (0+32768))
  4855  03F0  00FA               	movwf	USART_Cadena@str+1
  4856  03F1  120A  158A  23DA  120A  118A  	fcall	_USART_Cadena
  4857                           
  4858                           ;PROYECTO.c: 342:                 SendCharM(me_3_us3_m);
  4859  03F6  1283               	bcf	3,5	;RP0=0, select bank0
  4860  03F7  1303               	bcf	3,6	;RP1=0, select bank0
  4861  03F8  0820               	movf	_me_3_us3_m,w
  4862  03F9  120A  158A  2400  120A  118A  	fcall	_SendCharM
  4863                           
  4864                           ;PROYECTO.c: 343:                 USART_Cadena(" mins. para el medicamento 3 \r\r");
  4865  03FE  30D0               	movlw	low (STR_19| (0+32768))
  4866  03FF  00F9               	movwf	USART_Cadena@str
  4867  0400  3089               	movlw	high (STR_19| (0+32768))
  4868  0401  00FA               	movwf	USART_Cadena@str+1
  4869  0402  120A  158A  23DA  120A  118A  	fcall	_USART_Cadena
  4870  0407  2AC9               	goto	l3226
  4871  0408                     l3284:
  4872                           
  4873                           ;PROYECTO.c: 348:                 USART_Cadena(" Ingresá la letra de la nueva hora  \r"
      +                          );
  4874  0408  301B               	movlw	low (STR_44| (0+32768))
  4875  0409  00F9               	movwf	USART_Cadena@str
  4876  040A  3089               	movlw	high (STR_44| (0+32768))
  4877  040B  00FA               	movwf	USART_Cadena@str+1
  4878  040C  120A  158A  23DA  120A  118A  	fcall	_USART_Cadena
  4879                           
  4880                           ;PROYECTO.c: 349:                 USART_Cadena(" a.0  b.1   c.2   d.3   e.4   f.5   g.6 
      +                            h.7  i.8\r");
  4881  0411  3000               	movlw	low (STR_45| (0+32768))
  4882  0412  00F9               	movwf	USART_Cadena@str
  4883  0413  3088               	movlw	high (STR_45| (0+32768))
  4884  0414  00FA               	movwf	USART_Cadena@str+1
  4885  0415  120A  158A  23DA  120A  118A  	fcall	_USART_Cadena
  4886                           
  4887                           ;PROYECTO.c: 350:                 USART_Cadena(" j.9  k.10  l.11  m.12  n.13  o.14  p.15
      +                            q.16\r");
  4888  041A  3094               	movlw	low (STR_46| (0+32768))
  4889  041B  00F9               	movwf	USART_Cadena@str
  4890  041C  3088               	movlw	high (STR_46| (0+32768))
  4891  041D  00FA               	movwf	USART_Cadena@str+1
  4892  041E  120A  158A  23DA  120A  118A  	fcall	_USART_Cadena
  4893                           
  4894                           ;PROYECTO.c: 351:                 USART_Cadena("r.17  s.18  t.19  u.20  v.21  w.22  x.23
      +                            y.24\r");
  4895  0423  3064               	movlw	low (STR_47| (0+32768))
  4896  0424  00F9               	movwf	USART_Cadena@str
  4897  0425  3088               	movlw	high (STR_47| (0+32768))
  4898  0426  00FA               	movwf	USART_Cadena@str+1
  4899  0427  120A  158A  23DA  120A  118A  	fcall	_USART_Cadena
  4900  042C                     l3286:
  4901                           
  4902                           ;PROYECTO.c: 353:                     if (PIR1bits.RCIF == 1){
  4903  042C  1283               	bcf	3,5	;RP0=0, select bank0
  4904  042D  1303               	bcf	3,6	;RP1=0, select bank0
  4905  042E  1E8C               	btfss	12,5	;volatile
  4906  042F  2C31               	goto	u3921
  4907  0430  2C32               	goto	u3920
  4908  0431                     u3921:
  4909  0431  2C2C               	goto	l3286
  4910  0432                     u3920:
  4911  0432                     l3288:
  4912                           
  4913                           ;PROYECTO.c: 354:                         USART_Cadena(" \r");
  4914  0432  3088               	movlw	low ((STR_51+33)| (0+32768))
  4915  0433  00F9               	movwf	USART_Cadena@str
  4916  0434  3089               	movlw	high ((STR_51+33)| (0+32768))
  4917  0435  00FA               	movwf	USART_Cadena@str+1
  4918  0436  120A  158A  23DA  120A  118A  	fcall	_USART_Cadena
  4919  043B                     l3290:
  4920                           
  4921                           ;PROYECTO.c: 355:                         hora_nueva = USART_Rx();
  4922  043B  120A  118A  27FC  120A  118A  	fcall	_USART_Rx
  4923  0440  1283               	bcf	3,5	;RP0=0, select bank0
  4924  0441  1303               	bcf	3,6	;RP1=0, select bank0
  4925  0442  00B8               	movwf	??_main
  4926  0443  0838               	movf	??_main,w
  4927  0444  00F0               	movwf	_hora_nueva
  4928  0445                     l3292:
  4929                           
  4930                           ;PROYECTO.c: 356:                         USART_Cadena(" \r");
  4931  0445  3088               	movlw	low ((STR_51+33)| (0+32768))
  4932  0446  00F9               	movwf	USART_Cadena@str
  4933  0447  3089               	movlw	high ((STR_51+33)| (0+32768))
  4934  0448  00FA               	movwf	USART_Cadena@str+1
  4935  0449  120A  158A  23DA  120A  118A  	fcall	_USART_Cadena
  4936  044E                     l3294:
  4937                           
  4938                           ;PROYECTO.c: 357:                         hora_user1 = CharToNumH(hora_nueva, hora_user1
      +                          );
  4939  044E  1283               	bcf	3,5	;RP0=0, select bank0
  4940  044F  1303               	bcf	3,6	;RP1=0, select bank0
  4941  0450  0834               	movf	_hora_user1,w
  4942  0451  00B8               	movwf	??_main
  4943  0452  0838               	movf	??_main,w
  4944  0453  00F8               	movwf	CharToNumH@hora_user
  4945  0454  0870               	movf	_hora_nueva,w
  4946  0455  120A  158A  2457  120A  118A  	fcall	_CharToNumH
  4947  045A  1283               	bcf	3,5	;RP0=0, select bank0
  4948  045B  1303               	bcf	3,6	;RP1=0, select bank0
  4949  045C  00B9               	movwf	??_main+1
  4950  045D  0839               	movf	??_main+1,w
  4951  045E  00B4               	movwf	_hora_user1
  4952  045F                     l3296:	
  4953                           ;PROYECTO.c: 358:                         break;
  4954                           
  4955                           
  4956                           ;PROYECTO.c: 361:                 USART_Cadena(" Ingresá la letra de los minutos nuevos
      +                            \r");
  4957  045F  30C4               	movlw	low (STR_50| (0+32768))
  4958  0460  00F9               	movwf	USART_Cadena@str
  4959  0461  3088               	movlw	high (STR_50| (0+32768))
  4960  0462  00FA               	movwf	USART_Cadena@str+1
  4961  0463  120A  158A  23DA  120A  118A  	fcall	_USART_Cadena
  4962                           
  4963                           ;PROYECTO.c: 362:                 USART_Cadena(" a.0  b.15   c.30   d.45   e.55   \r");
  4964  0468  3067               	movlw	low (STR_51| (0+32768))
  4965  0469  00F9               	movwf	USART_Cadena@str
  4966  046A  3089               	movlw	high (STR_51| (0+32768))
  4967  046B  00FA               	movwf	USART_Cadena@str+1
  4968  046C  120A  158A  23DA  120A  118A  	fcall	_USART_Cadena
  4969  0471                     l3298:
  4970                           
  4971                           ;PROYECTO.c: 364:                     if (PIR1bits.RCIF == 1){
  4972  0471  1283               	bcf	3,5	;RP0=0, select bank0
  4973  0472  1303               	bcf	3,6	;RP1=0, select bank0
  4974  0473  1E8C               	btfss	12,5	;volatile
  4975  0474  2C76               	goto	u3931
  4976  0475  2C77               	goto	u3930
  4977  0476                     u3931:
  4978  0476  2C71               	goto	l3298
  4979  0477                     u3930:
  4980  0477                     l3300:
  4981                           
  4982                           ;PROYECTO.c: 365:                         USART_Cadena(" \r");
  4983  0477  3088               	movlw	low ((STR_51+33)| (0+32768))
  4984  0478  00F9               	movwf	USART_Cadena@str
  4985  0479  3089               	movlw	high ((STR_51+33)| (0+32768))
  4986  047A  00FA               	movwf	USART_Cadena@str+1
  4987  047B  120A  158A  23DA  120A  118A  	fcall	_USART_Cadena
  4988  0480                     l3302:
  4989                           
  4990                           ;PROYECTO.c: 366:                         hora_nueva = USART_Rx();
  4991  0480  120A  118A  27FC  120A  118A  	fcall	_USART_Rx
  4992  0485  1283               	bcf	3,5	;RP0=0, select bank0
  4993  0486  1303               	bcf	3,6	;RP1=0, select bank0
  4994  0487  00B8               	movwf	??_main
  4995  0488  0838               	movf	??_main,w
  4996  0489  00F0               	movwf	_hora_nueva
  4997  048A                     l3304:
  4998                           
  4999                           ;PROYECTO.c: 367:                         USART_Cadena(" \r");
  5000  048A  3088               	movlw	low ((STR_51+33)| (0+32768))
  5001  048B  00F9               	movwf	USART_Cadena@str
  5002  048C  3089               	movlw	high ((STR_51+33)| (0+32768))
  5003  048D  00FA               	movwf	USART_Cadena@str+1
  5004  048E  120A  158A  23DA  120A  118A  	fcall	_USART_Cadena
  5005  0493                     l3306:
  5006                           
  5007                           ;PROYECTO.c: 368:                         min_user1 = CharToNumM(hora_nueva, min_user1);
  5008  0493  0872               	movf	_min_user1,w
  5009  0494  1283               	bcf	3,5	;RP0=0, select bank0
  5010  0495  1303               	bcf	3,6	;RP1=0, select bank0
  5011  0496  00B8               	movwf	??_main
  5012  0497  0838               	movf	??_main,w
  5013  0498  00F8               	movwf	CharToNumM@her
  5014  0499  0870               	movf	_hora_nueva,w
  5015  049A  120A  118A  27C5  120A  118A  	fcall	_CharToNumM
  5016  049F  1283               	bcf	3,5	;RP0=0, select bank0
  5017  04A0  1303               	bcf	3,6	;RP1=0, select bank0
  5018  04A1  00B9               	movwf	??_main+1
  5019  04A2  0839               	movf	??_main+1,w
  5020  04A3  00F2               	movwf	_min_user1
  5021  04A4                     l3308:	
  5022                           ;PROYECTO.c: 369:                         break;
  5023                           
  5024                           
  5025                           ;PROYECTO.c: 372:                 USART_Cadena(" Actualmente se cuenta con 3 medicamento
      +                          s\r");
  5026  04A4  30F0               	movlw	low (STR_54| (0+32768))
  5027  04A5  00F9               	movwf	USART_Cadena@str
  5028  04A6  3088               	movlw	high (STR_54| (0+32768))
  5029  04A7  00FA               	movwf	USART_Cadena@str+1
  5030  04A8  120A  158A  23DA  120A  118A  	fcall	_USART_Cadena
  5031                           
  5032                           ;PROYECTO.c: 373:                 USART_Cadena(" presione el número de medicamento a gu
      +                          ardar \r");
  5033  04AD  3034               	movlw	low (STR_55| (0+32768))
  5034  04AE  00F9               	movwf	USART_Cadena@str
  5035  04AF  3088               	movlw	high (STR_55| (0+32768))
  5036  04B0  00FA               	movwf	USART_Cadena@str+1
  5037  04B1  120A  158A  23DA  120A  118A  	fcall	_USART_Cadena
  5038                           
  5039                           ;PROYECTO.c: 374:                 USART_Cadena(" 1.AFC    2.FFT   3.DHL \r");
  5040  04B6  30A7               	movlw	low (STR_56| (0+32768))
  5041  04B7  00F9               	movwf	USART_Cadena@str
  5042  04B8  308A               	movlw	high (STR_56| (0+32768))
  5043  04B9  00FA               	movwf	USART_Cadena@str+1
  5044  04BA  120A  158A  23DA  120A  118A  	fcall	_USART_Cadena
  5045  04BF                     l3310:
  5046                           
  5047                           ;PROYECTO.c: 376:                     if (PIR1bits.RCIF == 1){
  5048  04BF  1283               	bcf	3,5	;RP0=0, select bank0
  5049  04C0  1303               	bcf	3,6	;RP1=0, select bank0
  5050  04C1  1E8C               	btfss	12,5	;volatile
  5051  04C2  2CC4               	goto	u3941
  5052  04C3  2CC5               	goto	u3940
  5053  04C4                     u3941:
  5054  04C4  2CBF               	goto	l3310
  5055  04C5                     u3940:
  5056  04C5                     l3312:
  5057                           
  5058                           ;PROYECTO.c: 377:                         hora_nueva = USART_Rx();
  5059  04C5  120A  118A  27FC  120A  118A  	fcall	_USART_Rx
  5060  04CA  1283               	bcf	3,5	;RP0=0, select bank0
  5061  04CB  1303               	bcf	3,6	;RP1=0, select bank0
  5062  04CC  00B8               	movwf	??_main
  5063  04CD  0838               	movf	??_main,w
  5064  04CE  00F0               	movwf	_hora_nueva
  5065  04CF                     l3314:
  5066                           
  5067                           ;PROYECTO.c: 378:                         if(hora_nueva == '1'){
  5068  04CF  3031               	movlw	49
  5069  04D0  0670               	xorwf	_hora_nueva,w
  5070  04D1  1D03               	btfss	3,2
  5071  04D2  2CD4               	goto	u3951
  5072  04D3  2CD5               	goto	u3950
  5073  04D4                     u3951:
  5074  04D4  2CDE               	goto	l3318
  5075  04D5                     u3950:
  5076  04D5                     l3316:
  5077                           
  5078                           ;PROYECTO.c: 379:                             me_1_us1_h = hora_user1;
  5079  04D5  0834               	movf	_hora_user1,w
  5080  04D6  00B8               	movwf	??_main
  5081  04D7  0838               	movf	??_main,w
  5082  04D8  00B1               	movwf	_me_1_us1_h
  5083                           
  5084                           ;PROYECTO.c: 380:                             me_1_us1_m = min_user1;
  5085  04D9  0872               	movf	_min_user1,w
  5086  04DA  00B8               	movwf	??_main
  5087  04DB  0838               	movf	??_main,w
  5088  04DC  00A8               	movwf	_me_1_us1_m
  5089                           
  5090                           ;PROYECTO.c: 381:                         }else if(hora_nueva == '2'){
  5091  04DD  2AC9               	goto	l3226
  5092  04DE                     l3318:
  5093  04DE  3032               	movlw	50
  5094  04DF  0670               	xorwf	_hora_nueva,w
  5095  04E0  1D03               	btfss	3,2
  5096  04E1  2CE3               	goto	u3961
  5097  04E2  2CE4               	goto	u3960
  5098  04E3                     u3961:
  5099  04E3  2CED               	goto	l3322
  5100  04E4                     u3960:
  5101  04E4                     l3320:
  5102                           
  5103                           ;PROYECTO.c: 382:                             me_2_us1_h = hora_user1;
  5104  04E4  0834               	movf	_hora_user1,w
  5105  04E5  00B8               	movwf	??_main
  5106  04E6  0838               	movf	??_main,w
  5107  04E7  00B0               	movwf	_me_2_us1_h
  5108                           
  5109                           ;PROYECTO.c: 383:                             me_2_us1_m = min_user1;
  5110  04E8  0872               	movf	_min_user1,w
  5111  04E9  00B8               	movwf	??_main
  5112  04EA  0838               	movf	??_main,w
  5113  04EB  00A7               	movwf	_me_2_us1_m
  5114                           
  5115                           ;PROYECTO.c: 384:                         }else if(hora_nueva == '3'){
  5116  04EC  2AC9               	goto	l3226
  5117  04ED                     l3322:
  5118  04ED  3033               	movlw	51
  5119  04EE  0670               	xorwf	_hora_nueva,w
  5120  04EF  1D03               	btfss	3,2
  5121  04F0  2CF2               	goto	u3971
  5122  04F1  2CF3               	goto	u3970
  5123  04F2                     u3971:
  5124  04F2  2AC9               	goto	l3226
  5125  04F3                     u3970:
  5126  04F3                     l3324:
  5127                           
  5128                           ;PROYECTO.c: 385:                             me_3_us1_h = hora_user1;
  5129  04F3  0834               	movf	_hora_user1,w
  5130  04F4  00B8               	movwf	??_main
  5131  04F5  0838               	movf	??_main,w
  5132  04F6  00AF               	movwf	_me_3_us1_h
  5133                           
  5134                           ;PROYECTO.c: 386:                             me_3_us1_m = min_user1;
  5135  04F7  0872               	movf	_min_user1,w
  5136  04F8  00B8               	movwf	??_main
  5137  04F9  0838               	movf	??_main,w
  5138  04FA  00A6               	movwf	_me_3_us1_m
  5139  04FB  2AC9               	goto	l3226
  5140  04FC                     l3326:
  5141                           
  5142                           ;PROYECTO.c: 395:                 USART_Cadena(" Ingresá la letra de la nueva hora  \r"
      +                          );
  5143  04FC  301B               	movlw	low (STR_44| (0+32768))
  5144  04FD  00F9               	movwf	USART_Cadena@str
  5145  04FE  3089               	movlw	high (STR_44| (0+32768))
  5146  04FF  00FA               	movwf	USART_Cadena@str+1
  5147  0500  120A  158A  23DA  120A  118A  	fcall	_USART_Cadena
  5148                           
  5149                           ;PROYECTO.c: 396:                 USART_Cadena(" a.0  b.1   c.2   d.3   e.4   f.5   g.6 
      +                            h.7  i.8\r");
  5150  0505  3000               	movlw	low (STR_45| (0+32768))
  5151  0506  00F9               	movwf	USART_Cadena@str
  5152  0507  3088               	movlw	high (STR_45| (0+32768))
  5153  0508  00FA               	movwf	USART_Cadena@str+1
  5154  0509  120A  158A  23DA  120A  118A  	fcall	_USART_Cadena
  5155                           
  5156                           ;PROYECTO.c: 397:                 USART_Cadena(" j.9  k.10  l.11  m.12  n.13  o.14  p.15
      +                            q.16\r");
  5157  050E  3094               	movlw	low (STR_46| (0+32768))
  5158  050F  00F9               	movwf	USART_Cadena@str
  5159  0510  3088               	movlw	high (STR_46| (0+32768))
  5160  0511  00FA               	movwf	USART_Cadena@str+1
  5161  0512  120A  158A  23DA  120A  118A  	fcall	_USART_Cadena
  5162                           
  5163                           ;PROYECTO.c: 398:                 USART_Cadena("r.17  s.18  t.19  u.20  v.21  w.22  x.23
      +                            y.24\r");
  5164  0517  3064               	movlw	low (STR_47| (0+32768))
  5165  0518  00F9               	movwf	USART_Cadena@str
  5166  0519  3088               	movlw	high (STR_47| (0+32768))
  5167  051A  00FA               	movwf	USART_Cadena@str+1
  5168  051B  120A  158A  23DA  120A  118A  	fcall	_USART_Cadena
  5169  0520                     l3328:
  5170                           
  5171                           ;PROYECTO.c: 400:                     if (PIR1bits.RCIF == 1){
  5172  0520  1283               	bcf	3,5	;RP0=0, select bank0
  5173  0521  1303               	bcf	3,6	;RP1=0, select bank0
  5174  0522  1E8C               	btfss	12,5	;volatile
  5175  0523  2D25               	goto	u3981
  5176  0524  2D26               	goto	u3980
  5177  0525                     u3981:
  5178  0525  2D20               	goto	l3328
  5179  0526                     u3980:
  5180  0526                     l3330:
  5181                           
  5182                           ;PROYECTO.c: 401:                         USART_Cadena(" \r");
  5183  0526  3088               	movlw	low ((STR_51+33)| (0+32768))
  5184  0527  00F9               	movwf	USART_Cadena@str
  5185  0528  3089               	movlw	high ((STR_51+33)| (0+32768))
  5186  0529  00FA               	movwf	USART_Cadena@str+1
  5187  052A  120A  158A  23DA  120A  118A  	fcall	_USART_Cadena
  5188  052F                     l3332:
  5189                           
  5190                           ;PROYECTO.c: 402:                         hora_nueva = USART_Rx();
  5191  052F  120A  118A  27FC  120A  118A  	fcall	_USART_Rx
  5192  0534  1283               	bcf	3,5	;RP0=0, select bank0
  5193  0535  1303               	bcf	3,6	;RP1=0, select bank0
  5194  0536  00B8               	movwf	??_main
  5195  0537  0838               	movf	??_main,w
  5196  0538  00F0               	movwf	_hora_nueva
  5197  0539                     l3334:
  5198                           
  5199                           ;PROYECTO.c: 403:                         USART_Cadena(" \r");
  5200  0539  3088               	movlw	low ((STR_51+33)| (0+32768))
  5201  053A  00F9               	movwf	USART_Cadena@str
  5202  053B  3089               	movlw	high ((STR_51+33)| (0+32768))
  5203  053C  00FA               	movwf	USART_Cadena@str+1
  5204  053D  120A  158A  23DA  120A  118A  	fcall	_USART_Cadena
  5205  0542                     l3336:
  5206                           
  5207                           ;PROYECTO.c: 404:                         hora_user2 = CharToNumH(hora_nueva, hora_user2
      +                          );
  5208  0542  1283               	bcf	3,5	;RP0=0, select bank0
  5209  0543  1303               	bcf	3,6	;RP1=0, select bank0
  5210  0544  0833               	movf	_hora_user2,w
  5211  0545  00B8               	movwf	??_main
  5212  0546  0838               	movf	??_main,w
  5213  0547  00F8               	movwf	CharToNumH@hora_user
  5214  0548  0870               	movf	_hora_nueva,w
  5215  0549  120A  158A  2457  120A  118A  	fcall	_CharToNumH
  5216  054E  1283               	bcf	3,5	;RP0=0, select bank0
  5217  054F  1303               	bcf	3,6	;RP1=0, select bank0
  5218  0550  00B9               	movwf	??_main+1
  5219  0551  0839               	movf	??_main+1,w
  5220  0552  00B3               	movwf	_hora_user2
  5221  0553                     l3338:	
  5222                           ;PROYECTO.c: 405:                         break;
  5223                           
  5224                           
  5225                           ;PROYECTO.c: 408:                 USART_Cadena(" Ingresá la letra de los minutos nuevos
      +                            \r");
  5226  0553  30C4               	movlw	low (STR_50| (0+32768))
  5227  0554  00F9               	movwf	USART_Cadena@str
  5228  0555  3088               	movlw	high (STR_50| (0+32768))
  5229  0556  00FA               	movwf	USART_Cadena@str+1
  5230  0557  120A  158A  23DA  120A  118A  	fcall	_USART_Cadena
  5231                           
  5232                           ;PROYECTO.c: 409:                 USART_Cadena(" a.0  b.15   c.30   d.45   e.55   \r");
  5233  055C  3067               	movlw	low (STR_51| (0+32768))
  5234  055D  00F9               	movwf	USART_Cadena@str
  5235  055E  3089               	movlw	high (STR_51| (0+32768))
  5236  055F  00FA               	movwf	USART_Cadena@str+1
  5237  0560  120A  158A  23DA  120A  118A  	fcall	_USART_Cadena
  5238  0565                     l3340:
  5239                           
  5240                           ;PROYECTO.c: 411:                     if (PIR1bits.RCIF == 1){
  5241  0565  1283               	bcf	3,5	;RP0=0, select bank0
  5242  0566  1303               	bcf	3,6	;RP1=0, select bank0
  5243  0567  1E8C               	btfss	12,5	;volatile
  5244  0568  2D6A               	goto	u3991
  5245  0569  2D6B               	goto	u3990
  5246  056A                     u3991:
  5247  056A  2D65               	goto	l3340
  5248  056B                     u3990:
  5249  056B                     l3342:
  5250                           
  5251                           ;PROYECTO.c: 412:                         USART_Cadena(" \r");
  5252  056B  3088               	movlw	low ((STR_51+33)| (0+32768))
  5253  056C  00F9               	movwf	USART_Cadena@str
  5254  056D  3089               	movlw	high ((STR_51+33)| (0+32768))
  5255  056E  00FA               	movwf	USART_Cadena@str+1
  5256  056F  120A  158A  23DA  120A  118A  	fcall	_USART_Cadena
  5257  0574                     l3344:
  5258                           
  5259                           ;PROYECTO.c: 413:                         hora_nueva = USART_Rx();
  5260  0574  120A  118A  27FC  120A  118A  	fcall	_USART_Rx
  5261  0579  1283               	bcf	3,5	;RP0=0, select bank0
  5262  057A  1303               	bcf	3,6	;RP1=0, select bank0
  5263  057B  00B8               	movwf	??_main
  5264  057C  0838               	movf	??_main,w
  5265  057D  00F0               	movwf	_hora_nueva
  5266  057E                     l3346:
  5267                           
  5268                           ;PROYECTO.c: 414:                         USART_Cadena(" \r");
  5269  057E  3088               	movlw	low ((STR_51+33)| (0+32768))
  5270  057F  00F9               	movwf	USART_Cadena@str
  5271  0580  3089               	movlw	high ((STR_51+33)| (0+32768))
  5272  0581  00FA               	movwf	USART_Cadena@str+1
  5273  0582  120A  158A  23DA  120A  118A  	fcall	_USART_Cadena
  5274  0587                     l3348:
  5275                           
  5276                           ;PROYECTO.c: 415:                         min_user2 = CharToNumM(hora_nueva, min_user2);
  5277  0587  0871               	movf	_min_user2,w
  5278  0588  1283               	bcf	3,5	;RP0=0, select bank0
  5279  0589  1303               	bcf	3,6	;RP1=0, select bank0
  5280  058A  00B8               	movwf	??_main
  5281  058B  0838               	movf	??_main,w
  5282  058C  00F8               	movwf	CharToNumM@her
  5283  058D  0870               	movf	_hora_nueva,w
  5284  058E  120A  118A  27C5  120A  118A  	fcall	_CharToNumM
  5285  0593  1283               	bcf	3,5	;RP0=0, select bank0
  5286  0594  1303               	bcf	3,6	;RP1=0, select bank0
  5287  0595  00B9               	movwf	??_main+1
  5288  0596  0839               	movf	??_main+1,w
  5289  0597  00F1               	movwf	_min_user2
  5290  0598                     l3350:	
  5291                           ;PROYECTO.c: 416:                         break;
  5292                           
  5293                           
  5294                           ;PROYECTO.c: 419:                 USART_Cadena(" Actualmente se cuenta con 3 medicamento
      +                          s\r");
  5295  0598  30F0               	movlw	low (STR_54| (0+32768))
  5296  0599  00F9               	movwf	USART_Cadena@str
  5297  059A  3088               	movlw	high (STR_54| (0+32768))
  5298  059B  00FA               	movwf	USART_Cadena@str+1
  5299  059C  120A  158A  23DA  120A  118A  	fcall	_USART_Cadena
  5300                           
  5301                           ;PROYECTO.c: 420:                 USART_Cadena(" presione el número de medicamento a gu
      +                          ardar \r");
  5302  05A1  3034               	movlw	low (STR_55| (0+32768))
  5303  05A2  00F9               	movwf	USART_Cadena@str
  5304  05A3  3088               	movlw	high (STR_55| (0+32768))
  5305  05A4  00FA               	movwf	USART_Cadena@str+1
  5306  05A5  120A  158A  23DA  120A  118A  	fcall	_USART_Cadena
  5307                           
  5308                           ;PROYECTO.c: 421:                 USART_Cadena(" 1.AFC    2.FFT   3.DHL \r");
  5309  05AA  30A7               	movlw	low (STR_56| (0+32768))
  5310  05AB  00F9               	movwf	USART_Cadena@str
  5311  05AC  308A               	movlw	high (STR_56| (0+32768))
  5312  05AD  00FA               	movwf	USART_Cadena@str+1
  5313  05AE  120A  158A  23DA  120A  118A  	fcall	_USART_Cadena
  5314  05B3                     l3352:
  5315                           
  5316                           ;PROYECTO.c: 423:                     if (PIR1bits.RCIF == 1){
  5317  05B3  1283               	bcf	3,5	;RP0=0, select bank0
  5318  05B4  1303               	bcf	3,6	;RP1=0, select bank0
  5319  05B5  1E8C               	btfss	12,5	;volatile
  5320  05B6  2DB8               	goto	u4001
  5321  05B7  2DB9               	goto	u4000
  5322  05B8                     u4001:
  5323  05B8  2DB3               	goto	l3352
  5324  05B9                     u4000:
  5325  05B9                     l3354:
  5326                           
  5327                           ;PROYECTO.c: 424:                         hora_nueva = USART_Rx();
  5328  05B9  120A  118A  27FC  120A  118A  	fcall	_USART_Rx
  5329  05BE  1283               	bcf	3,5	;RP0=0, select bank0
  5330  05BF  1303               	bcf	3,6	;RP1=0, select bank0
  5331  05C0  00B8               	movwf	??_main
  5332  05C1  0838               	movf	??_main,w
  5333  05C2  00F0               	movwf	_hora_nueva
  5334  05C3                     l3356:
  5335                           
  5336                           ;PROYECTO.c: 425:                         if(hora_nueva == '1'){
  5337  05C3  3031               	movlw	49
  5338  05C4  0670               	xorwf	_hora_nueva,w
  5339  05C5  1D03               	btfss	3,2
  5340  05C6  2DC8               	goto	u4011
  5341  05C7  2DC9               	goto	u4010
  5342  05C8                     u4011:
  5343  05C8  2DD2               	goto	l3360
  5344  05C9                     u4010:
  5345  05C9                     l3358:
  5346                           
  5347                           ;PROYECTO.c: 426:                             me_1_us2_h = hora_user2;
  5348  05C9  0833               	movf	_hora_user2,w
  5349  05CA  00B8               	movwf	??_main
  5350  05CB  0838               	movf	??_main,w
  5351  05CC  00AE               	movwf	_me_1_us2_h
  5352                           
  5353                           ;PROYECTO.c: 427:                             me_1_us2_m = min_user2;
  5354  05CD  0871               	movf	_min_user2,w
  5355  05CE  00B8               	movwf	??_main
  5356  05CF  0838               	movf	??_main,w
  5357  05D0  00A5               	movwf	_me_1_us2_m
  5358                           
  5359                           ;PROYECTO.c: 428:                         }else if(hora_nueva == '2'){
  5360  05D1  2AC9               	goto	l3226
  5361  05D2                     l3360:
  5362  05D2  3032               	movlw	50
  5363  05D3  0670               	xorwf	_hora_nueva,w
  5364  05D4  1D03               	btfss	3,2
  5365  05D5  2DD7               	goto	u4021
  5366  05D6  2DD8               	goto	u4020
  5367  05D7                     u4021:
  5368  05D7  2DE1               	goto	l3364
  5369  05D8                     u4020:
  5370  05D8                     l3362:
  5371                           
  5372                           ;PROYECTO.c: 429:                             me_2_us2_h = hora_user2;
  5373  05D8  0833               	movf	_hora_user2,w
  5374  05D9  00B8               	movwf	??_main
  5375  05DA  0838               	movf	??_main,w
  5376  05DB  00AD               	movwf	_me_2_us2_h
  5377                           
  5378                           ;PROYECTO.c: 430:                             me_2_us2_m = min_user2;
  5379  05DC  0871               	movf	_min_user2,w
  5380  05DD  00B8               	movwf	??_main
  5381  05DE  0838               	movf	??_main,w
  5382  05DF  00A4               	movwf	_me_2_us2_m
  5383                           
  5384                           ;PROYECTO.c: 431:                         }else if(hora_nueva == '3'){
  5385  05E0  2AC9               	goto	l3226
  5386  05E1                     l3364:
  5387  05E1  3033               	movlw	51
  5388  05E2  0670               	xorwf	_hora_nueva,w
  5389  05E3  1D03               	btfss	3,2
  5390  05E4  2DE6               	goto	u4031
  5391  05E5  2DE7               	goto	u4030
  5392  05E6                     u4031:
  5393  05E6  2AC9               	goto	l3226
  5394  05E7                     u4030:
  5395  05E7                     l3366:
  5396                           
  5397                           ;PROYECTO.c: 432:                             me_3_us2_h = hora_user2;
  5398  05E7  0833               	movf	_hora_user2,w
  5399  05E8  00B8               	movwf	??_main
  5400  05E9  0838               	movf	??_main,w
  5401  05EA  00AC               	movwf	_me_3_us2_h
  5402                           
  5403                           ;PROYECTO.c: 433:                             me_3_us2_m = min_user2;
  5404  05EB  0871               	movf	_min_user2,w
  5405  05EC  00B8               	movwf	??_main
  5406  05ED  0838               	movf	??_main,w
  5407  05EE  00A3               	movwf	_me_3_us2_m
  5408  05EF  2AC9               	goto	l3226
  5409  05F0                     l3368:
  5410                           
  5411                           ;PROYECTO.c: 441:                 USART_Cadena(" Ingresá la letra de la nueva hora  \r"
      +                          );
  5412  05F0  301B               	movlw	low (STR_44| (0+32768))
  5413  05F1  00F9               	movwf	USART_Cadena@str
  5414  05F2  3089               	movlw	high (STR_44| (0+32768))
  5415  05F3  00FA               	movwf	USART_Cadena@str+1
  5416  05F4  120A  158A  23DA  120A  118A  	fcall	_USART_Cadena
  5417                           
  5418                           ;PROYECTO.c: 442:                 USART_Cadena(" a.0  b.1   c.2   d.3   e.4   f.5   g.6 
      +                            h.7  i.8\r");
  5419  05F9  3000               	movlw	low (STR_45| (0+32768))
  5420  05FA  00F9               	movwf	USART_Cadena@str
  5421  05FB  3088               	movlw	high (STR_45| (0+32768))
  5422  05FC  00FA               	movwf	USART_Cadena@str+1
  5423  05FD  120A  158A  23DA  120A  118A  	fcall	_USART_Cadena
  5424                           
  5425                           ;PROYECTO.c: 443:                 USART_Cadena(" j.9  k.10  l.11  m.12  n.13  o.14  p.15
      +                            q.16\r");
  5426  0602  3094               	movlw	low (STR_46| (0+32768))
  5427  0603  00F9               	movwf	USART_Cadena@str
  5428  0604  3088               	movlw	high (STR_46| (0+32768))
  5429  0605  00FA               	movwf	USART_Cadena@str+1
  5430  0606  120A  158A  23DA  120A  118A  	fcall	_USART_Cadena
  5431                           
  5432                           ;PROYECTO.c: 444:                 USART_Cadena("r.17  s.18  t.19  u.20  v.21  w.22  x.23
      +                            y.24\r");
  5433  060B  3064               	movlw	low (STR_47| (0+32768))
  5434  060C  00F9               	movwf	USART_Cadena@str
  5435  060D  3088               	movlw	high (STR_47| (0+32768))
  5436  060E  00FA               	movwf	USART_Cadena@str+1
  5437  060F  120A  158A  23DA  120A  118A  	fcall	_USART_Cadena
  5438  0614                     l3370:
  5439                           
  5440                           ;PROYECTO.c: 446:                     if (PIR1bits.RCIF == 1){
  5441  0614  1283               	bcf	3,5	;RP0=0, select bank0
  5442  0615  1303               	bcf	3,6	;RP1=0, select bank0
  5443  0616  1E8C               	btfss	12,5	;volatile
  5444  0617  2E19               	goto	u4041
  5445  0618  2E1A               	goto	u4040
  5446  0619                     u4041:
  5447  0619  2E14               	goto	l3370
  5448  061A                     u4040:
  5449  061A                     l3372:
  5450                           
  5451                           ;PROYECTO.c: 447:                         USART_Cadena(" \r");
  5452  061A  3088               	movlw	low ((STR_51+33)| (0+32768))
  5453  061B  00F9               	movwf	USART_Cadena@str
  5454  061C  3089               	movlw	high ((STR_51+33)| (0+32768))
  5455  061D  00FA               	movwf	USART_Cadena@str+1
  5456  061E  120A  158A  23DA  120A  118A  	fcall	_USART_Cadena
  5457  0623                     l3374:
  5458                           
  5459                           ;PROYECTO.c: 448:                         hora_nueva = USART_Rx();
  5460  0623  120A  118A  27FC  120A  118A  	fcall	_USART_Rx
  5461  0628  1283               	bcf	3,5	;RP0=0, select bank0
  5462  0629  1303               	bcf	3,6	;RP1=0, select bank0
  5463  062A  00B8               	movwf	??_main
  5464  062B  0838               	movf	??_main,w
  5465  062C  00F0               	movwf	_hora_nueva
  5466  062D                     l3376:
  5467                           
  5468                           ;PROYECTO.c: 449:                         USART_Cadena(" \r");
  5469  062D  3088               	movlw	low ((STR_51+33)| (0+32768))
  5470  062E  00F9               	movwf	USART_Cadena@str
  5471  062F  3089               	movlw	high ((STR_51+33)| (0+32768))
  5472  0630  00FA               	movwf	USART_Cadena@str+1
  5473  0631  120A  158A  23DA  120A  118A  	fcall	_USART_Cadena
  5474  0636                     l3378:
  5475                           
  5476                           ;PROYECTO.c: 450:                         hora_user3 = CharToNumH(hora_nueva, hora_user3
      +                          );
  5477  0636  1283               	bcf	3,5	;RP0=0, select bank0
  5478  0637  1303               	bcf	3,6	;RP1=0, select bank0
  5479  0638  0832               	movf	_hora_user3,w
  5480  0639  00B8               	movwf	??_main
  5481  063A  0838               	movf	??_main,w
  5482  063B  00F8               	movwf	CharToNumH@hora_user
  5483  063C  0870               	movf	_hora_nueva,w
  5484  063D  120A  158A  2457  120A  118A  	fcall	_CharToNumH
  5485  0642  1283               	bcf	3,5	;RP0=0, select bank0
  5486  0643  1303               	bcf	3,6	;RP1=0, select bank0
  5487  0644  00B9               	movwf	??_main+1
  5488  0645  0839               	movf	??_main+1,w
  5489  0646  00B2               	movwf	_hora_user3
  5490  0647                     l3380:	
  5491                           ;PROYECTO.c: 451:                         break;
  5492                           
  5493                           
  5494                           ;PROYECTO.c: 454:                 USART_Cadena(" Ingresá la letra de los minutos nuevos
      +                            \r");
  5495  0647  30C4               	movlw	low (STR_50| (0+32768))
  5496  0648  00F9               	movwf	USART_Cadena@str
  5497  0649  3088               	movlw	high (STR_50| (0+32768))
  5498  064A  00FA               	movwf	USART_Cadena@str+1
  5499  064B  120A  158A  23DA  120A  118A  	fcall	_USART_Cadena
  5500                           
  5501                           ;PROYECTO.c: 455:                 USART_Cadena(" a.0  b.15   c.30   d.45   e.55   \r");
  5502  0650  3067               	movlw	low (STR_51| (0+32768))
  5503  0651  00F9               	movwf	USART_Cadena@str
  5504  0652  3089               	movlw	high (STR_51| (0+32768))
  5505  0653  00FA               	movwf	USART_Cadena@str+1
  5506  0654  120A  158A  23DA  120A  118A  	fcall	_USART_Cadena
  5507  0659                     l3382:
  5508                           
  5509                           ;PROYECTO.c: 457:                     if (PIR1bits.RCIF == 1){
  5510  0659  1283               	bcf	3,5	;RP0=0, select bank0
  5511  065A  1303               	bcf	3,6	;RP1=0, select bank0
  5512  065B  1E8C               	btfss	12,5	;volatile
  5513  065C  2E5E               	goto	u4051
  5514  065D  2E5F               	goto	u4050
  5515  065E                     u4051:
  5516  065E  2E59               	goto	l3382
  5517  065F                     u4050:
  5518  065F                     l3384:
  5519                           
  5520                           ;PROYECTO.c: 458:                         USART_Cadena(" \r");
  5521  065F  3088               	movlw	low ((STR_51+33)| (0+32768))
  5522  0660  00F9               	movwf	USART_Cadena@str
  5523  0661  3089               	movlw	high ((STR_51+33)| (0+32768))
  5524  0662  00FA               	movwf	USART_Cadena@str+1
  5525  0663  120A  158A  23DA  120A  118A  	fcall	_USART_Cadena
  5526  0668                     l3386:
  5527                           
  5528                           ;PROYECTO.c: 459:                         hora_nueva = USART_Rx();
  5529  0668  120A  118A  27FC  120A  118A  	fcall	_USART_Rx
  5530  066D  1283               	bcf	3,5	;RP0=0, select bank0
  5531  066E  1303               	bcf	3,6	;RP1=0, select bank0
  5532  066F  00B8               	movwf	??_main
  5533  0670  0838               	movf	??_main,w
  5534  0671  00F0               	movwf	_hora_nueva
  5535  0672                     l3388:
  5536                           
  5537                           ;PROYECTO.c: 460:                         USART_Cadena(" \r");
  5538  0672  3088               	movlw	low ((STR_51+33)| (0+32768))
  5539  0673  00F9               	movwf	USART_Cadena@str
  5540  0674  3089               	movlw	high ((STR_51+33)| (0+32768))
  5541  0675  00FA               	movwf	USART_Cadena@str+1
  5542  0676  120A  158A  23DA  120A  118A  	fcall	_USART_Cadena
  5543  067B                     l3390:
  5544                           
  5545                           ;PROYECTO.c: 461:                         min_user3 = CharToNumM(hora_nueva, min_user3);
  5546  067B  1283               	bcf	3,5	;RP0=0, select bank0
  5547  067C  1303               	bcf	3,6	;RP1=0, select bank0
  5548  067D  0835               	movf	_min_user3,w
  5549  067E  00B8               	movwf	??_main
  5550  067F  0838               	movf	??_main,w
  5551  0680  00F8               	movwf	CharToNumM@her
  5552  0681  0870               	movf	_hora_nueva,w
  5553  0682  120A  118A  27C5  120A  118A  	fcall	_CharToNumM
  5554  0687  1283               	bcf	3,5	;RP0=0, select bank0
  5555  0688  1303               	bcf	3,6	;RP1=0, select bank0
  5556  0689  00B9               	movwf	??_main+1
  5557  068A  0839               	movf	??_main+1,w
  5558  068B  00B5               	movwf	_min_user3
  5559  068C                     l3392:	
  5560                           ;PROYECTO.c: 462:                         break;
  5561                           
  5562                           
  5563                           ;PROYECTO.c: 465:                 USART_Cadena(" Actualmente se cuenta con 3 medicamento
      +                          s\r");
  5564  068C  30F0               	movlw	low (STR_54| (0+32768))
  5565  068D  00F9               	movwf	USART_Cadena@str
  5566  068E  3088               	movlw	high (STR_54| (0+32768))
  5567  068F  00FA               	movwf	USART_Cadena@str+1
  5568  0690  120A  158A  23DA  120A  118A  	fcall	_USART_Cadena
  5569                           
  5570                           ;PROYECTO.c: 466:                 USART_Cadena(" presione el número de medicamento a gu
      +                          ardar \r");
  5571  0695  3034               	movlw	low (STR_55| (0+32768))
  5572  0696  00F9               	movwf	USART_Cadena@str
  5573  0697  3088               	movlw	high (STR_55| (0+32768))
  5574  0698  00FA               	movwf	USART_Cadena@str+1
  5575  0699  120A  158A  23DA  120A  118A  	fcall	_USART_Cadena
  5576                           
  5577                           ;PROYECTO.c: 467:                 USART_Cadena(" 1.AFC    2.FFT   3.DHL \r");
  5578  069E  30A7               	movlw	low (STR_56| (0+32768))
  5579  069F  00F9               	movwf	USART_Cadena@str
  5580  06A0  308A               	movlw	high (STR_56| (0+32768))
  5581  06A1  00FA               	movwf	USART_Cadena@str+1
  5582  06A2  120A  158A  23DA  120A  118A  	fcall	_USART_Cadena
  5583  06A7                     l3394:
  5584                           
  5585                           ;PROYECTO.c: 469:                     if (PIR1bits.RCIF == 1){
  5586  06A7  1283               	bcf	3,5	;RP0=0, select bank0
  5587  06A8  1303               	bcf	3,6	;RP1=0, select bank0
  5588  06A9  1E8C               	btfss	12,5	;volatile
  5589  06AA  2EAC               	goto	u4061
  5590  06AB  2EAD               	goto	u4060
  5591  06AC                     u4061:
  5592  06AC  2EA7               	goto	l3394
  5593  06AD                     u4060:
  5594  06AD                     l3396:
  5595                           
  5596                           ;PROYECTO.c: 470:                         hora_nueva = USART_Rx();
  5597  06AD  120A  118A  27FC  120A  118A  	fcall	_USART_Rx
  5598  06B2  1283               	bcf	3,5	;RP0=0, select bank0
  5599  06B3  1303               	bcf	3,6	;RP1=0, select bank0
  5600  06B4  00B8               	movwf	??_main
  5601  06B5  0838               	movf	??_main,w
  5602  06B6  00F0               	movwf	_hora_nueva
  5603  06B7                     l3398:
  5604                           
  5605                           ;PROYECTO.c: 471:                         if(hora_nueva == '1'){
  5606  06B7  3031               	movlw	49
  5607  06B8  0670               	xorwf	_hora_nueva,w
  5608  06B9  1D03               	btfss	3,2
  5609  06BA  2EBC               	goto	u4071
  5610  06BB  2EBD               	goto	u4070
  5611  06BC                     u4071:
  5612  06BC  2EC6               	goto	l3402
  5613  06BD                     u4070:
  5614  06BD                     l3400:
  5615                           
  5616                           ;PROYECTO.c: 472:                             me_1_us3_h = hora_user3;
  5617  06BD  0832               	movf	_hora_user3,w
  5618  06BE  00B8               	movwf	??_main
  5619  06BF  0838               	movf	??_main,w
  5620  06C0  00AB               	movwf	_me_1_us3_h
  5621                           
  5622                           ;PROYECTO.c: 473:                             me_1_us3_m = min_user3;
  5623  06C1  0835               	movf	_min_user3,w
  5624  06C2  00B8               	movwf	??_main
  5625  06C3  0838               	movf	??_main,w
  5626  06C4  00A2               	movwf	_me_1_us3_m
  5627                           
  5628                           ;PROYECTO.c: 474:                         }else if(hora_nueva == '2'){
  5629  06C5  2AC9               	goto	l3226
  5630  06C6                     l3402:
  5631  06C6  3032               	movlw	50
  5632  06C7  0670               	xorwf	_hora_nueva,w
  5633  06C8  1D03               	btfss	3,2
  5634  06C9  2ECB               	goto	u4081
  5635  06CA  2ECC               	goto	u4080
  5636  06CB                     u4081:
  5637  06CB  2ED5               	goto	l3406
  5638  06CC                     u4080:
  5639  06CC                     l3404:
  5640                           
  5641                           ;PROYECTO.c: 475:                             me_2_us3_h = hora_user3;
  5642  06CC  0832               	movf	_hora_user3,w
  5643  06CD  00B8               	movwf	??_main
  5644  06CE  0838               	movf	??_main,w
  5645  06CF  00AA               	movwf	_me_2_us3_h
  5646                           
  5647                           ;PROYECTO.c: 476:                             me_2_us3_m = min_user3;
  5648  06D0  0835               	movf	_min_user3,w
  5649  06D1  00B8               	movwf	??_main
  5650  06D2  0838               	movf	??_main,w
  5651  06D3  00A1               	movwf	_me_2_us3_m
  5652                           
  5653                           ;PROYECTO.c: 477:                         }else if(hora_nueva == '3'){
  5654  06D4  2AC9               	goto	l3226
  5655  06D5                     l3406:
  5656  06D5  3033               	movlw	51
  5657  06D6  0670               	xorwf	_hora_nueva,w
  5658  06D7  1D03               	btfss	3,2
  5659  06D8  2EDA               	goto	u4091
  5660  06D9  2EDB               	goto	u4090
  5661  06DA                     u4091:
  5662  06DA  2AC9               	goto	l3226
  5663  06DB                     u4090:
  5664  06DB                     l3408:
  5665                           
  5666                           ;PROYECTO.c: 478:                             me_3_us3_h = hora_user3;
  5667  06DB  0832               	movf	_hora_user3,w
  5668  06DC  00B8               	movwf	??_main
  5669  06DD  0838               	movf	??_main,w
  5670  06DE  00A9               	movwf	_me_3_us3_h
  5671                           
  5672                           ;PROYECTO.c: 479:                             me_3_us3_m = min_user3;
  5673  06DF  0835               	movf	_min_user3,w
  5674  06E0  00B8               	movwf	??_main
  5675  06E1  0838               	movf	??_main,w
  5676  06E2  00A0               	movwf	_me_3_us3_m
  5677  06E3  2AC9               	goto	l3226
  5678  06E4                     l3412:
  5679  06E4  0837               	movf	_valor,w
  5680  06E5  00B8               	movwf	??_main
  5681  06E6  01B9               	clrf	??_main+1
  5682                           
  5683                           ; Switch on 2 bytes has been partitioned into a top level switch of size 1, and 1 sub-sw
      +                          itches
  5684                           ; Switch size 1, requested type "simple"
  5685                           ; Number of cases is 1, Range of values is 0 to 0
  5686                           ; switch strategies available:
  5687                           ; Name         Instructions Cycles
  5688                           ; simple_byte            4     3 (average)
  5689                           ; direct_byte           11     8 (fixed)
  5690                           ; jumptable            260     6 (fixed)
  5691                           ;	Chosen strategy is simple_byte
  5692  06E7  0839               	movf	??_main+1,w
  5693  06E8  3A00               	xorlw	0	; case 0
  5694  06E9  1903               	skipnz
  5695  06EA  2EEC               	goto	l3552
  5696  06EB  2F00               	goto	l3414
  5697  06EC                     l3552:
  5698                           
  5699                           ; Switch size 1, requested type "simple"
  5700                           ; Number of cases is 6, Range of values is 49 to 54
  5701                           ; switch strategies available:
  5702                           ; Name         Instructions Cycles
  5703                           ; simple_byte           19    10 (average)
  5704                           ; direct_byte           29    11 (fixed)
  5705                           ; jumptable            263     9 (fixed)
  5706                           ;	Chosen strategy is simple_byte
  5707  06EC  0838               	movf	??_main,w
  5708  06ED  3A31               	xorlw	49	; case 49
  5709  06EE  1903               	skipnz
  5710  06EF  2A2D               	goto	l3200
  5711  06F0  3A03               	xorlw	3	; case 50
  5712  06F1  1903               	skipnz
  5713  06F2  2ACE               	goto	l3228
  5714  06F3  3A01               	xorlw	1	; case 51
  5715  06F4  1903               	skipnz
  5716  06F5  2B6B               	goto	l3256
  5717  06F6  3A07               	xorlw	7	; case 52
  5718  06F7  1903               	skipnz
  5719  06F8  2C08               	goto	l3284
  5720  06F9  3A01               	xorlw	1	; case 53
  5721  06FA  1903               	skipnz
  5722  06FB  2CFC               	goto	l3326
  5723  06FC  3A03               	xorlw	3	; case 54
  5724  06FD  1903               	skipnz
  5725  06FE  2DF0               	goto	l3368
  5726  06FF  2F00               	goto	l3414
  5727  0700                     l3414:
  5728                           
  5729                           ;PROYECTO.c: 488:        valor = '0';
  5730  0700  3030               	movlw	48
  5731  0701  00B8               	movwf	??_main
  5732  0702  0838               	movf	??_main,w
  5733  0703  00B7               	movwf	_valor
  5734  0704                     l3416:
  5735                           
  5736                           ;PROYECTO.c: 490:        if (RB7==0 && RB3==1 && RB4==0){
  5737  0704  1B86               	btfsc	6,7	;volatile
  5738  0705  2F07               	goto	u4101
  5739  0706  2F08               	goto	u4100
  5740  0707                     u4101:
  5741  0707  2F19               	goto	l293
  5742  0708                     u4100:
  5743  0708                     l3418:
  5744  0708  1D86               	btfss	6,3	;volatile
  5745  0709  2F0B               	goto	u4111
  5746  070A  2F0C               	goto	u4110
  5747  070B                     u4111:
  5748  070B  2F19               	goto	l293
  5749  070C                     u4110:
  5750  070C                     l3420:
  5751  070C  1A06               	btfsc	6,4	;volatile
  5752  070D  2F0F               	goto	u4121
  5753  070E  2F10               	goto	u4120
  5754  070F                     u4121:
  5755  070F  2F19               	goto	l293
  5756  0710                     u4120:
  5757  0710                     l3422:
  5758                           
  5759                           ;PROYECTO.c: 491:            me_3_us3_m = minuto;
  5760  0710  0874               	movf	_minuto,w
  5761  0711  00B8               	movwf	??_main
  5762  0712  0838               	movf	??_main,w
  5763  0713  00A0               	movwf	_me_3_us3_m
  5764                           
  5765                           ;PROYECTO.c: 492:            me_3_us3_h = hora;
  5766  0714  0875               	movf	_hora,w
  5767  0715  00B8               	movwf	??_main
  5768  0716  0838               	movf	??_main,w
  5769  0717  00A9               	movwf	_me_3_us3_h
  5770                           
  5771                           ;PROYECTO.c: 493:        }else if (RB7==0 && RB3==0 && RB4==1){
  5772  0718  2F42               	goto	l3436
  5773  0719                     l293:
  5774  0719  1B86               	btfsc	6,7	;volatile
  5775  071A  2F1C               	goto	u4131
  5776  071B  2F1D               	goto	u4130
  5777  071C                     u4131:
  5778  071C  2F2E               	goto	l295
  5779  071D                     u4130:
  5780  071D                     l3424:
  5781  071D  1986               	btfsc	6,3	;volatile
  5782  071E  2F20               	goto	u4141
  5783  071F  2F21               	goto	u4140
  5784  0720                     u4141:
  5785  0720  2F2E               	goto	l295
  5786  0721                     u4140:
  5787  0721                     l3426:
  5788  0721  1E06               	btfss	6,4	;volatile
  5789  0722  2F24               	goto	u4151
  5790  0723  2F25               	goto	u4150
  5791  0724                     u4151:
  5792  0724  2F2E               	goto	l295
  5793  0725                     u4150:
  5794  0725                     l3428:
  5795                           
  5796                           ;PROYECTO.c: 494:            me_2_us3_m = minuto;
  5797  0725  0874               	movf	_minuto,w
  5798  0726  00B8               	movwf	??_main
  5799  0727  0838               	movf	??_main,w
  5800  0728  00A1               	movwf	_me_2_us3_m
  5801                           
  5802                           ;PROYECTO.c: 495:            me_2_us3_h = hora;
  5803  0729  0875               	movf	_hora,w
  5804  072A  00B8               	movwf	??_main
  5805  072B  0838               	movf	??_main,w
  5806  072C  00AA               	movwf	_me_2_us3_h
  5807                           
  5808                           ;PROYECTO.c: 496:        }else if (RB7==0 && RB3==0 && RB4==0){
  5809  072D  2F42               	goto	l3436
  5810  072E                     l295:
  5811  072E  1B86               	btfsc	6,7	;volatile
  5812  072F  2F31               	goto	u4161
  5813  0730  2F32               	goto	u4160
  5814  0731                     u4161:
  5815  0731  2F42               	goto	l3436
  5816  0732                     u4160:
  5817  0732                     l3430:
  5818  0732  1986               	btfsc	6,3	;volatile
  5819  0733  2F35               	goto	u4171
  5820  0734  2F36               	goto	u4170
  5821  0735                     u4171:
  5822  0735  2F42               	goto	l3436
  5823  0736                     u4170:
  5824  0736                     l3432:
  5825  0736  1A06               	btfsc	6,4	;volatile
  5826  0737  2F39               	goto	u4181
  5827  0738  2F3A               	goto	u4180
  5828  0739                     u4181:
  5829  0739  2F42               	goto	l3436
  5830  073A                     u4180:
  5831  073A                     l3434:
  5832                           
  5833                           ;PROYECTO.c: 497:            me_1_us3_m = minuto;
  5834  073A  0874               	movf	_minuto,w
  5835  073B  00B8               	movwf	??_main
  5836  073C  0838               	movf	??_main,w
  5837  073D  00A2               	movwf	_me_1_us3_m
  5838                           
  5839                           ;PROYECTO.c: 498:            me_1_us3_h = hora;
  5840  073E  0875               	movf	_hora,w
  5841  073F  00B8               	movwf	??_main
  5842  0740  0838               	movf	??_main,w
  5843  0741  00AB               	movwf	_me_1_us3_h
  5844  0742                     l3436:
  5845                           
  5846                           ;PROYECTO.c: 501:        if (RB6==0 && RB3==1 && RB4==0){
  5847  0742  1B06               	btfsc	6,6	;volatile
  5848  0743  2F45               	goto	u4191
  5849  0744  2F46               	goto	u4190
  5850  0745                     u4191:
  5851  0745  2F57               	goto	l298
  5852  0746                     u4190:
  5853  0746                     l3438:
  5854  0746  1D86               	btfss	6,3	;volatile
  5855  0747  2F49               	goto	u4201
  5856  0748  2F4A               	goto	u4200
  5857  0749                     u4201:
  5858  0749  2F57               	goto	l298
  5859  074A                     u4200:
  5860  074A                     l3440:
  5861  074A  1A06               	btfsc	6,4	;volatile
  5862  074B  2F4D               	goto	u4211
  5863  074C  2F4E               	goto	u4210
  5864  074D                     u4211:
  5865  074D  2F57               	goto	l298
  5866  074E                     u4210:
  5867  074E                     l3442:
  5868                           
  5869                           ;PROYECTO.c: 502:            me_3_us2_m = minuto;
  5870  074E  0874               	movf	_minuto,w
  5871  074F  00B8               	movwf	??_main
  5872  0750  0838               	movf	??_main,w
  5873  0751  00A3               	movwf	_me_3_us2_m
  5874                           
  5875                           ;PROYECTO.c: 503:            me_3_us2_h = hora;
  5876  0752  0875               	movf	_hora,w
  5877  0753  00B8               	movwf	??_main
  5878  0754  0838               	movf	??_main,w
  5879  0755  00AC               	movwf	_me_3_us2_h
  5880                           
  5881                           ;PROYECTO.c: 504:        }else if (RB6==0 && RB3==0 && RB4==1){
  5882  0756  2F80               	goto	l3456
  5883  0757                     l298:
  5884  0757  1B06               	btfsc	6,6	;volatile
  5885  0758  2F5A               	goto	u4221
  5886  0759  2F5B               	goto	u4220
  5887  075A                     u4221:
  5888  075A  2F6C               	goto	l300
  5889  075B                     u4220:
  5890  075B                     l3444:
  5891  075B  1986               	btfsc	6,3	;volatile
  5892  075C  2F5E               	goto	u4231
  5893  075D  2F5F               	goto	u4230
  5894  075E                     u4231:
  5895  075E  2F6C               	goto	l300
  5896  075F                     u4230:
  5897  075F                     l3446:
  5898  075F  1E06               	btfss	6,4	;volatile
  5899  0760  2F62               	goto	u4241
  5900  0761  2F63               	goto	u4240
  5901  0762                     u4241:
  5902  0762  2F6C               	goto	l300
  5903  0763                     u4240:
  5904  0763                     l3448:
  5905                           
  5906                           ;PROYECTO.c: 505:            me_2_us2_m = minuto;
  5907  0763  0874               	movf	_minuto,w
  5908  0764  00B8               	movwf	??_main
  5909  0765  0838               	movf	??_main,w
  5910  0766  00A4               	movwf	_me_2_us2_m
  5911                           
  5912                           ;PROYECTO.c: 506:            me_2_us2_h = hora;
  5913  0767  0875               	movf	_hora,w
  5914  0768  00B8               	movwf	??_main
  5915  0769  0838               	movf	??_main,w
  5916  076A  00AD               	movwf	_me_2_us2_h
  5917                           
  5918                           ;PROYECTO.c: 507:        }else if (RB6==0 && RB3==0 && RB4==0){
  5919  076B  2F80               	goto	l3456
  5920  076C                     l300:
  5921  076C  1B06               	btfsc	6,6	;volatile
  5922  076D  2F6F               	goto	u4251
  5923  076E  2F70               	goto	u4250
  5924  076F                     u4251:
  5925  076F  2F80               	goto	l3456
  5926  0770                     u4250:
  5927  0770                     l3450:
  5928  0770  1986               	btfsc	6,3	;volatile
  5929  0771  2F73               	goto	u4261
  5930  0772  2F74               	goto	u4260
  5931  0773                     u4261:
  5932  0773  2F80               	goto	l3456
  5933  0774                     u4260:
  5934  0774                     l3452:
  5935  0774  1A06               	btfsc	6,4	;volatile
  5936  0775  2F77               	goto	u4271
  5937  0776  2F78               	goto	u4270
  5938  0777                     u4271:
  5939  0777  2F80               	goto	l3456
  5940  0778                     u4270:
  5941  0778                     l3454:
  5942                           
  5943                           ;PROYECTO.c: 508:            me_1_us2_m = minuto;
  5944  0778  0874               	movf	_minuto,w
  5945  0779  00B8               	movwf	??_main
  5946  077A  0838               	movf	??_main,w
  5947  077B  00A5               	movwf	_me_1_us2_m
  5948                           
  5949                           ;PROYECTO.c: 509:            me_1_us2_h = hora;
  5950  077C  0875               	movf	_hora,w
  5951  077D  00B8               	movwf	??_main
  5952  077E  0838               	movf	??_main,w
  5953  077F  00AE               	movwf	_me_1_us2_h
  5954  0780                     l3456:
  5955                           
  5956                           ;PROYECTO.c: 512:        if (RB5==0 && RB3==0 && RB4==1){
  5957  0780  1A86               	btfsc	6,5	;volatile
  5958  0781  2F83               	goto	u4281
  5959  0782  2F84               	goto	u4280
  5960  0783                     u4281:
  5961  0783  2F95               	goto	l303
  5962  0784                     u4280:
  5963  0784                     l3458:
  5964  0784  1986               	btfsc	6,3	;volatile
  5965  0785  2F87               	goto	u4291
  5966  0786  2F88               	goto	u4290
  5967  0787                     u4291:
  5968  0787  2F95               	goto	l303
  5969  0788                     u4290:
  5970  0788                     l3460:
  5971  0788  1E06               	btfss	6,4	;volatile
  5972  0789  2F8B               	goto	u4301
  5973  078A  2F8C               	goto	u4300
  5974  078B                     u4301:
  5975  078B  2F95               	goto	l303
  5976  078C                     u4300:
  5977  078C                     l3462:
  5978                           
  5979                           ;PROYECTO.c: 513:            me_3_us1_m = minuto;
  5980  078C  0874               	movf	_minuto,w
  5981  078D  00B8               	movwf	??_main
  5982  078E  0838               	movf	??_main,w
  5983  078F  00A6               	movwf	_me_3_us1_m
  5984                           
  5985                           ;PROYECTO.c: 514:            me_3_us1_h = hora;
  5986  0790  0875               	movf	_hora,w
  5987  0791  00B8               	movwf	??_main
  5988  0792  0838               	movf	??_main,w
  5989  0793  00AF               	movwf	_me_3_us1_h
  5990                           
  5991                           ;PROYECTO.c: 515:        }else if (RB5==0 && RB3==1 && RB4==0){
  5992  0794  2FBF               	goto	l304
  5993  0795                     l303:
  5994  0795  1A86               	btfsc	6,5	;volatile
  5995  0796  2F98               	goto	u4311
  5996  0797  2F99               	goto	u4310
  5997  0798                     u4311:
  5998  0798  2FAA               	goto	l305
  5999  0799                     u4310:
  6000  0799                     l3464:
  6001  0799  1D86               	btfss	6,3	;volatile
  6002  079A  2F9C               	goto	u4321
  6003  079B  2F9D               	goto	u4320
  6004  079C                     u4321:
  6005  079C  2FAA               	goto	l305
  6006  079D                     u4320:
  6007  079D                     l3466:
  6008  079D  1A06               	btfsc	6,4	;volatile
  6009  079E  2FA0               	goto	u4331
  6010  079F  2FA1               	goto	u4330
  6011  07A0                     u4331:
  6012  07A0  2FAA               	goto	l305
  6013  07A1                     u4330:
  6014  07A1                     l3468:
  6015                           
  6016                           ;PROYECTO.c: 516:            me_2_us1_m = minuto;
  6017  07A1  0874               	movf	_minuto,w
  6018  07A2  00B8               	movwf	??_main
  6019  07A3  0838               	movf	??_main,w
  6020  07A4  00A7               	movwf	_me_2_us1_m
  6021                           
  6022                           ;PROYECTO.c: 517:            me_2_us1_h = hora;
  6023  07A5  0875               	movf	_hora,w
  6024  07A6  00B8               	movwf	??_main
  6025  07A7  0838               	movf	??_main,w
  6026  07A8  00B0               	movwf	_me_2_us1_h
  6027                           
  6028                           ;PROYECTO.c: 518:        }else if (RB5==0 && RB3==0 && RB4==0){
  6029  07A9  2FBF               	goto	l304
  6030  07AA                     l305:
  6031  07AA  1A86               	btfsc	6,5	;volatile
  6032  07AB  2FAD               	goto	u4341
  6033  07AC  2FAE               	goto	u4340
  6034  07AD                     u4341:
  6035  07AD  2FBF               	goto	l304
  6036  07AE                     u4340:
  6037  07AE                     l3470:
  6038  07AE  1986               	btfsc	6,3	;volatile
  6039  07AF  2FB1               	goto	u4351
  6040  07B0  2FB2               	goto	u4350
  6041  07B1                     u4351:
  6042  07B1  2FBF               	goto	l304
  6043  07B2                     u4350:
  6044  07B2                     l3472:
  6045  07B2  1A06               	btfsc	6,4	;volatile
  6046  07B3  2FB5               	goto	u4361
  6047  07B4  2FB6               	goto	u4360
  6048  07B5                     u4361:
  6049  07B5  2FBF               	goto	l304
  6050  07B6                     u4360:
  6051  07B6                     l3474:
  6052                           
  6053                           ;PROYECTO.c: 519:            me_1_us1_m = minuto;
  6054  07B6  0874               	movf	_minuto,w
  6055  07B7  00B8               	movwf	??_main
  6056  07B8  0838               	movf	??_main,w
  6057  07B9  00A8               	movwf	_me_1_us1_m
  6058                           
  6059                           ;PROYECTO.c: 520:            me_1_us1_h = hora;
  6060  07BA  0875               	movf	_hora,w
  6061  07BB  00B8               	movwf	??_main
  6062  07BC  0838               	movf	??_main,w
  6063  07BD  00B1               	movwf	_me_1_us1_h
  6064  07BE  2FBF               	goto	l304
  6065  07BF                     l304:
  6066  07BF  120A  158A  2D80   	goto	l2966
  6067  07C2  120A  118A  280C   	ljmp	start
  6068  07C5                     __end_of_main:

Data Sizes:
    Strings     743
    Constant    0
    Data        0
    BSS         30
    Persistent  0
    Stack       0

Auto Spaces:
    Space          Size  Autos    Used
    COMMON           14      6      12
    BANK0            80      2      26
    BANK1            80      0       0
    BANK3            96      0       0
    BANK2            96      0       0

Pointer List with Targets:

    USART_Cadena@str	PTR unsigned char  size(2) Largest target is 52
		 -> STR_87(CODE[3]), STR_86(CODE[3]), STR_85(CODE[3]), STR_84(CODE[3]), 
		 -> STR_83(CODE[2]), STR_82(CODE[26]), STR_81(CODE[48]), STR_80(CODE[43]), 
		 -> STR_79(CODE[3]), STR_78(CODE[3]), STR_77(CODE[36]), STR_76(CODE[44]), 
		 -> STR_75(CODE[3]), STR_74(CODE[3]), STR_73(CODE[48]), STR_72(CODE[48]), 
		 -> STR_71(CODE[52]), STR_70(CODE[39]), STR_69(CODE[26]), STR_68(CODE[48]), 
		 -> STR_67(CODE[43]), STR_66(CODE[3]), STR_65(CODE[3]), STR_64(CODE[36]), 
		 -> STR_63(CODE[44]), STR_62(CODE[3]), STR_61(CODE[3]), STR_60(CODE[48]), 
		 -> STR_59(CODE[48]), STR_58(CODE[52]), STR_57(CODE[39]), STR_56(CODE[26]), 
		 -> STR_55(CODE[48]), STR_54(CODE[43]), STR_53(CODE[3]), STR_52(CODE[3]), 
		 -> STR_51(CODE[36]), STR_50(CODE[44]), STR_49(CODE[3]), STR_48(CODE[3]), 
		 -> STR_47(CODE[48]), STR_46(CODE[48]), STR_45(CODE[52]), STR_44(CODE[39]), 
		 -> STR_43(CODE[32]), STR_42(CODE[7]), STR_41(CODE[8]), STR_40(CODE[11]), 
		 -> STR_39(CODE[31]), STR_38(CODE[7]), STR_37(CODE[8]), STR_36(CODE[11]), 
		 -> STR_35(CODE[31]), STR_34(CODE[7]), STR_33(CODE[8]), STR_32(CODE[11]), 
		 -> STR_31(CODE[32]), STR_30(CODE[7]), STR_29(CODE[8]), STR_28(CODE[11]), 
		 -> STR_27(CODE[31]), STR_26(CODE[7]), STR_25(CODE[8]), STR_24(CODE[11]), 
		 -> STR_23(CODE[31]), STR_22(CODE[7]), STR_21(CODE[8]), STR_20(CODE[11]), 
		 -> STR_19(CODE[32]), STR_18(CODE[7]), STR_17(CODE[8]), STR_16(CODE[11]), 
		 -> STR_15(CODE[31]), STR_14(CODE[7]), STR_13(CODE[8]), STR_12(CODE[11]), 
		 -> STR_11(CODE[31]), STR_10(CODE[7]), STR_9(CODE[8]), STR_8(CODE[11]), 
		 -> STR_7(CODE[37]), STR_6(CODE[34]), STR_5(CODE[35]), STR_4(CODE[31]), 
		 -> STR_3(CODE[29]), STR_2(CODE[30]), STR_1(CODE[31]), 


Critical Paths under _main in COMMON

    _main->_CharToNumH
    _main->_SendCharM
    _SendCharM->_USART_Cadena
    _USART_Cadena->_USART_Tx

Critical Paths under _isr in COMMON

    None.

Critical Paths under _main in BANK0

    None.

Critical Paths under _isr in BANK0

    None.

Critical Paths under _main in BANK1

    None.

Critical Paths under _isr in BANK1

    None.

Critical Paths under _main in BANK3

    None.

Critical Paths under _isr in BANK3

    None.

Critical Paths under _main in BANK2

    None.

Critical Paths under _isr in BANK2

    None.

Call Graph Tables:

 ---------------------------------------------------------------------------------
 (Depth) Function   	        Calls       Base Space   Used Autos Params    Refs
 ---------------------------------------------------------------------------------
 (0) _main                                                 2     2      0   14152
                                              0 BANK0      2     2      0
                         _CharToNumH
                         _CharToNumM
                          _SendCharH
                          _SendCharM
                       _USART_Cadena
                           _USART_Rx
 ---------------------------------------------------------------------------------
 (1) _USART_Rx                                             0     0      0       0
 ---------------------------------------------------------------------------------
 (1) _SendCharM                                            1     1      0    6789
                                              5 COMMON     1     1      0
                       _USART_Cadena
 ---------------------------------------------------------------------------------
 (1) _USART_Cadena                                         2     0      2    6679
                                              3 COMMON     2     0      2
                           _USART_Tx
 ---------------------------------------------------------------------------------
 (2) _USART_Tx                                             1     1      0      22
                                              2 COMMON     1     1      0
 ---------------------------------------------------------------------------------
 (1) _SendCharH                                            3     3      0      22
                                              2 COMMON     3     3      0
 ---------------------------------------------------------------------------------
 (1) _CharToNumM                                           3     2      1     365
                                              2 COMMON     3     2      1
 ---------------------------------------------------------------------------------
 (1) _CharToNumH                                           4     3      1     297
                                              2 COMMON     4     3      1
 ---------------------------------------------------------------------------------
 Estimated maximum stack depth 2
 ---------------------------------------------------------------------------------
 (Depth) Function   	        Calls       Base Space   Used Autos Params    Refs
 ---------------------------------------------------------------------------------
 (4) _isr                                                  2     2      0       0
                                              0 COMMON     2     2      0
 ---------------------------------------------------------------------------------
 Estimated maximum stack depth 4
 ---------------------------------------------------------------------------------

 Call Graph Graphs:

 _main (ROOT)
   _CharToNumH
   _CharToNumM
   _SendCharH
   _SendCharM
     _USART_Cadena
       _USART_Tx
   _USART_Cadena
     _USART_Tx
   _USART_Rx

 _isr (ROOT)

 Address spaces:
Name               Size   Autos  Total    Cost      Usage
BITCOMMON            E      0       0       0        0.0%
EEDATA             100      0       0       0        0.0%
NULL                 0      0       0       0        0.0%
CODE                 0      0       0       0        0.0%
COMMON               E      6       C       1       85.7%
BITSFR0              0      0       0       1        0.0%
SFR0                 0      0       0       1        0.0%
BITSFR1              0      0       0       2        0.0%
SFR1                 0      0       0       2        0.0%
STACK                0      0       0       2        0.0%
ABS                  0      0      26       3        0.0%
BITBANK0            50      0       0       4        0.0%
BITSFR3              0      0       0       4        0.0%
SFR3                 0      0       0       4        0.0%
BANK0               50      2      1A       5       32.5%
BITSFR2              0      0       0       5        0.0%
SFR2                 0      0       0       5        0.0%
BITBANK1            50      0       0       6        0.0%
BANK1               50      0       0       7        0.0%
BITBANK3            60      0       0       8        0.0%
BANK3               60      0       0       9        0.0%
BITBANK2            60      0       0      10        0.0%
BANK2               60      0       0      11        0.0%
DATA                 0      0      26      12        0.0%


Microchip Technology PIC Macro Assembler V2.31 build 20201012212115 
Symbol Table                                                                                   Fri May 28 13:17:23 2021

                      pc 0002                       fsr 0004                      l300 076C  
                    l303 0795                      l304 07BF                      l313 0BCF  
                    l305 07AA                      l402 0EF9                      l330 0E3D  
                    l226 01C7                      l170 01D5                      l420 0F22  
                    l316 0BD9                      l164 0D9A                      l413 0F11  
                    l325 0BFF                      l430 0F3D                      l406 0F00  
                    l166 0DB0                      l423 0F2C                      l351 0E74  
                    l343 0E5E                      l335 0E48                      l319 07FF  
                    l175 0E34                      l520 0D27                      l416 0F1B  
                    l168 0DC6                      l441 0F55                      l409 0F0A  
                    l434 0F44                      l451 0F70                      l427 0F33  
                    l371 0EAB                      l363 0E95                      l355 0E7F  
                    l347 0E69                      l339 0E53                      l532 07FB  
                    l524 07FA                      l444 0F5F                      l437 0F4E  
                    l381 0EC6                      l293 0719                      l462 0F88  
                    l374 0EB5                      l455 0F77                      l367 0EA0  
                    l359 0E8A                      l295 072E                      l528 07FA  
                    l472 0FA3                      l448 0F66                      l392 0EDE  
                    l465 0F92                      l385 0ECD                      l458 0F81  
                    l378 0EBC                      l490 0C56                      l298 0757  
                    l395 0EE8                      l475 0FFF                      l388 0ED7  
                    l484 0C56                      l469 0F99                      l478 0C01  
                    l399 0EEF                      l496 0C5B                      _RB0 0030  
                    _RB1 0031                      _RB2 0032                      _RB3 0033  
                    _RD0 0040                      _RB4 0034                      _RD1 0041  
                    _RB5 0035                      _RD2 0042                      _RB6 0036  
                    _RB7 0037                      _isr 0BBF                      fsr0 0004  
                    indf 0000               _CharToNumH 0C57               _CharToNumM 07C5  
                   l2010 0BDB                     l2020 0E3C                     l2004 0BCF  
                   l2012 0BE9                     l2030 0E6F                     l2022 0E43  
                   l2006 0BD5                     l2014 0BEF                     l2110 0C01  
                   l2200 07D4                     l2040 0EA6                     l2032 0E7A  
                   l2024 0E4E                     l2104 0FAA                     l2008 0BDA  
                   l2120 0C26                     l2112 0C07                     l2016 07FC  
                   l3000 0DD5                     l2210 07EF                     l2202 07D9  
                   l2050 0ED3                     l2042 0EB1                     l2034 0E85  
                   l2026 0E59                     l2130 0C4C                     l2122 0C2C  
                   l2114 0C0C                     l3010 0DF4                     l3002 0DD8  
                   l2140 0C68                     l2132 0C58                     l2212 07F5  
                   l2204 07DF                     l2036 0E90                     l2028 0E64  
                   l2124 0C36                     l2116 0C16                     l3100 00DA  
                   l3020 0E0D                     l3012 0DF6                     l3004 0DD9  
                   l2150 0C81                     l2142 0C6D                     l2134 0C59  
                   l2206 07E4                     l2070 0F28                     l2062 0F06  
                   l2054 0EE4                     l2046 0EC2                     l2038 0E9B  
                   l2126 0C3C                     l2118 0C1C                     l3110 00F6  
                   l3102 00DF                     l3030 0E29                     l3022 0E13  
                   l3014 0DFC                     l3006 0DDF                     l2160 0C9A  
                   l2152 0C86                     l2144 0C72                     l2136 0C5E  
                   l2208 07EA                     l2128 0C46                     l3200 022D  
                   l3120 0112                     l3112 00FC                     l3104 00E5  
                   l3040 0035                     l3032 0E2F                     l3024 0E18  
                   l3016 0E02                     l3008 0DEA                     l2170 0CB3  
                   l2162 0C9F                     l2154 0C8B                     l2146 0C77  
                   l2138 0C63                     l2090 0F7D                     l2082 0F5B  
                   l2074 0F39                     l2066 0F17                     l2058 0EF5  
                   l3210 0258                     l3202 0236                     l3130 012F  
                   l3122 0118                     l3114 0101                     l3106 00EB  
                   l3050 004C                     l3042 0037                     l3026 0E1E  
                   l3018 0E07                     l3034 0E34                     l2180 0CCC  
                   l2172 0CB8                     l2164 0CA4                     l2156 0C90  
                   l2148 0C7C                     l3300 0477                     l3220 028C  
                   l3212 0261                     l3204 023E                     l3140 014B  
                   l3132 0134                     l3124 011E                     l3116 0107  
                   l3108 00F0                     l3060 0068                     l3052 0052  
                   l3044 003D                     l3028 0E24                     l3036 0022  
                   l2174 0CBD                     l2166 0CA9                     l2158 0C95  
                   l2094 0F8E                     l2086 0F6C                     l2078 0F4A  
                   l3310 04BF                     l3302 0480                     l3230 02D7  
                   l3222 0295                     l3214 0272                     l3206 0247  
                   l3150 0167                     l3142 0151                     l3134 013A  
                   l3126 0123                     l3118 010D                     l3070 0085  
                   l3062 006E                     l3054 0057                     l3046 0043  
                   l3038 002B                     l2176 0CC2                     l2168 0CAE  
                   l2184 0CD1                     l3400 06BD                     l3320 04E4  
                   l3312 04C5                     l3304 048A                     l3240 0302  
                   l3232 02DF                     l3224 029E                     l3216 027B  
                   l3208 0250                     l3160 0184                     l3152 016D  
                   l3144 0156                     l3136 0140                     l3128 0129  
                   l3080 00A1                     l3072 008A                     l3064 0074  
                   l3056 005D                     l3048 0046                     l2178 0CC7  
                   l2186 0D26                     l2194 07C6                     l2098 0F9F  
                   l3402 06C6                     l3330 0526                     l3322 04ED  
                   l3314 04CF                     l3306 0493                     l3250 0336  
                   l3242 0313                     l3234 02E8                     l3226 02C9  
                   l3218 0284                     l3170 01A0                     l3162 0189  
                   l3154 0173                     l3146 015C                     l3138 0145  
                   l3090 00BD                     l3082 00A7                     l3074 0090  
                   l3066 0079                     l3058 0063                     l2196 07CC  
                   l3420 070C                     l3404 06CC                     l3340 0565  
                   l3332 052F                     l3324 04F3                     l3316 04D5  
                   l3308 04A4                     l3260 037C                     l3252 033F  
                   l3244 031C                     l3236 02F1                     l3228 02CE  
                   l3412 06E4                     l3180 01BC                     l3172 01A6  
                   l3164 018F                     l3156 0178                     l3148 0162  
                   l3092 00C3                     l3084 00AC                     l3076 0096  
                   l3068 007F                     l2198 07CE                     l3430 0732  
                   l3422 0710                     l3406 06D5                     l3350 0598  
                   l3342 056B                     l3334 0539                     l3326 04FC  
                   l3318 04DE                     l3270 03B0                     l3262 0385  
                   l3246 0325                     l3238 02F9                     l3414 0700  
                   l3190 01DA                     l3182 01C2                     l3174 01AB  
                   l3166 0195                     l3158 017E                     l3094 00C9  
                   l3086 00B2                     l3078 009B                     l3440 074A  
                   l3432 0736                     l3424 071D                     l3416 0704  
                   l3408 06DB                     l3360 05D2                     l3352 05B3  
                   l3344 0574                     l3336 0542                     l3328 0520  
                   l3280 03DC                     l3272 03B9                     l3264 038E  
                   l3256 036B                     l3248 032D                     l3192 0219  
                   l3176 01B1                     l3168 019A                     l3096 00CE  
                   l3088 00B8                     l3184 01C7                     l3450 0770  
                   l3442 074E                     l3434 073A                     l3426 0721  
                   l3418 0708                     l3370 0614                     l3362 05D8  
                   l3354 05B9                     l3346 057E                     l3338 0553  
                   l3290 043B                     l3274 03C2                     l3266 0396  
                   l3258 0374                     l3194 021C                     l3178 01B7  
                   l3098 00D4                     l3186 01CB                     l3460 0788  
                   l3452 0774                     l3444 075B                     l3428 0725  
                   l3436 0742                     l3380 0647                     l3372 061A  
                   l3364 05E1                     l3356 05C3                     l3348 0587  
                   l3292 0445                     l3284 0408                     l3276 03CA  
                   l3268 039F                     l3196 0220                     l3188 01D2  
                   l2900 0D3B                     l3470 07AE                     l3462 078C  
                   l3454 0778                     l3446 075F                     l3438 0746  
                   l3390 067B                     l3382 0659                     l3374 0623  
                   l3366 05E7                     l3358 05C9                     l3294 044E  
                   l3286 042C                     l3278 03D3                     l3198 022A  
                   l2910 0D4D                     l2902 0D3F                     l3472 07B2  
                   l3464 0799                     l3448 0763                     l3456 0780  
                   l3552 06EC                     l3392 068C                     l3384 065F  
                   l3376 062D                     l3368 05F0                     l3296 045F  
                   l3288 0432                     l2920 0D56                     l2912 0D4E  
                   l2904 0D46                     l3554 0FB2                     l3474 07B6  
                   l3466 079D                     l3458 0784                     l3394 06A7  
                   l3386 0668                     l3378 0636                     l3298 0471  
                   l2930 0D62                     l2922 0D57                     l2914 0D4F  
                   l2906 0D49                     l3556 0CD9                     l3468 07A1  
                   l3396 06AD                     l3388 0672                     l2940 0D6E  
                   l2932 0D63                     l2924 0D58                     l2916 0D50  
                   l2908 0D4C                     l3398 06B7                     l2950 0D75  
                   l2942 0D6F                     l2934 0D66                     l2926 0D5B  
                   l2918 0D51                     l2960 0D7C                     l2952 0D76  
                   l2944 0D70                     l2936 0D6A                     l2928 0D5F  
                   l2970 0D88                     l2962 0D7D                     l2954 0D79  
                   l2946 0D73                     l2938 0D6B                     l2890 0D34  
                   l2980 0D9F                     l2972 0D89                     l2964 0D7E  
                   l2956 0D7A                     l2948 0D74                     l2892 0D35  
                   l2884 0D28                     l2990 0DBF                     l2982 0DA9  
                   l2974 0D93                     l2966 0D80                     l2958 0D7B  
                   l2894 0D36                     l2886 0D2F                     l2992 0DC4  
                   l2984 0DAE                     l2976 0D98                     l2968 0D84  
                   l2896 0D37                     l2888 0D31                     l2994 0DC9  
                   l2986 0DB4                     l2978 0D9E                     l2898 0D3A  
                   l2996 0DD1                     l2988 0DB5                     l2998 0DD4  
                   ?_isr 0076                     STR_1 0A2E                     STR_2 0A6C  
                   STR_3 0A8A                     STR_4 0A4D                     STR_5 098B  
                   STR_6 09AE                     STR_7 0942                     STR_8 0AC1  
                   STR_9 0ACC                     _T0IF 005A                     u2000 0F7D  
                   u2001 0F7C                     u2010 0F87                     u2011 0F86  
                   u2020 0F8E                     u2100 0C3C                     u2021 0F8D  
                   u2101 0C3B                     u2030 0F98                     u2110 0C4C  
                   u2031 0F97                     u2111 0C4B                     u2120 07CC  
                   u2040 0F9F                     u2121 07CB                     u2041 0F9E  
                   u2130 07D4                     u2050 0FA9                     u2131 07D3  
                   u2051 0FA8                     u2140 07DF                     u2060 0C07  
                   u2141 07DE                     u2061 0C06                     u2150 07EA  
                   u2070 0C0C                     u2151 07E9                     u2071 0C0B  
                   u2160 07F5                     u2080 0C1C                     u4000 05B9  
                   u2161 07F4                     u2081 0C1B                     u4001 05B8  
                   u2090 0C2C                     u4010 05C9                     u2091 0C2B  
                   u4011 05C8                     u1700 0E6F                     u4100 0708  
                   u4020 05D8                     u3300 0DB4                     u1701 0E6E  
                   u4101 0707                     u4021 05D7                     u3301 0DB3  
                   u1710 0E7A                     u4110 070C                     u4030 05E7  
                   u3310 0DDF                     u1711 0E79                     u4111 070B  
                   u4031 05E6                     u3311 0DDC                     u1800 0ED3  
                   u1720 0E85                     u1640 0BD5                     u4200 074A  
                   u4120 0710                     u4040 061A                     u3400 0E2F  
                   u3320 0DEA                     u1801 0ED2                     u1721 0E84  
                   u1641 0BD4                     u4201 0749                     u4121 070F  
                   u4041 0619                     u3401 0E2E                     u3321 0DE7  
                   u1810 0EDD                     u1730 0E90                     u1650 0BFF  
                   u4210 074E                     u4130 071D                     u4050 065F  
                   u3410 002B                     u3330 0DF4                     u1811 0EDC  
                   u1731 0E8F                     u1651 0BFE                     u4211 074D  
                   u4131 071C                     u4051 065E                     u3411 002A  
                   u3331 0DF3                     u1900 0F28                     u1820 0EE4  
                   u1740 0E9B                     u1660 0E43                     u4300 078C  
                   u4220 075B                     u4140 0721                     u4060 06AD  
                   u3500 0074                     u3420 0035                     u3340 0DFC  
                   u1901 0F27                     u1821 0EE3                     u1741 0E9A  
                   u1661 0E42                     u4301 078B                     u4221 075A  
                   u4141 0720                     u4061 06AC                     u3501 0073  
                   u3421 0034                     u3341 0DFB                     u1910 0F32  
                   u1830 0EEE                     u1750 0EA6                     u1670 0E4E  
                   u4310 0799                     u4230 075F                     u4150 0725  
                   u4070 06BD                     u3510 007F                     u3430 003D  
                   u3350 0E02                     u3270 0D84                     u1911 0F31  
                   u1831 0EED                     u1751 0EA5                     u1671 0E4D  
                   u4311 0798                     u4231 075E                     u4151 0724  
                   u4071 06BC                     u3511 007E                     u3431 003C  
                   u3351 0E01                     u3271 0D83                     u1920 0F39  
                   u1840 0EF5                     u1760 0EB1                     u1680 0E59  
                   u4320 079D                     u4240 0763                     u4160 0732  
                   u4080 06CC                     u3600 00C9                     u3520 0085  
                   u3440 0043                     u3360 0E0D                     u3280 0D88  
                   u1921 0F38                     u1841 0EF4                     u1761 0EB0  
                   u1681 0E58                     u4321 079C                     u4241 0762  
                   u4161 0731                     u4081 06CB                     u3601 00C8  
                   u3521 0084                     u3441 0042                     u3361 0E0C  
                   u3281 0D87                     u1930 0F43                     u1850 0EFF  
                   u1770 0EBB                     u1690 0E64                     u4330 07A1  
                   u4250 0770                     u4170 0736                     u4090 06DB  
                   u3610 00D4                     u3530 0090                     u3450 004C  
                   u3370 0E13                     u3290 0D9E                     u1931 0F42  
                   u1851 0EFE                     u1771 0EBA                     u1691 0E63  
                   u4331 07A0                     u4251 076F                     u4171 0735  
                   u4091 06DA                     u3611 00D3                     u3531 008F  
                   u3451 004B                     u3371 0E12                     u3291 0D9D  
                   u1940 0F4A                     u1860 0F06                     u1780 0EC2  
                   u4340 07AE                     u4260 0774                     u4180 073A  
                   u3700 011E                     u3620 00DA                     u3540 0096  
                   u3460 0052                     u3380 0E1E                     u1941 0F49  
                   u1861 0F05                     u1781 0EC1                     u4341 07AD  
                   u4261 0773                     u4181 0739                     u3701 011D  
                   u3621 00D9                     u3541 0095                     u3461 0051  
                   u3381 0E1D                     u1950 0F54                     u1870 0F10  
                   u1790 0ECC                     u4350 07B2                     u4270 0778  
                   u4190 0746                     u3710 0129                     u3630 00E5  
                   u3550 00A1                     u3470 005D                     u3390 0E24  
                   u1951 0F53                     u1871 0F0F                     u1791 0ECB  
                   u4351 07B1                     u4271 0777                     u4191 0745  
                   u3711 0128                     u3631 00E4                     u3551 00A0  
                   u3471 005C                     u3391 0E23                     u4407 0DBB  
                   u1960 0F5B                     u1880 0F17                     u4360 07B6  
                   u4280 0784                     u3800 0173                     u3720 012F  
                   u3640 00EB                     u3560 00A7                     u3480 0063  
                   u1961 0F5A                     u1881 0F16                     u4361 07B5  
                   u4281 0783                     u3801 0172                     u3721 012E  
                   u3641 00EA                     u3561 00A6                     u3481 0062  
                   u4417 0DCD                     u1970 0F65                     u1890 0F21  
                   u4290 0788                     u3810 017E                     u3730 013A  
                   u3650 00F6                     u3570 00B2                     u3490 006E  
                   u1971 0F64                     u1891 0F20                     u4291 0787  
                   u4427 01CF                     u3811 017D                     u3731 0139  
                   u3651 00F5                     u3571 00B1                     u3491 006D  
                   u1980 0F6C                     u3900 01DA                     u3820 0184  
                   u3740 0140                     u3660 00FC                     u3580 00B8  
                   u1981 0F6B                     u3901 01D9                     u3821 0183  
                   u3741 013F                     u3661 00FB                     u3581 00B7  
                   u1990 0F76                     u3910 0220                     u3830 018F  
                   u3750 014B                     u3670 0107                     u3590 00C3  
                   u1991 0F75                     u3911 021F                     u3831 018E  
                   u3751 014A                     u3671 0106                     u3591 00C2  
                   u3920 0432                     u3840 0195                     u3760 0151  
                   u3680 010D                     u3921 0431                     u3841 0194  
                   u3761 0150                     u3681 010C                     u4377 0D43  
                   u3930 0477                     u3850 01A0                     u3770 015C  
                   u3690 0118                     u3931 0476                     u3851 019F  
                   u3771 015B                     u3691 0117                     u4387 0D8F  
                   u3940 04C5                     u3860 01A6                     u3780 0162  
                   u3941 04C4                     u3861 01A5                     u3781 0161  
                   u4397 0DA5                     u3950 04D5                     u3870 01B1  
                   u3790 016D                     u3951 04D4                     u3871 01B0  
                   u3791 016C                     u3960 04E4                     u3880 01B7  
                   u3961 04E3                     u3881 01B6                     u3970 04F3  
                   u3890 01C2                     u3971 04F2                     u3891 01C1  
                   u3980 0526                     u3981 0525                     u3990 056B  
                   u3991 056A                     _TMR0 0001                     _main 0D28  
                   _hora 0075                     btemp 007E                     start 000C  
                  ??_isr 0076                    ?_main 0076                    STR_10 0AD4  
                  STR_11 09F0                    STR_20 0AC1                    STR_12 0AC1  
                  STR_21 0ACC                    STR_13 0ACC                    STR_30 0AD4  
                  STR_22 0AD4                    STR_14 0AD4                    STR_31 09D0  
                  STR_23 09F0                    STR_15 0A0F                    STR_40 0AC1  
                  STR_32 0AC1                    STR_24 0AC1                    STR_16 0AC1  
                  STR_41 0ACC                    STR_33 0ACC                    STR_25 0ACC  
                  STR_17 0ACC                    STR_42 0AD4                    STR_34 0AD4  
                  STR_26 0AD4                    STR_18 0AD4                    STR_50 08C4  
                  STR_43 09D0                    STR_35 09F0                    STR_27 0A0F  
                  STR_19 09D0                    STR_51 0967                    STR_52 0988  
                  STR_60 0864                    STR_36 0AC1                    STR_28 0AC1  
                  STR_44 091B                    STR_61 0988                    STR_53 0988  
                  STR_37 0ACC                    STR_29 0ACC                    STR_45 0800  
                  STR_62 0988                    STR_70 091B                    STR_38 0AD4  
                  STR_54 08F0                    STR_46 0894                    STR_63 08C4  
                  STR_39 0A0F                    STR_71 0800                    STR_47 0864  
                  STR_55 0834                    STR_48 0988                    STR_64 0967  
                  STR_72 0894                    STR_80 08F0                    STR_56 0AA7  
                  STR_65 0988                    STR_49 0988                    STR_57 091B  
                  STR_81 0834                    STR_73 0864                    STR_74 0988  
                  STR_66 0988                    STR_82 0AA7                    STR_58 0800  
                  STR_75 0988                    STR_59 0894                    STR_67 08F0  
                  STR_83 0ADC                    STR_76 08C4                    STR_68 0834  
                  STR_84 0ADE                    STR_77 0967                    STR_69 0AA7  
                  STR_85 0ADB                    STR_78 0988                    STR_86 0AE1  
                  STR_79 0988                    STR_87 0AE4                    _ANSEL 0188  
                  i1l157 0BBF                    _RCREG 001A                    _SPBRG 0099  
                  _PORTA 0005                    _PORTB 0006                    _PORTC 0007  
                  _PORTD 0008                    _PORTE 0009                    _TRISA 0085  
                  _TRISB 0086                    _TRISD 0088                    _TRISE 0089  
                  _TXREG 0019                    _valor 0037         __end_of_USART_Rx 0800  
       __end_of_USART_Tx 0BDA             USART_Tx@data 0078                    pclath 000A  
                  status 0003                    wtemp0 007E          __initialization 000F  
           __end_of_main 07C5                   ??_main 0038              ?_CharToNumH 0078  
            ?_CharToNumM 0078                   _ADRESH 001E                   _ANSELH 0189  
                 _SPBRGH 009A       __size_of_SendCharH 01C5       __size_of_SendCharM 0057  
                 _escala 0073                   _minuto 0074              SendCharH@in 007A  
            SendCharM@in 007B                   saved_w 007E  __end_of__initialization 001E  
         __pcstackCOMMON 0076      __size_of_CharToNumH 00D1      __size_of_CharToNumM 0037  
              ?_USART_Rx 0076                ?_USART_Tx 0076           _OPTION_REGbits 0081  
      __end_of_SendCharH 1000        __end_of_SendCharM 0C57               __pbssBANK0 0020  
             _me_1_us1_h 0031               _me_1_us2_h 002E               _me_1_us1_m 0028  
             _me_1_us3_h 002B               _me_1_us2_m 0025               _me_1_us3_m 0022  
             _me_2_us1_h 0030               _me_2_us2_h 002D               _me_2_us1_m 0027  
             _me_2_us3_h 002A               _me_2_us2_m 0024               _me_2_us3_m 0021  
             _me_3_us1_h 002F               _me_3_us2_h 002C               _me_3_us1_m 0026  
             _me_3_us3_h 0029               _me_3_us2_m 0023               _me_3_us3_m 0020  
             __pmaintext 0D28               __pintentry 0004               ??_USART_Rx 0078  
             ??_USART_Tx 0078               __stringtab 0AE7               _hora_nueva 0070  
             _hora_user1 0034               _hora_user2 0033               _hora_user3 0032  
                __ptext1 07FC                  __ptext2 0C00                  __ptext3 0BDA  
                __ptext4 0BCE                  __ptext5 0E3B                  __ptext6 07C5  
                __ptext7 0C57                  __ptext8 0BBF             __size_of_isr 0007  
                _ventana 0036             ??_CharToNumH 0079             ??_CharToNumM 0079  
                clrloop0 0BC7      CharToNumH@hora_user 0078     end_of_initialization 001E  
           CharToNumH@in 007B             CharToNumM@in 007A                _RCSTAbits 0018  
                psplit$0 A0015             __pstringtext 0800       __end_of_CharToNumH 0D28  
     __end_of_CharToNumM 07FC     pnum$maintext_split_1 0015            ?_USART_Cadena 0079  
              _TXSTAbits 0098              _BAUDCTLbits 0187        __size_of_USART_Rx 0004  
      __size_of_USART_Tx 000C      start_initialization 000F              __end_of_isr 0BC6  
         ??_USART_Cadena 007B                _SendCharH 0E3B                _SendCharM 0C00  
            __pbssCOMMON 0070                ___latbits 0002            __pcstackBANK0 0038  
             ?_SendCharH 0076               ?_SendCharM 0076                __pstrings 0AE7  
              _min_user1 0072                _min_user2 0071                _min_user3 0035  
      interrupt_function 0004                clear_ram0 0BC6                 _PIR1bits 000C  
        USART_Cadena@str 0079     __end_of_USART_Cadena 0C00                 _USART_Rx 07FC  
               _USART_Tx 0BCE               _ADCON0bits 001F              __stringbase 0AF9  
             _ADCON1bits 009F                 _WPUBbits 0095              ??_SendCharH 0078  
            ??_SendCharM 007B             pnum$maintext 000A       __end_of__stringtab 0AF9  
          __size_of_main FA9D               _INTCONbits 000B            CharToNumM@her 0078  
               intlevel1 0000                stringcode 0AF1    __size_of_USART_Cadena 0026  
             _OSCCONbits 008F                 stringtab 0AE7             _USART_Cadena 0BDA  
