

Microchip MPLAB XC8 Assembler V2.31 build 20201012212115 
                                                                                               Fri May 21 22:57:40 2021

Microchip MPLAB XC8 C Compiler v2.31 (Free license) build 20201012212115 Og1 
     1                           	processor	16F887
     2                           	pagewidth 120
     3                           	opt	flic
     4                           	psect	strings,global,class=STRING,delta=2,noexec
     5                           	psect	cinit,global,class=CODE,merge=1,delta=2
     6                           	psect	bssCOMMON,global,class=COMMON,space=1,delta=1,noexec
     7                           	psect	cstackCOMMON,global,class=COMMON,space=1,delta=1,noexec
     8                           	psect	maintext,global,class=CODE,split=1,delta=2
     9                           	psect	text1,local,class=CODE,merge=1,delta=2
    10                           	psect	text2,local,class=CODE,merge=1,delta=2
    11                           	psect	text3,local,class=CODE,merge=1,delta=2
    12                           	psect	text4,local,class=CODE,merge=1,delta=2
    13                           	psect	intentry,global,class=CODE,delta=2
    14                           	psect	config,global,abs,ovrld,class=CONFIG,space=4,delta=2,noexec
    15                           	dabs	1,0x7E,2
    16  0000                     
    17                           ; Version 2.20
    18                           ; Generated 12/02/2020 GMT
    19                           ; 
    20                           ; Copyright © 2020, Microchip Technology Inc. and its subsidiaries ("Microchip")
    21                           ; All rights reserved.
    22                           ; 
    23                           ; This software is developed by Microchip Technology Inc. and its subsidiaries ("Microch
      +                          ip").
    24                           ; 
    25                           ; Redistribution and use in source and binary forms, with or without modification, are
    26                           ; permitted provided that the following conditions are met:
    27                           ; 
    28                           ;     1. Redistributions of source code must retain the above copyright notice, this lis
      +                          t of
    29                           ;        conditions and the following disclaimer.
    30                           ; 
    31                           ;     2. Redistributions in binary form must reproduce the above copyright notice, this 
      +                          list
    32                           ;        of conditions and the following disclaimer in the documentation and/or other
    33                           ;        materials provided with the distribution.
    34                           ; 
    35                           ;     3. Microchip's name may not be used to endorse or promote products derived from th
      +                          is
    36                           ;        software without specific prior written permission.
    37                           ; 
    38                           ; THIS SOFTWARE IS PROVIDED BY MICROCHIP "AS IS" AND ANY EXPRESS OR IMPLIED WARRANTIES,
    39                           ; INCLUDING, BUT NOT LIMITED TO, THE IMPLIED WARRANTIES OF MERCHANTABILITY AND FITNESS F
      +                          OR
    40                           ; PURPOSE ARE DISCLAIMED.  IN NO EVENT SHALL MICROCHIP BE LIABLE FOR ANY DIRECT, INDIREC
      +                          T,
    41                           ; INCIDENTAL, SPECIAL, EXEMPLARY, OR CONSEQUENTIAL DAMAGES (INCLUDING BUT NOT LIMITED TO
    42                           ; PROCUREMENT OF SUBSTITUTE GOODS OR SERVICES; LOSS OF USE, DATA OR PROFITS; OR BUSINESS
    43                           ; INTERRUPTION) HOWSOEVER CAUSED AND ON ANY THEORY OF LIABILITY, WHETHER IN CONTRACT, ST
      +                          RICT
    44                           ; LIABILITY, OR TORT (INCLUDING NEGLIGENCE OR OTHERWISE) ARISING IN ANY WAY OUT OF THE U
      +                          SE OF
    45                           ; THIS SOFTWARE, EVEN IF ADVISED OF THE POSSIBILITY OF SUCH DAMAGE.
    46                           ; 
    47                           ; 
    48                           ; Code-generator required, PIC16F887 Definitions
    49                           ; 
    50                           ; SFR Addresses
    51  0000                     	;# 
    52  0001                     	;# 
    53  0002                     	;# 
    54  0003                     	;# 
    55  0004                     	;# 
    56  0005                     	;# 
    57  0006                     	;# 
    58  0007                     	;# 
    59  0008                     	;# 
    60  0009                     	;# 
    61  000A                     	;# 
    62  000B                     	;# 
    63  000C                     	;# 
    64  000D                     	;# 
    65  000E                     	;# 
    66  000E                     	;# 
    67  000F                     	;# 
    68  0010                     	;# 
    69  0011                     	;# 
    70  0012                     	;# 
    71  0013                     	;# 
    72  0014                     	;# 
    73  0015                     	;# 
    74  0015                     	;# 
    75  0016                     	;# 
    76  0017                     	;# 
    77  0018                     	;# 
    78  0019                     	;# 
    79  001A                     	;# 
    80  001B                     	;# 
    81  001B                     	;# 
    82  001C                     	;# 
    83  001D                     	;# 
    84  001E                     	;# 
    85  001F                     	;# 
    86  0081                     	;# 
    87  0085                     	;# 
    88  0086                     	;# 
    89  0087                     	;# 
    90  0088                     	;# 
    91  0089                     	;# 
    92  008C                     	;# 
    93  008D                     	;# 
    94  008E                     	;# 
    95  008F                     	;# 
    96  0090                     	;# 
    97  0091                     	;# 
    98  0092                     	;# 
    99  0093                     	;# 
   100  0093                     	;# 
   101  0093                     	;# 
   102  0094                     	;# 
   103  0095                     	;# 
   104  0096                     	;# 
   105  0097                     	;# 
   106  0098                     	;# 
   107  0099                     	;# 
   108  009A                     	;# 
   109  009B                     	;# 
   110  009C                     	;# 
   111  009D                     	;# 
   112  009E                     	;# 
   113  009F                     	;# 
   114  0105                     	;# 
   115  0107                     	;# 
   116  0108                     	;# 
   117  0109                     	;# 
   118  010C                     	;# 
   119  010C                     	;# 
   120  010D                     	;# 
   121  010E                     	;# 
   122  010F                     	;# 
   123  0185                     	;# 
   124  0187                     	;# 
   125  0188                     	;# 
   126  0189                     	;# 
   127  018C                     	;# 
   128  018D                     	;# 
   129  0000                     	;# 
   130  0001                     	;# 
   131  0002                     	;# 
   132  0003                     	;# 
   133  0004                     	;# 
   134  0005                     	;# 
   135  0006                     	;# 
   136  0007                     	;# 
   137  0008                     	;# 
   138  0009                     	;# 
   139  000A                     	;# 
   140  000B                     	;# 
   141  000C                     	;# 
   142  000D                     	;# 
   143  000E                     	;# 
   144  000E                     	;# 
   145  000F                     	;# 
   146  0010                     	;# 
   147  0011                     	;# 
   148  0012                     	;# 
   149  0013                     	;# 
   150  0014                     	;# 
   151  0015                     	;# 
   152  0015                     	;# 
   153  0016                     	;# 
   154  0017                     	;# 
   155  0018                     	;# 
   156  0019                     	;# 
   157  001A                     	;# 
   158  001B                     	;# 
   159  001B                     	;# 
   160  001C                     	;# 
   161  001D                     	;# 
   162  001E                     	;# 
   163  001F                     	;# 
   164  0081                     	;# 
   165  0085                     	;# 
   166  0086                     	;# 
   167  0087                     	;# 
   168  0088                     	;# 
   169  0089                     	;# 
   170  008C                     	;# 
   171  008D                     	;# 
   172  008E                     	;# 
   173  008F                     	;# 
   174  0090                     	;# 
   175  0091                     	;# 
   176  0092                     	;# 
   177  0093                     	;# 
   178  0093                     	;# 
   179  0093                     	;# 
   180  0094                     	;# 
   181  0095                     	;# 
   182  0096                     	;# 
   183  0097                     	;# 
   184  0098                     	;# 
   185  0099                     	;# 
   186  009A                     	;# 
   187  009B                     	;# 
   188  009C                     	;# 
   189  009D                     	;# 
   190  009E                     	;# 
   191  009F                     	;# 
   192  0105                     	;# 
   193  0107                     	;# 
   194  0108                     	;# 
   195  0109                     	;# 
   196  010C                     	;# 
   197  010C                     	;# 
   198  010D                     	;# 
   199  010E                     	;# 
   200  010F                     	;# 
   201  0185                     	;# 
   202  0187                     	;# 
   203  0188                     	;# 
   204  0189                     	;# 
   205  018C                     	;# 
   206  018D                     	;# 
   207  001A                     _RCREG	set	26
   208  0019                     _TXREG	set	25
   209  000C                     _PIR1bits	set	12
   210  001E                     _ADRESH	set	30
   211  0009                     _PORTE	set	9
   212  0008                     _PORTD	set	8
   213  0007                     _PORTC	set	7
   214  0006                     _PORTB	set	6
   215  0005                     _PORTA	set	5
   216  000B                     _INTCONbits	set	11
   217  0018                     _RCSTAbits	set	24
   218  0001                     _TMR0	set	1
   219  001F                     _ADCON0bits	set	31
   220  0042                     _RD2	set	66
   221  0032                     _RB2	set	50
   222  0041                     _RD1	set	65
   223  0031                     _RB1	set	49
   224  0040                     _RD0	set	64
   225  0030                     _RB0	set	48
   226  005A                     _T0IF	set	90
   227  009A                     _SPBRGH	set	154
   228  0099                     _SPBRG	set	153
   229  0098                     _TXSTAbits	set	152
   230  008F                     _OSCCONbits	set	143
   231  0095                     _WPUBbits	set	149
   232  0081                     _OPTION_REGbits	set	129
   233  009F                     _ADCON1bits	set	159
   234  0089                     _TRISE	set	137
   235  0088                     _TRISD	set	136
   236  0086                     _TRISB	set	134
   237  0085                     _TRISA	set	133
   238  0187                     _BAUDCTLbits	set	391
   239  0189                     _ANSELH	set	393
   240  0188                     _ANSEL	set	392
   241                           
   242                           	psect	strings
   243  0400                     __pstrings:
   244  0400                     stringtab:
   245  0400                     __stringtab:
   246  0400                     stringcode:	
   247                           ;	String table - string pointers are 1 byte each
   248                           
   249  0400                     stringdir:
   250  0400  3004               	movlw	high stringdir
   251  0401  008A               	movwf	10
   252  0402  0804               	movf	4,w
   253  0403  0A84               	incf	4,f
   254  0404  0782               	addwf	2,f
   255  0405                     __stringbase:
   256  0405  3400               	retlw	0
   257  0406                     __end_of__stringtab:
   258  0406                     STR_13:
   259  0406  3420               	retlw	32	;' '
   260  0407  346D               	retlw	109	;'m'
   261  0408  3469               	retlw	105	;'i'
   262  0409  346E               	retlw	110	;'n'
   263  040A  3473               	retlw	115	;'s'
   264  040B  342E               	retlw	46	;'.'
   265  040C  3420               	retlw	32	;' '
   266  040D  3470               	retlw	112	;'p'
   267  040E  3461               	retlw	97	;'a'
   268  040F  3472               	retlw	114	;'r'
   269  0410  3461               	retlw	97	;'a'
   270  0411  3420               	retlw	32	;' '
   271  0412  3465               	retlw	101	;'e'
   272  0413  346C               	retlw	108	;'l'
   273  0414  3420               	retlw	32	;' '
   274  0415  346D               	retlw	109	;'m'
   275  0416  3465               	retlw	101	;'e'
   276  0417  3464               	retlw	100	;'d'
   277  0418  3469               	retlw	105	;'i'
   278  0419  3463               	retlw	99	;'c'
   279  041A  3461               	retlw	97	;'a'
   280  041B  346D               	retlw	109	;'m'
   281  041C  3465               	retlw	101	;'e'
   282  041D  346E               	retlw	110	;'n'
   283  041E  3474               	retlw	116	;'t'
   284  041F  346F               	retlw	111	;'o'
   285  0420  3420               	retlw	32	;' '
   286  0421  3420               	retlw	32	;' '
   287  0422  340D               	retlw	13
   288  0423  340D               	retlw	13
   289  0424  3400               	retlw	0
   290  0425                     STR_1:
   291  0425  340D               	retlw	13
   292  0426  3420               	retlw	32	;' '
   293  0427  3451               	retlw	81	;'Q'
   294  0428  3475               	retlw	117	;'u'
   295  0429  3465               	retlw	101	;'e'
   296  042A  3420               	retlw	32	;' '
   297  042B  3461               	retlw	97	;'a'
   298  042C  3463               	retlw	99	;'c'
   299  042D  3463               	retlw	99	;'c'
   300  042E  3469               	retlw	105	;'i'
   301  042F  346F               	retlw	111	;'o'
   302  0430  346E               	retlw	110	;'n'
   303  0431  3420               	retlw	32	;' '
   304  0432  3464               	retlw	100	;'d'
   305  0433  3465               	retlw	101	;'e'
   306  0434  3473               	retlw	115	;'s'
   307  0435  3465               	retlw	101	;'e'
   308  0436  3461               	retlw	97	;'a'
   309  0437  3420               	retlw	32	;' '
   310  0438  3465               	retlw	101	;'e'
   311  0439  346A               	retlw	106	;'j'
   312  043A  3465               	retlw	101	;'e'
   313  043B  3463               	retlw	99	;'c'
   314  043C  3475               	retlw	117	;'u'
   315  043D  3474               	retlw	116	;'t'
   316  043E  3461               	retlw	97	;'a'
   317  043F  3472               	retlw	114	;'r'
   318  0440  343F               	retlw	63	;'?'
   319  0441  3420               	retlw	32	;' '
   320  0442  340D               	retlw	13
   321  0443  3400               	retlw	0
   322  0444                     STR_22:
   323  0444  3420               	retlw	32	;' '
   324  0445  3448               	retlw	72	;'H'
   325  0446  342E               	retlw	46	;'.'
   326  0447  3420               	retlw	32	;' '
   327  0448  3470               	retlw	112	;'p'
   328  0449  3461               	retlw	97	;'a'
   329  044A  3472               	retlw	114	;'r'
   330  044B  3461               	retlw	97	;'a'
   331  044C  3420               	retlw	32	;' '
   332  044D  3465               	retlw	101	;'e'
   333  044E  346C               	retlw	108	;'l'
   334  044F  3420               	retlw	32	;' '
   335  0450  346D               	retlw	109	;'m'
   336  0451  3465               	retlw	101	;'e'
   337  0452  3464               	retlw	100	;'d'
   338  0453  3469               	retlw	105	;'i'
   339  0454  3463               	retlw	99	;'c'
   340  0455  3461               	retlw	97	;'a'
   341  0456  346D               	retlw	109	;'m'
   342  0457  3465               	retlw	101	;'e'
   343  0458  346E               	retlw	110	;'n'
   344  0459  3474               	retlw	116	;'t'
   345  045A  346F               	retlw	111	;'o'
   346  045B  3420               	retlw	32	;' '
   347  045C  3420               	retlw	32	;' '
   348  045D  340D               	retlw	13
   349  045E  3400               	retlw	0
   350  045F                     STR_4:
   351  045F  3433               	retlw	51	;'3'
   352  0460  3429               	retlw	41	;')'
   353  0461  3420               	retlw	32	;' '
   354  0462  3476               	retlw	118	;'v'
   355  0463  3465               	retlw	101	;'e'
   356  0464  3472               	retlw	114	;'r'
   357  0465  3420               	retlw	32	;' '
   358  0466  3464               	retlw	100	;'d'
   359  0467  3461               	retlw	97	;'a'
   360  0468  3474               	retlw	116	;'t'
   361  0469  346F               	retlw	111	;'o'
   362  046A  3473               	retlw	115	;'s'
   363  046B  3420               	retlw	32	;' '
   364  046C  3464               	retlw	100	;'d'
   365  046D  3465               	retlw	101	;'e'
   366  046E  3420               	retlw	32	;' '
   367  046F  3461               	retlw	97	;'a'
   368  0470  346D               	retlw	109	;'m'
   369  0471  3462               	retlw	98	;'b'
   370  0472  346F               	retlw	111	;'o'
   371  0473  3473               	retlw	115	;'s'
   372  0474  3420               	retlw	32	;' '
   373  0475  340D               	retlw	13
   374  0476  340D               	retlw	13
   375  0477  3400               	retlw	0
   376  0478                     STR_3:
   377  0478  3432               	retlw	50	;'2'
   378  0479  3429               	retlw	41	;')'
   379  047A  3420               	retlw	32	;' '
   380  047B  3476               	retlw	118	;'v'
   381  047C  3465               	retlw	101	;'e'
   382  047D  3472               	retlw	114	;'r'
   383  047E  3420               	retlw	32	;' '
   384  047F  3464               	retlw	100	;'d'
   385  0480  3461               	retlw	97	;'a'
   386  0481  3474               	retlw	116	;'t'
   387  0482  346F               	retlw	111	;'o'
   388  0483  3473               	retlw	115	;'s'
   389  0484  3420               	retlw	32	;' '
   390  0485  3464               	retlw	100	;'d'
   391  0486  3465               	retlw	101	;'e'
   392  0487  3420               	retlw	32	;' '
   393  0488  346D               	retlw	109	;'m'
   394  0489  3469               	retlw	105	;'i'
   395  048A  346E               	retlw	110	;'n'
   396  048B  3475               	retlw	117	;'u'
   397  048C  3474               	retlw	116	;'t'
   398  048D  346F               	retlw	111	;'o'
   399  048E  3420               	retlw	32	;' '
   400  048F  340D               	retlw	13
   401  0490  3400               	retlw	0
   402  0491                     STR_2:
   403  0491  3431               	retlw	49	;'1'
   404  0492  3429               	retlw	41	;')'
   405  0493  3420               	retlw	32	;' '
   406  0494  3476               	retlw	118	;'v'
   407  0495  3465               	retlw	101	;'e'
   408  0496  3472               	retlw	114	;'r'
   409  0497  3420               	retlw	32	;' '
   410  0498  3464               	retlw	100	;'d'
   411  0499  3461               	retlw	97	;'a'
   412  049A  3474               	retlw	116	;'t'
   413  049B  346F               	retlw	111	;'o'
   414  049C  3473               	retlw	115	;'s'
   415  049D  3420               	retlw	32	;' '
   416  049E  3464               	retlw	100	;'d'
   417  049F  3465               	retlw	101	;'e'
   418  04A0  3420               	retlw	32	;' '
   419  04A1  3468               	retlw	104	;'h'
   420  04A2  346F               	retlw	111	;'o'
   421  04A3  3472               	retlw	114	;'r'
   422  04A4  3461               	retlw	97	;'a'
   423  04A5  3420               	retlw	32	;' '
   424  04A6  340D               	retlw	13
   425  04A7  3400               	retlw	0
   426  04A8                     STR_5:
   427  04A8  3420               	retlw	32	;' '
   428  04A9  3445               	retlw	69	;'E'
   429  04AA  3473               	retlw	115	;'s'
   430  04AB  3470               	retlw	112	;'p'
   431  04AC  3465               	retlw	101	;'e'
   432  04AD  3472               	retlw	114	;'r'
   433  04AE  3461               	retlw	97	;'a'
   434  04AF  3472               	retlw	114	;'r'
   435  04B0  3420               	retlw	32	;' '
   436  04B1  3420               	retlw	32	;' '
   437  04B2  3400               	retlw	0
   438  04B3                     STR_6:
   439  04B3  3420               	retlw	32	;' '
   440  04B4  3448               	retlw	72	;'H'
   441  04B5  346F               	retlw	111	;'o'
   442  04B6  3472               	retlw	114	;'r'
   443  04B7  3461               	retlw	97	;'a'
   444  04B8  3473               	retlw	115	;'s'
   445  04B9  3420               	retlw	32	;' '
   446  04BA  3400               	retlw	0
   447  04BB                     STR_7:
   448  04BB  3420               	retlw	32	;' '
   449  04BC  3463               	retlw	99	;'c'
   450  04BD  346F               	retlw	111	;'o'
   451  04BE  346E               	retlw	110	;'n'
   452  04BF  3420               	retlw	32	;' '
   453  04C0  3420               	retlw	32	;' '
   454  04C1  3400               	retlw	0
   455  04C2                     STR_10:
   456  04C2  3433               	retlw	51	;'3'
   457  04C3  3430               	retlw	48	;'0'
   458  04C4  3400               	retlw	0
   459  04C5                     STR_12:
   460  04C5  3436               	retlw	54	;'6'
   461  04C6  3430               	retlw	48	;'0'
   462  04C7  3400               	retlw	0
   463  04C8                     STR_9:
   464  04C8  3431               	retlw	49	;'1'
   465  04C9  3435               	retlw	53	;'5'
   466  04CA  3400               	retlw	0
   467  04CB                     STR_11:
   468  04CB  3434               	retlw	52	;'4'
   469  04CC  3435               	retlw	53	;'5'
   470  04CD  3400               	retlw	0
   471  0406                     
   472                           	psect	cinit
   473  000F                     start_initialization:	
   474                           ; #config settings
   475                           
   476  000F                     __initialization:
   477                           
   478                           ; Clear objects allocated to COMMON
   479  000F  01F7               	clrf	__pbssCOMMON& (0+127)
   480  0010  01F8               	clrf	(__pbssCOMMON+1)& (0+127)
   481  0011  01F9               	clrf	(__pbssCOMMON+2)& (0+127)
   482  0012  01FA               	clrf	(__pbssCOMMON+3)& (0+127)
   483  0013  01FB               	clrf	(__pbssCOMMON+4)& (0+127)
   484  0014                     end_of_initialization:	
   485                           ;End of C runtime variable initialization code
   486                           
   487  0014                     __end_of__initialization:
   488  0014  0183               	clrf	3
   489  0015  120A  118A  2818   	ljmp	_main	;jump to C main() function
   490                           
   491                           	psect	bssCOMMON
   492  0077                     __pbssCOMMON:
   493  0077                     _ventana:
   494  0077                     	ds	1
   495  0078                     _valor:
   496  0078                     	ds	1
   497  0079                     _escala:
   498  0079                     	ds	1
   499  007A                     _minuto:
   500  007A                     	ds	1
   501  007B                     _hora:
   502  007B                     	ds	1
   503                           
   504                           	psect	cstackCOMMON
   505  0070                     __pcstackCOMMON:
   506  0070                     ?_USART_Cadena:
   507  0070                     ?_USART_Rx:	
   508                           ; 1 bytes @ 0x0
   509                           
   510  0070                     ?_USART_Tx:	
   511                           ; 1 bytes @ 0x0
   512                           
   513  0070                     ?_isr:	
   514                           ; 1 bytes @ 0x0
   515                           
   516  0070                     ??_isr:	
   517                           ; 1 bytes @ 0x0
   518                           
   519  0070                     ?_main:	
   520                           ; 1 bytes @ 0x0
   521                           
   522                           
   523                           ; 1 bytes @ 0x0
   524  0070                     	ds	2
   525  0072                     ??_USART_Rx:
   526  0072                     ??_USART_Tx:	
   527                           ; 1 bytes @ 0x2
   528                           
   529  0072                     USART_Tx@data:	
   530                           ; 1 bytes @ 0x2
   531                           
   532                           
   533                           ; 1 bytes @ 0x2
   534  0072                     	ds	1
   535  0073                     ??_USART_Cadena:
   536                           
   537                           ; 1 bytes @ 0x3
   538  0073                     	ds	1
   539  0074                     USART_Cadena@str:
   540                           
   541                           ; 1 bytes @ 0x4
   542  0074                     	ds	1
   543  0075                     ??_main:
   544                           
   545                           ; 1 bytes @ 0x5
   546  0075                     	ds	2
   547                           
   548                           	psect	maintext
   549  0018                     __pmaintext:	
   550 ;;
   551 ;;Main: autosize = 0, tempsize = 2, incstack = 0, save=0
   552 ;;
   553 ;; *************** function _main *****************
   554 ;; Defined at:
   555 ;;		line 64 in file "PROYECTO.c"
   556 ;; Parameters:    Size  Location     Type
   557 ;;		None
   558 ;; Auto vars:     Size  Location     Type
   559 ;;		None
   560 ;; Return value:  Size  Location     Type
   561 ;;                  1    wreg      void 
   562 ;; Registers used:
   563 ;;		wreg, fsr0l, fsr0h, status,2, status,0, pclath, cstack
   564 ;; Tracked objects:
   565 ;;		On entry : B00/0
   566 ;;		On exit  : 0/0
   567 ;;		Unchanged: 0/0
   568 ;; Data sizes:     COMMON   BANK0   BANK1   BANK3   BANK2
   569 ;;      Params:         0       0       0       0       0
   570 ;;      Locals:         0       0       0       0       0
   571 ;;      Temps:          2       0       0       0       0
   572 ;;      Totals:         2       0       0       0       0
   573 ;;Total ram usage:        2 bytes
   574 ;; Hardware stack levels required when called:    3
   575 ;; This function calls:
   576 ;;		_USART_Cadena
   577 ;;		_USART_Rx
   578 ;;		_USART_Tx
   579 ;; This function is called by:
   580 ;;		Startup code after reset
   581 ;; This function uses a non-reentrant model
   582 ;;
   583                           
   584                           
   585                           ;psect for function _main
   586  0018                     _main:
   587  0018                     l1192:	
   588                           ;incstack = 0
   589                           ; Regs used in _main: [wreg-fsr0h+status,2+status,0+pclath+cstack]
   590                           
   591                           
   592                           ;PROYECTO.c: 65:     ANSEL = 0x00;
   593  0018  1683               	bsf	3,5	;RP0=1, select bank3
   594  0019  1703               	bsf	3,6	;RP1=1, select bank3
   595  001A  0188               	clrf	8	;volatile
   596                           
   597                           ;PROYECTO.c: 66:     ANSELH = 0x00;
   598  001B  0189               	clrf	9	;volatile
   599                           
   600                           ;PROYECTO.c: 68:     TRISA = 0x00;
   601  001C  1683               	bsf	3,5	;RP0=1, select bank1
   602  001D  1303               	bcf	3,6	;RP1=0, select bank1
   603  001E  0185               	clrf	5	;volatile
   604  001F                     l1194:
   605                           
   606                           ;PROYECTO.c: 69:     TRISB = 0xff;
   607  001F  30FF               	movlw	255
   608  0020  0086               	movwf	6	;volatile
   609  0021                     l1196:
   610                           
   611                           ;PROYECTO.c: 70:     TRISD = 0x00;
   612  0021  0188               	clrf	8	;volatile
   613                           
   614                           ;PROYECTO.c: 71:     TRISE = 0b0011;
   615  0022  3003               	movlw	3
   616  0023  0089               	movwf	9	;volatile
   617  0024                     l1198:
   618                           
   619                           ;PROYECTO.c: 74:     ADCON1bits.ADFM = 0;
   620  0024  139F               	bcf	31,7	;volatile
   621  0025                     l1200:
   622                           
   623                           ;PROYECTO.c: 75:     ADCON1bits.VCFG0 = 0;
   624  0025  121F               	bcf	31,4	;volatile
   625  0026                     l1202:
   626                           
   627                           ;PROYECTO.c: 76:     ADCON1bits.VCFG1 = 0;
   628  0026  129F               	bcf	31,5	;volatile
   629  0027                     l1204:
   630                           
   631                           ;PROYECTO.c: 77:     ADCON0bits.ADCS0 = 1;
   632  0027  1283               	bcf	3,5	;RP0=0, select bank0
   633  0028  1303               	bcf	3,6	;RP1=0, select bank0
   634  0029  171F               	bsf	31,6	;volatile
   635  002A                     l1206:
   636                           
   637                           ;PROYECTO.c: 78:     ADCON0bits.ADCS1 = 0;
   638  002A  139F               	bcf	31,7	;volatile
   639  002B                     l1208:
   640                           
   641                           ;PROYECTO.c: 79:     ADCON0bits.CHS = 5;
   642  002B  081F               	movf	31,w	;volatile
   643  002C  39C3               	andlw	-61
   644  002D  3814               	iorlw	20
   645  002E  009F               	movwf	31	;volatile
   646  002F                     l1210:
   647                           
   648                           ;PROYECTO.c: 80:     _delay((unsigned long)((100)*(4000000/4000000.0)));
   649  002F  3021               	movlw	33
   650  0030  00F5               	movwf	??_main
   651  0031                     u1207:
   652  0031  0BF5               	decfsz	??_main,f
   653  0032  2831               	goto	u1207
   654  0033                     l1212:
   655                           
   656                           ;PROYECTO.c: 81:     ADCON0bits.ADON = 1;
   657  0033  1283               	bcf	3,5	;RP0=0, select bank0
   658  0034  1303               	bcf	3,6	;RP1=0, select bank0
   659  0035  141F               	bsf	31,0	;volatile
   660  0036                     l1214:
   661                           
   662                           ;PROYECTO.c: 83:     OPTION_REGbits.nRBPU = 0;
   663  0036  1683               	bsf	3,5	;RP0=1, select bank1
   664  0037  1303               	bcf	3,6	;RP1=0, select bank1
   665  0038  1381               	bcf	1,7	;volatile
   666  0039                     l1216:
   667                           
   668                           ;PROYECTO.c: 84:     WPUBbits.WPUB0 = 1;
   669  0039  1415               	bsf	21,0	;volatile
   670  003A                     l1218:
   671                           
   672                           ;PROYECTO.c: 85:     WPUBbits.WPUB1 = 1;
   673  003A  1495               	bsf	21,1	;volatile
   674  003B                     l1220:
   675                           
   676                           ;PROYECTO.c: 86:     WPUBbits.WPUB2 = 1;
   677  003B  1515               	bsf	21,2	;volatile
   678                           
   679                           ;PROYECTO.c: 89:     OSCCONbits.IRCF = 0b110;
   680  003C  080F               	movf	15,w	;volatile
   681  003D  398F               	andlw	-113
   682  003E  3860               	iorlw	96
   683  003F  008F               	movwf	15	;volatile
   684  0040                     l1222:
   685                           
   686                           ;PROYECTO.c: 90:     OSCCONbits.SCS = 1;
   687  0040  140F               	bsf	15,0	;volatile
   688  0041                     l1224:
   689                           
   690                           ;PROYECTO.c: 93:     OPTION_REGbits.T0CS = 0;
   691  0041  1281               	bcf	1,5	;volatile
   692  0042                     l1226:
   693                           
   694                           ;PROYECTO.c: 94:     OPTION_REGbits.PSA = 0;
   695  0042  1181               	bcf	1,3	;volatile
   696                           
   697                           ;PROYECTO.c: 95:     OPTION_REGbits.PS = 0b111;
   698  0043  3007               	movlw	7
   699  0044  0481               	iorwf	1,f	;volatile
   700  0045                     l1228:
   701                           
   702                           ;PROYECTO.c: 96:     TMR0 = 78;
   703  0045  304E               	movlw	78
   704  0046  1283               	bcf	3,5	;RP0=0, select bank0
   705  0047  1303               	bcf	3,6	;RP1=0, select bank0
   706  0048  0081               	movwf	1	;volatile
   707  0049                     l1230:
   708                           
   709                           ;PROYECTO.c: 99:     TXSTAbits.SYNC = 0;
   710  0049  1683               	bsf	3,5	;RP0=1, select bank1
   711  004A  1303               	bcf	3,6	;RP1=0, select bank1
   712  004B  1218               	bcf	24,4	;volatile
   713  004C                     l1232:
   714                           
   715                           ;PROYECTO.c: 100:     TXSTAbits.BRGH = 1;
   716  004C  1518               	bsf	24,2	;volatile
   717  004D                     l1234:
   718                           
   719                           ;PROYECTO.c: 101:     BAUDCTLbits.BRG16 = 1;
   720  004D  1683               	bsf	3,5	;RP0=1, select bank3
   721  004E  1703               	bsf	3,6	;RP1=1, select bank3
   722  004F  1587               	bsf	7,3	;volatile
   723  0050                     l1236:
   724                           
   725                           ;PROYECTO.c: 103:     SPBRG = 103;
   726  0050  3067               	movlw	103
   727  0051  1683               	bsf	3,5	;RP0=1, select bank1
   728  0052  1303               	bcf	3,6	;RP1=0, select bank1
   729  0053  0099               	movwf	25	;volatile
   730  0054                     l1238:
   731                           
   732                           ;PROYECTO.c: 104:     SPBRGH = 0;
   733  0054  019A               	clrf	26	;volatile
   734  0055                     l1240:
   735                           
   736                           ;PROYECTO.c: 106:     RCSTAbits.SPEN = 1;
   737  0055  1283               	bcf	3,5	;RP0=0, select bank0
   738  0056  1303               	bcf	3,6	;RP1=0, select bank0
   739  0057  1798               	bsf	24,7	;volatile
   740  0058                     l1242:
   741                           
   742                           ;PROYECTO.c: 107:     RCSTAbits.RX9 = 0;
   743  0058  1318               	bcf	24,6	;volatile
   744  0059                     l1244:
   745                           
   746                           ;PROYECTO.c: 108:     RCSTAbits.CREN = 1;
   747  0059  1618               	bsf	24,4	;volatile
   748  005A                     l1246:
   749                           
   750                           ;PROYECTO.c: 109:     TXSTAbits.TXEN = 1;
   751  005A  1683               	bsf	3,5	;RP0=1, select bank1
   752  005B  1303               	bcf	3,6	;RP1=0, select bank1
   753  005C  1698               	bsf	24,5	;volatile
   754  005D                     l1248:
   755                           
   756                           ;PROYECTO.c: 111:     INTCONbits.GIE = 1;
   757  005D  178B               	bsf	11,7	;volatile
   758  005E                     l1250:
   759                           
   760                           ;PROYECTO.c: 112:     INTCONbits.T0IE = 0;
   761  005E  128B               	bcf	11,5	;volatile
   762  005F                     l1252:
   763                           
   764                           ;PROYECTO.c: 113:     INTCONbits.T0IF = 0;
   765  005F  110B               	bcf	11,2	;volatile
   766  0060                     l1254:
   767                           
   768                           ;PROYECTO.c: 117:     ADCON0bits.GO = 1;
   769  0060  1283               	bcf	3,5	;RP0=0, select bank0
   770  0061  1303               	bcf	3,6	;RP1=0, select bank0
   771  0062  149F               	bsf	31,1	;volatile
   772  0063                     l1256:
   773                           
   774                           ;PROYECTO.c: 119:     PORTA = 0;
   775  0063  0185               	clrf	5	;volatile
   776  0064                     l1258:
   777                           
   778                           ;PROYECTO.c: 120:     PORTB = 0;
   779  0064  0186               	clrf	6	;volatile
   780  0065                     l1260:
   781                           
   782                           ;PROYECTO.c: 121:     PORTC = 0;
   783  0065  0187               	clrf	7	;volatile
   784  0066                     l1262:
   785                           
   786                           ;PROYECTO.c: 122:     PORTD = 0;
   787  0066  0188               	clrf	8	;volatile
   788  0067                     l1264:
   789                           
   790                           ;PROYECTO.c: 123:     PORTE = 0;
   791  0067  0189               	clrf	9	;volatile
   792  0068                     l1266:
   793                           
   794                           ;PROYECTO.c: 125:     ventana = 1;
   795  0068  01F7               	clrf	_ventana
   796  0069  0AF7               	incf	_ventana,f
   797  006A                     l1268:
   798                           
   799                           ;PROYECTO.c: 129:        if (T0IF == 1) {
   800  006A  1D0B               	btfss	11,2	;volatile
   801  006B  286D               	goto	u621
   802  006C  286E               	goto	u620
   803  006D                     u621:
   804  006D  28C1               	goto	l1306
   805  006E                     u620:
   806  006E                     l1270:
   807                           
   808                           ;PROYECTO.c: 130:             if(!RB0){
   809  006E  1283               	bcf	3,5	;RP0=0, select bank0
   810  006F  1303               	bcf	3,6	;RP1=0, select bank0
   811  0070  1806               	btfsc	6,0	;volatile
   812  0071  2873               	goto	u631
   813  0072  2874               	goto	u630
   814  0073                     u631:
   815  0073  2885               	goto	l98
   816  0074                     u630:
   817  0074                     l1272:
   818                           
   819                           ;PROYECTO.c: 131:                 RD0 = 1;
   820  0074  1408               	bsf	8,0	;volatile
   821  0075                     l1274:
   822                           
   823                           ;PROYECTO.c: 132:                 _delay((unsigned long)((2)*(4000000/4000.0)));
   824  0075  3003               	movlw	3
   825  0076  00F6               	movwf	??_main+1
   826  0077  3097               	movlw	151
   827  0078  00F5               	movwf	??_main
   828  0079                     u1217:
   829  0079  0BF5               	decfsz	??_main,f
   830  007A  2879               	goto	u1217
   831  007B  0BF6               	decfsz	??_main+1,f
   832  007C  2879               	goto	u1217
   833  007D  287E               	nop2
   834  007E                     l1276:
   835                           
   836                           ;PROYECTO.c: 133:                 RD0 = 0;
   837  007E  1283               	bcf	3,5	;RP0=0, select bank0
   838  007F  1303               	bcf	3,6	;RP1=0, select bank0
   839  0080  1008               	bcf	8,0	;volatile
   840                           
   841                           ;PROYECTO.c: 134:                 TMR0 = 70;
   842  0081  3046               	movlw	70
   843  0082  0081               	movwf	1	;volatile
   844  0083                     l1278:
   845                           
   846                           ;PROYECTO.c: 135:                 INTCONbits.T0IF = 0;
   847  0083  110B               	bcf	11,2	;volatile
   848                           
   849                           ;PROYECTO.c: 136:             }
   850  0084  28C1               	goto	l1306
   851  0085                     l98:	
   852                           ;PROYECTO.c: 137:             else if(!RB1){
   853                           
   854  0085  1886               	btfsc	6,1	;volatile
   855  0086  2888               	goto	u641
   856  0087  2889               	goto	u640
   857  0088                     u641:
   858  0088  289A               	goto	l100
   859  0089                     u640:
   860  0089                     l1280:
   861                           
   862                           ;PROYECTO.c: 138:                 RD1 = 1;
   863  0089  1488               	bsf	8,1	;volatile
   864  008A                     l1282:
   865                           
   866                           ;PROYECTO.c: 139:                 _delay((unsigned long)((2)*(4000000/4000.0)));
   867  008A  3003               	movlw	3
   868  008B  00F6               	movwf	??_main+1
   869  008C  3097               	movlw	151
   870  008D  00F5               	movwf	??_main
   871  008E                     u1227:
   872  008E  0BF5               	decfsz	??_main,f
   873  008F  288E               	goto	u1227
   874  0090  0BF6               	decfsz	??_main+1,f
   875  0091  288E               	goto	u1227
   876  0092  2893               	nop2
   877  0093                     l1284:
   878                           
   879                           ;PROYECTO.c: 140:                 RD1 = 0;
   880  0093  1283               	bcf	3,5	;RP0=0, select bank0
   881  0094  1303               	bcf	3,6	;RP1=0, select bank0
   882  0095  1088               	bcf	8,1	;volatile
   883                           
   884                           ;PROYECTO.c: 141:                 TMR0 = 70;
   885  0096  3046               	movlw	70
   886  0097  0081               	movwf	1	;volatile
   887  0098                     l1286:
   888                           
   889                           ;PROYECTO.c: 142:                 INTCONbits.T0IF = 0;
   890  0098  110B               	bcf	11,2	;volatile
   891                           
   892                           ;PROYECTO.c: 143:             }
   893  0099  28C1               	goto	l1306
   894  009A                     l100:	
   895                           ;PROYECTO.c: 144:             else if(!RB2){
   896                           
   897  009A  1906               	btfsc	6,2	;volatile
   898  009B  289D               	goto	u651
   899  009C  289E               	goto	u650
   900  009D                     u651:
   901  009D  28AF               	goto	l102
   902  009E                     u650:
   903  009E                     l1288:
   904                           
   905                           ;PROYECTO.c: 145:                 RD2 = 1;
   906  009E  1508               	bsf	8,2	;volatile
   907  009F                     l1290:
   908                           
   909                           ;PROYECTO.c: 146:                 _delay((unsigned long)((2)*(4000000/4000.0)));
   910  009F  3003               	movlw	3
   911  00A0  00F6               	movwf	??_main+1
   912  00A1  3097               	movlw	151
   913  00A2  00F5               	movwf	??_main
   914  00A3                     u1237:
   915  00A3  0BF5               	decfsz	??_main,f
   916  00A4  28A3               	goto	u1237
   917  00A5  0BF6               	decfsz	??_main+1,f
   918  00A6  28A3               	goto	u1237
   919  00A7  28A8               	nop2
   920  00A8                     l1292:
   921                           
   922                           ;PROYECTO.c: 147:                 RD2 = 0;
   923  00A8  1283               	bcf	3,5	;RP0=0, select bank0
   924  00A9  1303               	bcf	3,6	;RP1=0, select bank0
   925  00AA  1108               	bcf	8,2	;volatile
   926                           
   927                           ;PROYECTO.c: 148:                 TMR0 = 70;
   928  00AB  3046               	movlw	70
   929  00AC  0081               	movwf	1	;volatile
   930  00AD                     l1294:
   931                           
   932                           ;PROYECTO.c: 149:                 INTCONbits.T0IF = 0;
   933  00AD  110B               	bcf	11,2	;volatile
   934                           
   935                           ;PROYECTO.c: 150:             }
   936  00AE  28C1               	goto	l1306
   937  00AF                     l102:	
   938                           ;PROYECTO.c: 151:             else{
   939                           
   940                           
   941                           ;PROYECTO.c: 152:                 RD0 = 1;
   942  00AF  1408               	bsf	8,0	;volatile
   943                           
   944                           ;PROYECTO.c: 153:                 RD1 = 1;
   945  00B0  1488               	bsf	8,1	;volatile
   946                           
   947                           ;PROYECTO.c: 154:                 RD2 = 1;
   948  00B1  1508               	bsf	8,2	;volatile
   949  00B2                     l1296:
   950                           
   951                           ;PROYECTO.c: 155:                 _delay((unsigned long)((1)*(4000000/4000.0)));
   952  00B2  30C7               	movlw	199
   953  00B3  00F5               	movwf	??_main
   954  00B4                     u1247:
   955  00B4  28B5               	nop2
   956  00B5  0BF5               	decfsz	??_main,f
   957  00B6  28B4               	goto	u1247
   958  00B7  28B8               	nop2
   959  00B8  28B9               	nop2
   960  00B9                     l1298:
   961                           
   962                           ;PROYECTO.c: 156:                 RD1 = 0;
   963  00B9  1283               	bcf	3,5	;RP0=0, select bank0
   964  00BA  1303               	bcf	3,6	;RP1=0, select bank0
   965  00BB  1088               	bcf	8,1	;volatile
   966  00BC                     l1300:
   967                           
   968                           ;PROYECTO.c: 157:                 RD2 = 0;
   969  00BC  1108               	bcf	8,2	;volatile
   970  00BD                     l1302:
   971                           
   972                           ;PROYECTO.c: 158:                 RD0 = 0;
   973  00BD  1008               	bcf	8,0	;volatile
   974                           
   975                           ;PROYECTO.c: 159:                 TMR0 = 74;
   976  00BE  304A               	movlw	74
   977  00BF  0081               	movwf	1	;volatile
   978  00C0                     l1304:
   979                           
   980                           ;PROYECTO.c: 160:                 INTCONbits.T0IF = 0;
   981  00C0  110B               	bcf	11,2	;volatile
   982  00C1                     l1306:
   983                           
   984                           ;PROYECTO.c: 164:        if(ADCON0bits.GO == 0){
   985  00C1  1283               	bcf	3,5	;RP0=0, select bank0
   986  00C2  1303               	bcf	3,6	;RP1=0, select bank0
   987  00C3  189F               	btfsc	31,1	;volatile
   988  00C4  28C6               	goto	u661
   989  00C5  28C7               	goto	u660
   990  00C6                     u661:
   991  00C6  29D1               	goto	l1402
   992  00C7                     u660:
   993  00C7                     l1308:
   994                           
   995                           ;PROYECTO.c: 166:             if(ADCON0bits.CHS == 6){
   996  00C7  0C1F               	rrf	31,w	;volatile
   997  00C8  00F5               	movwf	??_main
   998  00C9  0C75               	rrf	??_main,w
   999  00CA  390F               	andlw	15
  1000  00CB  3A06               	xorlw	6
  1001  00CC  1D03               	skipz
  1002  00CD  28CF               	goto	u671
  1003  00CE  28D0               	goto	u670
  1004  00CF                     u671:
  1005  00CF  291F               	goto	l1338
  1006  00D0                     u670:
  1007  00D0                     l1310:
  1008                           
  1009                           ;PROYECTO.c: 167:                 escala = ADRESH;
  1010  00D0  081E               	movf	30,w	;volatile
  1011  00D1  00F5               	movwf	??_main
  1012  00D2  0875               	movf	??_main,w
  1013  00D3  00F9               	movwf	_escala
  1014                           
  1015                           ;PROYECTO.c: 168:                 if (escala >= 0 && escala <=42 ){
  1016  00D4  302B               	movlw	43
  1017  00D5  0279               	subwf	_escala,w
  1018  00D6  1803               	skipnc
  1019  00D7  28D9               	goto	u681
  1020  00D8  28DA               	goto	u680
  1021  00D9                     u681:
  1022  00D9  28DC               	goto	l1314
  1023  00DA                     u680:
  1024  00DA                     l1312:
  1025                           
  1026                           ;PROYECTO.c: 169:                     minuto = 0;
  1027  00DA  01FA               	clrf	_minuto
  1028                           
  1029                           ;PROYECTO.c: 170:                 }else if(escala >= 43 && escala <= 84 ){
  1030  00DB  291A               	goto	l1336
  1031  00DC                     l1314:
  1032  00DC  302B               	movlw	43
  1033  00DD  0279               	subwf	_escala,w
  1034  00DE  1C03               	skipc
  1035  00DF  28E1               	goto	u691
  1036  00E0  28E2               	goto	u690
  1037  00E1                     u691:
  1038  00E1  28ED               	goto	l1320
  1039  00E2                     u690:
  1040  00E2                     l1316:
  1041  00E2  3055               	movlw	85
  1042  00E3  0279               	subwf	_escala,w
  1043  00E4  1803               	skipnc
  1044  00E5  28E7               	goto	u701
  1045  00E6  28E8               	goto	u700
  1046  00E7                     u701:
  1047  00E7  28ED               	goto	l1320
  1048  00E8                     u700:
  1049  00E8                     l1318:
  1050                           
  1051                           ;PROYECTO.c: 171:                     minuto = 15;
  1052  00E8  300F               	movlw	15
  1053  00E9  00F5               	movwf	??_main
  1054  00EA  0875               	movf	??_main,w
  1055  00EB  00FA               	movwf	_minuto
  1056                           
  1057                           ;PROYECTO.c: 172:                 }else if(escala >= 85 && escala <= 126 ){
  1058  00EC  291A               	goto	l1336
  1059  00ED                     l1320:
  1060  00ED  3055               	movlw	85
  1061  00EE  0279               	subwf	_escala,w
  1062  00EF  1C03               	skipc
  1063  00F0  28F2               	goto	u711
  1064  00F1  28F3               	goto	u710
  1065  00F2                     u711:
  1066  00F2  28FE               	goto	l1326
  1067  00F3                     u710:
  1068  00F3                     l1322:
  1069  00F3  307F               	movlw	127
  1070  00F4  0279               	subwf	_escala,w
  1071  00F5  1803               	skipnc
  1072  00F6  28F8               	goto	u721
  1073  00F7  28F9               	goto	u720
  1074  00F8                     u721:
  1075  00F8  28FE               	goto	l1326
  1076  00F9                     u720:
  1077  00F9                     l1324:
  1078                           
  1079                           ;PROYECTO.c: 173:                     minuto = 30;
  1080  00F9  301E               	movlw	30
  1081  00FA  00F5               	movwf	??_main
  1082  00FB  0875               	movf	??_main,w
  1083  00FC  00FA               	movwf	_minuto
  1084                           
  1085                           ;PROYECTO.c: 174:                 }else if(escala >= 127 && escala <= 168 ){
  1086  00FD  291A               	goto	l1336
  1087  00FE                     l1326:
  1088  00FE  307F               	movlw	127
  1089  00FF  0279               	subwf	_escala,w
  1090  0100  1C03               	skipc
  1091  0101  2903               	goto	u731
  1092  0102  2904               	goto	u730
  1093  0103                     u731:
  1094  0103  290F               	goto	l1332
  1095  0104                     u730:
  1096  0104                     l1328:
  1097  0104  30A9               	movlw	169
  1098  0105  0279               	subwf	_escala,w
  1099  0106  1803               	skipnc
  1100  0107  2909               	goto	u741
  1101  0108  290A               	goto	u740
  1102  0109                     u741:
  1103  0109  290F               	goto	l1332
  1104  010A                     u740:
  1105  010A                     l1330:
  1106                           
  1107                           ;PROYECTO.c: 175:                     minuto = 45;
  1108  010A  302D               	movlw	45
  1109  010B  00F5               	movwf	??_main
  1110  010C  0875               	movf	??_main,w
  1111  010D  00FA               	movwf	_minuto
  1112                           
  1113                           ;PROYECTO.c: 176:                 }else if(escala >= 210 && escala <= 255 ){
  1114  010E  291A               	goto	l1336
  1115  010F                     l1332:
  1116  010F  30D2               	movlw	210
  1117  0110  0279               	subwf	_escala,w
  1118  0111  1C03               	skipc
  1119  0112  2914               	goto	u751
  1120  0113  2915               	goto	u750
  1121  0114                     u751:
  1122  0114  291A               	goto	l109
  1123  0115                     u750:
  1124  0115                     l1334:
  1125                           
  1126                           ;PROYECTO.c: 177:                     minuto = 60;
  1127  0115  303C               	movlw	60
  1128  0116  00F5               	movwf	??_main
  1129  0117  0875               	movf	??_main,w
  1130  0118  00FA               	movwf	_minuto
  1131  0119  291A               	goto	l1336
  1132  011A                     l109:
  1133  011A                     l1336:
  1134                           
  1135                           ;PROYECTO.c: 180:                 ADCON0bits.CHS = 5;
  1136  011A  081F               	movf	31,w	;volatile
  1137  011B  39C3               	andlw	-61
  1138  011C  3814               	iorlw	20
  1139  011D  009F               	movwf	31	;volatile
  1140                           
  1141                           ;PROYECTO.c: 181:             }
  1142  011E  29C9               	goto	l1398
  1143  011F                     l1338:
  1144  011F  0C1F               	rrf	31,w	;volatile
  1145  0120  00F5               	movwf	??_main
  1146  0121  0C75               	rrf	??_main,w
  1147  0122  390F               	andlw	15
  1148  0123  3A05               	xorlw	5
  1149  0124  1D03               	skipz
  1150  0125  2927               	goto	u761
  1151  0126  2928               	goto	u760
  1152  0127                     u761:
  1153  0127  29C9               	goto	l1398
  1154  0128                     u760:
  1155  0128                     l1340:
  1156                           
  1157                           ;PROYECTO.c: 183:                 escala = ADRESH;
  1158  0128  081E               	movf	30,w	;volatile
  1159  0129  00F5               	movwf	??_main
  1160  012A  0875               	movf	??_main,w
  1161  012B  00F9               	movwf	_escala
  1162                           
  1163                           ;PROYECTO.c: 184:                 if (escala >= 0 && escala <=26 ){
  1164  012C  301B               	movlw	27
  1165  012D  0279               	subwf	_escala,w
  1166  012E  1803               	skipnc
  1167  012F  2931               	goto	u771
  1168  0130  2932               	goto	u770
  1169  0131                     u771:
  1170  0131  2934               	goto	l1344
  1171  0132                     u770:
  1172  0132                     l1342:
  1173                           
  1174                           ;PROYECTO.c: 185:                     hora = 0;
  1175  0132  01FB               	clrf	_hora
  1176                           
  1177                           ;PROYECTO.c: 186:                 }else if(escala >= 27 && escala <=52 ){
  1178  0133  29C5               	goto	l1396
  1179  0134                     l1344:
  1180  0134  301B               	movlw	27
  1181  0135  0279               	subwf	_escala,w
  1182  0136  1C03               	skipc
  1183  0137  2939               	goto	u781
  1184  0138  293A               	goto	u780
  1185  0139                     u781:
  1186  0139  2943               	goto	l1350
  1187  013A                     u780:
  1188  013A                     l1346:
  1189  013A  3035               	movlw	53
  1190  013B  0279               	subwf	_escala,w
  1191  013C  1803               	skipnc
  1192  013D  293F               	goto	u791
  1193  013E  2940               	goto	u790
  1194  013F                     u791:
  1195  013F  2943               	goto	l1350
  1196  0140                     u790:
  1197  0140                     l1348:
  1198                           
  1199                           ;PROYECTO.c: 187:                     hora = 1;
  1200  0140  01FB               	clrf	_hora
  1201  0141  0AFB               	incf	_hora,f
  1202                           
  1203                           ;PROYECTO.c: 188:                 }else if(escala >= 52 && escala <=78 ){
  1204  0142  29C5               	goto	l1396
  1205  0143                     l1350:
  1206  0143  3034               	movlw	52
  1207  0144  0279               	subwf	_escala,w
  1208  0145  1C03               	skipc
  1209  0146  2948               	goto	u801
  1210  0147  2949               	goto	u800
  1211  0148                     u801:
  1212  0148  2954               	goto	l1356
  1213  0149                     u800:
  1214  0149                     l1352:
  1215  0149  304F               	movlw	79
  1216  014A  0279               	subwf	_escala,w
  1217  014B  1803               	skipnc
  1218  014C  294E               	goto	u811
  1219  014D  294F               	goto	u810
  1220  014E                     u811:
  1221  014E  2954               	goto	l1356
  1222  014F                     u810:
  1223  014F                     l1354:
  1224                           
  1225                           ;PROYECTO.c: 189:                     hora = 2;
  1226  014F  3002               	movlw	2
  1227  0150  00F5               	movwf	??_main
  1228  0151  0875               	movf	??_main,w
  1229  0152  00FB               	movwf	_hora
  1230                           
  1231                           ;PROYECTO.c: 190:                 }else if(escala >= 79 && escala <=104 ){
  1232  0153  29C5               	goto	l1396
  1233  0154                     l1356:
  1234  0154  304F               	movlw	79
  1235  0155  0279               	subwf	_escala,w
  1236  0156  1C03               	skipc
  1237  0157  2959               	goto	u821
  1238  0158  295A               	goto	u820
  1239  0159                     u821:
  1240  0159  2965               	goto	l1362
  1241  015A                     u820:
  1242  015A                     l1358:
  1243  015A  3069               	movlw	105
  1244  015B  0279               	subwf	_escala,w
  1245  015C  1803               	skipnc
  1246  015D  295F               	goto	u831
  1247  015E  2960               	goto	u830
  1248  015F                     u831:
  1249  015F  2965               	goto	l1362
  1250  0160                     u830:
  1251  0160                     l1360:
  1252                           
  1253                           ;PROYECTO.c: 191:                     hora = 3;
  1254  0160  3003               	movlw	3
  1255  0161  00F5               	movwf	??_main
  1256  0162  0875               	movf	??_main,w
  1257  0163  00FB               	movwf	_hora
  1258                           
  1259                           ;PROYECTO.c: 192:                 }else if(escala >= 105 && escala <=130 ){
  1260  0164  29C5               	goto	l1396
  1261  0165                     l1362:
  1262  0165  3069               	movlw	105
  1263  0166  0279               	subwf	_escala,w
  1264  0167  1C03               	skipc
  1265  0168  296A               	goto	u841
  1266  0169  296B               	goto	u840
  1267  016A                     u841:
  1268  016A  2976               	goto	l1368
  1269  016B                     u840:
  1270  016B                     l1364:
  1271  016B  3083               	movlw	131
  1272  016C  0279               	subwf	_escala,w
  1273  016D  1803               	skipnc
  1274  016E  2970               	goto	u851
  1275  016F  2971               	goto	u850
  1276  0170                     u851:
  1277  0170  2976               	goto	l1368
  1278  0171                     u850:
  1279  0171                     l1366:
  1280                           
  1281                           ;PROYECTO.c: 193:                     hora = 4;
  1282  0171  3004               	movlw	4
  1283  0172  00F5               	movwf	??_main
  1284  0173  0875               	movf	??_main,w
  1285  0174  00FB               	movwf	_hora
  1286                           
  1287                           ;PROYECTO.c: 194:                 }else if(escala >= 131 && escala <=156 ){
  1288  0175  29C5               	goto	l1396
  1289  0176                     l1368:
  1290  0176  3083               	movlw	131
  1291  0177  0279               	subwf	_escala,w
  1292  0178  1C03               	skipc
  1293  0179  297B               	goto	u861
  1294  017A  297C               	goto	u860
  1295  017B                     u861:
  1296  017B  2987               	goto	l1374
  1297  017C                     u860:
  1298  017C                     l1370:
  1299  017C  309D               	movlw	157
  1300  017D  0279               	subwf	_escala,w
  1301  017E  1803               	skipnc
  1302  017F  2981               	goto	u871
  1303  0180  2982               	goto	u870
  1304  0181                     u871:
  1305  0181  2987               	goto	l1374
  1306  0182                     u870:
  1307  0182                     l1372:
  1308                           
  1309                           ;PROYECTO.c: 195:                     hora = 5;
  1310  0182  3005               	movlw	5
  1311  0183  00F5               	movwf	??_main
  1312  0184  0875               	movf	??_main,w
  1313  0185  00FB               	movwf	_hora
  1314                           
  1315                           ;PROYECTO.c: 196:                 }else if(escala >= 157 && escala <=182 ){
  1316  0186  29C5               	goto	l1396
  1317  0187                     l1374:
  1318  0187  309D               	movlw	157
  1319  0188  0279               	subwf	_escala,w
  1320  0189  1C03               	skipc
  1321  018A  298C               	goto	u881
  1322  018B  298D               	goto	u880
  1323  018C                     u881:
  1324  018C  2998               	goto	l1380
  1325  018D                     u880:
  1326  018D                     l1376:
  1327  018D  30B7               	movlw	183
  1328  018E  0279               	subwf	_escala,w
  1329  018F  1803               	skipnc
  1330  0190  2992               	goto	u891
  1331  0191  2993               	goto	u890
  1332  0192                     u891:
  1333  0192  2998               	goto	l1380
  1334  0193                     u890:
  1335  0193                     l1378:
  1336                           
  1337                           ;PROYECTO.c: 197:                     hora = 6;
  1338  0193  3006               	movlw	6
  1339  0194  00F5               	movwf	??_main
  1340  0195  0875               	movf	??_main,w
  1341  0196  00FB               	movwf	_hora
  1342                           
  1343                           ;PROYECTO.c: 198:                 }else if(escala >= 183 && escala <=208 ){
  1344  0197  29C5               	goto	l1396
  1345  0198                     l1380:
  1346  0198  30B7               	movlw	183
  1347  0199  0279               	subwf	_escala,w
  1348  019A  1C03               	skipc
  1349  019B  299D               	goto	u901
  1350  019C  299E               	goto	u900
  1351  019D                     u901:
  1352  019D  29A9               	goto	l1386
  1353  019E                     u900:
  1354  019E                     l1382:
  1355  019E  30D1               	movlw	209
  1356  019F  0279               	subwf	_escala,w
  1357  01A0  1803               	skipnc
  1358  01A1  29A3               	goto	u911
  1359  01A2  29A4               	goto	u910
  1360  01A3                     u911:
  1361  01A3  29A9               	goto	l1386
  1362  01A4                     u910:
  1363  01A4                     l1384:
  1364                           
  1365                           ;PROYECTO.c: 199:                     hora = 7;
  1366  01A4  3007               	movlw	7
  1367  01A5  00F5               	movwf	??_main
  1368  01A6  0875               	movf	??_main,w
  1369  01A7  00FB               	movwf	_hora
  1370                           
  1371                           ;PROYECTO.c: 200:                 }else if(escala >= 209 && escala <=234 ){
  1372  01A8  29C5               	goto	l1396
  1373  01A9                     l1386:
  1374  01A9  30D1               	movlw	209
  1375  01AA  0279               	subwf	_escala,w
  1376  01AB  1C03               	skipc
  1377  01AC  29AE               	goto	u921
  1378  01AD  29AF               	goto	u920
  1379  01AE                     u921:
  1380  01AE  29BA               	goto	l1392
  1381  01AF                     u920:
  1382  01AF                     l1388:
  1383  01AF  30EB               	movlw	235
  1384  01B0  0279               	subwf	_escala,w
  1385  01B1  1803               	skipnc
  1386  01B2  29B4               	goto	u931
  1387  01B3  29B5               	goto	u930
  1388  01B4                     u931:
  1389  01B4  29BA               	goto	l1392
  1390  01B5                     u930:
  1391  01B5                     l1390:
  1392                           
  1393                           ;PROYECTO.c: 201:                     hora = 8;
  1394  01B5  3008               	movlw	8
  1395  01B6  00F5               	movwf	??_main
  1396  01B7  0875               	movf	??_main,w
  1397  01B8  00FB               	movwf	_hora
  1398                           
  1399                           ;PROYECTO.c: 202:                 }else if(escala >= 235 && escala <=255 ){
  1400  01B9  29C5               	goto	l1396
  1401  01BA                     l1392:
  1402  01BA  30EB               	movlw	235
  1403  01BB  0279               	subwf	_escala,w
  1404  01BC  1C03               	skipc
  1405  01BD  29BF               	goto	u941
  1406  01BE  29C0               	goto	u940
  1407  01BF                     u941:
  1408  01BF  29C5               	goto	l130
  1409  01C0                     u940:
  1410  01C0                     l1394:
  1411                           
  1412                           ;PROYECTO.c: 203:                     hora = 9;
  1413  01C0  3009               	movlw	9
  1414  01C1  00F5               	movwf	??_main
  1415  01C2  0875               	movf	??_main,w
  1416  01C3  00FB               	movwf	_hora
  1417  01C4  29C5               	goto	l1396
  1418  01C5                     l130:
  1419  01C5                     l1396:
  1420                           
  1421                           ;PROYECTO.c: 206:                 ADCON0bits.CHS = 6;
  1422  01C5  081F               	movf	31,w	;volatile
  1423  01C6  39C3               	andlw	-61
  1424  01C7  3818               	iorlw	24
  1425  01C8  009F               	movwf	31	;volatile
  1426  01C9                     l1398:
  1427                           
  1428                           ;PROYECTO.c: 208:             _delay((unsigned long)((50)*(4000000/4000000.0)));
  1429  01C9  3010               	movlw	16
  1430  01CA  00F5               	movwf	??_main
  1431  01CB                     u1257:
  1432  01CB  0BF5               	decfsz	??_main,f
  1433  01CC  29CB               	goto	u1257
  1434  01CD  0000               	nop
  1435  01CE                     l1400:
  1436                           
  1437                           ;PROYECTO.c: 210:             ADCON0bits.GO = 1;
  1438  01CE  1283               	bcf	3,5	;RP0=0, select bank0
  1439  01CF  1303               	bcf	3,6	;RP1=0, select bank0
  1440  01D0  149F               	bsf	31,1	;volatile
  1441  01D1                     l1402:
  1442                           
  1443                           ;PROYECTO.c: 213:        PORTA = hora;
  1444  01D1  087B               	movf	_hora,w
  1445  01D2  0085               	movwf	5	;volatile
  1446  01D3                     l1404:
  1447                           
  1448                           ;PROYECTO.c: 215:        if(ventana == 1){
  1449  01D3  0377               	decf	_ventana,w
  1450  01D4  1D03               	btfss	3,2
  1451  01D5  29D7               	goto	u951
  1452  01D6  29D8               	goto	u950
  1453  01D7                     u951:
  1454  01D7  29F1               	goto	l1410
  1455  01D8                     u950:
  1456  01D8                     l1406:
  1457                           
  1458                           ;PROYECTO.c: 217:            USART_Cadena("\r Que accion desea ejecutar? \r");
  1459  01D8  3020               	movlw	(low ((STR_1-__stringbase)| (0+32768)))& (0+255)
  1460  01D9  120A  118A  24CE  120A  118A  	fcall	_USART_Cadena
  1461                           
  1462                           ;PROYECTO.c: 218:            USART_Cadena("1) ver datos de hora \r");
  1463  01DE  308C               	movlw	(low ((STR_2-__stringbase)| (0+32768)))& (0+255)
  1464  01DF  120A  118A  24CE  120A  118A  	fcall	_USART_Cadena
  1465                           
  1466                           ;PROYECTO.c: 219:            USART_Cadena("2) ver datos de minuto \r");
  1467  01E4  3073               	movlw	(low ((STR_3-__stringbase)| (0+32768)))& (0+255)
  1468  01E5  120A  118A  24CE  120A  118A  	fcall	_USART_Cadena
  1469                           
  1470                           ;PROYECTO.c: 220:            USART_Cadena("3) ver datos de ambos \r\r");
  1471  01EA  305A               	movlw	(low ((STR_4-__stringbase)| (0+32768)))& (0+255)
  1472  01EB  120A  118A  24CE  120A  118A  	fcall	_USART_Cadena
  1473  01F0                     l1408:
  1474                           
  1475                           ;PROYECTO.c: 221:            ventana = 0;
  1476  01F0  01F7               	clrf	_ventana
  1477  01F1                     l1410:
  1478                           
  1479                           ;PROYECTO.c: 224:        if (PIR1bits.RCIF == 1){
  1480  01F1  1283               	bcf	3,5	;RP0=0, select bank0
  1481  01F2  1303               	bcf	3,6	;RP1=0, select bank0
  1482  01F3  1E8C               	btfss	12,5	;volatile
  1483  01F4  29F6               	goto	u961
  1484  01F5  29F7               	goto	u960
  1485  01F6                     u961:
  1486  01F6  2B4D               	goto	l1522
  1487  01F7                     u960:
  1488  01F7                     l1412:
  1489                           
  1490                           ;PROYECTO.c: 225:            valor = USART_Rx();
  1491  01F7  120A  118A  2500  120A  118A  	fcall	_USART_Rx
  1492  01FC  00F5               	movwf	??_main
  1493  01FD  0875               	movf	??_main,w
  1494  01FE  00F8               	movwf	_valor
  1495  01FF                     l1414:
  1496                           
  1497                           ;PROYECTO.c: 226:            ventana = 1;
  1498  01FF  01F7               	clrf	_ventana
  1499  0200  0AF7               	incf	_ventana,f
  1500  0201  2B4D               	goto	l1522
  1501  0202                     l1416:
  1502                           
  1503                           ;PROYECTO.c: 231:                 USART_Cadena(" Esperar  ");
  1504  0202  30A3               	movlw	(low ((STR_5-__stringbase)| (0+32768)))& (0+255)
  1505  0203  120A  118A  24CE  120A  118A  	fcall	_USART_Cadena
  1506  0208                     l140:	
  1507                           ;PROYECTO.c: 232:                 while(TXSTAbits.TRMT == 0);
  1508                           
  1509  0208  1683               	bsf	3,5	;RP0=1, select bank1
  1510  0209  1303               	bcf	3,6	;RP1=0, select bank1
  1511  020A  1C98               	btfss	24,1	;volatile
  1512  020B  2A0D               	goto	u971
  1513  020C  2A0E               	goto	u970
  1514  020D                     u971:
  1515  020D  2A08               	goto	l140
  1516  020E                     u970:
  1517  020E                     l1418:
  1518                           
  1519                           ;PROYECTO.c: 233:                 if (hora == 0){
  1520  020E  087B               	movf	_hora,w
  1521  020F  1D03               	btfss	3,2
  1522  0210  2A12               	goto	u981
  1523  0211  2A13               	goto	u980
  1524  0212                     u981:
  1525  0212  2A18               	goto	l1422
  1526  0213                     u980:
  1527  0213                     l1420:
  1528                           
  1529                           ;PROYECTO.c: 234:                     TXREG = 48;
  1530  0213  3030               	movlw	48
  1531  0214  1283               	bcf	3,5	;RP0=0, select bank0
  1532  0215  1303               	bcf	3,6	;RP1=0, select bank0
  1533  0216  0099               	movwf	25	;volatile
  1534                           
  1535                           ;PROYECTO.c: 235:                 }else if(hora == 1){
  1536  0217  2A7A               	goto	l1458
  1537  0218                     l1422:
  1538  0218  037B               	decf	_hora,w
  1539  0219  1D03               	btfss	3,2
  1540  021A  2A1C               	goto	u991
  1541  021B  2A1D               	goto	u990
  1542  021C                     u991:
  1543  021C  2A22               	goto	l1426
  1544  021D                     u990:
  1545  021D                     l1424:
  1546                           
  1547                           ;PROYECTO.c: 236:                     TXREG = 49;
  1548  021D  3031               	movlw	49
  1549  021E  1283               	bcf	3,5	;RP0=0, select bank0
  1550  021F  1303               	bcf	3,6	;RP1=0, select bank0
  1551  0220  0099               	movwf	25	;volatile
  1552                           
  1553                           ;PROYECTO.c: 237:                 }else if(hora == 2){
  1554  0221  2A7A               	goto	l1458
  1555  0222                     l1426:
  1556  0222  3002               	movlw	2
  1557  0223  067B               	xorwf	_hora,w
  1558  0224  1D03               	btfss	3,2
  1559  0225  2A27               	goto	u1001
  1560  0226  2A28               	goto	u1000
  1561  0227                     u1001:
  1562  0227  2A2D               	goto	l1430
  1563  0228                     u1000:
  1564  0228                     l1428:
  1565                           
  1566                           ;PROYECTO.c: 238:                     TXREG = 50;
  1567  0228  3032               	movlw	50
  1568  0229  1283               	bcf	3,5	;RP0=0, select bank0
  1569  022A  1303               	bcf	3,6	;RP1=0, select bank0
  1570  022B  0099               	movwf	25	;volatile
  1571                           
  1572                           ;PROYECTO.c: 239:                 }else if(hora == 3){
  1573  022C  2A7A               	goto	l1458
  1574  022D                     l1430:
  1575  022D  3003               	movlw	3
  1576  022E  067B               	xorwf	_hora,w
  1577  022F  1D03               	btfss	3,2
  1578  0230  2A32               	goto	u1011
  1579  0231  2A33               	goto	u1010
  1580  0232                     u1011:
  1581  0232  2A38               	goto	l1434
  1582  0233                     u1010:
  1583  0233                     l1432:
  1584                           
  1585                           ;PROYECTO.c: 240:                     TXREG = 51;
  1586  0233  3033               	movlw	51
  1587  0234  1283               	bcf	3,5	;RP0=0, select bank0
  1588  0235  1303               	bcf	3,6	;RP1=0, select bank0
  1589  0236  0099               	movwf	25	;volatile
  1590                           
  1591                           ;PROYECTO.c: 241:                 }else if(hora == 4){
  1592  0237  2A7A               	goto	l1458
  1593  0238                     l1434:
  1594  0238  3004               	movlw	4
  1595  0239  067B               	xorwf	_hora,w
  1596  023A  1D03               	btfss	3,2
  1597  023B  2A3D               	goto	u1021
  1598  023C  2A3E               	goto	u1020
  1599  023D                     u1021:
  1600  023D  2A43               	goto	l1438
  1601  023E                     u1020:
  1602  023E                     l1436:
  1603                           
  1604                           ;PROYECTO.c: 242:                     TXREG = 52;
  1605  023E  3034               	movlw	52
  1606  023F  1283               	bcf	3,5	;RP0=0, select bank0
  1607  0240  1303               	bcf	3,6	;RP1=0, select bank0
  1608  0241  0099               	movwf	25	;volatile
  1609                           
  1610                           ;PROYECTO.c: 243:                 }else if(hora == 5){
  1611  0242  2A7A               	goto	l1458
  1612  0243                     l1438:
  1613  0243  3005               	movlw	5
  1614  0244  067B               	xorwf	_hora,w
  1615  0245  1D03               	btfss	3,2
  1616  0246  2A48               	goto	u1031
  1617  0247  2A49               	goto	u1030
  1618  0248                     u1031:
  1619  0248  2A4E               	goto	l1442
  1620  0249                     u1030:
  1621  0249                     l1440:
  1622                           
  1623                           ;PROYECTO.c: 244:                     TXREG = 53;
  1624  0249  3035               	movlw	53
  1625  024A  1283               	bcf	3,5	;RP0=0, select bank0
  1626  024B  1303               	bcf	3,6	;RP1=0, select bank0
  1627  024C  0099               	movwf	25	;volatile
  1628                           
  1629                           ;PROYECTO.c: 245:                 }else if(hora == 6){
  1630  024D  2A7A               	goto	l1458
  1631  024E                     l1442:
  1632  024E  3006               	movlw	6
  1633  024F  067B               	xorwf	_hora,w
  1634  0250  1D03               	btfss	3,2
  1635  0251  2A53               	goto	u1041
  1636  0252  2A54               	goto	u1040
  1637  0253                     u1041:
  1638  0253  2A59               	goto	l1446
  1639  0254                     u1040:
  1640  0254                     l1444:
  1641                           
  1642                           ;PROYECTO.c: 246:                     TXREG = 54;
  1643  0254  3036               	movlw	54
  1644  0255  1283               	bcf	3,5	;RP0=0, select bank0
  1645  0256  1303               	bcf	3,6	;RP1=0, select bank0
  1646  0257  0099               	movwf	25	;volatile
  1647                           
  1648                           ;PROYECTO.c: 247:                 }else if(hora == 7){
  1649  0258  2A7A               	goto	l1458
  1650  0259                     l1446:
  1651  0259  3007               	movlw	7
  1652  025A  067B               	xorwf	_hora,w
  1653  025B  1D03               	btfss	3,2
  1654  025C  2A5E               	goto	u1051
  1655  025D  2A5F               	goto	u1050
  1656  025E                     u1051:
  1657  025E  2A64               	goto	l1450
  1658  025F                     u1050:
  1659  025F                     l1448:
  1660                           
  1661                           ;PROYECTO.c: 248:                     TXREG = 55;
  1662  025F  3037               	movlw	55
  1663  0260  1283               	bcf	3,5	;RP0=0, select bank0
  1664  0261  1303               	bcf	3,6	;RP1=0, select bank0
  1665  0262  0099               	movwf	25	;volatile
  1666                           
  1667                           ;PROYECTO.c: 249:                 }else if(hora == 8){
  1668  0263  2A7A               	goto	l1458
  1669  0264                     l1450:
  1670  0264  3008               	movlw	8
  1671  0265  067B               	xorwf	_hora,w
  1672  0266  1D03               	btfss	3,2
  1673  0267  2A69               	goto	u1061
  1674  0268  2A6A               	goto	u1060
  1675  0269                     u1061:
  1676  0269  2A6F               	goto	l1454
  1677  026A                     u1060:
  1678  026A                     l1452:
  1679                           
  1680                           ;PROYECTO.c: 250:                     TXREG = 56;
  1681  026A  3038               	movlw	56
  1682  026B  1283               	bcf	3,5	;RP0=0, select bank0
  1683  026C  1303               	bcf	3,6	;RP1=0, select bank0
  1684  026D  0099               	movwf	25	;volatile
  1685                           
  1686                           ;PROYECTO.c: 251:                 }else if(hora == 9){
  1687  026E  2A7A               	goto	l1458
  1688  026F                     l1454:
  1689  026F  3009               	movlw	9
  1690  0270  067B               	xorwf	_hora,w
  1691  0271  1D03               	btfss	3,2
  1692  0272  2A74               	goto	u1071
  1693  0273  2A75               	goto	u1070
  1694  0274                     u1071:
  1695  0274  2A7A               	goto	l156
  1696  0275                     u1070:
  1697  0275                     l1456:
  1698                           
  1699                           ;PROYECTO.c: 252:                     TXREG = 57;
  1700  0275  3039               	movlw	57
  1701  0276  1283               	bcf	3,5	;RP0=0, select bank0
  1702  0277  1303               	bcf	3,6	;RP1=0, select bank0
  1703  0278  0099               	movwf	25	;volatile
  1704  0279  2A7A               	goto	l1458
  1705  027A                     l156:
  1706  027A                     l1458:
  1707                           
  1708                           ;PROYECTO.c: 255:                 USART_Cadena(" Horas ");
  1709  027A  30AE               	movlw	(low ((STR_6-__stringbase)| (0+32768)))& (0+255)
  1710  027B  120A  118A  24CE  120A  118A  	fcall	_USART_Cadena
  1711  0280                     l1460:
  1712                           
  1713                           ;PROYECTO.c: 257:                 USART_Cadena(" con  ");
  1714  0280  30B6               	movlw	(low ((STR_7-__stringbase)| (0+32768)))& (0+255)
  1715  0281  120A  118A  24CE  120A  118A  	fcall	_USART_Cadena
  1716  0286                     l162:	
  1717                           ;PROYECTO.c: 258:                 while(TXSTAbits.TRMT == 0);
  1718                           
  1719  0286  1683               	bsf	3,5	;RP0=1, select bank1
  1720  0287  1303               	bcf	3,6	;RP1=0, select bank1
  1721  0288  1C98               	btfss	24,1	;volatile
  1722  0289  2A8B               	goto	u1081
  1723  028A  2A8C               	goto	u1080
  1724  028B                     u1081:
  1725  028B  2A86               	goto	l162
  1726  028C                     u1080:
  1727  028C                     l1462:
  1728                           
  1729                           ;PROYECTO.c: 259:                 if(minuto == 0) {
  1730  028C  087A               	movf	_minuto,w
  1731  028D  1D03               	btfss	3,2
  1732  028E  2A90               	goto	u1091
  1733  028F  2A91               	goto	u1090
  1734  0290                     u1091:
  1735  0290  2A98               	goto	l1466
  1736  0291                     u1090:
  1737  0291                     l1464:
  1738                           
  1739                           ;PROYECTO.c: 260:                     USART_Cadena("0");
  1740  0291  30BE               	movlw	(low (((STR_10+1)-__stringbase)| (0+32768)))& (0+255)
  1741  0292  120A  118A  24CE  120A  118A  	fcall	_USART_Cadena
  1742                           
  1743                           ;PROYECTO.c: 261:                 }else if (minuto == 15){
  1744  0297  2ACC               	goto	l166
  1745  0298                     l1466:
  1746  0298  300F               	movlw	15
  1747  0299  067A               	xorwf	_minuto,w
  1748  029A  1D03               	btfss	3,2
  1749  029B  2A9D               	goto	u1101
  1750  029C  2A9E               	goto	u1100
  1751  029D                     u1101:
  1752  029D  2AA5               	goto	l1470
  1753  029E                     u1100:
  1754  029E                     l1468:
  1755                           
  1756                           ;PROYECTO.c: 262:                     USART_Cadena("15");
  1757  029E  30C3               	movlw	(low ((STR_9-__stringbase)| (0+32768)))& (0+255)
  1758  029F  120A  118A  24CE  120A  118A  	fcall	_USART_Cadena
  1759                           
  1760                           ;PROYECTO.c: 263:                 }else if (minuto == 30){
  1761  02A4  2ACC               	goto	l166
  1762  02A5                     l1470:
  1763  02A5  301E               	movlw	30
  1764  02A6  067A               	xorwf	_minuto,w
  1765  02A7  1D03               	btfss	3,2
  1766  02A8  2AAA               	goto	u1111
  1767  02A9  2AAB               	goto	u1110
  1768  02AA                     u1111:
  1769  02AA  2AB2               	goto	l1474
  1770  02AB                     u1110:
  1771  02AB                     l1472:
  1772                           
  1773                           ;PROYECTO.c: 264:                     USART_Cadena("30");
  1774  02AB  30BD               	movlw	(low ((STR_10-__stringbase)| (0+32768)))& (0+255)
  1775  02AC  120A  118A  24CE  120A  118A  	fcall	_USART_Cadena
  1776                           
  1777                           ;PROYECTO.c: 265:                 }else if (minuto == 45){
  1778  02B1  2ACC               	goto	l166
  1779  02B2                     l1474:
  1780  02B2  302D               	movlw	45
  1781  02B3  067A               	xorwf	_minuto,w
  1782  02B4  1D03               	btfss	3,2
  1783  02B5  2AB7               	goto	u1121
  1784  02B6  2AB8               	goto	u1120
  1785  02B7                     u1121:
  1786  02B7  2ABF               	goto	l1478
  1787  02B8                     u1120:
  1788  02B8                     l1476:
  1789                           
  1790                           ;PROYECTO.c: 266:                     USART_Cadena("45");
  1791  02B8  30C6               	movlw	(low ((STR_11-__stringbase)| (0+32768)))& (0+255)
  1792  02B9  120A  118A  24CE  120A  118A  	fcall	_USART_Cadena
  1793                           
  1794                           ;PROYECTO.c: 267:                 }else if (minuto == 60){
  1795  02BE  2ACC               	goto	l166
  1796  02BF                     l1478:
  1797  02BF  303C               	movlw	60
  1798  02C0  067A               	xorwf	_minuto,w
  1799  02C1  1D03               	btfss	3,2
  1800  02C2  2AC4               	goto	u1131
  1801  02C3  2AC5               	goto	u1130
  1802  02C4                     u1131:
  1803  02C4  2ACC               	goto	l170
  1804  02C5                     u1130:
  1805  02C5                     l1480:
  1806                           
  1807                           ;PROYECTO.c: 268:                     USART_Cadena("60");
  1808  02C5  30C0               	movlw	(low ((STR_12-__stringbase)| (0+32768)))& (0+255)
  1809  02C6  120A  118A  24CE  120A  118A  	fcall	_USART_Cadena
  1810  02CB  2ACC               	goto	l166
  1811  02CC                     l170:
  1812  02CC                     l166:
  1813                           
  1814                           ;PROYECTO.c: 270:                 USART_Cadena(" mins. para el medicamento  \r\r");
  1815  02CC  3001               	movlw	(low ((STR_13-__stringbase)| (0+32768)))& (0+255)
  1816  02CD  120A  118A  24CE  120A  118A  	fcall	_USART_Cadena
  1817  02D2                     l1482:
  1818                           
  1819                           ;PROYECTO.c: 271:                 ventana = 1;
  1820  02D2  01F7               	clrf	_ventana
  1821  02D3  0AF7               	incf	_ventana,f
  1822                           
  1823                           ;PROYECTO.c: 272:                 break;
  1824  02D4  2B60               	goto	l1524
  1825  02D5                     l1484:
  1826                           
  1827                           ;PROYECTO.c: 275:                 USART_Cadena(" con  ");
  1828  02D5  30B6               	movlw	(low ((STR_7-__stringbase)| (0+32768)))& (0+255)
  1829  02D6  120A  118A  24CE  120A  118A  	fcall	_USART_Cadena
  1830  02DB                     l176:	
  1831                           ;PROYECTO.c: 276:                 while(TXSTAbits.TRMT == 0);
  1832                           
  1833  02DB  1683               	bsf	3,5	;RP0=1, select bank1
  1834  02DC  1303               	bcf	3,6	;RP1=0, select bank1
  1835  02DD  1C98               	btfss	24,1	;volatile
  1836  02DE  2AE0               	goto	u1141
  1837  02DF  2AE1               	goto	u1140
  1838  02E0                     u1141:
  1839  02E0  2ADB               	goto	l176
  1840  02E1                     u1140:
  1841  02E1                     l1486:
  1842                           
  1843                           ;PROYECTO.c: 277:                 if(minuto == 0) {
  1844  02E1  087A               	movf	_minuto,w
  1845  02E2  1D03               	btfss	3,2
  1846  02E3  2AE5               	goto	u1151
  1847  02E4  2AE6               	goto	u1150
  1848  02E5                     u1151:
  1849  02E5  2AED               	goto	l1490
  1850  02E6                     u1150:
  1851  02E6                     l1488:
  1852                           
  1853                           ;PROYECTO.c: 278:                     USART_Cadena("0");
  1854  02E6  30BE               	movlw	(low (((STR_10+1)-__stringbase)| (0+32768)))& (0+255)
  1855  02E7  120A  118A  24CE  120A  118A  	fcall	_USART_Cadena
  1856                           
  1857                           ;PROYECTO.c: 279:                 }else if (minuto == 15){
  1858  02EC  2B21               	goto	l180
  1859  02ED                     l1490:
  1860  02ED  300F               	movlw	15
  1861  02EE  067A               	xorwf	_minuto,w
  1862  02EF  1D03               	btfss	3,2
  1863  02F0  2AF2               	goto	u1161
  1864  02F1  2AF3               	goto	u1160
  1865  02F2                     u1161:
  1866  02F2  2AFA               	goto	l1494
  1867  02F3                     u1160:
  1868  02F3                     l1492:
  1869                           
  1870                           ;PROYECTO.c: 280:                     USART_Cadena("15");
  1871  02F3  30C3               	movlw	(low ((STR_9-__stringbase)| (0+32768)))& (0+255)
  1872  02F4  120A  118A  24CE  120A  118A  	fcall	_USART_Cadena
  1873                           
  1874                           ;PROYECTO.c: 281:                 }else if (minuto == 30){
  1875  02F9  2B21               	goto	l180
  1876  02FA                     l1494:
  1877  02FA  301E               	movlw	30
  1878  02FB  067A               	xorwf	_minuto,w
  1879  02FC  1D03               	btfss	3,2
  1880  02FD  2AFF               	goto	u1171
  1881  02FE  2B00               	goto	u1170
  1882  02FF                     u1171:
  1883  02FF  2B07               	goto	l1498
  1884  0300                     u1170:
  1885  0300                     l1496:
  1886                           
  1887                           ;PROYECTO.c: 282:                     USART_Cadena("30");
  1888  0300  30BD               	movlw	(low ((STR_10-__stringbase)| (0+32768)))& (0+255)
  1889  0301  120A  118A  24CE  120A  118A  	fcall	_USART_Cadena
  1890                           
  1891                           ;PROYECTO.c: 283:                 }else if (minuto == 45){
  1892  0306  2B21               	goto	l180
  1893  0307                     l1498:
  1894  0307  302D               	movlw	45
  1895  0308  067A               	xorwf	_minuto,w
  1896  0309  1D03               	btfss	3,2
  1897  030A  2B0C               	goto	u1181
  1898  030B  2B0D               	goto	u1180
  1899  030C                     u1181:
  1900  030C  2B14               	goto	l1502
  1901  030D                     u1180:
  1902  030D                     l1500:
  1903                           
  1904                           ;PROYECTO.c: 284:                     USART_Cadena("45");
  1905  030D  30C6               	movlw	(low ((STR_11-__stringbase)| (0+32768)))& (0+255)
  1906  030E  120A  118A  24CE  120A  118A  	fcall	_USART_Cadena
  1907                           
  1908                           ;PROYECTO.c: 285:                 }else if (minuto == 60){
  1909  0313  2B21               	goto	l180
  1910  0314                     l1502:
  1911  0314  303C               	movlw	60
  1912  0315  067A               	xorwf	_minuto,w
  1913  0316  1D03               	btfss	3,2
  1914  0317  2B19               	goto	u1191
  1915  0318  2B1A               	goto	u1190
  1916  0319                     u1191:
  1917  0319  2B21               	goto	l184
  1918  031A                     u1190:
  1919  031A                     l1504:
  1920                           
  1921                           ;PROYECTO.c: 286:                     USART_Cadena("60");
  1922  031A  30C0               	movlw	(low ((STR_12-__stringbase)| (0+32768)))& (0+255)
  1923  031B  120A  118A  24CE  120A  118A  	fcall	_USART_Cadena
  1924  0320  2B21               	goto	l180
  1925  0321                     l184:
  1926  0321                     l180:
  1927                           
  1928                           ;PROYECTO.c: 288:                 USART_Cadena(" mins. para el medicamento  \r\r");
  1929  0321  3001               	movlw	(low ((STR_13-__stringbase)| (0+32768)))& (0+255)
  1930  0322  120A  118A  24CE  120A  118A  	fcall	_USART_Cadena
  1931  0327  2AD2               	goto	l1482
  1932  0328                     l1508:
  1933                           
  1934                           ;PROYECTO.c: 293:                 USART_Cadena(" Esperar  ");
  1935  0328  30A3               	movlw	(low ((STR_5-__stringbase)| (0+32768)))& (0+255)
  1936  0329  120A  118A  24CE  120A  118A  	fcall	_USART_Cadena
  1937  032E                     l1510:
  1938                           
  1939                           ;PROYECTO.c: 294:                 USART_Tx(hora);
  1940  032E  087B               	movf	_hora,w
  1941  032F  120A  118A  24ED  120A  118A  	fcall	_USART_Tx
  1942  0334                     l1512:
  1943                           
  1944                           ;PROYECTO.c: 295:                 USART_Cadena(" H. para el medicamento  \r");
  1945  0334  303F               	movlw	(low ((STR_22-__stringbase)| (0+32768)))& (0+255)
  1946  0335  120A  118A  24CE  120A  118A  	fcall	_USART_Cadena
  1947  033A                     l1514:
  1948                           
  1949                           ;PROYECTO.c: 296:                 USART_Cadena(" Esperar  ");
  1950  033A  30A3               	movlw	(low ((STR_5-__stringbase)| (0+32768)))& (0+255)
  1951  033B  120A  118A  24CE  120A  118A  	fcall	_USART_Cadena
  1952  0340                     l1516:
  1953                           
  1954                           ;PROYECTO.c: 297:                 USART_Tx(minuto);
  1955  0340  087A               	movf	_minuto,w
  1956  0341  120A  118A  24ED  120A  118A  	fcall	_USART_Tx
  1957                           
  1958                           ;PROYECTO.c: 298:                 USART_Cadena(" mins. para el medicamento  \r\r");
  1959  0346  3001               	movlw	(low ((STR_13-__stringbase)| (0+32768)))& (0+255)
  1960  0347  120A  118A  24CE  120A  118A  	fcall	_USART_Cadena
  1961  034C  2AD2               	goto	l1482
  1962  034D                     l1522:
  1963  034D  0878               	movf	_valor,w
  1964  034E  00F5               	movwf	??_main
  1965  034F  01F6               	clrf	??_main+1
  1966                           
  1967                           ; Switch on 2 bytes has been partitioned into a top level switch of size 1, and 1 sub-sw
      +                          itches
  1968                           ; Switch size 1, requested type "simple"
  1969                           ; Number of cases is 1, Range of values is 0 to 0
  1970                           ; switch strategies available:
  1971                           ; Name         Instructions Cycles
  1972                           ; simple_byte            4     3 (average)
  1973                           ; direct_byte           11     8 (fixed)
  1974                           ; jumptable            260     6 (fixed)
  1975                           ;	Chosen strategy is simple_byte
  1976  0350  0876               	movf	??_main+1,w
  1977  0351  3A00               	xorlw	0	; case 0
  1978  0352  1903               	skipnz
  1979  0353  2B55               	goto	l1562
  1980  0354  2B60               	goto	l1524
  1981  0355                     l1562:
  1982                           
  1983                           ; Switch size 1, requested type "simple"
  1984                           ; Number of cases is 3, Range of values is 49 to 51
  1985                           ; switch strategies available:
  1986                           ; Name         Instructions Cycles
  1987                           ; simple_byte           10     6 (average)
  1988                           ; direct_byte           20    11 (fixed)
  1989                           ; jumptable            263     9 (fixed)
  1990                           ;	Chosen strategy is simple_byte
  1991  0355  0875               	movf	??_main,w
  1992  0356  3A31               	xorlw	49	; case 49
  1993  0357  1903               	skipnz
  1994  0358  2A02               	goto	l1416
  1995  0359  3A03               	xorlw	3	; case 50
  1996  035A  1903               	skipnz
  1997  035B  2AD5               	goto	l1484
  1998  035C  3A01               	xorlw	1	; case 51
  1999  035D  1903               	skipnz
  2000  035E  2B28               	goto	l1508
  2001  035F  2B60               	goto	l1524
  2002  0360                     l1524:
  2003                           
  2004                           ;PROYECTO.c: 302:        valor = 0;
  2005  0360  01F8               	clrf	_valor
  2006  0361  286A               	goto	l1268
  2007  0362  120A  118A  280C   	ljmp	start
  2008  0365                     __end_of_main:
  2009                           
  2010                           	psect	text1
  2011  0500                     __ptext1:	
  2012 ;; *************** function _USART_Rx *****************
  2013 ;; Defined at:
  2014 ;;		line 315 in file "PROYECTO.c"
  2015 ;; Parameters:    Size  Location     Type
  2016 ;;		None
  2017 ;; Auto vars:     Size  Location     Type
  2018 ;;		None
  2019 ;; Return value:  Size  Location     Type
  2020 ;;                  1    wreg      unsigned char 
  2021 ;; Registers used:
  2022 ;;		wreg
  2023 ;; Tracked objects:
  2024 ;;		On entry : 0/0
  2025 ;;		On exit  : 0/0
  2026 ;;		Unchanged: 0/0
  2027 ;; Data sizes:     COMMON   BANK0   BANK1   BANK3   BANK2
  2028 ;;      Params:         0       0       0       0       0
  2029 ;;      Locals:         0       0       0       0       0
  2030 ;;      Temps:          0       0       0       0       0
  2031 ;;      Totals:         0       0       0       0       0
  2032 ;;Total ram usage:        0 bytes
  2033 ;; Hardware stack levels used:    1
  2034 ;; Hardware stack levels required when called:    1
  2035 ;; This function calls:
  2036 ;;		Nothing
  2037 ;; This function is called by:
  2038 ;;		_main
  2039 ;; This function uses a non-reentrant model
  2040 ;;
  2041                           
  2042                           
  2043                           ;psect for function _USART_Rx
  2044  0500                     _USART_Rx:
  2045  0500                     l810:	
  2046                           ;incstack = 0
  2047                           ; Regs used in _USART_Rx: [wreg]
  2048                           
  2049                           
  2050                           ;PROYECTO.c: 316:         return RCREG;
  2051  0500  1283               	bcf	3,5	;RP0=0, select bank0
  2052  0501  1303               	bcf	3,6	;RP1=0, select bank0
  2053  0502  081A               	movf	26,w	;volatile
  2054  0503                     l200:
  2055  0503  0008               	return
  2056  0504                     __end_of_USART_Rx:
  2057                           
  2058                           	psect	text2
  2059  04CE                     __ptext2:	
  2060 ;; *************** function _USART_Cadena *****************
  2061 ;; Defined at:
  2062 ;;		line 319 in file "PROYECTO.c"
  2063 ;; Parameters:    Size  Location     Type
  2064 ;;  str             1    wreg     PTR unsigned char 
  2065 ;;		 -> STR_24(31), STR_23(11), STR_22(27), STR_21(11), 
  2066 ;;		 -> STR_20(31), STR_19(3), STR_18(3), STR_17(3), 
  2067 ;;		 -> STR_16(3), STR_15(2), STR_14(7), STR_13(31), 
  2068 ;;		 -> STR_12(3), STR_11(3), STR_10(3), STR_9(3), 
  2069 ;;		 -> STR_8(2), STR_7(7), STR_6(8), STR_5(11), 
  2070 ;;		 -> STR_4(25), STR_3(25), STR_2(23), STR_1(31), 
  2071 ;; Auto vars:     Size  Location     Type
  2072 ;;  str             1    4[COMMON] PTR unsigned char 
  2073 ;;		 -> STR_24(31), STR_23(11), STR_22(27), STR_21(11), 
  2074 ;;		 -> STR_20(31), STR_19(3), STR_18(3), STR_17(3), 
  2075 ;;		 -> STR_16(3), STR_15(2), STR_14(7), STR_13(31), 
  2076 ;;		 -> STR_12(3), STR_11(3), STR_10(3), STR_9(3), 
  2077 ;;		 -> STR_8(2), STR_7(7), STR_6(8), STR_5(11), 
  2078 ;;		 -> STR_4(25), STR_3(25), STR_2(23), STR_1(31), 
  2079 ;; Return value:  Size  Location     Type
  2080 ;;                  1    wreg      void 
  2081 ;; Registers used:
  2082 ;;		wreg, fsr0l, fsr0h, status,2, status,0, pclath, cstack
  2083 ;; Tracked objects:
  2084 ;;		On entry : 0/0
  2085 ;;		On exit  : 0/0
  2086 ;;		Unchanged: 0/0
  2087 ;; Data sizes:     COMMON   BANK0   BANK1   BANK3   BANK2
  2088 ;;      Params:         0       0       0       0       0
  2089 ;;      Locals:         1       0       0       0       0
  2090 ;;      Temps:          1       0       0       0       0
  2091 ;;      Totals:         2       0       0       0       0
  2092 ;;Total ram usage:        2 bytes
  2093 ;; Hardware stack levels used:    1
  2094 ;; Hardware stack levels required when called:    2
  2095 ;; This function calls:
  2096 ;;		_USART_Tx
  2097 ;; This function is called by:
  2098 ;;		_main
  2099 ;; This function uses a non-reentrant model
  2100 ;;
  2101                           
  2102                           
  2103                           ;psect for function _USART_Cadena
  2104  04CE                     _USART_Cadena:
  2105                           
  2106                           ;incstack = 0
  2107                           ; Regs used in _USART_Cadena: [wreg-fsr0h+status,2+status,0+pclath+cstack]
  2108                           ;USART_Cadena@str stored from wreg
  2109  04CE  00F4               	movwf	USART_Cadena@str
  2110  04CF                     l1184:
  2111                           
  2112                           ;PROYECTO.c: 320:         while(*str != '\0'){
  2113  04CF  2CE0               	goto	l1190
  2114  04D0                     l1186:
  2115                           
  2116                           ;PROYECTO.c: 321:             USART_Tx(*str);
  2117  04D0  0874               	movf	USART_Cadena@str,w
  2118  04D1  0084               	movwf	4
  2119  04D2  120A  118A  2400  120A  118A  	fcall	stringdir
  2120  04D7  120A  118A  24ED  120A  118A  	fcall	_USART_Tx
  2121  04DC                     l1188:
  2122                           
  2123                           ;PROYECTO.c: 322:             str++;
  2124  04DC  3001               	movlw	1
  2125  04DD  00F3               	movwf	??_USART_Cadena
  2126  04DE  0873               	movf	??_USART_Cadena,w
  2127  04DF  07F4               	addwf	USART_Cadena@str,f
  2128  04E0                     l1190:
  2129                           
  2130                           ;PROYECTO.c: 320:         while(*str != '\0'){
  2131  04E0  0874               	movf	USART_Cadena@str,w
  2132  04E1  0084               	movwf	4
  2133  04E2  120A  118A  2400  120A  118A  	fcall	stringdir
  2134  04E7  3A00               	xorlw	0
  2135  04E8  1D03               	skipz
  2136  04E9  2CEB               	goto	u611
  2137  04EA  2CEC               	goto	u610
  2138  04EB                     u611:
  2139  04EB  2CD0               	goto	l1186
  2140  04EC                     u610:
  2141  04EC                     l206:
  2142  04EC  0008               	return
  2143  04ED                     __end_of_USART_Cadena:
  2144                           
  2145                           	psect	text3
  2146  04ED                     __ptext3:	
  2147 ;; *************** function _USART_Tx *****************
  2148 ;; Defined at:
  2149 ;;		line 310 in file "PROYECTO.c"
  2150 ;; Parameters:    Size  Location     Type
  2151 ;;  data            1    wreg     unsigned char 
  2152 ;; Auto vars:     Size  Location     Type
  2153 ;;  data            1    2[COMMON] unsigned char 
  2154 ;; Return value:  Size  Location     Type
  2155 ;;                  1    wreg      void 
  2156 ;; Registers used:
  2157 ;;		wreg
  2158 ;; Tracked objects:
  2159 ;;		On entry : 0/0
  2160 ;;		On exit  : 0/0
  2161 ;;		Unchanged: 0/0
  2162 ;; Data sizes:     COMMON   BANK0   BANK1   BANK3   BANK2
  2163 ;;      Params:         0       0       0       0       0
  2164 ;;      Locals:         1       0       0       0       0
  2165 ;;      Temps:          0       0       0       0       0
  2166 ;;      Totals:         1       0       0       0       0
  2167 ;;Total ram usage:        1 bytes
  2168 ;; Hardware stack levels used:    1
  2169 ;; Hardware stack levels required when called:    1
  2170 ;; This function calls:
  2171 ;;		Nothing
  2172 ;; This function is called by:
  2173 ;;		_main
  2174 ;;		_USART_Cadena
  2175 ;; This function uses a non-reentrant model
  2176 ;;
  2177                           
  2178                           
  2179                           ;psect for function _USART_Tx
  2180  04ED                     _USART_Tx:
  2181                           
  2182                           ;incstack = 0
  2183                           ; Regs used in _USART_Tx: [wreg]
  2184                           ;USART_Tx@data stored from wreg
  2185  04ED  00F2               	movwf	USART_Tx@data
  2186  04EE                     l798:
  2187  04EE                     l194:	
  2188                           ;PROYECTO.c: 311:         while(TXSTAbits.TRMT == 0);
  2189                           
  2190  04EE  1683               	bsf	3,5	;RP0=1, select bank1
  2191  04EF  1303               	bcf	3,6	;RP1=0, select bank1
  2192  04F0  1C98               	btfss	24,1	;volatile
  2193  04F1  2CF3               	goto	u11
  2194  04F2  2CF4               	goto	u10
  2195  04F3                     u11:
  2196  04F3  2CEE               	goto	l194
  2197  04F4                     u10:
  2198  04F4                     l800:
  2199                           
  2200                           ;PROYECTO.c: 312:         TXREG = data;
  2201  04F4  0872               	movf	USART_Tx@data,w
  2202  04F5  1283               	bcf	3,5	;RP0=0, select bank0
  2203  04F6  1303               	bcf	3,6	;RP1=0, select bank0
  2204  04F7  0099               	movwf	25	;volatile
  2205  04F8                     l197:
  2206  04F8  0008               	return
  2207  04F9                     __end_of_USART_Tx:
  2208                           
  2209                           	psect	text4
  2210  04F9                     __ptext4:	
  2211 ;; *************** function _isr *****************
  2212 ;; Defined at:
  2213 ;;		line 56 in file "PROYECTO.c"
  2214 ;; Parameters:    Size  Location     Type
  2215 ;;		None
  2216 ;; Auto vars:     Size  Location     Type
  2217 ;;		None
  2218 ;; Return value:  Size  Location     Type
  2219 ;;                  1    wreg      void 
  2220 ;; Registers used:
  2221 ;;		None
  2222 ;; Tracked objects:
  2223 ;;		On entry : 0/0
  2224 ;;		On exit  : 0/0
  2225 ;;		Unchanged: 0/0
  2226 ;; Data sizes:     COMMON   BANK0   BANK1   BANK3   BANK2
  2227 ;;      Params:         0       0       0       0       0
  2228 ;;      Locals:         0       0       0       0       0
  2229 ;;      Temps:          2       0       0       0       0
  2230 ;;      Totals:         2       0       0       0       0
  2231 ;;Total ram usage:        2 bytes
  2232 ;; Hardware stack levels used:    1
  2233 ;; This function calls:
  2234 ;;		Nothing
  2235 ;; This function is called by:
  2236 ;;		Interrupt level 1
  2237 ;; This function uses a non-reentrant model
  2238 ;;
  2239                           
  2240                           
  2241                           ;psect for function _isr
  2242  04F9                     _isr:
  2243  04F9                     i1l91:
  2244  04F9  0871               	movf	??_isr+1,w
  2245  04FA  008A               	movwf	10
  2246  04FB  0E70               	swapf	??_isr,w
  2247  04FC  0083               	movwf	3
  2248  04FD  0EFE               	swapf	btemp,f
  2249  04FE  0E7E               	swapf	btemp,w
  2250  04FF  0009               	retfie
  2251  0500                     __end_of_isr:
  2252  007E                     btemp	set	126	;btemp
  2253  007E                     wtemp0	set	126
  2254                           
  2255                           	psect	intentry
  2256  0004                     __pintentry:	
  2257                           ;incstack = 0
  2258                           ; Regs used in _isr: []
  2259                           
  2260  0004                     interrupt_function:
  2261  007E                     saved_w	set	btemp
  2262  0004  00FE               	movwf	btemp
  2263  0005  0E03               	swapf	3,w
  2264  0006  00F0               	movwf	??_isr
  2265  0007  080A               	movf	10,w
  2266  0008  00F1               	movwf	??_isr+1
  2267  0009  120A  118A  2CF9   	ljmp	_isr
  2268                           
  2269                           	psect	config
  2270                           
  2271                           ;Config register CONFIG1 @ 0x2007
  2272                           ;	Oscillator Selection bits
  2273                           ;	FOSC = INTRC_NOCLKOUT, INTOSCIO oscillator: I/O function on RA6/OSC2/CLKOUT pin, I/O f
      +                          unction on RA7/OSC1/CLKIN
  2274                           ;	Watchdog Timer Enable bit
  2275                           ;	WDTE = OFF, WDT disabled and can be enabled by SWDTEN bit of the WDTCON register
  2276                           ;	Power-up Timer Enable bit
  2277                           ;	PWRTE = OFF, PWRT disabled
  2278                           ;	RE3/MCLR pin function select bit
  2279                           ;	MCLRE = OFF, RE3/MCLR pin function is digital input, MCLR internally tied to VDD
  2280                           ;	Code Protection bit
  2281                           ;	CP = OFF, Program memory code protection is disabled
  2282                           ;	Data Code Protection bit
  2283                           ;	CPD = OFF, Data memory code protection is disabled
  2284                           ;	Brown Out Reset Selection bits
  2285                           ;	BOREN = OFF, BOR disabled
  2286                           ;	Internal External Switchover bit
  2287                           ;	IESO = OFF, Internal/External Switchover mode is disabled
  2288                           ;	Fail-Safe Clock Monitor Enabled bit
  2289                           ;	FCMEN = OFF, Fail-Safe Clock Monitor is disabled
  2290                           ;	Low Voltage Programming Enable bit
  2291                           ;	LVP = ON, RB3/PGM pin has PGM function, low voltage programming enabled
  2292                           ;	In-Circuit Debugger Mode bit
  2293                           ;	DEBUG = 0x1, unprogrammed default
  2294  2007                     	org	8199
  2295  2007  30D4               	dw	12500
  2296                           
  2297                           ;Config register CONFIG2 @ 0x2008
  2298                           ;	Brown-out Reset Selection bit
  2299                           ;	BOR4V = BOR40V, Brown-out Reset set to 4.0V
  2300                           ;	Flash Program Memory Self Write Enable bits
  2301                           ;	WRT = OFF, Write protection off
  2302  2008                     	org	8200
  2303  2008  3FFF               	dw	16383

Data Sizes:
    Strings     200
    Constant    0
    Data        0
    BSS         5
    Persistent  0
    Stack       0

Auto Spaces:
    Space          Size  Autos    Used
    COMMON           14      7      12
    BANK0            80      0       0
    BANK1            80      0       0
    BANK3            96      0       0
    BANK2            96      0       0

Pointer List with Targets:

    USART_Cadena@str	PTR unsigned char  size(1) Largest target is 31
		 -> STR_24(CODE[31]), STR_23(CODE[11]), STR_22(CODE[27]), STR_21(CODE[11]), 
		 -> STR_20(CODE[31]), STR_19(CODE[3]), STR_18(CODE[3]), STR_17(CODE[3]), 
		 -> STR_16(CODE[3]), STR_15(CODE[2]), STR_14(CODE[7]), STR_13(CODE[31]), 
		 -> STR_12(CODE[3]), STR_11(CODE[3]), STR_10(CODE[3]), STR_9(CODE[3]), 
		 -> STR_8(CODE[2]), STR_7(CODE[7]), STR_6(CODE[8]), STR_5(CODE[11]), 
		 -> STR_4(CODE[25]), STR_3(CODE[25]), STR_2(CODE[23]), STR_1(CODE[31]), 


Critical Paths under _main in COMMON

    _main->_USART_Cadena
    _USART_Cadena->_USART_Tx

Critical Paths under _isr in COMMON

    None.

Critical Paths under _main in BANK0

    None.

Critical Paths under _isr in BANK0

    None.

Critical Paths under _main in BANK1

    None.

Critical Paths under _isr in BANK1

    None.

Critical Paths under _main in BANK3

    None.

Critical Paths under _isr in BANK3

    None.

Critical Paths under _main in BANK2

    None.

Critical Paths under _isr in BANK2

    None.

Call Graph Tables:

 ---------------------------------------------------------------------------------
 (Depth) Function   	        Calls       Base Space   Used Autos Params    Refs
 ---------------------------------------------------------------------------------
 (0) _main                                                 2     2      0     867
                                              5 COMMON     2     2      0
                       _USART_Cadena
                           _USART_Rx
                           _USART_Tx
 ---------------------------------------------------------------------------------
 (1) _USART_Rx                                             0     0      0       0
 ---------------------------------------------------------------------------------
 (1) _USART_Cadena                                         2     2      0     852
                                              3 COMMON     2     2      0
                           _USART_Tx
 ---------------------------------------------------------------------------------
 (1) _USART_Tx                                             1     1      0      15
                                              2 COMMON     1     1      0
 ---------------------------------------------------------------------------------
 Estimated maximum stack depth 1
 ---------------------------------------------------------------------------------
 (Depth) Function   	        Calls       Base Space   Used Autos Params    Refs
 ---------------------------------------------------------------------------------
 (3) _isr                                                  2     2      0       0
                                              0 COMMON     2     2      0
 ---------------------------------------------------------------------------------
 Estimated maximum stack depth 3
 ---------------------------------------------------------------------------------

 Call Graph Graphs:

 _main (ROOT)
   _USART_Cadena
     _USART_Tx
   _USART_Rx
   _USART_Tx

 _isr (ROOT)

 Address spaces:
Name               Size   Autos  Total    Cost      Usage
BITCOMMON            E      0       0       0        0.0%
EEDATA             100      0       0       0        0.0%
NULL                 0      0       0       0        0.0%
CODE                 0      0       0       0        0.0%
COMMON               E      7       C       1       85.7%
BITSFR0              0      0       0       1        0.0%
SFR0                 0      0       0       1        0.0%
BITSFR1              0      0       0       2        0.0%
SFR1                 0      0       0       2        0.0%
STACK                0      0       0       2        0.0%
ABS                  0      0       C       3        0.0%
BITBANK0            50      0       0       4        0.0%
BITSFR3              0      0       0       4        0.0%
SFR3                 0      0       0       4        0.0%
BANK0               50      0       0       5        0.0%
BITSFR2              0      0       0       5        0.0%
SFR2                 0      0       0       5        0.0%
BITBANK1            50      0       0       6        0.0%
BANK1               50      0       0       7        0.0%
BITBANK3            60      0       0       8        0.0%
BANK3               60      0       0       9        0.0%
BITBANK2            60      0       0      10        0.0%
BANK2               60      0       0      11        0.0%
DATA                 0      0       C      12        0.0%


Microchip Technology PIC Macro Assembler V2.31 build 20201012212115 
Symbol Table                                                                                   Fri May 21 22:57:40 2021

                      pc 0002                       l98 0085                       u10 04F4  
                     u11 04F3                       fsr 0004                      l100 009A  
                    l102 00AF                      l200 0503                      l130 01C5  
                    l140 0208                      l109 011A                      l206 04EC  
                    l170 02CC                      l162 0286                      l180 0321  
                    l156 027A                      l166 02CC                      l184 0321  
                    l176 02DB                      l194 04EE                      l197 04F8  
                    l800 04F4                      l810 0500                      l798 04EE  
                    _RB0 0030                      _RB1 0031                      _RB2 0032  
                    _RD0 0040                      _RD1 0041                      _RD2 0042  
                    u610 04EC                      u611 04EB                      u700 00E8  
                    u620 006E                      u701 00E7                      u621 006D  
                    u710 00F3                      u630 0074                      u711 00F2  
                    u631 0073                      u800 0149                      u720 00F9  
                    u640 0089                      u801 0148                      u721 00F8  
                    u641 0088                      u810 014F                      u730 0104  
                    u650 009E                      u811 014E                      u731 0103  
                    u651 009D                      u900 019E                      u820 015A  
                    u740 010A                      u660 00C7                      u901 019D  
                    u821 0159                      u741 0109                      u661 00C6  
                    u910 01A4                      u830 0160                      u750 0115  
                    u670 00D0                      u911 01A3                      u831 015F  
                    u751 0114                      u671 00CF                      u920 01AF  
                    u840 016B                      u760 0128                      u680 00DA  
                    u921 01AE                      u841 016A                      u761 0127  
                    u681 00D9                      u930 01B5                      u850 0171  
                    u770 0132                      u690 00E2                      u931 01B4  
                    u851 0170                      u771 0131                      u691 00E1  
                    u940 01C0                      u860 017C                      u780 013A  
                    u941 01BF                      u861 017B                      u781 0139  
                    u950 01D8                      u870 0182                      u790 0140  
                    u951 01D7                      u871 0181                      u791 013F  
                    u960 01F7                      u880 018D                      u961 01F6  
                    u881 018C                      u970 020E                      u890 0193  
                    u971 020D                      u891 0192                      u980 0213  
                    u981 0212                      u990 021D                      u991 021C  
                    _isr 04F9                      fsr0 0004                     l1200 0025  
                   l1210 002F                     l1202 0026                     l1300 00BC  
                   l1220 003B                     l1212 0033                     l1204 0027  
                   l1310 00D0                     l1302 00BD                     l1230 0049  
                   l1222 0040                     l1214 0036                     l1206 002A  
                   l1400 01CE                     l1320 00ED                     l1312 00DA  
                   l1304 00C0                     l1240 0055                     l1232 004C  
                   l1224 0041                     l1216 0039                     l1208 002B  
                   l1410 01F1                     l1330 010A                     l1322 00F3  
                   l1314 00DC                     l1402 01D1                     l1306 00C1  
                   l1250 005E                     l1242 0058                     l1234 004D  
                   l1226 0042                     l1218 003A                     l1500 030D  
                   l1420 0213                     l1412 01F7                     l1404 01D3  
                   l1340 0128                     l1332 010F                     l1324 00F9  
                   l1316 00E2                     l1308 00C7                     l1260 0065  
                   l1252 005F                     l1244 0059                     l1236 0050  
                   l1228 0045                     l1190 04E0                     l1510 032E  
                   l1502 0314                     l1430 022D                     l1422 0218  
                   l1414 01FF                     l1406 01D8                     l1350 0143  
                   l1342 0132                     l1334 0115                     l1326 00FE  
                   l1318 00E8                     l1270 006E                     l1262 0066  
                   l1254 0060                     l1246 005A                     l1238 0054  
                   l1184 04CF                     l1512 0334                     l1504 031A  
                   l1440 0249                     l1432 0233                     l1424 021D  
                   l1416 0202                     l1408 01F0                     l1360 0160  
                   l1352 0149                     l1344 0134                     l1328 0104  
                   l1336 011A                     l1280 0089                     l1272 0074  
                   l1264 0067                     l1256 0063                     l1248 005D  
                   l1192 0018                     l1186 04D0                     l1514 033A  
                   l1450 0264                     l1442 024E                     l1434 0238  
                   l1426 0222                     l1418 020E                     l1522 034D  
                   l1370 017C                     l1362 0165                     l1354 014F  
                   l1346 013A                     l1338 011F                     l1290 009F  
                   l1282 008A                     l1274 0075                     l1266 0068  
                   l1258 0064                     l1194 001F                     l1188 04DC  
                   l1516 0340                     l1508 0328                     l1524 0360  
                   l1460 0280                     l1452 026A                     l1444 0254  
                   l1436 023E                     l1428 0228                     l1380 0198  
                   l1372 0182                     l1364 016B                     l1356 0154  
                   l1348 0140                     l1292 00A8                     l1284 0093  
                   l1276 007E                     l1268 006A                     l1196 0021  
                   l1470 02A5                     l1462 028C                     l1454 026F  
                   l1446 0259                     l1438 0243                     l1390 01B5  
                   l1382 019E                     l1374 0187                     l1366 0171  
                   l1358 015A                     l1294 00AD                     l1286 0098  
                   l1278 0083                     l1198 0024                     l1480 02C5  
                   l1472 02AB                     l1464 0291                     l1456 0275  
                   l1448 025F                     l1392 01BA                     l1384 01A4  
                   l1376 018D                     l1368 0176                     l1296 00B2  
                   l1288 009E                     l1562 0355                     l1490 02ED  
                   l1482 02D2                     l1474 02B2                     l1466 0298  
                   l1458 027A                     l1394 01C0                     l1386 01A9  
                   l1378 0193                     l1298 00B9                     l1492 02F3  
                   l1484 02D5                     l1476 02B8                     l1468 029E  
                   l1388 01AF                     l1396 01C5                     l1494 02FA  
                   l1486 02E1                     l1478 02BF                     l1398 01C9  
                   l1496 0300                     l1488 02E6                     l1498 0307  
                   ?_isr 0070                     STR_1 0425                     STR_2 0491  
                   STR_3 0478                     STR_4 045F                     STR_5 04A8  
                   STR_6 04B3                     STR_7 04BB                     STR_8 04C3  
                   STR_9 04C8                     u1000 0228                     _T0IF 005A  
                   u1001 0227                     u1010 0233                     u1011 0232  
                   u1100 029E                     u1020 023E                     u1101 029D  
                   u1021 023D                     u1110 02AB                     u1030 0249  
                   u1111 02AA                     u1031 0248                     u1120 02B8  
                   u1040 0254                     u1121 02B7                     u1041 0253  
                   u1130 02C5                     u1050 025F                     u1131 02C4  
                   u1051 025E                     u1140 02E1                     u1060 026A  
                   u1141 02E0                     u1061 0269                     u1150 02E6  
                   u1070 0275                     u1151 02E5                     u1071 0274  
                   u1207 0031                     u1160 02F3                     u1080 028C  
                   u1161 02F2                     u1081 028B                     u1217 0079  
                   u1170 0300                     u1090 0291                     u1171 02FF  
                   u1091 0290                     u1227 008E                     u1180 030D  
                   u1181 030C                     u1237 00A3                     u1190 031A  
                   u1191 0319                     u1247 00B4                     u1257 01CB  
                   i1l91 04F9                     _TMR0 0001                     _main 0018  
                   _hora 007B                     btemp 007E                     start 000C  
                  ??_isr 0070                    ?_main 0070                    STR_10 04C2  
                  STR_11 04CB                    STR_20 0406                    STR_12 04C5  
                  STR_21 04A8                    STR_13 0406                    STR_14 04BB  
                  STR_22 0444                    STR_23 04A8                    STR_15 04C3  
                  STR_24 0406                    STR_16 04C8                    STR_17 04C2  
                  STR_18 04CB                    STR_19 04C5                    _ANSEL 0188  
                  _RCREG 001A                    _SPBRG 0099                    _PORTA 0005  
                  _PORTB 0006                    _PORTC 0007                    _PORTD 0008  
                  _PORTE 0009                    _TRISA 0085                    _TRISB 0086  
                  _TRISD 0088                    _TRISE 0089                    _TXREG 0019  
                  _valor 0078         __end_of_USART_Rx 0504         __end_of_USART_Tx 04F9  
           USART_Tx@data 0072                    pclath 000A                    status 0003  
                  wtemp0 007E          __initialization 000F             __end_of_main 0365  
                 ??_main 0075                   _ADRESH 001E                   _ANSELH 0189  
                 _SPBRGH 009A                   _escala 0079                   _minuto 007A  
                 saved_w 007E  __end_of__initialization 0014           __pcstackCOMMON 0070  
              ?_USART_Rx 0070                ?_USART_Tx 0070           _OPTION_REGbits 0081  
             __pmaintext 0018               __pintentry 0004               ??_USART_Rx 0072  
             ??_USART_Tx 0072               __stringtab 0400                  __ptext1 0500  
                __ptext2 04CE                  __ptext3 04ED                  __ptext4 04F9  
           __size_of_isr 0007                  _ventana 0077     end_of_initialization 0014  
              _RCSTAbits 0018            ?_USART_Cadena 0070                _TXSTAbits 0098  
            _BAUDCTLbits 0187        __size_of_USART_Rx 0004        __size_of_USART_Tx 000C  
    start_initialization 000F              __end_of_isr 0500           ??_USART_Cadena 0073  
            __pbssCOMMON 0077                ___latbits 0002                __pstrings 0400  
      interrupt_function 0004                 _PIR1bits 000C          USART_Cadena@str 0074  
   __end_of_USART_Cadena 04ED                 _USART_Rx 0500                 _USART_Tx 04ED  
             _ADCON0bits 001F              __stringbase 0405               _ADCON1bits 009F  
               _WPUBbits 0095       __end_of__stringtab 0406            __size_of_main 034D  
             _INTCONbits 000B                 intlevel1 0000                stringcode 0400  
  __size_of_USART_Cadena 001F               _OSCCONbits 008F                 stringdir 0400  
               stringtab 0400             _USART_Cadena 04CE  
