

Microchip MPLAB XC8 Assembler V2.31 build 20201012212115 
                                                                                               Fri May 28 10:12:45 2021

Microchip MPLAB XC8 C Compiler v2.31 (Free license) build 20201012212115 Og1 
     1                           	processor	16F887
     2                           	pagewidth 120
     3                           	opt	flic
     4                           	psect	strings,global,class=STRING,delta=2,noexec
     5                           	psect	stringtext,global,reloc=256,class=STRCODE,delta=2,noexec
     6                           	psect	cinit,global,class=CODE,merge=1,delta=2
     7                           	psect	bssCOMMON,global,class=COMMON,space=1,delta=1,noexec
     8                           	psect	bssBANK0,global,class=BANK0,space=1,delta=1,noexec
     9                           	psect	clrtext,global,class=CODE,delta=2
    10                           	psect	cstackCOMMON,global,class=COMMON,space=1,delta=1,noexec
    11                           	psect	cstackBANK0,global,class=BANK0,space=1,delta=1,noexec
    12                           	psect	maintext,global,class=CODE,split=1,delta=2
    13                           	psect	text1,local,class=CODE,merge=1,delta=2
    14                           	psect	text2,local,class=CODE,merge=1,delta=2
    15                           	psect	text3,local,class=CODE,merge=1,delta=2
    16                           	psect	text4,local,class=CODE,merge=1,delta=2
    17                           	psect	text5,local,class=CODE,merge=1,delta=2
    18                           	psect	text6,local,class=CODE,merge=1,delta=2
    19                           	psect	text7,local,class=CODE,merge=1,delta=2
    20                           	psect	text8,local,class=CODE,merge=1,delta=2
    21                           	psect	intentry,global,class=CODE,delta=2
    22                           	psect	config,global,abs,ovrld,class=CONFIG,space=4,delta=2,noexec
    23                           	psect	maintext_split_1,global,class=CODE,split=1,delta=2
    24                           	psect	maintext_split_2,global,class=CODE,split=1,delta=2
    25                           	dabs	1,0x7E,2
    26  0000                     
    27                           ; Version 2.20
    28                           ; Generated 12/02/2020 GMT
    29                           ; 
    30                           ; Copyright © 2020, Microchip Technology Inc. and its subsidiaries ("Microchip")
    31                           ; All rights reserved.
    32                           ; 
    33                           ; This software is developed by Microchip Technology Inc. and its subsidiaries ("Microch
      +                          ip").
    34                           ; 
    35                           ; Redistribution and use in source and binary forms, with or without modification, are
    36                           ; permitted provided that the following conditions are met:
    37                           ; 
    38                           ;     1. Redistributions of source code must retain the above copyright notice, this lis
      +                          t of
    39                           ;        conditions and the following disclaimer.
    40                           ; 
    41                           ;     2. Redistributions in binary form must reproduce the above copyright notice, this 
      +                          list
    42                           ;        of conditions and the following disclaimer in the documentation and/or other
    43                           ;        materials provided with the distribution.
    44                           ; 
    45                           ;     3. Microchip's name may not be used to endorse or promote products derived from th
      +                          is
    46                           ;        software without specific prior written permission.
    47                           ; 
    48                           ; THIS SOFTWARE IS PROVIDED BY MICROCHIP "AS IS" AND ANY EXPRESS OR IMPLIED WARRANTIES,
    49                           ; INCLUDING, BUT NOT LIMITED TO, THE IMPLIED WARRANTIES OF MERCHANTABILITY AND FITNESS F
      +                          OR
    50                           ; PURPOSE ARE DISCLAIMED.  IN NO EVENT SHALL MICROCHIP BE LIABLE FOR ANY DIRECT, INDIREC
      +                          T,
    51                           ; INCIDENTAL, SPECIAL, EXEMPLARY, OR CONSEQUENTIAL DAMAGES (INCLUDING BUT NOT LIMITED TO
    52                           ; PROCUREMENT OF SUBSTITUTE GOODS OR SERVICES; LOSS OF USE, DATA OR PROFITS; OR BUSINESS
    53                           ; INTERRUPTION) HOWSOEVER CAUSED AND ON ANY THEORY OF LIABILITY, WHETHER IN CONTRACT, ST
      +                          RICT
    54                           ; LIABILITY, OR TORT (INCLUDING NEGLIGENCE OR OTHERWISE) ARISING IN ANY WAY OUT OF THE U
      +                          SE OF
    55                           ; THIS SOFTWARE, EVEN IF ADVISED OF THE POSSIBILITY OF SUCH DAMAGE.
    56                           ; 
    57                           ; 
    58                           ; Code-generator required, PIC16F887 Definitions
    59                           ; 
    60                           ; SFR Addresses
    61  0000                     	;# 
    62  0001                     	;# 
    63  0002                     	;# 
    64  0003                     	;# 
    65  0004                     	;# 
    66  0005                     	;# 
    67  0006                     	;# 
    68  0007                     	;# 
    69  0008                     	;# 
    70  0009                     	;# 
    71  000A                     	;# 
    72  000B                     	;# 
    73  000C                     	;# 
    74  000D                     	;# 
    75  000E                     	;# 
    76  000E                     	;# 
    77  000F                     	;# 
    78  0010                     	;# 
    79  0011                     	;# 
    80  0012                     	;# 
    81  0013                     	;# 
    82  0014                     	;# 
    83  0015                     	;# 
    84  0015                     	;# 
    85  0016                     	;# 
    86  0017                     	;# 
    87  0018                     	;# 
    88  0019                     	;# 
    89  001A                     	;# 
    90  001B                     	;# 
    91  001B                     	;# 
    92  001C                     	;# 
    93  001D                     	;# 
    94  001E                     	;# 
    95  001F                     	;# 
    96  0081                     	;# 
    97  0085                     	;# 
    98  0086                     	;# 
    99  0087                     	;# 
   100  0088                     	;# 
   101  0089                     	;# 
   102  008C                     	;# 
   103  008D                     	;# 
   104  008E                     	;# 
   105  008F                     	;# 
   106  0090                     	;# 
   107  0091                     	;# 
   108  0092                     	;# 
   109  0093                     	;# 
   110  0093                     	;# 
   111  0093                     	;# 
   112  0094                     	;# 
   113  0095                     	;# 
   114  0096                     	;# 
   115  0097                     	;# 
   116  0098                     	;# 
   117  0099                     	;# 
   118  009A                     	;# 
   119  009B                     	;# 
   120  009C                     	;# 
   121  009D                     	;# 
   122  009E                     	;# 
   123  009F                     	;# 
   124  0105                     	;# 
   125  0107                     	;# 
   126  0108                     	;# 
   127  0109                     	;# 
   128  010C                     	;# 
   129  010C                     	;# 
   130  010D                     	;# 
   131  010E                     	;# 
   132  010F                     	;# 
   133  0185                     	;# 
   134  0187                     	;# 
   135  0188                     	;# 
   136  0189                     	;# 
   137  018C                     	;# 
   138  018D                     	;# 
   139  0000                     	;# 
   140  0001                     	;# 
   141  0002                     	;# 
   142  0003                     	;# 
   143  0004                     	;# 
   144  0005                     	;# 
   145  0006                     	;# 
   146  0007                     	;# 
   147  0008                     	;# 
   148  0009                     	;# 
   149  000A                     	;# 
   150  000B                     	;# 
   151  000C                     	;# 
   152  000D                     	;# 
   153  000E                     	;# 
   154  000E                     	;# 
   155  000F                     	;# 
   156  0010                     	;# 
   157  0011                     	;# 
   158  0012                     	;# 
   159  0013                     	;# 
   160  0014                     	;# 
   161  0015                     	;# 
   162  0015                     	;# 
   163  0016                     	;# 
   164  0017                     	;# 
   165  0018                     	;# 
   166  0019                     	;# 
   167  001A                     	;# 
   168  001B                     	;# 
   169  001B                     	;# 
   170  001C                     	;# 
   171  001D                     	;# 
   172  001E                     	;# 
   173  001F                     	;# 
   174  0081                     	;# 
   175  0085                     	;# 
   176  0086                     	;# 
   177  0087                     	;# 
   178  0088                     	;# 
   179  0089                     	;# 
   180  008C                     	;# 
   181  008D                     	;# 
   182  008E                     	;# 
   183  008F                     	;# 
   184  0090                     	;# 
   185  0091                     	;# 
   186  0092                     	;# 
   187  0093                     	;# 
   188  0093                     	;# 
   189  0093                     	;# 
   190  0094                     	;# 
   191  0095                     	;# 
   192  0096                     	;# 
   193  0097                     	;# 
   194  0098                     	;# 
   195  0099                     	;# 
   196  009A                     	;# 
   197  009B                     	;# 
   198  009C                     	;# 
   199  009D                     	;# 
   200  009E                     	;# 
   201  009F                     	;# 
   202  0105                     	;# 
   203  0107                     	;# 
   204  0108                     	;# 
   205  0109                     	;# 
   206  010C                     	;# 
   207  010C                     	;# 
   208  010D                     	;# 
   209  010E                     	;# 
   210  010F                     	;# 
   211  0185                     	;# 
   212  0187                     	;# 
   213  0188                     	;# 
   214  0189                     	;# 
   215  018C                     	;# 
   216  018D                     	;# 
   217  001A                     _RCREG	set	26
   218  0019                     _TXREG	set	25
   219  000C                     _PIR1bits	set	12
   220  001E                     _ADRESH	set	30
   221  0009                     _PORTE	set	9
   222  0008                     _PORTD	set	8
   223  0007                     _PORTC	set	7
   224  0006                     _PORTB	set	6
   225  0005                     _PORTA	set	5
   226  000B                     _INTCONbits	set	11
   227  0018                     _RCSTAbits	set	24
   228  0001                     _TMR0	set	1
   229  001F                     _ADCON0bits	set	31
   230  0035                     _RB5	set	53
   231  0036                     _RB6	set	54
   232  0037                     _RB7	set	55
   233  0042                     _RD2	set	66
   234  0032                     _RB2	set	50
   235  0041                     _RD1	set	65
   236  0031                     _RB1	set	49
   237  0040                     _RD0	set	64
   238  0030                     _RB0	set	48
   239  005A                     _T0IF	set	90
   240  009A                     _SPBRGH	set	154
   241  0099                     _SPBRG	set	153
   242  0098                     _TXSTAbits	set	152
   243  008F                     _OSCCONbits	set	143
   244  0095                     _WPUBbits	set	149
   245  0081                     _OPTION_REGbits	set	129
   246  009F                     _ADCON1bits	set	159
   247  0089                     _TRISE	set	137
   248  0088                     _TRISD	set	136
   249  0086                     _TRISB	set	134
   250  0085                     _TRISA	set	133
   251  0187                     _BAUDCTLbits	set	391
   252  0189                     _ANSELH	set	393
   253  0188                     _ANSEL	set	392
   254                           
   255                           	psect	strings
   256  0586                     __pstrings:
   257  0586                     stringtab:
   258  0586                     __stringtab:
   259                           
   260                           ;	String table - string pointers are 2 bytes each
   261  0586  1BFF               	btfsc	btemp+1,7
   262  0587  2D90               	ljmp	stringcode
   263  0588  1383               	bcf	3,7
   264  0589  187F               	btfsc	btemp+1,0
   265  058A  1783               	bsf	3,7
   266  058B  0800               	movf	0,w
   267  058C  0A84               	incf	4,f
   268  058D  1903               	skipnz
   269  058E  0AFF               	incf	btemp+1,f
   270  058F  0008               	return
   271  0590                     stringcode:
   272  0590  087F               	movf	btemp+1,w
   273  0591  397F               	andlw	127
   274  0592  008A               	movwf	10
   275  0593  0804               	movf	4,w
   276  0594  0A84               	incf	4,f
   277  0595  1903               	skipnz
   278  0596  0AFF               	incf	btemp+1,f
   279  0597  0082               	movwf	2
   280  0598                     __stringbase:
   281  0598                     __end_of__stringtab:
   282                           
   283                           	psect	stringtext
   284  1000                     __pstringtext:
   285  1000                     STR_29:
   286  1000  3420               	retlw	32	;' '
   287  1001  3461               	retlw	97	;'a'
   288  1002  342E               	retlw	46	;'.'
   289  1003  3430               	retlw	48	;'0'
   290  1004  3420               	retlw	32	;' '
   291  1005  3420               	retlw	32	;' '
   292  1006  3462               	retlw	98	;'b'
   293  1007  342E               	retlw	46	;'.'
   294  1008  3431               	retlw	49	;'1'
   295  1009  3420               	retlw	32	;' '
   296  100A  3420               	retlw	32	;' '
   297  100B  3420               	retlw	32	;' '
   298  100C  3463               	retlw	99	;'c'
   299  100D  342E               	retlw	46	;'.'
   300  100E  3432               	retlw	50	;'2'
   301  100F  3420               	retlw	32	;' '
   302  1010  3420               	retlw	32	;' '
   303  1011  3420               	retlw	32	;' '
   304  1012  3464               	retlw	100	;'d'
   305  1013  342E               	retlw	46	;'.'
   306  1014  3433               	retlw	51	;'3'
   307  1015  3420               	retlw	32	;' '
   308  1016  3420               	retlw	32	;' '
   309  1017  3420               	retlw	32	;' '
   310  1018  3465               	retlw	101	;'e'
   311  1019  342E               	retlw	46	;'.'
   312  101A  3434               	retlw	52	;'4'
   313  101B  3420               	retlw	32	;' '
   314  101C  3420               	retlw	32	;' '
   315  101D  3420               	retlw	32	;' '
   316  101E  3466               	retlw	102	;'f'
   317  101F  342E               	retlw	46	;'.'
   318  1020  3435               	retlw	53	;'5'
   319  1021  3420               	retlw	32	;' '
   320  1022  3420               	retlw	32	;' '
   321  1023  3420               	retlw	32	;' '
   322  1024  3467               	retlw	103	;'g'
   323  1025  342E               	retlw	46	;'.'
   324  1026  3436               	retlw	54	;'6'
   325  1027  3420               	retlw	32	;' '
   326  1028  3420               	retlw	32	;' '
   327  1029  3420               	retlw	32	;' '
   328  102A  3468               	retlw	104	;'h'
   329  102B  342E               	retlw	46	;'.'
   330  102C  3437               	retlw	55	;'7'
   331  102D  3420               	retlw	32	;' '
   332  102E  3420               	retlw	32	;' '
   333  102F  3469               	retlw	105	;'i'
   334  1030  342E               	retlw	46	;'.'
   335  1031  3438               	retlw	56	;'8'
   336  1032  340D               	retlw	13
   337  1033  3400               	retlw	0
   338  1034                     STR_39:
   339  1034  3420               	retlw	32	;' '
   340  1035  3470               	retlw	112	;'p'
   341  1036  3472               	retlw	114	;'r'
   342  1037  3465               	retlw	101	;'e'
   343  1038  3473               	retlw	115	;'s'
   344  1039  3469               	retlw	105	;'i'
   345  103A  346F               	retlw	111	;'o'
   346  103B  346E               	retlw	110	;'n'
   347  103C  3465               	retlw	101	;'e'
   348  103D  3420               	retlw	32	;' '
   349  103E  3465               	retlw	101	;'e'
   350  103F  346C               	retlw	108	;'l'
   351  1040  3420               	retlw	32	;' '
   352  1041  346E               	retlw	110	;'n'
   353  1042  34C3               	retlw	-61
   354  1043  34BA               	retlw	-70
   355  1044  346D               	retlw	109	;'m'
   356  1045  3465               	retlw	101	;'e'
   357  1046  3472               	retlw	114	;'r'
   358  1047  346F               	retlw	111	;'o'
   359  1048  3420               	retlw	32	;' '
   360  1049  3464               	retlw	100	;'d'
   361  104A  3465               	retlw	101	;'e'
   362  104B  3420               	retlw	32	;' '
   363  104C  346D               	retlw	109	;'m'
   364  104D  3465               	retlw	101	;'e'
   365  104E  3464               	retlw	100	;'d'
   366  104F  3469               	retlw	105	;'i'
   367  1050  3463               	retlw	99	;'c'
   368  1051  3461               	retlw	97	;'a'
   369  1052  346D               	retlw	109	;'m'
   370  1053  3465               	retlw	101	;'e'
   371  1054  346E               	retlw	110	;'n'
   372  1055  3474               	retlw	116	;'t'
   373  1056  346F               	retlw	111	;'o'
   374  1057  3420               	retlw	32	;' '
   375  1058  3461               	retlw	97	;'a'
   376  1059  3420               	retlw	32	;' '
   377  105A  3467               	retlw	103	;'g'
   378  105B  3475               	retlw	117	;'u'
   379  105C  3461               	retlw	97	;'a'
   380  105D  3472               	retlw	114	;'r'
   381  105E  3464               	retlw	100	;'d'
   382  105F  3461               	retlw	97	;'a'
   383  1060  3472               	retlw	114	;'r'
   384  1061  3420               	retlw	32	;' '
   385  1062  340D               	retlw	13
   386  1063  3400               	retlw	0
   387  1064                     STR_31:
   388  1064  3472               	retlw	114	;'r'
   389  1065  342E               	retlw	46	;'.'
   390  1066  3431               	retlw	49	;'1'
   391  1067  3437               	retlw	55	;'7'
   392  1068  3420               	retlw	32	;' '
   393  1069  3420               	retlw	32	;' '
   394  106A  3473               	retlw	115	;'s'
   395  106B  342E               	retlw	46	;'.'
   396  106C  3431               	retlw	49	;'1'
   397  106D  3438               	retlw	56	;'8'
   398  106E  3420               	retlw	32	;' '
   399  106F  3420               	retlw	32	;' '
   400  1070  3474               	retlw	116	;'t'
   401  1071  342E               	retlw	46	;'.'
   402  1072  3431               	retlw	49	;'1'
   403  1073  3439               	retlw	57	;'9'
   404  1074  3420               	retlw	32	;' '
   405  1075  3420               	retlw	32	;' '
   406  1076  3475               	retlw	117	;'u'
   407  1077  342E               	retlw	46	;'.'
   408  1078  3432               	retlw	50	;'2'
   409  1079  3430               	retlw	48	;'0'
   410  107A  3420               	retlw	32	;' '
   411  107B  3420               	retlw	32	;' '
   412  107C  3476               	retlw	118	;'v'
   413  107D  342E               	retlw	46	;'.'
   414  107E  3432               	retlw	50	;'2'
   415  107F  3431               	retlw	49	;'1'
   416  1080  3420               	retlw	32	;' '
   417  1081  3420               	retlw	32	;' '
   418  1082  3477               	retlw	119	;'w'
   419  1083  342E               	retlw	46	;'.'
   420  1084  3432               	retlw	50	;'2'
   421  1085  3432               	retlw	50	;'2'
   422  1086  3420               	retlw	32	;' '
   423  1087  3420               	retlw	32	;' '
   424  1088  3478               	retlw	120	;'x'
   425  1089  342E               	retlw	46	;'.'
   426  108A  3432               	retlw	50	;'2'
   427  108B  3433               	retlw	51	;'3'
   428  108C  3420               	retlw	32	;' '
   429  108D  3420               	retlw	32	;' '
   430  108E  3479               	retlw	121	;'y'
   431  108F  342E               	retlw	46	;'.'
   432  1090  3432               	retlw	50	;'2'
   433  1091  3434               	retlw	52	;'4'
   434  1092  340D               	retlw	13
   435  1093  3400               	retlw	0
   436  1094                     STR_30:
   437  1094  3420               	retlw	32	;' '
   438  1095  346A               	retlw	106	;'j'
   439  1096  342E               	retlw	46	;'.'
   440  1097  3439               	retlw	57	;'9'
   441  1098  3420               	retlw	32	;' '
   442  1099  3420               	retlw	32	;' '
   443  109A  346B               	retlw	107	;'k'
   444  109B  342E               	retlw	46	;'.'
   445  109C  3431               	retlw	49	;'1'
   446  109D  3430               	retlw	48	;'0'
   447  109E  3420               	retlw	32	;' '
   448  109F  3420               	retlw	32	;' '
   449  10A0  346C               	retlw	108	;'l'
   450  10A1  342E               	retlw	46	;'.'
   451  10A2  3431               	retlw	49	;'1'
   452  10A3  3431               	retlw	49	;'1'
   453  10A4  3420               	retlw	32	;' '
   454  10A5  3420               	retlw	32	;' '
   455  10A6  346D               	retlw	109	;'m'
   456  10A7  342E               	retlw	46	;'.'
   457  10A8  3431               	retlw	49	;'1'
   458  10A9  3432               	retlw	50	;'2'
   459  10AA  3420               	retlw	32	;' '
   460  10AB  3420               	retlw	32	;' '
   461  10AC  346E               	retlw	110	;'n'
   462  10AD  342E               	retlw	46	;'.'
   463  10AE  3431               	retlw	49	;'1'
   464  10AF  3433               	retlw	51	;'3'
   465  10B0  3420               	retlw	32	;' '
   466  10B1  3420               	retlw	32	;' '
   467  10B2  346F               	retlw	111	;'o'
   468  10B3  342E               	retlw	46	;'.'
   469  10B4  3431               	retlw	49	;'1'
   470  10B5  3434               	retlw	52	;'4'
   471  10B6  3420               	retlw	32	;' '
   472  10B7  3420               	retlw	32	;' '
   473  10B8  3470               	retlw	112	;'p'
   474  10B9  342E               	retlw	46	;'.'
   475  10BA  3431               	retlw	49	;'1'
   476  10BB  3435               	retlw	53	;'5'
   477  10BC  3420               	retlw	32	;' '
   478  10BD  3420               	retlw	32	;' '
   479  10BE  3471               	retlw	113	;'q'
   480  10BF  342E               	retlw	46	;'.'
   481  10C0  3431               	retlw	49	;'1'
   482  10C1  3436               	retlw	54	;'6'
   483  10C2  340D               	retlw	13
   484  10C3  3400               	retlw	0
   485  10C4                     STR_34:
   486  10C4  3420               	retlw	32	;' '
   487  10C5  3449               	retlw	73	;'I'
   488  10C6  346E               	retlw	110	;'n'
   489  10C7  3467               	retlw	103	;'g'
   490  10C8  3472               	retlw	114	;'r'
   491  10C9  3465               	retlw	101	;'e'
   492  10CA  3473               	retlw	115	;'s'
   493  10CB  34C3               	retlw	-61
   494  10CC  34A1               	retlw	-95
   495  10CD  3420               	retlw	32	;' '
   496  10CE  346C               	retlw	108	;'l'
   497  10CF  3461               	retlw	97	;'a'
   498  10D0  3420               	retlw	32	;' '
   499  10D1  346C               	retlw	108	;'l'
   500  10D2  3465               	retlw	101	;'e'
   501  10D3  3474               	retlw	116	;'t'
   502  10D4  3472               	retlw	114	;'r'
   503  10D5  3461               	retlw	97	;'a'
   504  10D6  3420               	retlw	32	;' '
   505  10D7  3464               	retlw	100	;'d'
   506  10D8  3465               	retlw	101	;'e'
   507  10D9  3420               	retlw	32	;' '
   508  10DA  346C               	retlw	108	;'l'
   509  10DB  346F               	retlw	111	;'o'
   510  10DC  3473               	retlw	115	;'s'
   511  10DD  3420               	retlw	32	;' '
   512  10DE  346D               	retlw	109	;'m'
   513  10DF  3469               	retlw	105	;'i'
   514  10E0  346E               	retlw	110	;'n'
   515  10E1  3475               	retlw	117	;'u'
   516  10E2  3474               	retlw	116	;'t'
   517  10E3  346F               	retlw	111	;'o'
   518  10E4  3473               	retlw	115	;'s'
   519  10E5  3420               	retlw	32	;' '
   520  10E6  346E               	retlw	110	;'n'
   521  10E7  3475               	retlw	117	;'u'
   522  10E8  3465               	retlw	101	;'e'
   523  10E9  3476               	retlw	118	;'v'
   524  10EA  346F               	retlw	111	;'o'
   525  10EB  3473               	retlw	115	;'s'
   526  10EC  3420               	retlw	32	;' '
   527  10ED  3420               	retlw	32	;' '
   528  10EE  340D               	retlw	13
   529  10EF  3400               	retlw	0
   530  10F0                     STR_38:
   531  10F0  3420               	retlw	32	;' '
   532  10F1  3441               	retlw	65	;'A'
   533  10F2  3463               	retlw	99	;'c'
   534  10F3  3474               	retlw	116	;'t'
   535  10F4  3475               	retlw	117	;'u'
   536  10F5  3461               	retlw	97	;'a'
   537  10F6  346C               	retlw	108	;'l'
   538  10F7  346D               	retlw	109	;'m'
   539  10F8  3465               	retlw	101	;'e'
   540  10F9  346E               	retlw	110	;'n'
   541  10FA  3474               	retlw	116	;'t'
   542  10FB  3465               	retlw	101	;'e'
   543  10FC  3420               	retlw	32	;' '
   544  10FD  3473               	retlw	115	;'s'
   545  10FE  3465               	retlw	101	;'e'
   546  10FF  3420               	retlw	32	;' '
   547  1100  3463               	retlw	99	;'c'
   548  1101  3475               	retlw	117	;'u'
   549  1102  3465               	retlw	101	;'e'
   550  1103  346E               	retlw	110	;'n'
   551  1104  3474               	retlw	116	;'t'
   552  1105  3461               	retlw	97	;'a'
   553  1106  3420               	retlw	32	;' '
   554  1107  3463               	retlw	99	;'c'
   555  1108  346F               	retlw	111	;'o'
   556  1109  346E               	retlw	110	;'n'
   557  110A  3420               	retlw	32	;' '
   558  110B  3433               	retlw	51	;'3'
   559  110C  3420               	retlw	32	;' '
   560  110D  346D               	retlw	109	;'m'
   561  110E  3465               	retlw	101	;'e'
   562  110F  3464               	retlw	100	;'d'
   563  1110  3469               	retlw	105	;'i'
   564  1111  3463               	retlw	99	;'c'
   565  1112  3461               	retlw	97	;'a'
   566  1113  346D               	retlw	109	;'m'
   567  1114  3465               	retlw	101	;'e'
   568  1115  346E               	retlw	110	;'n'
   569  1116  3474               	retlw	116	;'t'
   570  1117  346F               	retlw	111	;'o'
   571  1118  3473               	retlw	115	;'s'
   572  1119  340D               	retlw	13
   573  111A  3400               	retlw	0
   574  111B                     STR_28:
   575  111B  3420               	retlw	32	;' '
   576  111C  3449               	retlw	73	;'I'
   577  111D  346E               	retlw	110	;'n'
   578  111E  3467               	retlw	103	;'g'
   579  111F  3472               	retlw	114	;'r'
   580  1120  3465               	retlw	101	;'e'
   581  1121  3473               	retlw	115	;'s'
   582  1122  34C3               	retlw	-61
   583  1123  34A1               	retlw	-95
   584  1124  3420               	retlw	32	;' '
   585  1125  346C               	retlw	108	;'l'
   586  1126  3461               	retlw	97	;'a'
   587  1127  3420               	retlw	32	;' '
   588  1128  346C               	retlw	108	;'l'
   589  1129  3465               	retlw	101	;'e'
   590  112A  3474               	retlw	116	;'t'
   591  112B  3472               	retlw	114	;'r'
   592  112C  3461               	retlw	97	;'a'
   593  112D  3420               	retlw	32	;' '
   594  112E  3464               	retlw	100	;'d'
   595  112F  3465               	retlw	101	;'e'
   596  1130  3420               	retlw	32	;' '
   597  1131  346C               	retlw	108	;'l'
   598  1132  3461               	retlw	97	;'a'
   599  1133  3420               	retlw	32	;' '
   600  1134  346E               	retlw	110	;'n'
   601  1135  3475               	retlw	117	;'u'
   602  1136  3465               	retlw	101	;'e'
   603  1137  3476               	retlw	118	;'v'
   604  1138  3461               	retlw	97	;'a'
   605  1139  3420               	retlw	32	;' '
   606  113A  3468               	retlw	104	;'h'
   607  113B  346F               	retlw	111	;'o'
   608  113C  3472               	retlw	114	;'r'
   609  113D  3461               	retlw	97	;'a'
   610  113E  3420               	retlw	32	;' '
   611  113F  3420               	retlw	32	;' '
   612  1140  340D               	retlw	13
   613  1141  3400               	retlw	0
   614  1142                     STR_7:
   615  1142  3436               	retlw	54	;'6'
   616  1143  3429               	retlw	41	;')'
   617  1144  3420               	retlw	32	;' '
   618  1145  344D               	retlw	77	;'M'
   619  1146  346F               	retlw	111	;'o'
   620  1147  3464               	retlw	100	;'d'
   621  1148  3469               	retlw	105	;'i'
   622  1149  3466               	retlw	102	;'f'
   623  114A  3469               	retlw	105	;'i'
   624  114B  3463               	retlw	99	;'c'
   625  114C  3461               	retlw	97	;'a'
   626  114D  3472               	retlw	114	;'r'
   627  114E  3420               	retlw	32	;' '
   628  114F  3468               	retlw	104	;'h'
   629  1150  346F               	retlw	111	;'o'
   630  1151  3472               	retlw	114	;'r'
   631  1152  3461               	retlw	97	;'a'
   632  1153  3472               	retlw	114	;'r'
   633  1154  3469               	retlw	105	;'i'
   634  1155  346F               	retlw	111	;'o'
   635  1156  3420               	retlw	32	;' '
   636  1157  3475               	retlw	117	;'u'
   637  1158  3473               	retlw	115	;'s'
   638  1159  3475               	retlw	117	;'u'
   639  115A  3461               	retlw	97	;'a'
   640  115B  3472               	retlw	114	;'r'
   641  115C  3469               	retlw	105	;'i'
   642  115D  346F               	retlw	111	;'o'
   643  115E  3420               	retlw	32	;' '
   644  115F  3474               	retlw	116	;'t'
   645  1160  3472               	retlw	114	;'r'
   646  1161  3465               	retlw	101	;'e'
   647  1162  3473               	retlw	115	;'s'
   648  1163  3420               	retlw	32	;' '
   649  1164  340D               	retlw	13
   650  1165  340D               	retlw	13
   651  1166  3400               	retlw	0
   652  1167                     STR_35:
   653  1167  3420               	retlw	32	;' '
   654  1168  3461               	retlw	97	;'a'
   655  1169  342E               	retlw	46	;'.'
   656  116A  3430               	retlw	48	;'0'
   657  116B  3420               	retlw	32	;' '
   658  116C  3420               	retlw	32	;' '
   659  116D  3462               	retlw	98	;'b'
   660  116E  342E               	retlw	46	;'.'
   661  116F  3431               	retlw	49	;'1'
   662  1170  3435               	retlw	53	;'5'
   663  1171  3420               	retlw	32	;' '
   664  1172  3420               	retlw	32	;' '
   665  1173  3420               	retlw	32	;' '
   666  1174  3463               	retlw	99	;'c'
   667  1175  342E               	retlw	46	;'.'
   668  1176  3433               	retlw	51	;'3'
   669  1177  3430               	retlw	48	;'0'
   670  1178  3420               	retlw	32	;' '
   671  1179  3420               	retlw	32	;' '
   672  117A  3420               	retlw	32	;' '
   673  117B  3464               	retlw	100	;'d'
   674  117C  342E               	retlw	46	;'.'
   675  117D  3434               	retlw	52	;'4'
   676  117E  3435               	retlw	53	;'5'
   677  117F  3420               	retlw	32	;' '
   678  1180  3420               	retlw	32	;' '
   679  1181  3420               	retlw	32	;' '
   680  1182  3465               	retlw	101	;'e'
   681  1183  342E               	retlw	46	;'.'
   682  1184  3435               	retlw	53	;'5'
   683  1185  3435               	retlw	53	;'5'
   684  1186  3420               	retlw	32	;' '
   685  1187  3420               	retlw	32	;' '
   686  1188  3420               	retlw	32	;' '
   687  1189  340D               	retlw	13
   688  118A  3400               	retlw	0
   689  118B                     STR_5:
   690  118B  3434               	retlw	52	;'4'
   691  118C  3429               	retlw	41	;')'
   692  118D  3420               	retlw	32	;' '
   693  118E  344D               	retlw	77	;'M'
   694  118F  346F               	retlw	111	;'o'
   695  1190  3464               	retlw	100	;'d'
   696  1191  3469               	retlw	105	;'i'
   697  1192  3466               	retlw	102	;'f'
   698  1193  3469               	retlw	105	;'i'
   699  1194  3463               	retlw	99	;'c'
   700  1195  3461               	retlw	97	;'a'
   701  1196  3472               	retlw	114	;'r'
   702  1197  3420               	retlw	32	;' '
   703  1198  3468               	retlw	104	;'h'
   704  1199  346F               	retlw	111	;'o'
   705  119A  3472               	retlw	114	;'r'
   706  119B  3461               	retlw	97	;'a'
   707  119C  3472               	retlw	114	;'r'
   708  119D  3469               	retlw	105	;'i'
   709  119E  346F               	retlw	111	;'o'
   710  119F  3420               	retlw	32	;' '
   711  11A0  3475               	retlw	117	;'u'
   712  11A1  3473               	retlw	115	;'s'
   713  11A2  3475               	retlw	117	;'u'
   714  11A3  3461               	retlw	97	;'a'
   715  11A4  3472               	retlw	114	;'r'
   716  11A5  3469               	retlw	105	;'i'
   717  11A6  346F               	retlw	111	;'o'
   718  11A7  3420               	retlw	32	;' '
   719  11A8  3475               	retlw	117	;'u'
   720  11A9  346E               	retlw	110	;'n'
   721  11AA  346F               	retlw	111	;'o'
   722  11AB  3420               	retlw	32	;' '
   723  11AC  340D               	retlw	13
   724  11AD  3400               	retlw	0
   725  11AE                     STR_6:
   726  11AE  3435               	retlw	53	;'5'
   727  11AF  3429               	retlw	41	;')'
   728  11B0  3420               	retlw	32	;' '
   729  11B1  344D               	retlw	77	;'M'
   730  11B2  346F               	retlw	111	;'o'
   731  11B3  3464               	retlw	100	;'d'
   732  11B4  3469               	retlw	105	;'i'
   733  11B5  3466               	retlw	102	;'f'
   734  11B6  3469               	retlw	105	;'i'
   735  11B7  3463               	retlw	99	;'c'
   736  11B8  3461               	retlw	97	;'a'
   737  11B9  3472               	retlw	114	;'r'
   738  11BA  3420               	retlw	32	;' '
   739  11BB  3468               	retlw	104	;'h'
   740  11BC  346F               	retlw	111	;'o'
   741  11BD  3472               	retlw	114	;'r'
   742  11BE  3461               	retlw	97	;'a'
   743  11BF  3472               	retlw	114	;'r'
   744  11C0  3469               	retlw	105	;'i'
   745  11C1  346F               	retlw	111	;'o'
   746  11C2  3420               	retlw	32	;' '
   747  11C3  3475               	retlw	117	;'u'
   748  11C4  3473               	retlw	115	;'s'
   749  11C5  3475               	retlw	117	;'u'
   750  11C6  3461               	retlw	97	;'a'
   751  11C7  3472               	retlw	114	;'r'
   752  11C8  3469               	retlw	105	;'i'
   753  11C9  346F               	retlw	111	;'o'
   754  11CA  3420               	retlw	32	;' '
   755  11CB  3464               	retlw	100	;'d'
   756  11CC  346F               	retlw	111	;'o'
   757  11CD  3473               	retlw	115	;'s'
   758  11CE  340D               	retlw	13
   759  11CF  3400               	retlw	0
   760  11D0                     STR_11:
   761  11D0  3420               	retlw	32	;' '
   762  11D1  346D               	retlw	109	;'m'
   763  11D2  3469               	retlw	105	;'i'
   764  11D3  346E               	retlw	110	;'n'
   765  11D4  3473               	retlw	115	;'s'
   766  11D5  342E               	retlw	46	;'.'
   767  11D6  3420               	retlw	32	;' '
   768  11D7  3470               	retlw	112	;'p'
   769  11D8  3461               	retlw	97	;'a'
   770  11D9  3472               	retlw	114	;'r'
   771  11DA  3461               	retlw	97	;'a'
   772  11DB  3420               	retlw	32	;' '
   773  11DC  3465               	retlw	101	;'e'
   774  11DD  346C               	retlw	108	;'l'
   775  11DE  3420               	retlw	32	;' '
   776  11DF  346D               	retlw	109	;'m'
   777  11E0  3465               	retlw	101	;'e'
   778  11E1  3464               	retlw	100	;'d'
   779  11E2  3469               	retlw	105	;'i'
   780  11E3  3463               	retlw	99	;'c'
   781  11E4  3461               	retlw	97	;'a'
   782  11E5  346D               	retlw	109	;'m'
   783  11E6  3465               	retlw	101	;'e'
   784  11E7  346E               	retlw	110	;'n'
   785  11E8  3474               	retlw	116	;'t'
   786  11E9  346F               	retlw	111	;'o'
   787  11EA  3420               	retlw	32	;' '
   788  11EB  3431               	retlw	49	;'1'
   789  11EC  3420               	retlw	32	;' '
   790  11ED  340D               	retlw	13
   791  11EE  340D               	retlw	13
   792  11EF  3400               	retlw	0
   793  11F0                     STR_15:
   794  11F0  3420               	retlw	32	;' '
   795  11F1  346D               	retlw	109	;'m'
   796  11F2  3469               	retlw	105	;'i'
   797  11F3  346E               	retlw	110	;'n'
   798  11F4  3473               	retlw	115	;'s'
   799  11F5  342E               	retlw	46	;'.'
   800  11F6  3420               	retlw	32	;' '
   801  11F7  3470               	retlw	112	;'p'
   802  11F8  3461               	retlw	97	;'a'
   803  11F9  3472               	retlw	114	;'r'
   804  11FA  3461               	retlw	97	;'a'
   805  11FB  3420               	retlw	32	;' '
   806  11FC  3465               	retlw	101	;'e'
   807  11FD  346C               	retlw	108	;'l'
   808  11FE  3420               	retlw	32	;' '
   809  11FF  346D               	retlw	109	;'m'
   810  1200  3465               	retlw	101	;'e'
   811  1201  3464               	retlw	100	;'d'
   812  1202  3469               	retlw	105	;'i'
   813  1203  3463               	retlw	99	;'c'
   814  1204  3461               	retlw	97	;'a'
   815  1205  346D               	retlw	109	;'m'
   816  1206  3465               	retlw	101	;'e'
   817  1207  346E               	retlw	110	;'n'
   818  1208  3474               	retlw	116	;'t'
   819  1209  346F               	retlw	111	;'o'
   820  120A  3420               	retlw	32	;' '
   821  120B  3432               	retlw	50	;'2'
   822  120C  3420               	retlw	32	;' '
   823  120D  340D               	retlw	13
   824  120E  340D               	retlw	13
   825  120F  3400               	retlw	0
   826  1210                     STR_19:
   827  1210  3420               	retlw	32	;' '
   828  1211  346D               	retlw	109	;'m'
   829  1212  3469               	retlw	105	;'i'
   830  1213  346E               	retlw	110	;'n'
   831  1214  3473               	retlw	115	;'s'
   832  1215  342E               	retlw	46	;'.'
   833  1216  3420               	retlw	32	;' '
   834  1217  3470               	retlw	112	;'p'
   835  1218  3461               	retlw	97	;'a'
   836  1219  3472               	retlw	114	;'r'
   837  121A  3461               	retlw	97	;'a'
   838  121B  3420               	retlw	32	;' '
   839  121C  3465               	retlw	101	;'e'
   840  121D  346C               	retlw	108	;'l'
   841  121E  3420               	retlw	32	;' '
   842  121F  346D               	retlw	109	;'m'
   843  1220  3465               	retlw	101	;'e'
   844  1221  3464               	retlw	100	;'d'
   845  1222  3469               	retlw	105	;'i'
   846  1223  3463               	retlw	99	;'c'
   847  1224  3461               	retlw	97	;'a'
   848  1225  346D               	retlw	109	;'m'
   849  1226  3465               	retlw	101	;'e'
   850  1227  346E               	retlw	110	;'n'
   851  1228  3474               	retlw	116	;'t'
   852  1229  346F               	retlw	111	;'o'
   853  122A  3420               	retlw	32	;' '
   854  122B  3433               	retlw	51	;'3'
   855  122C  3420               	retlw	32	;' '
   856  122D  340D               	retlw	13
   857  122E  340D               	retlw	13
   858  122F  3400               	retlw	0
   859  1230                     STR_23:
   860  1230  3420               	retlw	32	;' '
   861  1231  346D               	retlw	109	;'m'
   862  1232  3469               	retlw	105	;'i'
   863  1233  346E               	retlw	110	;'n'
   864  1234  3473               	retlw	115	;'s'
   865  1235  342E               	retlw	46	;'.'
   866  1236  3420               	retlw	32	;' '
   867  1237  3470               	retlw	112	;'p'
   868  1238  3461               	retlw	97	;'a'
   869  1239  3472               	retlw	114	;'r'
   870  123A  3461               	retlw	97	;'a'
   871  123B  3420               	retlw	32	;' '
   872  123C  3465               	retlw	101	;'e'
   873  123D  346C               	retlw	108	;'l'
   874  123E  3420               	retlw	32	;' '
   875  123F  346D               	retlw	109	;'m'
   876  1240  3465               	retlw	101	;'e'
   877  1241  3464               	retlw	100	;'d'
   878  1242  3469               	retlw	105	;'i'
   879  1243  3463               	retlw	99	;'c'
   880  1244  3461               	retlw	97	;'a'
   881  1245  346D               	retlw	109	;'m'
   882  1246  3465               	retlw	101	;'e'
   883  1247  346E               	retlw	110	;'n'
   884  1248  3474               	retlw	116	;'t'
   885  1249  346F               	retlw	111	;'o'
   886  124A  3420               	retlw	32	;' '
   887  124B  3420               	retlw	32	;' '
   888  124C  340D               	retlw	13
   889  124D  340D               	retlw	13
   890  124E  3400               	retlw	0
   891  124F                     STR_1:
   892  124F  340D               	retlw	13
   893  1250  3420               	retlw	32	;' '
   894  1251  3451               	retlw	81	;'Q'
   895  1252  3475               	retlw	117	;'u'
   896  1253  3465               	retlw	101	;'e'
   897  1254  3420               	retlw	32	;' '
   898  1255  3461               	retlw	97	;'a'
   899  1256  3463               	retlw	99	;'c'
   900  1257  3463               	retlw	99	;'c'
   901  1258  3469               	retlw	105	;'i'
   902  1259  346F               	retlw	111	;'o'
   903  125A  346E               	retlw	110	;'n'
   904  125B  3420               	retlw	32	;' '
   905  125C  3464               	retlw	100	;'d'
   906  125D  3465               	retlw	101	;'e'
   907  125E  3473               	retlw	115	;'s'
   908  125F  3465               	retlw	101	;'e'
   909  1260  3461               	retlw	97	;'a'
   910  1261  3420               	retlw	32	;' '
   911  1262  3465               	retlw	101	;'e'
   912  1263  346A               	retlw	106	;'j'
   913  1264  3465               	retlw	101	;'e'
   914  1265  3463               	retlw	99	;'c'
   915  1266  3475               	retlw	117	;'u'
   916  1267  3474               	retlw	116	;'t'
   917  1268  3461               	retlw	97	;'a'
   918  1269  3472               	retlw	114	;'r'
   919  126A  343F               	retlw	63	;'?'
   920  126B  3420               	retlw	32	;' '
   921  126C  340D               	retlw	13
   922  126D  3400               	retlw	0
   923  126E                     STR_4:
   924  126E  3433               	retlw	51	;'3'
   925  126F  3429               	retlw	41	;')'
   926  1270  3420               	retlw	32	;' '
   927  1271  3476               	retlw	118	;'v'
   928  1272  3465               	retlw	101	;'e'
   929  1273  3472               	retlw	114	;'r'
   930  1274  3420               	retlw	32	;' '
   931  1275  3464               	retlw	100	;'d'
   932  1276  3461               	retlw	97	;'a'
   933  1277  3474               	retlw	116	;'t'
   934  1278  346F               	retlw	111	;'o'
   935  1279  3473               	retlw	115	;'s'
   936  127A  3420               	retlw	32	;' '
   937  127B  3464               	retlw	100	;'d'
   938  127C  3465               	retlw	101	;'e'
   939  127D  3420               	retlw	32	;' '
   940  127E  3475               	retlw	117	;'u'
   941  127F  3473               	retlw	115	;'s'
   942  1280  3475               	retlw	117	;'u'
   943  1281  3461               	retlw	97	;'a'
   944  1282  3472               	retlw	114	;'r'
   945  1283  3469               	retlw	105	;'i'
   946  1284  346F               	retlw	111	;'o'
   947  1285  3420               	retlw	32	;' '
   948  1286  3474               	retlw	116	;'t'
   949  1287  3472               	retlw	114	;'r'
   950  1288  3465               	retlw	101	;'e'
   951  1289  3473               	retlw	115	;'s'
   952  128A  3420               	retlw	32	;' '
   953  128B  340D               	retlw	13
   954  128C  3400               	retlw	0
   955  128D                     STR_2:
   956  128D  3431               	retlw	49	;'1'
   957  128E  3429               	retlw	41	;')'
   958  128F  3420               	retlw	32	;' '
   959  1290  3476               	retlw	118	;'v'
   960  1291  3465               	retlw	101	;'e'
   961  1292  3472               	retlw	114	;'r'
   962  1293  3420               	retlw	32	;' '
   963  1294  3464               	retlw	100	;'d'
   964  1295  3461               	retlw	97	;'a'
   965  1296  3474               	retlw	116	;'t'
   966  1297  346F               	retlw	111	;'o'
   967  1298  3473               	retlw	115	;'s'
   968  1299  3420               	retlw	32	;' '
   969  129A  3464               	retlw	100	;'d'
   970  129B  3465               	retlw	101	;'e'
   971  129C  3420               	retlw	32	;' '
   972  129D  3475               	retlw	117	;'u'
   973  129E  3473               	retlw	115	;'s'
   974  129F  3475               	retlw	117	;'u'
   975  12A0  3461               	retlw	97	;'a'
   976  12A1  3472               	retlw	114	;'r'
   977  12A2  3469               	retlw	105	;'i'
   978  12A3  346F               	retlw	111	;'o'
   979  12A4  3420               	retlw	32	;' '
   980  12A5  3475               	retlw	117	;'u'
   981  12A6  346E               	retlw	110	;'n'
   982  12A7  346F               	retlw	111	;'o'
   983  12A8  3420               	retlw	32	;' '
   984  12A9  340D               	retlw	13
   985  12AA  3400               	retlw	0
   986  12AB                     STR_3:
   987  12AB  3432               	retlw	50	;'2'
   988  12AC  3429               	retlw	41	;')'
   989  12AD  3420               	retlw	32	;' '
   990  12AE  3476               	retlw	118	;'v'
   991  12AF  3465               	retlw	101	;'e'
   992  12B0  3472               	retlw	114	;'r'
   993  12B1  3420               	retlw	32	;' '
   994  12B2  3464               	retlw	100	;'d'
   995  12B3  3461               	retlw	97	;'a'
   996  12B4  3474               	retlw	116	;'t'
   997  12B5  346F               	retlw	111	;'o'
   998  12B6  3473               	retlw	115	;'s'
   999  12B7  3420               	retlw	32	;' '
  1000  12B8  3464               	retlw	100	;'d'
  1001  12B9  3465               	retlw	101	;'e'
  1002  12BA  3420               	retlw	32	;' '
  1003  12BB  3475               	retlw	117	;'u'
  1004  12BC  3473               	retlw	115	;'s'
  1005  12BD  3475               	retlw	117	;'u'
  1006  12BE  3461               	retlw	97	;'a'
  1007  12BF  3472               	retlw	114	;'r'
  1008  12C0  3469               	retlw	105	;'i'
  1009  12C1  346F               	retlw	111	;'o'
  1010  12C2  3420               	retlw	32	;' '
  1011  12C3  3464               	retlw	100	;'d'
  1012  12C4  346F               	retlw	111	;'o'
  1013  12C5  3473               	retlw	115	;'s'
  1014  12C6  340D               	retlw	13
  1015  12C7  3400               	retlw	0
  1016  12C8                     STR_40:
  1017  12C8  3420               	retlw	32	;' '
  1018  12C9  3431               	retlw	49	;'1'
  1019  12CA  342E               	retlw	46	;'.'
  1020  12CB  3441               	retlw	65	;'A'
  1021  12CC  3446               	retlw	70	;'F'
  1022  12CD  3443               	retlw	67	;'C'
  1023  12CE  3420               	retlw	32	;' '
  1024  12CF  3420               	retlw	32	;' '
  1025  12D0  3420               	retlw	32	;' '
  1026  12D1  3420               	retlw	32	;' '
  1027  12D2  3432               	retlw	50	;'2'
  1028  12D3  342E               	retlw	46	;'.'
  1029  12D4  3446               	retlw	70	;'F'
  1030  12D5  3446               	retlw	70	;'F'
  1031  12D6  3454               	retlw	84	;'T'
  1032  12D7  3420               	retlw	32	;' '
  1033  12D8  3420               	retlw	32	;' '
  1034  12D9  3420               	retlw	32	;' '
  1035  12DA  3433               	retlw	51	;'3'
  1036  12DB  342E               	retlw	46	;'.'
  1037  12DC  3444               	retlw	68	;'D'
  1038  12DD  3448               	retlw	72	;'H'
  1039  12DE  344C               	retlw	76	;'L'
  1040  12DF  3420               	retlw	32	;' '
  1041  12E0  340D               	retlw	13
  1042  12E1  3400               	retlw	0
  1043  12E2                     STR_8:
  1044  12E2  3420               	retlw	32	;' '
  1045  12E3  3445               	retlw	69	;'E'
  1046  12E4  3473               	retlw	115	;'s'
  1047  12E5  3470               	retlw	112	;'p'
  1048  12E6  3465               	retlw	101	;'e'
  1049  12E7  3472               	retlw	114	;'r'
  1050  12E8  3461               	retlw	97	;'a'
  1051  12E9  3472               	retlw	114	;'r'
  1052  12EA  3420               	retlw	32	;' '
  1053  12EB  3420               	retlw	32	;' '
  1054  12EC  3400               	retlw	0
  1055  12ED                     STR_9:
  1056  12ED  3420               	retlw	32	;' '
  1057  12EE  3448               	retlw	72	;'H'
  1058  12EF  346F               	retlw	111	;'o'
  1059  12F0  3472               	retlw	114	;'r'
  1060  12F1  3461               	retlw	97	;'a'
  1061  12F2  3473               	retlw	115	;'s'
  1062  12F3  3420               	retlw	32	;' '
  1063  12F4  3400               	retlw	0
  1064  12F5                     STR_10:
  1065  12F5  3420               	retlw	32	;' '
  1066  12F6  3463               	retlw	99	;'c'
  1067  12F7  346F               	retlw	111	;'o'
  1068  12F8  346E               	retlw	110	;'n'
  1069  12F9  3420               	retlw	32	;' '
  1070  12FA  3420               	retlw	32	;' '
  1071  12FB  3400               	retlw	0
  1072  12FC                     STR_69:
  1073  12FC  3433               	retlw	51	;'3'
  1074  12FD  3430               	retlw	48	;'0'
  1075  12FE  3400               	retlw	0
  1076  12FF                     STR_68:
  1077  12FF  3431               	retlw	49	;'1'
  1078  1300  3435               	retlw	53	;'5'
  1079  1301  3400               	retlw	0
  1080  1302                     STR_70:
  1081  1302  3434               	retlw	52	;'4'
  1082  1303  3435               	retlw	53	;'5'
  1083  1304  3400               	retlw	0
  1084  1305                     STR_71:
  1085  1305  3435               	retlw	53	;'5'
  1086  1306  3435               	retlw	53	;'5'
  1087  1307  3400               	retlw	0
  1088  1230                     
  1089                           	psect	cinit
  1090  000F                     start_initialization:	
  1091                           ; #config settings
  1092                           
  1093  000F                     __initialization:
  1094                           
  1095                           ; Clear objects allocated to COMMON
  1096  000F  01F0               	clrf	__pbssCOMMON& (0+127)
  1097  0010  01F1               	clrf	(__pbssCOMMON+1)& (0+127)
  1098  0011  01F2               	clrf	(__pbssCOMMON+2)& (0+127)
  1099  0012  01F3               	clrf	(__pbssCOMMON+3)& (0+127)
  1100  0013  01F4               	clrf	(__pbssCOMMON+4)& (0+127)
  1101  0014  01F5               	clrf	(__pbssCOMMON+5)& (0+127)
  1102                           
  1103                           ; Clear objects allocated to BANK0
  1104  0015  1383               	bcf	3,7	;select IRP bank0
  1105  0016  3020               	movlw	low __pbssBANK0
  1106  0017  0084               	movwf	4
  1107  0018  3038               	movlw	low (__pbssBANK0+24)
  1108  0019  120A  118A  25A4  120A  118A  	fcall	clear_ram0
  1109  001E                     end_of_initialization:	
  1110                           ;End of C runtime variable initialization code
  1111                           
  1112  001E                     __end_of__initialization:
  1113  001E  0183               	clrf	3
  1114  001F  120A  118A  29E7   	ljmp	_main	;jump to C main() function
  1115                           
  1116                           	psect	bssCOMMON
  1117  0070                     __pbssCOMMON:
  1118  0070                     _hora_nueva:
  1119  0070                     	ds	1
  1120  0071                     _hora_user1:
  1121  0071                     	ds	1
  1122  0072                     _min_user1:
  1123  0072                     	ds	1
  1124  0073                     _escala:
  1125  0073                     	ds	1
  1126  0074                     _minuto:
  1127  0074                     	ds	1
  1128  0075                     _hora:
  1129  0075                     	ds	1
  1130                           
  1131                           	psect	bssBANK0
  1132  0020                     __pbssBANK0:
  1133  0020                     _me_3_us3_m:
  1134  0020                     	ds	1
  1135  0021                     _me_2_us3_m:
  1136  0021                     	ds	1
  1137  0022                     _me_1_us3_m:
  1138  0022                     	ds	1
  1139  0023                     _me_3_us2_m:
  1140  0023                     	ds	1
  1141  0024                     _me_2_us2_m:
  1142  0024                     	ds	1
  1143  0025                     _me_1_us2_m:
  1144  0025                     	ds	1
  1145  0026                     _me_3_us1_m:
  1146  0026                     	ds	1
  1147  0027                     _me_2_us1_m:
  1148  0027                     	ds	1
  1149  0028                     _me_1_us1_m:
  1150  0028                     	ds	1
  1151  0029                     _me_3_us3_h:
  1152  0029                     	ds	1
  1153  002A                     _me_2_us3_h:
  1154  002A                     	ds	1
  1155  002B                     _me_1_us3_h:
  1156  002B                     	ds	1
  1157  002C                     _me_3_us2_h:
  1158  002C                     	ds	1
  1159  002D                     _me_2_us2_h:
  1160  002D                     	ds	1
  1161  002E                     _me_1_us2_h:
  1162  002E                     	ds	1
  1163  002F                     _me_3_us1_h:
  1164  002F                     	ds	1
  1165  0030                     _me_2_us1_h:
  1166  0030                     	ds	1
  1167  0031                     _me_1_us1_h:
  1168  0031                     	ds	1
  1169  0032                     _hora_user3:
  1170  0032                     	ds	1
  1171  0033                     _hora_user2:
  1172  0033                     	ds	1
  1173  0034                     _min_user3:
  1174  0034                     	ds	1
  1175  0035                     _min_user2:
  1176  0035                     	ds	1
  1177  0036                     _ventana:
  1178  0036                     	ds	1
  1179  0037                     _valor:
  1180  0037                     	ds	1
  1181                           
  1182                           	psect	clrtext
  1183  05A4                     clear_ram0:	
  1184                           ;	Called with FSR containing the base address, and
  1185                           ;	W with the last address+1
  1186                           
  1187  05A4  0064               	clrwdt	;clear the watchdog before getting into this loop
  1188  05A5                     clrloop0:
  1189  05A5  0180               	clrf	0	;clear RAM location pointed to by FSR
  1190  05A6  0A84               	incf	4,f	;increment pointer
  1191  05A7  0604               	xorwf	4,w	;XOR with final address
  1192  05A8  1903               	btfsc	3,2	;have we reached the end yet?
  1193  05A9  3400               	retlw	0	;all done for this memory range, return
  1194  05AA  0604               	xorwf	4,w	;XOR again to restore value
  1195  05AB  2DA5               	goto	clrloop0	;do the next byte
  1196                           
  1197                           	psect	cstackCOMMON
  1198  0076                     __pcstackCOMMON:
  1199  0076                     ?_USART_Rx:
  1200  0076                     ?_SendCharH:	
  1201                           ; 1 bytes @ 0x0
  1202                           
  1203  0076                     ?_SendCharM:	
  1204                           ; 1 bytes @ 0x0
  1205                           
  1206  0076                     ?_isr:	
  1207                           ; 1 bytes @ 0x0
  1208                           
  1209  0076                     ??_isr:	
  1210                           ; 1 bytes @ 0x0
  1211                           
  1212  0076                     ?_main:	
  1213                           ; 1 bytes @ 0x0
  1214                           
  1215  0076                     ?_USART_Tx:	
  1216                           ; 1 bytes @ 0x0
  1217                           
  1218                           
  1219                           ; 1 bytes @ 0x0
  1220  0076                     	ds	2
  1221  0078                     ??_USART_Rx:
  1222  0078                     ??_SendCharH:	
  1223                           ; 1 bytes @ 0x2
  1224                           
  1225  0078                     ?_CharToNumH:	
  1226                           ; 1 bytes @ 0x2
  1227                           
  1228  0078                     ?_CharToNumM:	
  1229                           ; 1 bytes @ 0x2
  1230                           
  1231  0078                     ??_USART_Tx:	
  1232                           ; 1 bytes @ 0x2
  1233                           
  1234  0078                     USART_Tx@data:	
  1235                           ; 1 bytes @ 0x2
  1236                           
  1237  0078                     CharToNumH@hora_user:	
  1238                           ; 1 bytes @ 0x2
  1239                           
  1240  0078                     CharToNumM@her:	
  1241                           ; 1 bytes @ 0x2
  1242                           
  1243                           
  1244                           ; 1 bytes @ 0x2
  1245  0078                     	ds	1
  1246  0079                     ?_USART_Cadena:
  1247  0079                     ??_CharToNumH:	
  1248                           ; 1 bytes @ 0x3
  1249                           
  1250  0079                     ??_CharToNumM:	
  1251                           ; 1 bytes @ 0x3
  1252                           
  1253  0079                     USART_Cadena@str:	
  1254                           ; 1 bytes @ 0x3
  1255                           
  1256                           
  1257                           ; 2 bytes @ 0x3
  1258  0079                     	ds	1
  1259  007A                     SendCharH@in:
  1260  007A                     CharToNumM@in:	
  1261                           ; 1 bytes @ 0x4
  1262                           
  1263                           
  1264                           ; 1 bytes @ 0x4
  1265  007A                     	ds	1
  1266  007B                     ??_USART_Cadena:
  1267  007B                     ??_SendCharM:	
  1268                           ; 1 bytes @ 0x5
  1269                           
  1270  007B                     SendCharM@in:	
  1271                           ; 1 bytes @ 0x5
  1272                           
  1273  007B                     CharToNumH@in:	
  1274                           ; 1 bytes @ 0x5
  1275                           
  1276                           
  1277                           ; 1 bytes @ 0x5
  1278  007B                     	ds	1
  1279                           
  1280                           	psect	cstackBANK0
  1281  0038                     __pcstackBANK0:
  1282  0038                     ??_main:
  1283                           
  1284                           ; 1 bytes @ 0x0
  1285  0038                     	ds	2
  1286                           
  1287                           	psect	maintext
  1288  01E7                     __pmaintext:	
  1289 ;;
  1290 ;;Main: autosize = 0, tempsize = 2, incstack = 0, save=0
  1291 ;;
  1292 ;; *************** function _main *****************
  1293 ;; Defined at:
  1294 ;;		line 76 in file "PROYECTO.c"
  1295 ;; Parameters:    Size  Location     Type
  1296 ;;		None
  1297 ;; Auto vars:     Size  Location     Type
  1298 ;;		None
  1299 ;; Return value:  Size  Location     Type
  1300 ;;                  1    wreg      void 
  1301 ;; Registers used:
  1302 ;;		wreg, fsr0l, fsr0h, status,2, status,0, btemp+1, pclath, cstack
  1303 ;; Tracked objects:
  1304 ;;		On entry : B00/0
  1305 ;;		On exit  : 0/0
  1306 ;;		Unchanged: 0/0
  1307 ;; Data sizes:     COMMON   BANK0   BANK1   BANK3   BANK2
  1308 ;;      Params:         0       0       0       0       0
  1309 ;;      Locals:         0       0       0       0       0
  1310 ;;      Temps:          0       2       0       0       0
  1311 ;;      Totals:         0       2       0       0       0
  1312 ;;Total ram usage:        2 bytes
  1313 ;; Hardware stack levels required when called:    4
  1314 ;; This function calls:
  1315 ;;		_CharToNumH
  1316 ;;		_CharToNumM
  1317 ;;		_SendCharH
  1318 ;;		_SendCharM
  1319 ;;		_USART_Cadena
  1320 ;;		_USART_Rx
  1321 ;; This function is called by:
  1322 ;;		Startup code after reset
  1323 ;; This function uses a non-reentrant model
  1324 ;;
  1325                           
  1326                           
  1327                           ;psect for function _main
  1328  01E7                     _main:
  1329  01E7                     l3296:	
  1330                           ;incstack = 0
  1331                           ; Regs used in _main: [wreg-fsr0h+status,2+status,0+btemp+1+pclath+cstack]
  1332                           
  1333                           
  1334                           ;PROYECTO.c: 77:     ANSEL = 0x00;
  1335  01E7  1683               	bsf	3,5	;RP0=1, select bank3
  1336  01E8  1703               	bsf	3,6	;RP1=1, select bank3
  1337  01E9  0188               	clrf	8	;volatile
  1338                           
  1339                           ;PROYECTO.c: 78:     ANSELH = 0x00;
  1340  01EA  0189               	clrf	9	;volatile
  1341                           
  1342                           ;PROYECTO.c: 80:     TRISA = 0x00;
  1343  01EB  1683               	bsf	3,5	;RP0=1, select bank1
  1344  01EC  1303               	bcf	3,6	;RP1=0, select bank1
  1345  01ED  0185               	clrf	5	;volatile
  1346  01EE                     l3298:
  1347                           
  1348                           ;PROYECTO.c: 81:     TRISB = 0xff;
  1349  01EE  30FF               	movlw	255
  1350  01EF  0086               	movwf	6	;volatile
  1351  01F0                     l3300:
  1352                           
  1353                           ;PROYECTO.c: 82:     TRISD = 0x00;
  1354  01F0  0188               	clrf	8	;volatile
  1355                           
  1356                           ;PROYECTO.c: 83:     TRISE = 0b0011;
  1357  01F1  3003               	movlw	3
  1358  01F2  0089               	movwf	9	;volatile
  1359  01F3                     l3302:
  1360                           
  1361                           ;PROYECTO.c: 86:     ADCON1bits.ADFM = 0;
  1362  01F3  139F               	bcf	31,7	;volatile
  1363  01F4                     l3304:
  1364                           
  1365                           ;PROYECTO.c: 87:     ADCON1bits.VCFG0 = 0;
  1366  01F4  121F               	bcf	31,4	;volatile
  1367  01F5                     l3306:
  1368                           
  1369                           ;PROYECTO.c: 88:     ADCON1bits.VCFG1 = 0;
  1370  01F5  129F               	bcf	31,5	;volatile
  1371  01F6                     l3308:
  1372                           
  1373                           ;PROYECTO.c: 89:     ADCON0bits.ADCS0 = 1;
  1374  01F6  1283               	bcf	3,5	;RP0=0, select bank0
  1375  01F7  1303               	bcf	3,6	;RP1=0, select bank0
  1376  01F8  171F               	bsf	31,6	;volatile
  1377  01F9                     l3310:
  1378                           
  1379                           ;PROYECTO.c: 90:     ADCON0bits.ADCS1 = 0;
  1380  01F9  139F               	bcf	31,7	;volatile
  1381  01FA                     l3312:
  1382                           
  1383                           ;PROYECTO.c: 91:     ADCON0bits.CHS = 5;
  1384  01FA  081F               	movf	31,w	;volatile
  1385  01FB  39C3               	andlw	-61
  1386  01FC  3814               	iorlw	20
  1387  01FD  009F               	movwf	31	;volatile
  1388  01FE                     l3314:
  1389                           
  1390                           ;PROYECTO.c: 92:     _delay((unsigned long)((100)*(4000000/4000000.0)));
  1391  01FE  3020               	movlw	32
  1392  01FF  1283               	bcf	3,5	;RP0=0, select bank0
  1393  0200  1303               	bcf	3,6	;RP1=0, select bank0
  1394  0201  00B8               	movwf	??_main
  1395  0202                     u5457:
  1396  0202  0BB8               	decfsz	??_main,f
  1397  0203  2A02               	goto	u5457
  1398  0204  0000               	nop
  1399  0205                     l3316:
  1400                           
  1401                           ;PROYECTO.c: 93:     ADCON0bits.ADON = 1;
  1402  0205  1283               	bcf	3,5	;RP0=0, select bank0
  1403  0206  1303               	bcf	3,6	;RP1=0, select bank0
  1404  0207  141F               	bsf	31,0	;volatile
  1405  0208                     l3318:
  1406                           
  1407                           ;PROYECTO.c: 95:     OPTION_REGbits.nRBPU = 0;
  1408  0208  1683               	bsf	3,5	;RP0=1, select bank1
  1409  0209  1303               	bcf	3,6	;RP1=0, select bank1
  1410  020A  1381               	bcf	1,7	;volatile
  1411  020B                     l3320:
  1412                           
  1413                           ;PROYECTO.c: 96:     WPUBbits.WPUB0 = 1;
  1414  020B  1415               	bsf	21,0	;volatile
  1415  020C                     l3322:
  1416                           
  1417                           ;PROYECTO.c: 97:     WPUBbits.WPUB1 = 1;
  1418  020C  1495               	bsf	21,1	;volatile
  1419  020D                     l3324:
  1420                           
  1421                           ;PROYECTO.c: 98:     WPUBbits.WPUB2 = 1;
  1422  020D  1515               	bsf	21,2	;volatile
  1423  020E                     l3326:
  1424                           
  1425                           ;PROYECTO.c: 99:     WPUBbits.WPUB5 = 1;
  1426  020E  1695               	bsf	21,5	;volatile
  1427  020F                     l3328:
  1428                           
  1429                           ;PROYECTO.c: 100:     WPUBbits.WPUB6 = 1;
  1430  020F  1715               	bsf	21,6	;volatile
  1431  0210                     l3330:
  1432                           
  1433                           ;PROYECTO.c: 101:     WPUBbits.WPUB7 = 1;
  1434  0210  1795               	bsf	21,7	;volatile
  1435                           
  1436                           ;PROYECTO.c: 104:     OSCCONbits.IRCF = 0b110;
  1437  0211  080F               	movf	15,w	;volatile
  1438  0212  398F               	andlw	-113
  1439  0213  3860               	iorlw	96
  1440  0214  008F               	movwf	15	;volatile
  1441  0215                     l3332:
  1442                           
  1443                           ;PROYECTO.c: 105:     OSCCONbits.SCS = 1;
  1444  0215  140F               	bsf	15,0	;volatile
  1445  0216                     l3334:
  1446                           
  1447                           ;PROYECTO.c: 108:     OPTION_REGbits.T0CS = 0;
  1448  0216  1281               	bcf	1,5	;volatile
  1449  0217                     l3336:
  1450                           
  1451                           ;PROYECTO.c: 109:     OPTION_REGbits.PSA = 0;
  1452  0217  1181               	bcf	1,3	;volatile
  1453                           
  1454                           ;PROYECTO.c: 110:     OPTION_REGbits.PS = 0b111;
  1455  0218  3007               	movlw	7
  1456  0219  0481               	iorwf	1,f	;volatile
  1457  021A                     l3338:
  1458                           
  1459                           ;PROYECTO.c: 111:     TMR0 = 78;
  1460  021A  304E               	movlw	78
  1461  021B  1283               	bcf	3,5	;RP0=0, select bank0
  1462  021C  1303               	bcf	3,6	;RP1=0, select bank0
  1463  021D  0081               	movwf	1	;volatile
  1464  021E                     l3340:
  1465                           
  1466                           ;PROYECTO.c: 114:     TXSTAbits.SYNC = 0;
  1467  021E  1683               	bsf	3,5	;RP0=1, select bank1
  1468  021F  1303               	bcf	3,6	;RP1=0, select bank1
  1469  0220  1218               	bcf	24,4	;volatile
  1470  0221                     l3342:
  1471                           
  1472                           ;PROYECTO.c: 115:     TXSTAbits.BRGH = 1;
  1473  0221  1518               	bsf	24,2	;volatile
  1474  0222                     l3344:
  1475                           
  1476                           ;PROYECTO.c: 116:     BAUDCTLbits.BRG16 = 1;
  1477  0222  1683               	bsf	3,5	;RP0=1, select bank3
  1478  0223  1703               	bsf	3,6	;RP1=1, select bank3
  1479  0224  1587               	bsf	7,3	;volatile
  1480  0225                     l3346:
  1481                           
  1482                           ;PROYECTO.c: 118:     SPBRG = 103;
  1483  0225  3067               	movlw	103
  1484  0226  1683               	bsf	3,5	;RP0=1, select bank1
  1485  0227  1303               	bcf	3,6	;RP1=0, select bank1
  1486  0228  0099               	movwf	25	;volatile
  1487  0229                     l3348:
  1488                           
  1489                           ;PROYECTO.c: 119:     SPBRGH = 0;
  1490  0229  019A               	clrf	26	;volatile
  1491  022A                     l3350:
  1492                           
  1493                           ;PROYECTO.c: 121:     RCSTAbits.SPEN = 1;
  1494  022A  1283               	bcf	3,5	;RP0=0, select bank0
  1495  022B  1303               	bcf	3,6	;RP1=0, select bank0
  1496  022C  1798               	bsf	24,7	;volatile
  1497  022D                     l3352:
  1498                           
  1499                           ;PROYECTO.c: 122:     RCSTAbits.RX9 = 0;
  1500  022D  1318               	bcf	24,6	;volatile
  1501  022E                     l3354:
  1502                           
  1503                           ;PROYECTO.c: 123:     RCSTAbits.CREN = 1;
  1504  022E  1618               	bsf	24,4	;volatile
  1505  022F                     l3356:
  1506                           
  1507                           ;PROYECTO.c: 124:     TXSTAbits.TXEN = 1;
  1508  022F  1683               	bsf	3,5	;RP0=1, select bank1
  1509  0230  1303               	bcf	3,6	;RP1=0, select bank1
  1510  0231  1698               	bsf	24,5	;volatile
  1511  0232                     l3358:
  1512                           
  1513                           ;PROYECTO.c: 126:     INTCONbits.GIE = 1;
  1514  0232  178B               	bsf	11,7	;volatile
  1515  0233                     l3360:
  1516                           
  1517                           ;PROYECTO.c: 127:     INTCONbits.T0IE = 0;
  1518  0233  128B               	bcf	11,5	;volatile
  1519  0234                     l3362:
  1520                           
  1521                           ;PROYECTO.c: 128:     INTCONbits.T0IF = 0;
  1522  0234  110B               	bcf	11,2	;volatile
  1523  0235                     l3364:
  1524                           
  1525                           ;PROYECTO.c: 132:     ADCON0bits.GO = 1;
  1526  0235  1283               	bcf	3,5	;RP0=0, select bank0
  1527  0236  1303               	bcf	3,6	;RP1=0, select bank0
  1528  0237  149F               	bsf	31,1	;volatile
  1529  0238                     l3366:
  1530                           
  1531                           ;PROYECTO.c: 134:     PORTA = 0;
  1532  0238  0185               	clrf	5	;volatile
  1533  0239                     l3368:
  1534                           
  1535                           ;PROYECTO.c: 135:     PORTB = 0;
  1536  0239  0186               	clrf	6	;volatile
  1537  023A                     l3370:
  1538                           
  1539                           ;PROYECTO.c: 136:     PORTC = 0;
  1540  023A  0187               	clrf	7	;volatile
  1541  023B                     l3372:
  1542                           
  1543                           ;PROYECTO.c: 137:     PORTD = 0;
  1544  023B  0188               	clrf	8	;volatile
  1545  023C                     l3374:
  1546                           
  1547                           ;PROYECTO.c: 138:     PORTE = 0;
  1548  023C  0189               	clrf	9	;volatile
  1549  023D                     l3376:
  1550                           
  1551                           ;PROYECTO.c: 140:     ventana = 1;
  1552  023D  01B6               	clrf	_ventana
  1553  023E  0AB6               	incf	_ventana,f
  1554  023F                     l3378:
  1555                           
  1556                           ;PROYECTO.c: 144:        if (T0IF == 1) {
  1557  023F  1D0B               	btfss	11,2	;volatile
  1558  0240  2A42               	goto	u3991
  1559  0241  2A43               	goto	u3990
  1560  0242                     u3991:
  1561  0242  2A98               	goto	l3416
  1562  0243                     u3990:
  1563  0243                     l3380:
  1564                           
  1565                           ;PROYECTO.c: 145:             if(!RB0){
  1566  0243  1806               	btfsc	6,0	;volatile
  1567  0244  2A46               	goto	u4001
  1568  0245  2A47               	goto	u4000
  1569  0246                     u4001:
  1570  0246  2A59               	goto	l160
  1571  0247                     u4000:
  1572  0247                     l3382:
  1573                           
  1574                           ;PROYECTO.c: 146:                 RD0 = 1;
  1575  0247  1408               	bsf	8,0	;volatile
  1576  0248                     l3384:
  1577                           
  1578                           ;PROYECTO.c: 147:                 _delay((unsigned long)((2)*(4000000/4000.0)));
  1579  0248  3003               	movlw	3
  1580  0249  1283               	bcf	3,5	;RP0=0, select bank0
  1581  024A  1303               	bcf	3,6	;RP1=0, select bank0
  1582  024B  00B9               	movwf	??_main+1
  1583  024C  3097               	movlw	151
  1584  024D  00B8               	movwf	??_main
  1585  024E                     u5467:
  1586  024E  0BB8               	decfsz	??_main,f
  1587  024F  2A4E               	goto	u5467
  1588  0250  0BB9               	decfsz	??_main+1,f
  1589  0251  2A4E               	goto	u5467
  1590  0252                     l3386:
  1591                           
  1592                           ;PROYECTO.c: 148:                 RD0 = 0;
  1593  0252  1283               	bcf	3,5	;RP0=0, select bank0
  1594  0253  1303               	bcf	3,6	;RP1=0, select bank0
  1595  0254  1008               	bcf	8,0	;volatile
  1596                           
  1597                           ;PROYECTO.c: 149:                 TMR0 = 70;
  1598  0255  3046               	movlw	70
  1599  0256  0081               	movwf	1	;volatile
  1600  0257                     l3388:
  1601                           
  1602                           ;PROYECTO.c: 150:                 INTCONbits.T0IF = 0;
  1603  0257  110B               	bcf	11,2	;volatile
  1604                           
  1605                           ;PROYECTO.c: 151:             }
  1606  0258  2A98               	goto	l3416
  1607  0259                     l160:	
  1608                           ;PROYECTO.c: 152:             else if(!RB1){
  1609                           
  1610  0259  1886               	btfsc	6,1	;volatile
  1611  025A  2A5C               	goto	u4011
  1612  025B  2A5D               	goto	u4010
  1613  025C                     u4011:
  1614  025C  2A6F               	goto	l162
  1615  025D                     u4010:
  1616  025D                     l3390:
  1617                           
  1618                           ;PROYECTO.c: 153:                 RD1 = 1;
  1619  025D  1488               	bsf	8,1	;volatile
  1620  025E                     l3392:
  1621                           
  1622                           ;PROYECTO.c: 154:                 _delay((unsigned long)((2)*(4000000/4000.0)));
  1623  025E  3003               	movlw	3
  1624  025F  1283               	bcf	3,5	;RP0=0, select bank0
  1625  0260  1303               	bcf	3,6	;RP1=0, select bank0
  1626  0261  00B9               	movwf	??_main+1
  1627  0262  3097               	movlw	151
  1628  0263  00B8               	movwf	??_main
  1629  0264                     u5477:
  1630  0264  0BB8               	decfsz	??_main,f
  1631  0265  2A64               	goto	u5477
  1632  0266  0BB9               	decfsz	??_main+1,f
  1633  0267  2A64               	goto	u5477
  1634  0268                     l3394:
  1635                           
  1636                           ;PROYECTO.c: 155:                 RD1 = 0;
  1637  0268  1283               	bcf	3,5	;RP0=0, select bank0
  1638  0269  1303               	bcf	3,6	;RP1=0, select bank0
  1639  026A  1088               	bcf	8,1	;volatile
  1640                           
  1641                           ;PROYECTO.c: 156:                 TMR0 = 70;
  1642  026B  3046               	movlw	70
  1643  026C  0081               	movwf	1	;volatile
  1644  026D                     l3396:
  1645                           
  1646                           ;PROYECTO.c: 157:                 INTCONbits.T0IF = 0;
  1647  026D  110B               	bcf	11,2	;volatile
  1648                           
  1649                           ;PROYECTO.c: 158:             }
  1650  026E  2A98               	goto	l3416
  1651  026F                     l162:	
  1652                           ;PROYECTO.c: 159:             else if(!RB2){
  1653                           
  1654  026F  1906               	btfsc	6,2	;volatile
  1655  0270  2A72               	goto	u4021
  1656  0271  2A73               	goto	u4020
  1657  0272                     u4021:
  1658  0272  2A85               	goto	l164
  1659  0273                     u4020:
  1660  0273                     l3398:
  1661                           
  1662                           ;PROYECTO.c: 160:                 RD2 = 1;
  1663  0273  1508               	bsf	8,2	;volatile
  1664  0274                     l3400:
  1665                           
  1666                           ;PROYECTO.c: 161:                 _delay((unsigned long)((2)*(4000000/4000.0)));
  1667  0274  3003               	movlw	3
  1668  0275  1283               	bcf	3,5	;RP0=0, select bank0
  1669  0276  1303               	bcf	3,6	;RP1=0, select bank0
  1670  0277  00B9               	movwf	??_main+1
  1671  0278  3097               	movlw	151
  1672  0279  00B8               	movwf	??_main
  1673  027A                     u5487:
  1674  027A  0BB8               	decfsz	??_main,f
  1675  027B  2A7A               	goto	u5487
  1676  027C  0BB9               	decfsz	??_main+1,f
  1677  027D  2A7A               	goto	u5487
  1678  027E                     l3402:
  1679                           
  1680                           ;PROYECTO.c: 162:                 RD2 = 0;
  1681  027E  1283               	bcf	3,5	;RP0=0, select bank0
  1682  027F  1303               	bcf	3,6	;RP1=0, select bank0
  1683  0280  1108               	bcf	8,2	;volatile
  1684                           
  1685                           ;PROYECTO.c: 163:                 TMR0 = 70;
  1686  0281  3046               	movlw	70
  1687  0282  0081               	movwf	1	;volatile
  1688  0283                     l3404:
  1689                           
  1690                           ;PROYECTO.c: 164:                 INTCONbits.T0IF = 0;
  1691  0283  110B               	bcf	11,2	;volatile
  1692                           
  1693                           ;PROYECTO.c: 165:             }
  1694  0284  2A98               	goto	l3416
  1695  0285                     l164:	
  1696                           ;PROYECTO.c: 166:             else{
  1697                           
  1698                           
  1699                           ;PROYECTO.c: 167:                 RD0 = 1;
  1700  0285  1408               	bsf	8,0	;volatile
  1701                           
  1702                           ;PROYECTO.c: 168:                 RD1 = 1;
  1703  0286  1488               	bsf	8,1	;volatile
  1704                           
  1705                           ;PROYECTO.c: 169:                 RD2 = 1;
  1706  0287  1508               	bsf	8,2	;volatile
  1707  0288                     l3406:
  1708                           
  1709                           ;PROYECTO.c: 170:                 _delay((unsigned long)((1)*(4000000/4000.0)));
  1710  0288  30C7               	movlw	199
  1711  0289  1283               	bcf	3,5	;RP0=0, select bank0
  1712  028A  1303               	bcf	3,6	;RP1=0, select bank0
  1713  028B  00B8               	movwf	??_main
  1714  028C                     u5497:
  1715  028C  2A8D               	nop2
  1716  028D  0BB8               	decfsz	??_main,f
  1717  028E  2A8C               	goto	u5497
  1718  028F  2A90               	nop2
  1719  0290                     l3408:
  1720                           
  1721                           ;PROYECTO.c: 171:                 RD1 = 0;
  1722  0290  1283               	bcf	3,5	;RP0=0, select bank0
  1723  0291  1303               	bcf	3,6	;RP1=0, select bank0
  1724  0292  1088               	bcf	8,1	;volatile
  1725  0293                     l3410:
  1726                           
  1727                           ;PROYECTO.c: 172:                 RD2 = 0;
  1728  0293  1108               	bcf	8,2	;volatile
  1729  0294                     l3412:
  1730                           
  1731                           ;PROYECTO.c: 173:                 RD0 = 0;
  1732  0294  1008               	bcf	8,0	;volatile
  1733                           
  1734                           ;PROYECTO.c: 174:                 TMR0 = 74;
  1735  0295  304A               	movlw	74
  1736  0296  0081               	movwf	1	;volatile
  1737  0297                     l3414:
  1738                           
  1739                           ;PROYECTO.c: 175:                 INTCONbits.T0IF = 0;
  1740  0297  110B               	bcf	11,2	;volatile
  1741  0298                     l3416:
  1742                           
  1743                           ;PROYECTO.c: 179:        if(ADCON0bits.GO == 0){
  1744  0298  189F               	btfsc	31,1	;volatile
  1745  0299  2A9B               	goto	u4031
  1746  029A  2A9E               	goto	u4030
  1747  029B                     u4031:
  1748  029B  120A  158A  28BF   	goto	l166
  1749  029E                     u4030:
  1750  029E                     l3418:
  1751                           
  1752                           ;PROYECTO.c: 181:             if(ADCON0bits.CHS == 6){
  1753  029E  0C1F               	rrf	31,w	;volatile
  1754  029F  00B8               	movwf	??_main
  1755  02A0  0C38               	rrf	??_main,w
  1756  02A1  390F               	andlw	15
  1757  02A2  3A06               	xorlw	6
  1758  02A3  1D03               	skipz
  1759  02A4  2AA6               	goto	u4041
  1760  02A5  2AA9               	goto	u4040
  1761  02A6                     u4041:
  1762  02A6  120A  118A  2AFA   	goto	l3448
  1763  02A9                     u4040:
  1764  02A9                     l3420:
  1765                           
  1766                           ;PROYECTO.c: 182:                 escala = ADRESH;
  1767  02A9  081E               	movf	30,w	;volatile
  1768  02AA  00B8               	movwf	??_main
  1769  02AB  0838               	movf	??_main,w
  1770  02AC  00F3               	movwf	_escala
  1771                           
  1772                           ;PROYECTO.c: 183:                 if (escala >= 0 && escala <=42){
  1773  02AD  302B               	movlw	43
  1774  02AE  0273               	subwf	_escala,w
  1775  02AF  1803               	skipnc
  1776  02B0  2AB2               	goto	u4051
  1777  02B1  2AB3               	goto	u4050
  1778  02B2                     u4051:
  1779  02B2  2AB5               	goto	l3424
  1780  02B3                     u4050:
  1781  02B3                     l3422:
  1782                           
  1783                           ;PROYECTO.c: 184:                     minuto = 0;
  1784  02B3  01F4               	clrf	_minuto
  1785                           
  1786                           ;PROYECTO.c: 185:                 }else if(escala >= 43 && escala <= 84 ){
  1787  02B4  2AF3               	goto	l3446
  1788  02B5                     l3424:
  1789  02B5  302B               	movlw	43
  1790  02B6  0273               	subwf	_escala,w
  1791  02B7  1C03               	skipc
  1792  02B8  2ABA               	goto	u4061
  1793  02B9  2ABB               	goto	u4060
  1794  02BA                     u4061:
  1795  02BA  2AC6               	goto	l3430
  1796  02BB                     u4060:
  1797  02BB                     l3426:
  1798  02BB  3055               	movlw	85
  1799  02BC  0273               	subwf	_escala,w
  1800  02BD  1803               	skipnc
  1801  02BE  2AC0               	goto	u4071
  1802  02BF  2AC1               	goto	u4070
  1803  02C0                     u4071:
  1804  02C0  2AC6               	goto	l3430
  1805  02C1                     u4070:
  1806  02C1                     l3428:
  1807                           
  1808                           ;PROYECTO.c: 186:                     minuto = 15;
  1809  02C1  300F               	movlw	15
  1810  02C2  00B8               	movwf	??_main
  1811  02C3  0838               	movf	??_main,w
  1812  02C4  00F4               	movwf	_minuto
  1813                           
  1814                           ;PROYECTO.c: 187:                 }else if(escala >= 85 && escala <= 126 ){
  1815  02C5  2AF3               	goto	l3446
  1816  02C6                     l3430:
  1817  02C6  3055               	movlw	85
  1818  02C7  0273               	subwf	_escala,w
  1819  02C8  1C03               	skipc
  1820  02C9  2ACB               	goto	u4081
  1821  02CA  2ACC               	goto	u4080
  1822  02CB                     u4081:
  1823  02CB  2AD7               	goto	l3436
  1824  02CC                     u4080:
  1825  02CC                     l3432:
  1826  02CC  307F               	movlw	127
  1827  02CD  0273               	subwf	_escala,w
  1828  02CE  1803               	skipnc
  1829  02CF  2AD1               	goto	u4091
  1830  02D0  2AD2               	goto	u4090
  1831  02D1                     u4091:
  1832  02D1  2AD7               	goto	l3436
  1833  02D2                     u4090:
  1834  02D2                     l3434:
  1835                           
  1836                           ;PROYECTO.c: 188:                     minuto = 30;
  1837  02D2  301E               	movlw	30
  1838  02D3  00B8               	movwf	??_main
  1839  02D4  0838               	movf	??_main,w
  1840  02D5  00F4               	movwf	_minuto
  1841                           
  1842                           ;PROYECTO.c: 189:                 }else if(escala >= 127 && escala <= 168 ){
  1843  02D6  2AF3               	goto	l3446
  1844  02D7                     l3436:
  1845  02D7  307F               	movlw	127
  1846  02D8  0273               	subwf	_escala,w
  1847  02D9  1C03               	skipc
  1848  02DA  2ADC               	goto	u4101
  1849  02DB  2ADD               	goto	u4100
  1850  02DC                     u4101:
  1851  02DC  2AE8               	goto	l3442
  1852  02DD                     u4100:
  1853  02DD                     l3438:
  1854  02DD  30A9               	movlw	169
  1855  02DE  0273               	subwf	_escala,w
  1856  02DF  1803               	skipnc
  1857  02E0  2AE2               	goto	u4111
  1858  02E1  2AE3               	goto	u4110
  1859  02E2                     u4111:
  1860  02E2  2AE8               	goto	l3442
  1861  02E3                     u4110:
  1862  02E3                     l3440:
  1863                           
  1864                           ;PROYECTO.c: 190:                     minuto = 45;
  1865  02E3  302D               	movlw	45
  1866  02E4  00B8               	movwf	??_main
  1867  02E5  0838               	movf	??_main,w
  1868  02E6  00F4               	movwf	_minuto
  1869                           
  1870                           ;PROYECTO.c: 191:                 }else if(escala >= 210 && escala <= 255 ){
  1871  02E7  2AF3               	goto	l3446
  1872  02E8                     l3442:
  1873  02E8  30D2               	movlw	210
  1874  02E9  0273               	subwf	_escala,w
  1875  02EA  1C03               	skipc
  1876  02EB  2AED               	goto	u4121
  1877  02EC  2AEE               	goto	u4120
  1878  02ED                     u4121:
  1879  02ED  2AF3               	goto	l171
  1880  02EE                     u4120:
  1881  02EE                     l3444:
  1882                           
  1883                           ;PROYECTO.c: 192:                     minuto = 60;
  1884  02EE  303C               	movlw	60
  1885  02EF  00B8               	movwf	??_main
  1886  02F0  0838               	movf	??_main,w
  1887  02F1  00F4               	movwf	_minuto
  1888  02F2  2AF3               	goto	l3446
  1889  02F3                     l171:
  1890  02F3                     l3446:
  1891                           
  1892                           ;PROYECTO.c: 195:                 ADCON0bits.CHS = 5;
  1893  02F3  081F               	movf	31,w	;volatile
  1894  02F4  39C3               	andlw	-61
  1895  02F5  3814               	iorlw	20
  1896  02F6  009F               	movwf	31	;volatile
  1897                           
  1898                           ;PROYECTO.c: 196:             }
  1899  02F7  120A  158A  28B5   	goto	l3598
  1900                           
  1901                           	psect	text1
  1902  05B3                     __ptext1:	
  1903 ;; *************** function _USART_Rx *****************
  1904 ;; Defined at:
  1905 ;;		line 619 in file "PROYECTO.c"
  1906 ;; Parameters:    Size  Location     Type
  1907 ;;		None
  1908 ;; Auto vars:     Size  Location     Type
  1909 ;;		None
  1910 ;; Return value:  Size  Location     Type
  1911 ;;                  1    wreg      unsigned char 
  1912 ;; Registers used:
  1913 ;;		wreg
  1914 ;; Tracked objects:
  1915 ;;		On entry : 0/0
  1916 ;;		On exit  : 0/0
  1917 ;;		Unchanged: 0/0
  1918 ;; Data sizes:     COMMON   BANK0   BANK1   BANK3   BANK2
  1919 ;;      Params:         0       0       0       0       0
  1920 ;;      Locals:         0       0       0       0       0
  1921 ;;      Temps:          0       0       0       0       0
  1922 ;;      Totals:         0       0       0       0       0
  1923 ;;Total ram usage:        0 bytes
  1924 ;; Hardware stack levels used:    1
  1925 ;; Hardware stack levels required when called:    1
  1926 ;; This function calls:
  1927 ;;		Nothing
  1928 ;; This function is called by:
  1929 ;;		_main
  1930 ;; This function uses a non-reentrant model
  1931 ;;
  1932                           
  1933                           
  1934                           ;psect for function _USART_Rx
  1935  05B3                     _USART_Rx:
  1936  05B3                     l2272:	
  1937                           ;incstack = 0
  1938                           ; Regs used in _USART_Rx: [wreg]
  1939                           
  1940                           
  1941                           ;PROYECTO.c: 620:     return RCREG;
  1942  05B3  1283               	bcf	3,5	;RP0=0, select bank0
  1943  05B4  1303               	bcf	3,6	;RP1=0, select bank0
  1944  05B5  081A               	movf	26,w	;volatile
  1945  05B6                     l419:
  1946  05B6  0008               	return
  1947  05B7                     __end_of_USART_Rx:
  1948                           
  1949                           	psect	text2
  1950  04D2                     __ptext2:	
  1951 ;; *************** function _SendCharM *****************
  1952 ;; Defined at:
  1953 ;;		line 789 in file "PROYECTO.c"
  1954 ;; Parameters:    Size  Location     Type
  1955 ;;  in              1    wreg     unsigned char 
  1956 ;; Auto vars:     Size  Location     Type
  1957 ;;  in              1    5[COMMON] unsigned char 
  1958 ;; Return value:  Size  Location     Type
  1959 ;;                  1    wreg      void 
  1960 ;; Registers used:
  1961 ;;		wreg, fsr0l, fsr0h, status,2, status,0, btemp+1, pclath, cstack
  1962 ;; Tracked objects:
  1963 ;;		On entry : 0/0
  1964 ;;		On exit  : 0/0
  1965 ;;		Unchanged: 0/0
  1966 ;; Data sizes:     COMMON   BANK0   BANK1   BANK3   BANK2
  1967 ;;      Params:         0       0       0       0       0
  1968 ;;      Locals:         1       0       0       0       0
  1969 ;;      Temps:          0       0       0       0       0
  1970 ;;      Totals:         1       0       0       0       0
  1971 ;;Total ram usage:        1 bytes
  1972 ;; Hardware stack levels used:    1
  1973 ;; Hardware stack levels required when called:    3
  1974 ;; This function calls:
  1975 ;;		_USART_Cadena
  1976 ;; This function is called by:
  1977 ;;		_main
  1978 ;; This function uses a non-reentrant model
  1979 ;;
  1980                           
  1981                           
  1982                           ;psect for function _SendCharM
  1983  04D2                     _SendCharM:
  1984                           
  1985                           ;incstack = 0
  1986                           ; Regs used in _SendCharM: [wreg-fsr0h+status,2+status,0+btemp+1+pclath+cstack]
  1987                           ;SendCharM@in stored from wreg
  1988  04D2  00FB               	movwf	SendCharM@in
  1989  04D3                     l2366:
  1990  04D3                     l578:	
  1991                           ;PROYECTO.c: 790:     while(TXSTAbits.TRMT == 0);
  1992                           
  1993  04D3  1683               	bsf	3,5	;RP0=1, select bank1
  1994  04D4  1303               	bcf	3,6	;RP1=0, select bank1
  1995  04D5  1C98               	btfss	24,1	;volatile
  1996  04D6  2CD8               	goto	u2421
  1997  04D7  2CD9               	goto	u2420
  1998  04D8                     u2421:
  1999  04D8  2CD3               	goto	l578
  2000  04D9                     u2420:
  2001  04D9                     l2368:
  2002                           
  2003                           ;PROYECTO.c: 791:         if(in == 0) {
  2004  04D9  087B               	movf	SendCharM@in,w
  2005  04DA  1D03               	btfss	3,2
  2006  04DB  2CDD               	goto	u2431
  2007  04DC  2CDE               	goto	u2430
  2008  04DD                     u2431:
  2009  04DD  2CE8               	goto	l2372
  2010  04DE                     u2430:
  2011  04DE                     l2370:
  2012                           
  2013                           ;PROYECTO.c: 792:             USART_Cadena("0");
  2014  04DE  30FD               	movlw	low ((STR_69+1)| (0+32768))
  2015  04DF  00F9               	movwf	USART_Cadena@str
  2016  04E0  3092               	movlw	high ((STR_69+1)| (0+32768))
  2017  04E1  00FA               	movwf	USART_Cadena@str+1
  2018  04E2  120A  118A  2560  120A  118A  	fcall	_USART_Cadena
  2019                           
  2020                           ;PROYECTO.c: 793:         }else if (in == 15){
  2021  04E7  2D28               	goto	l590
  2022  04E8                     l2372:
  2023  04E8  300F               	movlw	15
  2024  04E9  067B               	xorwf	SendCharM@in,w
  2025  04EA  1D03               	btfss	3,2
  2026  04EB  2CED               	goto	u2441
  2027  04EC  2CEE               	goto	u2440
  2028  04ED                     u2441:
  2029  04ED  2CF8               	goto	l2376
  2030  04EE                     u2440:
  2031  04EE                     l2374:
  2032                           
  2033                           ;PROYECTO.c: 794:             USART_Cadena("15");
  2034  04EE  30FF               	movlw	low (STR_68| (0+32768))
  2035  04EF  00F9               	movwf	USART_Cadena@str
  2036  04F0  3092               	movlw	high (STR_68| (0+32768))
  2037  04F1  00FA               	movwf	USART_Cadena@str+1
  2038  04F2  120A  118A  2560  120A  118A  	fcall	_USART_Cadena
  2039                           
  2040                           ;PROYECTO.c: 795:         }else if (in == 30){
  2041  04F7  2D28               	goto	l590
  2042  04F8                     l2376:
  2043  04F8  301E               	movlw	30
  2044  04F9  067B               	xorwf	SendCharM@in,w
  2045  04FA  1D03               	btfss	3,2
  2046  04FB  2CFD               	goto	u2451
  2047  04FC  2CFE               	goto	u2450
  2048  04FD                     u2451:
  2049  04FD  2D08               	goto	l2380
  2050  04FE                     u2450:
  2051  04FE                     l2378:
  2052                           
  2053                           ;PROYECTO.c: 796:             USART_Cadena("30");
  2054  04FE  30FC               	movlw	low (STR_69| (0+32768))
  2055  04FF  00F9               	movwf	USART_Cadena@str
  2056  0500  3092               	movlw	high (STR_69| (0+32768))
  2057  0501  00FA               	movwf	USART_Cadena@str+1
  2058  0502  120A  118A  2560  120A  118A  	fcall	_USART_Cadena
  2059                           
  2060                           ;PROYECTO.c: 797:         }else if (in == 45){
  2061  0507  2D28               	goto	l590
  2062  0508                     l2380:
  2063  0508  302D               	movlw	45
  2064  0509  067B               	xorwf	SendCharM@in,w
  2065  050A  1D03               	btfss	3,2
  2066  050B  2D0D               	goto	u2461
  2067  050C  2D0E               	goto	u2460
  2068  050D                     u2461:
  2069  050D  2D18               	goto	l2384
  2070  050E                     u2460:
  2071  050E                     l2382:
  2072                           
  2073                           ;PROYECTO.c: 798:             USART_Cadena("45");
  2074  050E  3002               	movlw	low (STR_70| (0+32768))
  2075  050F  00F9               	movwf	USART_Cadena@str
  2076  0510  3093               	movlw	high (STR_70| (0+32768))
  2077  0511  00FA               	movwf	USART_Cadena@str+1
  2078  0512  120A  118A  2560  120A  118A  	fcall	_USART_Cadena
  2079                           
  2080                           ;PROYECTO.c: 799:         }else if (in == 55){
  2081  0517  2D28               	goto	l590
  2082  0518                     l2384:
  2083  0518  3037               	movlw	55
  2084  0519  067B               	xorwf	SendCharM@in,w
  2085  051A  1D03               	btfss	3,2
  2086  051B  2D1D               	goto	u2471
  2087  051C  2D1E               	goto	u2470
  2088  051D                     u2471:
  2089  051D  2D28               	goto	l584
  2090  051E                     u2470:
  2091  051E                     l2386:
  2092                           
  2093                           ;PROYECTO.c: 800:             USART_Cadena("55");
  2094  051E  3005               	movlw	low (STR_71| (0+32768))
  2095  051F  00F9               	movwf	USART_Cadena@str
  2096  0520  3093               	movlw	high (STR_71| (0+32768))
  2097  0521  00FA               	movwf	USART_Cadena@str+1
  2098  0522  120A  118A  2560  120A  118A  	fcall	_USART_Cadena
  2099  0527  2D28               	goto	l590
  2100  0528                     l584:
  2101  0528                     l590:
  2102  0528  0008               	return
  2103  0529                     __end_of_SendCharM:
  2104                           
  2105                           	psect	text3
  2106  0560                     __ptext3:	
  2107 ;; *************** function _USART_Cadena *****************
  2108 ;; Defined at:
  2109 ;;		line 623 in file "PROYECTO.c"
  2110 ;; Parameters:    Size  Location     Type
  2111 ;;  str             2    3[COMMON] PTR unsigned char 
  2112 ;;		 -> STR_71(3), STR_70(3), STR_69(3), STR_68(3), 
  2113 ;;		 -> STR_67(2), STR_66(26), STR_65(48), STR_64(43), 
  2114 ;;		 -> STR_63(3), STR_62(3), STR_61(36), STR_60(44), 
  2115 ;;		 -> STR_59(3), STR_58(3), STR_57(48), STR_56(48), 
  2116 ;;		 -> STR_55(52), STR_54(39), STR_53(26), STR_52(48), 
  2117 ;;		 -> STR_51(43), STR_50(3), STR_49(3), STR_48(36), 
  2118 ;;		 -> STR_47(44), STR_46(3), STR_45(3), STR_44(48), 
  2119 ;;		 -> STR_43(48), STR_42(52), STR_41(39), STR_40(26), 
  2120 ;;		 -> STR_39(48), STR_38(43), STR_37(3), STR_36(3), 
  2121 ;;		 -> STR_35(36), STR_34(44), STR_33(3), STR_32(3), 
  2122 ;;		 -> STR_31(48), STR_30(48), STR_29(52), STR_28(39), 
  2123 ;;		 -> STR_27(31), STR_26(7), STR_25(8), STR_24(11), 
  2124 ;;		 -> STR_23(31), STR_22(7), STR_21(8), STR_20(11), 
  2125 ;;		 -> STR_19(32), STR_18(7), STR_17(8), STR_16(11), 
  2126 ;;		 -> STR_15(32), STR_14(7), STR_13(8), STR_12(11), 
  2127 ;;		 -> STR_11(32), STR_10(7), STR_9(8), STR_8(11), 
  2128 ;;		 -> STR_7(37), STR_6(34), STR_5(35), STR_4(31), 
  2129 ;;		 -> STR_3(29), STR_2(30), STR_1(31), 
  2130 ;; Auto vars:     Size  Location     Type
  2131 ;;		None
  2132 ;; Return value:  Size  Location     Type
  2133 ;;                  1    wreg      void 
  2134 ;; Registers used:
  2135 ;;		wreg, fsr0l, fsr0h, status,2, status,0, btemp+1, pclath, cstack
  2136 ;; Tracked objects:
  2137 ;;		On entry : 0/0
  2138 ;;		On exit  : 0/0
  2139 ;;		Unchanged: 0/0
  2140 ;; Data sizes:     COMMON   BANK0   BANK1   BANK3   BANK2
  2141 ;;      Params:         2       0       0       0       0
  2142 ;;      Locals:         0       0       0       0       0
  2143 ;;      Temps:          0       0       0       0       0
  2144 ;;      Totals:         2       0       0       0       0
  2145 ;;Total ram usage:        2 bytes
  2146 ;; Hardware stack levels used:    1
  2147 ;; Hardware stack levels required when called:    2
  2148 ;; This function calls:
  2149 ;;		_USART_Tx
  2150 ;; This function is called by:
  2151 ;;		_main
  2152 ;;		_SendCharM
  2153 ;; This function uses a non-reentrant model
  2154 ;;
  2155                           
  2156                           
  2157                           ;psect for function _USART_Cadena
  2158  0560                     _USART_Cadena:
  2159  0560                     l2264:	
  2160                           ;incstack = 0
  2161                           ; Regs used in _USART_Cadena: [wreg-fsr0h+status,2+status,0+btemp+1+pclath+cstack]
  2162                           
  2163                           
  2164                           ;PROYECTO.c: 624:     while(*str != '\0'){
  2165  0560  2D75               	goto	l2270
  2166  0561                     l2266:
  2167                           
  2168                           ;PROYECTO.c: 625:         USART_Tx(*str);
  2169  0561  087A               	movf	USART_Cadena@str+1,w
  2170  0562  00FF               	movwf	btemp+1
  2171  0563  0879               	movf	USART_Cadena@str,w
  2172  0564  0084               	movwf	4
  2173  0565  120A  118A  2586  120A  118A  	fcall	stringtab
  2174  056A  120A  118A  2598  120A  118A  	fcall	_USART_Tx
  2175  056F                     l2268:
  2176                           
  2177                           ;PROYECTO.c: 626:         str++;
  2178  056F  3001               	movlw	1
  2179  0570  07F9               	addwf	USART_Cadena@str,f
  2180  0571  1803               	skipnc
  2181  0572  0AFA               	incf	USART_Cadena@str+1,f
  2182  0573  3000               	movlw	0
  2183  0574  07FA               	addwf	USART_Cadena@str+1,f
  2184  0575                     l2270:
  2185                           
  2186                           ;PROYECTO.c: 624:     while(*str != '\0'){
  2187  0575  087A               	movf	USART_Cadena@str+1,w
  2188  0576  1283               	bcf	3,5	;RP0=0, select bank0
  2189  0577  1303               	bcf	3,6	;RP1=0, select bank0
  2190  0578  00FF               	movwf	btemp+1
  2191  0579  0879               	movf	USART_Cadena@str,w
  2192  057A  0084               	movwf	4
  2193  057B  120A  118A  2586  120A  118A  	fcall	stringtab
  2194  0580  3A00               	xorlw	0
  2195  0581  1D03               	skipz
  2196  0582  2D84               	goto	u2011
  2197  0583  2D85               	goto	u2010
  2198  0584                     u2011:
  2199  0584  2D61               	goto	l2266
  2200  0585                     u2010:
  2201  0585                     l425:
  2202  0585  0008               	return
  2203  0586                     __end_of_USART_Cadena:
  2204                           
  2205                           	psect	text4
  2206  0598                     __ptext4:	
  2207 ;; *************** function _USART_Tx *****************
  2208 ;; Defined at:
  2209 ;;		line 614 in file "PROYECTO.c"
  2210 ;; Parameters:    Size  Location     Type
  2211 ;;  data            1    wreg     unsigned char 
  2212 ;; Auto vars:     Size  Location     Type
  2213 ;;  data            1    2[COMMON] unsigned char 
  2214 ;; Return value:  Size  Location     Type
  2215 ;;                  1    wreg      void 
  2216 ;; Registers used:
  2217 ;;		wreg
  2218 ;; Tracked objects:
  2219 ;;		On entry : 0/0
  2220 ;;		On exit  : 0/0
  2221 ;;		Unchanged: 0/0
  2222 ;; Data sizes:     COMMON   BANK0   BANK1   BANK3   BANK2
  2223 ;;      Params:         0       0       0       0       0
  2224 ;;      Locals:         1       0       0       0       0
  2225 ;;      Temps:          0       0       0       0       0
  2226 ;;      Totals:         1       0       0       0       0
  2227 ;;Total ram usage:        1 bytes
  2228 ;; Hardware stack levels used:    1
  2229 ;; Hardware stack levels required when called:    1
  2230 ;; This function calls:
  2231 ;;		Nothing
  2232 ;; This function is called by:
  2233 ;;		_USART_Cadena
  2234 ;; This function uses a non-reentrant model
  2235 ;;
  2236                           
  2237                           
  2238                           ;psect for function _USART_Tx
  2239  0598                     _USART_Tx:
  2240                           
  2241                           ;incstack = 0
  2242                           ; Regs used in _USART_Tx: [wreg]
  2243                           ;USART_Tx@data stored from wreg
  2244  0598  00F8               	movwf	USART_Tx@data
  2245  0599                     l2260:
  2246  0599                     l413:	
  2247                           ;PROYECTO.c: 615:     while(TXSTAbits.TRMT == 0);
  2248                           
  2249  0599  1683               	bsf	3,5	;RP0=1, select bank1
  2250  059A  1303               	bcf	3,6	;RP1=0, select bank1
  2251  059B  1C98               	btfss	24,1	;volatile
  2252  059C  2D9E               	goto	u2001
  2253  059D  2D9F               	goto	u2000
  2254  059E                     u2001:
  2255  059E  2D99               	goto	l413
  2256  059F                     u2000:
  2257  059F                     l2262:
  2258                           
  2259                           ;PROYECTO.c: 616:     TXREG = data;
  2260  059F  0878               	movf	USART_Tx@data,w
  2261  05A0  1283               	bcf	3,5	;RP0=0, select bank0
  2262  05A1  1303               	bcf	3,6	;RP1=0, select bank0
  2263  05A2  0099               	movwf	25	;volatile
  2264  05A3                     l416:
  2265  05A3  0008               	return
  2266  05A4                     __end_of_USART_Tx:
  2267                           
  2268                           	psect	text5
  2269  0022                     __ptext5:	
  2270 ;; *************** function _SendCharH *****************
  2271 ;; Defined at:
  2272 ;;		line 630 in file "PROYECTO.c"
  2273 ;; Parameters:    Size  Location     Type
  2274 ;;  in              1    wreg     unsigned char 
  2275 ;; Auto vars:     Size  Location     Type
  2276 ;;  in              1    4[COMMON] unsigned char 
  2277 ;; Return value:  Size  Location     Type
  2278 ;;                  1    wreg      void 
  2279 ;; Registers used:
  2280 ;;		wreg, fsr0l, fsr0h, status,2, status,0
  2281 ;; Tracked objects:
  2282 ;;		On entry : 0/0
  2283 ;;		On exit  : 0/0
  2284 ;;		Unchanged: 0/0
  2285 ;; Data sizes:     COMMON   BANK0   BANK1   BANK3   BANK2
  2286 ;;      Params:         0       0       0       0       0
  2287 ;;      Locals:         1       0       0       0       0
  2288 ;;      Temps:          2       0       0       0       0
  2289 ;;      Totals:         3       0       0       0       0
  2290 ;;Total ram usage:        3 bytes
  2291 ;; Hardware stack levels used:    1
  2292 ;; Hardware stack levels required when called:    1
  2293 ;; This function calls:
  2294 ;;		Nothing
  2295 ;; This function is called by:
  2296 ;;		_main
  2297 ;; This function uses a non-reentrant model
  2298 ;;
  2299                           
  2300                           
  2301                           ;psect for function _SendCharH
  2302  0022                     _SendCharH:
  2303                           
  2304                           ;incstack = 0
  2305                           ; Regs used in _SendCharH: [wreg-fsr0h+status,2+status,0]
  2306                           ;SendCharH@in stored from wreg
  2307  0022  00FA               	movwf	SendCharH@in
  2308  0023                     l2276:
  2309                           
  2310                           ;PROYECTO.c: 631:     switch(in){
  2311  0023  2991               	goto	l2360
  2312  0024                     l430:
  2313  0024  1683               	bsf	3,5	;RP0=1, select bank1
  2314  0025  1303               	bcf	3,6	;RP1=0, select bank1
  2315  0026  1C98               	btfss	24,1	;volatile
  2316  0027  2829               	goto	u2021
  2317  0028  282A               	goto	u2020
  2318  0029                     u2021:
  2319  0029  2824               	goto	l430
  2320  002A                     u2020:
  2321  002A                     l2278:
  2322                           
  2323                           ;PROYECTO.c: 634:             TXREG = 48;
  2324  002A  3030               	movlw	48
  2325  002B  1283               	bcf	3,5	;RP0=0, select bank0
  2326  002C  1303               	bcf	3,6	;RP1=0, select bank0
  2327  002D  0099               	movwf	25	;volatile
  2328                           
  2329                           ;PROYECTO.c: 635:         break;
  2330  002E  29E6               	goto	l575
  2331  002F                     l435:
  2332  002F  1683               	bsf	3,5	;RP0=1, select bank1
  2333  0030  1303               	bcf	3,6	;RP1=0, select bank1
  2334  0031  1C98               	btfss	24,1	;volatile
  2335  0032  2834               	goto	u2031
  2336  0033  2835               	goto	u2030
  2337  0034                     u2031:
  2338  0034  282F               	goto	l435
  2339  0035                     u2030:
  2340  0035                     l2280:
  2341                           
  2342                           ;PROYECTO.c: 639:             TXREG = 49;
  2343  0035  3031               	movlw	49
  2344  0036  1283               	bcf	3,5	;RP0=0, select bank0
  2345  0037  1303               	bcf	3,6	;RP1=0, select bank0
  2346  0038  0099               	movwf	25	;volatile
  2347                           
  2348                           ;PROYECTO.c: 640:         break;
  2349  0039  29E6               	goto	l575
  2350  003A                     l439:
  2351  003A  1683               	bsf	3,5	;RP0=1, select bank1
  2352  003B  1303               	bcf	3,6	;RP1=0, select bank1
  2353  003C  1C98               	btfss	24,1	;volatile
  2354  003D  283F               	goto	u2041
  2355  003E  2840               	goto	u2040
  2356  003F                     u2041:
  2357  003F  283A               	goto	l439
  2358  0040                     u2040:
  2359  0040                     l2282:
  2360                           
  2361                           ;PROYECTO.c: 644:             TXREG = 50;
  2362  0040  3032               	movlw	50
  2363  0041  1283               	bcf	3,5	;RP0=0, select bank0
  2364  0042  1303               	bcf	3,6	;RP1=0, select bank0
  2365  0043  0099               	movwf	25	;volatile
  2366                           
  2367                           ;PROYECTO.c: 645:         break;
  2368  0044  29E6               	goto	l575
  2369  0045                     l443:
  2370  0045  1683               	bsf	3,5	;RP0=1, select bank1
  2371  0046  1303               	bcf	3,6	;RP1=0, select bank1
  2372  0047  1C98               	btfss	24,1	;volatile
  2373  0048  284A               	goto	u2051
  2374  0049  284B               	goto	u2050
  2375  004A                     u2051:
  2376  004A  2845               	goto	l443
  2377  004B                     u2050:
  2378  004B                     l2284:
  2379                           
  2380                           ;PROYECTO.c: 649:             TXREG = 51;
  2381  004B  3033               	movlw	51
  2382  004C  1283               	bcf	3,5	;RP0=0, select bank0
  2383  004D  1303               	bcf	3,6	;RP1=0, select bank0
  2384  004E  0099               	movwf	25	;volatile
  2385                           
  2386                           ;PROYECTO.c: 650:         break;
  2387  004F  29E6               	goto	l575
  2388  0050                     l447:
  2389  0050  1683               	bsf	3,5	;RP0=1, select bank1
  2390  0051  1303               	bcf	3,6	;RP1=0, select bank1
  2391  0052  1C98               	btfss	24,1	;volatile
  2392  0053  2855               	goto	u2061
  2393  0054  2856               	goto	u2060
  2394  0055                     u2061:
  2395  0055  2850               	goto	l447
  2396  0056                     u2060:
  2397  0056                     l2286:
  2398                           
  2399                           ;PROYECTO.c: 654:             TXREG = 52;
  2400  0056  3034               	movlw	52
  2401  0057  1283               	bcf	3,5	;RP0=0, select bank0
  2402  0058  1303               	bcf	3,6	;RP1=0, select bank0
  2403  0059  0099               	movwf	25	;volatile
  2404                           
  2405                           ;PROYECTO.c: 655:         break;
  2406  005A  29E6               	goto	l575
  2407  005B                     l451:
  2408  005B  1683               	bsf	3,5	;RP0=1, select bank1
  2409  005C  1303               	bcf	3,6	;RP1=0, select bank1
  2410  005D  1C98               	btfss	24,1	;volatile
  2411  005E  2860               	goto	u2071
  2412  005F  2861               	goto	u2070
  2413  0060                     u2071:
  2414  0060  285B               	goto	l451
  2415  0061                     u2070:
  2416  0061                     l2288:
  2417                           
  2418                           ;PROYECTO.c: 659:             TXREG = 53;
  2419  0061  3035               	movlw	53
  2420  0062  1283               	bcf	3,5	;RP0=0, select bank0
  2421  0063  1303               	bcf	3,6	;RP1=0, select bank0
  2422  0064  0099               	movwf	25	;volatile
  2423                           
  2424                           ;PROYECTO.c: 660:         break;
  2425  0065  29E6               	goto	l575
  2426  0066                     l455:
  2427  0066  1683               	bsf	3,5	;RP0=1, select bank1
  2428  0067  1303               	bcf	3,6	;RP1=0, select bank1
  2429  0068  1C98               	btfss	24,1	;volatile
  2430  0069  286B               	goto	u2081
  2431  006A  286C               	goto	u2080
  2432  006B                     u2081:
  2433  006B  2866               	goto	l455
  2434  006C                     u2080:
  2435  006C                     l2290:
  2436                           
  2437                           ;PROYECTO.c: 664:             TXREG = 54;
  2438  006C  3036               	movlw	54
  2439  006D  1283               	bcf	3,5	;RP0=0, select bank0
  2440  006E  1303               	bcf	3,6	;RP1=0, select bank0
  2441  006F  0099               	movwf	25	;volatile
  2442                           
  2443                           ;PROYECTO.c: 665:         break;
  2444  0070  29E6               	goto	l575
  2445  0071                     l459:
  2446  0071  1683               	bsf	3,5	;RP0=1, select bank1
  2447  0072  1303               	bcf	3,6	;RP1=0, select bank1
  2448  0073  1C98               	btfss	24,1	;volatile
  2449  0074  2876               	goto	u2091
  2450  0075  2877               	goto	u2090
  2451  0076                     u2091:
  2452  0076  2871               	goto	l459
  2453  0077                     u2090:
  2454  0077                     l2292:
  2455                           
  2456                           ;PROYECTO.c: 669:             TXREG = 55;
  2457  0077  3037               	movlw	55
  2458  0078  1283               	bcf	3,5	;RP0=0, select bank0
  2459  0079  1303               	bcf	3,6	;RP1=0, select bank0
  2460  007A  0099               	movwf	25	;volatile
  2461                           
  2462                           ;PROYECTO.c: 670:         break;
  2463  007B  29E6               	goto	l575
  2464  007C                     l463:
  2465  007C  1683               	bsf	3,5	;RP0=1, select bank1
  2466  007D  1303               	bcf	3,6	;RP1=0, select bank1
  2467  007E  1C98               	btfss	24,1	;volatile
  2468  007F  2881               	goto	u2101
  2469  0080  2882               	goto	u2100
  2470  0081                     u2101:
  2471  0081  287C               	goto	l463
  2472  0082                     u2100:
  2473  0082                     l2294:
  2474                           
  2475                           ;PROYECTO.c: 674:             TXREG = 56;
  2476  0082  3038               	movlw	56
  2477  0083  1283               	bcf	3,5	;RP0=0, select bank0
  2478  0084  1303               	bcf	3,6	;RP1=0, select bank0
  2479  0085  0099               	movwf	25	;volatile
  2480                           
  2481                           ;PROYECTO.c: 675:         break;
  2482  0086  29E6               	goto	l575
  2483  0087                     l467:
  2484  0087  1683               	bsf	3,5	;RP0=1, select bank1
  2485  0088  1303               	bcf	3,6	;RP1=0, select bank1
  2486  0089  1C98               	btfss	24,1	;volatile
  2487  008A  288C               	goto	u2111
  2488  008B  288D               	goto	u2110
  2489  008C                     u2111:
  2490  008C  2887               	goto	l467
  2491  008D                     u2110:
  2492  008D                     l2296:
  2493                           
  2494                           ;PROYECTO.c: 679:             TXREG = 57;
  2495  008D  3039               	movlw	57
  2496  008E  1283               	bcf	3,5	;RP0=0, select bank0
  2497  008F  1303               	bcf	3,6	;RP1=0, select bank0
  2498  0090  0099               	movwf	25	;volatile
  2499                           
  2500                           ;PROYECTO.c: 680:         break;
  2501  0091  29E6               	goto	l575
  2502  0092                     l471:
  2503  0092  1683               	bsf	3,5	;RP0=1, select bank1
  2504  0093  1303               	bcf	3,6	;RP1=0, select bank1
  2505  0094  1C98               	btfss	24,1	;volatile
  2506  0095  2897               	goto	u2121
  2507  0096  2898               	goto	u2120
  2508  0097                     u2121:
  2509  0097  2892               	goto	l471
  2510  0098                     u2120:
  2511  0098                     l2298:
  2512                           
  2513                           ;PROYECTO.c: 684:             TXREG = 49;
  2514  0098  3031               	movlw	49
  2515  0099  1283               	bcf	3,5	;RP0=0, select bank0
  2516  009A  1303               	bcf	3,6	;RP1=0, select bank0
  2517  009B  0099               	movwf	25	;volatile
  2518  009C                     l474:	
  2519                           ;PROYECTO.c: 685:             while(TXSTAbits.TRMT == 0);
  2520                           
  2521  009C  1683               	bsf	3,5	;RP0=1, select bank1
  2522  009D  1303               	bcf	3,6	;RP1=0, select bank1
  2523  009E  1C98               	btfss	24,1	;volatile
  2524  009F  28A1               	goto	u2131
  2525  00A0  28A2               	goto	u2130
  2526  00A1                     u2131:
  2527  00A1  289C               	goto	l474
  2528  00A2                     u2130:
  2529  00A2  282A               	goto	l2278
  2530  00A3                     l478:
  2531  00A3  1683               	bsf	3,5	;RP0=1, select bank1
  2532  00A4  1303               	bcf	3,6	;RP1=0, select bank1
  2533  00A5  1C98               	btfss	24,1	;volatile
  2534  00A6  28A8               	goto	u2141
  2535  00A7  28A9               	goto	u2140
  2536  00A8                     u2141:
  2537  00A8  28A3               	goto	l478
  2538  00A9                     u2140:
  2539  00A9                     l2302:
  2540                           
  2541                           ;PROYECTO.c: 691:             TXREG = 49;
  2542  00A9  3031               	movlw	49
  2543  00AA  1283               	bcf	3,5	;RP0=0, select bank0
  2544  00AB  1303               	bcf	3,6	;RP1=0, select bank0
  2545  00AC  0099               	movwf	25	;volatile
  2546  00AD                     l481:	
  2547                           ;PROYECTO.c: 692:             while(TXSTAbits.TRMT == 0);
  2548                           
  2549  00AD  1683               	bsf	3,5	;RP0=1, select bank1
  2550  00AE  1303               	bcf	3,6	;RP1=0, select bank1
  2551  00AF  1C98               	btfss	24,1	;volatile
  2552  00B0  28B2               	goto	u2151
  2553  00B1  28B3               	goto	u2150
  2554  00B2                     u2151:
  2555  00B2  28AD               	goto	l481
  2556  00B3                     u2150:
  2557  00B3  2835               	goto	l2280
  2558  00B4                     l485:
  2559  00B4  1683               	bsf	3,5	;RP0=1, select bank1
  2560  00B5  1303               	bcf	3,6	;RP1=0, select bank1
  2561  00B6  1C98               	btfss	24,1	;volatile
  2562  00B7  28B9               	goto	u2161
  2563  00B8  28BA               	goto	u2160
  2564  00B9                     u2161:
  2565  00B9  28B4               	goto	l485
  2566  00BA                     u2160:
  2567  00BA                     l2306:
  2568                           
  2569                           ;PROYECTO.c: 698:             TXREG = 49;
  2570  00BA  3031               	movlw	49
  2571  00BB  1283               	bcf	3,5	;RP0=0, select bank0
  2572  00BC  1303               	bcf	3,6	;RP1=0, select bank0
  2573  00BD  0099               	movwf	25	;volatile
  2574  00BE                     l488:	
  2575                           ;PROYECTO.c: 699:             while(TXSTAbits.TRMT == 0);
  2576                           
  2577  00BE  1683               	bsf	3,5	;RP0=1, select bank1
  2578  00BF  1303               	bcf	3,6	;RP1=0, select bank1
  2579  00C0  1C98               	btfss	24,1	;volatile
  2580  00C1  28C3               	goto	u2171
  2581  00C2  28C4               	goto	u2170
  2582  00C3                     u2171:
  2583  00C3  28BE               	goto	l488
  2584  00C4                     u2170:
  2585  00C4  2840               	goto	l2282
  2586  00C5                     l492:
  2587  00C5  1683               	bsf	3,5	;RP0=1, select bank1
  2588  00C6  1303               	bcf	3,6	;RP1=0, select bank1
  2589  00C7  1C98               	btfss	24,1	;volatile
  2590  00C8  28CA               	goto	u2181
  2591  00C9  28CB               	goto	u2180
  2592  00CA                     u2181:
  2593  00CA  28C5               	goto	l492
  2594  00CB                     u2180:
  2595  00CB                     l2310:
  2596                           
  2597                           ;PROYECTO.c: 705:             TXREG = 49;
  2598  00CB  3031               	movlw	49
  2599  00CC  1283               	bcf	3,5	;RP0=0, select bank0
  2600  00CD  1303               	bcf	3,6	;RP1=0, select bank0
  2601  00CE  0099               	movwf	25	;volatile
  2602  00CF                     l495:	
  2603                           ;PROYECTO.c: 706:             while(TXSTAbits.TRMT == 0);
  2604                           
  2605  00CF  1683               	bsf	3,5	;RP0=1, select bank1
  2606  00D0  1303               	bcf	3,6	;RP1=0, select bank1
  2607  00D1  1C98               	btfss	24,1	;volatile
  2608  00D2  28D4               	goto	u2191
  2609  00D3  28D5               	goto	u2190
  2610  00D4                     u2191:
  2611  00D4  28CF               	goto	l495
  2612  00D5                     u2190:
  2613  00D5  284B               	goto	l2284
  2614  00D6                     l499:
  2615  00D6  1683               	bsf	3,5	;RP0=1, select bank1
  2616  00D7  1303               	bcf	3,6	;RP1=0, select bank1
  2617  00D8  1C98               	btfss	24,1	;volatile
  2618  00D9  28DB               	goto	u2201
  2619  00DA  28DC               	goto	u2200
  2620  00DB                     u2201:
  2621  00DB  28D6               	goto	l499
  2622  00DC                     u2200:
  2623  00DC                     l2314:
  2624                           
  2625                           ;PROYECTO.c: 712:             TXREG = 49;
  2626  00DC  3031               	movlw	49
  2627  00DD  1283               	bcf	3,5	;RP0=0, select bank0
  2628  00DE  1303               	bcf	3,6	;RP1=0, select bank0
  2629  00DF  0099               	movwf	25	;volatile
  2630  00E0                     l502:	
  2631                           ;PROYECTO.c: 713:             while(TXSTAbits.TRMT == 0);
  2632                           
  2633  00E0  1683               	bsf	3,5	;RP0=1, select bank1
  2634  00E1  1303               	bcf	3,6	;RP1=0, select bank1
  2635  00E2  1C98               	btfss	24,1	;volatile
  2636  00E3  28E5               	goto	u2211
  2637  00E4  28E6               	goto	u2210
  2638  00E5                     u2211:
  2639  00E5  28E0               	goto	l502
  2640  00E6                     u2210:
  2641  00E6  2856               	goto	l2286
  2642  00E7                     l506:
  2643  00E7  1683               	bsf	3,5	;RP0=1, select bank1
  2644  00E8  1303               	bcf	3,6	;RP1=0, select bank1
  2645  00E9  1C98               	btfss	24,1	;volatile
  2646  00EA  28EC               	goto	u2221
  2647  00EB  28ED               	goto	u2220
  2648  00EC                     u2221:
  2649  00EC  28E7               	goto	l506
  2650  00ED                     u2220:
  2651  00ED                     l2318:
  2652                           
  2653                           ;PROYECTO.c: 719:             TXREG = 49;
  2654  00ED  3031               	movlw	49
  2655  00EE  1283               	bcf	3,5	;RP0=0, select bank0
  2656  00EF  1303               	bcf	3,6	;RP1=0, select bank0
  2657  00F0  0099               	movwf	25	;volatile
  2658  00F1                     l509:	
  2659                           ;PROYECTO.c: 720:             while(TXSTAbits.TRMT == 0);
  2660                           
  2661  00F1  1683               	bsf	3,5	;RP0=1, select bank1
  2662  00F2  1303               	bcf	3,6	;RP1=0, select bank1
  2663  00F3  1C98               	btfss	24,1	;volatile
  2664  00F4  28F6               	goto	u2231
  2665  00F5  28F7               	goto	u2230
  2666  00F6                     u2231:
  2667  00F6  28F1               	goto	l509
  2668  00F7                     u2230:
  2669  00F7  2861               	goto	l2288
  2670  00F8                     l513:
  2671  00F8  1683               	bsf	3,5	;RP0=1, select bank1
  2672  00F9  1303               	bcf	3,6	;RP1=0, select bank1
  2673  00FA  1C98               	btfss	24,1	;volatile
  2674  00FB  28FD               	goto	u2241
  2675  00FC  28FE               	goto	u2240
  2676  00FD                     u2241:
  2677  00FD  28F8               	goto	l513
  2678  00FE                     u2240:
  2679  00FE                     l2322:
  2680                           
  2681                           ;PROYECTO.c: 726:             TXREG = 49;
  2682  00FE  3031               	movlw	49
  2683  00FF  1283               	bcf	3,5	;RP0=0, select bank0
  2684  0100  1303               	bcf	3,6	;RP1=0, select bank0
  2685  0101  0099               	movwf	25	;volatile
  2686  0102                     l516:	
  2687                           ;PROYECTO.c: 727:             while(TXSTAbits.TRMT == 0);
  2688                           
  2689  0102  1683               	bsf	3,5	;RP0=1, select bank1
  2690  0103  1303               	bcf	3,6	;RP1=0, select bank1
  2691  0104  1C98               	btfss	24,1	;volatile
  2692  0105  2907               	goto	u2251
  2693  0106  2908               	goto	u2250
  2694  0107                     u2251:
  2695  0107  2902               	goto	l516
  2696  0108                     u2250:
  2697  0108  286C               	goto	l2290
  2698  0109                     l520:
  2699  0109  1683               	bsf	3,5	;RP0=1, select bank1
  2700  010A  1303               	bcf	3,6	;RP1=0, select bank1
  2701  010B  1C98               	btfss	24,1	;volatile
  2702  010C  290E               	goto	u2261
  2703  010D  290F               	goto	u2260
  2704  010E                     u2261:
  2705  010E  2909               	goto	l520
  2706  010F                     u2260:
  2707  010F                     l2326:
  2708                           
  2709                           ;PROYECTO.c: 733:             TXREG = 49;
  2710  010F  3031               	movlw	49
  2711  0110  1283               	bcf	3,5	;RP0=0, select bank0
  2712  0111  1303               	bcf	3,6	;RP1=0, select bank0
  2713  0112  0099               	movwf	25	;volatile
  2714  0113                     l523:	
  2715                           ;PROYECTO.c: 734:             while(TXSTAbits.TRMT == 0);
  2716                           
  2717  0113  1683               	bsf	3,5	;RP0=1, select bank1
  2718  0114  1303               	bcf	3,6	;RP1=0, select bank1
  2719  0115  1C98               	btfss	24,1	;volatile
  2720  0116  2918               	goto	u2271
  2721  0117  2919               	goto	u2270
  2722  0118                     u2271:
  2723  0118  2913               	goto	l523
  2724  0119                     u2270:
  2725  0119  2877               	goto	l2292
  2726  011A                     l527:
  2727  011A  1683               	bsf	3,5	;RP0=1, select bank1
  2728  011B  1303               	bcf	3,6	;RP1=0, select bank1
  2729  011C  1C98               	btfss	24,1	;volatile
  2730  011D  291F               	goto	u2281
  2731  011E  2920               	goto	u2280
  2732  011F                     u2281:
  2733  011F  291A               	goto	l527
  2734  0120                     u2280:
  2735  0120                     l2330:
  2736                           
  2737                           ;PROYECTO.c: 740:             TXREG = 49;
  2738  0120  3031               	movlw	49
  2739  0121  1283               	bcf	3,5	;RP0=0, select bank0
  2740  0122  1303               	bcf	3,6	;RP1=0, select bank0
  2741  0123  0099               	movwf	25	;volatile
  2742  0124                     l530:	
  2743                           ;PROYECTO.c: 741:             while(TXSTAbits.TRMT == 0);
  2744                           
  2745  0124  1683               	bsf	3,5	;RP0=1, select bank1
  2746  0125  1303               	bcf	3,6	;RP1=0, select bank1
  2747  0126  1C98               	btfss	24,1	;volatile
  2748  0127  2929               	goto	u2291
  2749  0128  292A               	goto	u2290
  2750  0129                     u2291:
  2751  0129  2924               	goto	l530
  2752  012A                     u2290:
  2753  012A  2882               	goto	l2294
  2754  012B                     l534:
  2755  012B  1683               	bsf	3,5	;RP0=1, select bank1
  2756  012C  1303               	bcf	3,6	;RP1=0, select bank1
  2757  012D  1C98               	btfss	24,1	;volatile
  2758  012E  2930               	goto	u2301
  2759  012F  2931               	goto	u2300
  2760  0130                     u2301:
  2761  0130  292B               	goto	l534
  2762  0131                     u2300:
  2763  0131                     l2334:
  2764                           
  2765                           ;PROYECTO.c: 747:             TXREG = 49;
  2766  0131  3031               	movlw	49
  2767  0132  1283               	bcf	3,5	;RP0=0, select bank0
  2768  0133  1303               	bcf	3,6	;RP1=0, select bank0
  2769  0134  0099               	movwf	25	;volatile
  2770  0135                     l537:	
  2771                           ;PROYECTO.c: 748:             while(TXSTAbits.TRMT == 0);
  2772                           
  2773  0135  1683               	bsf	3,5	;RP0=1, select bank1
  2774  0136  1303               	bcf	3,6	;RP1=0, select bank1
  2775  0137  1C98               	btfss	24,1	;volatile
  2776  0138  293A               	goto	u2311
  2777  0139  293B               	goto	u2310
  2778  013A                     u2311:
  2779  013A  2935               	goto	l537
  2780  013B                     u2310:
  2781  013B  288D               	goto	l2296
  2782  013C                     l541:
  2783  013C  1683               	bsf	3,5	;RP0=1, select bank1
  2784  013D  1303               	bcf	3,6	;RP1=0, select bank1
  2785  013E  1C98               	btfss	24,1	;volatile
  2786  013F  2941               	goto	u2321
  2787  0140  2942               	goto	u2320
  2788  0141                     u2321:
  2789  0141  293C               	goto	l541
  2790  0142                     u2320:
  2791  0142                     l2338:
  2792                           
  2793                           ;PROYECTO.c: 754:             TXREG = 50;
  2794  0142  3032               	movlw	50
  2795  0143  1283               	bcf	3,5	;RP0=0, select bank0
  2796  0144  1303               	bcf	3,6	;RP1=0, select bank0
  2797  0145  0099               	movwf	25	;volatile
  2798  0146                     l544:	
  2799                           ;PROYECTO.c: 755:             while(TXSTAbits.TRMT == 0);
  2800                           
  2801  0146  1683               	bsf	3,5	;RP0=1, select bank1
  2802  0147  1303               	bcf	3,6	;RP1=0, select bank1
  2803  0148  1C98               	btfss	24,1	;volatile
  2804  0149  294B               	goto	u2331
  2805  014A  294C               	goto	u2330
  2806  014B                     u2331:
  2807  014B  2946               	goto	l544
  2808  014C                     u2330:
  2809  014C  282A               	goto	l2278
  2810  014D                     l548:
  2811  014D  1683               	bsf	3,5	;RP0=1, select bank1
  2812  014E  1303               	bcf	3,6	;RP1=0, select bank1
  2813  014F  1C98               	btfss	24,1	;volatile
  2814  0150  2952               	goto	u2341
  2815  0151  2953               	goto	u2340
  2816  0152                     u2341:
  2817  0152  294D               	goto	l548
  2818  0153                     u2340:
  2819  0153                     l2342:
  2820                           
  2821                           ;PROYECTO.c: 761:             TXREG = 50;
  2822  0153  3032               	movlw	50
  2823  0154  1283               	bcf	3,5	;RP0=0, select bank0
  2824  0155  1303               	bcf	3,6	;RP1=0, select bank0
  2825  0156  0099               	movwf	25	;volatile
  2826  0157                     l551:	
  2827                           ;PROYECTO.c: 762:             while(TXSTAbits.TRMT == 0);
  2828                           
  2829  0157  1683               	bsf	3,5	;RP0=1, select bank1
  2830  0158  1303               	bcf	3,6	;RP1=0, select bank1
  2831  0159  1C98               	btfss	24,1	;volatile
  2832  015A  295C               	goto	u2351
  2833  015B  295D               	goto	u2350
  2834  015C                     u2351:
  2835  015C  2957               	goto	l551
  2836  015D                     u2350:
  2837  015D  2835               	goto	l2280
  2838  015E                     l555:
  2839  015E  1683               	bsf	3,5	;RP0=1, select bank1
  2840  015F  1303               	bcf	3,6	;RP1=0, select bank1
  2841  0160  1C98               	btfss	24,1	;volatile
  2842  0161  2963               	goto	u2361
  2843  0162  2964               	goto	u2360
  2844  0163                     u2361:
  2845  0163  295E               	goto	l555
  2846  0164                     u2360:
  2847  0164                     l2346:
  2848                           
  2849                           ;PROYECTO.c: 768:             TXREG = 50;
  2850  0164  3032               	movlw	50
  2851  0165  1283               	bcf	3,5	;RP0=0, select bank0
  2852  0166  1303               	bcf	3,6	;RP1=0, select bank0
  2853  0167  0099               	movwf	25	;volatile
  2854  0168                     l558:	
  2855                           ;PROYECTO.c: 769:             while(TXSTAbits.TRMT == 0);
  2856                           
  2857  0168  1683               	bsf	3,5	;RP0=1, select bank1
  2858  0169  1303               	bcf	3,6	;RP1=0, select bank1
  2859  016A  1C98               	btfss	24,1	;volatile
  2860  016B  296D               	goto	u2371
  2861  016C  296E               	goto	u2370
  2862  016D                     u2371:
  2863  016D  2968               	goto	l558
  2864  016E                     u2370:
  2865  016E  2840               	goto	l2282
  2866  016F                     l562:
  2867  016F  1683               	bsf	3,5	;RP0=1, select bank1
  2868  0170  1303               	bcf	3,6	;RP1=0, select bank1
  2869  0171  1C98               	btfss	24,1	;volatile
  2870  0172  2974               	goto	u2381
  2871  0173  2975               	goto	u2380
  2872  0174                     u2381:
  2873  0174  296F               	goto	l562
  2874  0175                     u2380:
  2875  0175                     l2350:
  2876                           
  2877                           ;PROYECTO.c: 775:             TXREG = 50;
  2878  0175  3032               	movlw	50
  2879  0176  1283               	bcf	3,5	;RP0=0, select bank0
  2880  0177  1303               	bcf	3,6	;RP1=0, select bank0
  2881  0178  0099               	movwf	25	;volatile
  2882  0179                     l565:	
  2883                           ;PROYECTO.c: 776:             while(TXSTAbits.TRMT == 0);
  2884                           
  2885  0179  1683               	bsf	3,5	;RP0=1, select bank1
  2886  017A  1303               	bcf	3,6	;RP1=0, select bank1
  2887  017B  1C98               	btfss	24,1	;volatile
  2888  017C  297E               	goto	u2391
  2889  017D  297F               	goto	u2390
  2890  017E                     u2391:
  2891  017E  2979               	goto	l565
  2892  017F                     u2390:
  2893  017F  284B               	goto	l2284
  2894  0180                     l569:
  2895  0180  1683               	bsf	3,5	;RP0=1, select bank1
  2896  0181  1303               	bcf	3,6	;RP1=0, select bank1
  2897  0182  1C98               	btfss	24,1	;volatile
  2898  0183  2985               	goto	u2401
  2899  0184  2986               	goto	u2400
  2900  0185                     u2401:
  2901  0185  2980               	goto	l569
  2902  0186                     u2400:
  2903  0186                     l2354:
  2904                           
  2905                           ;PROYECTO.c: 782:             TXREG = 50;
  2906  0186  3032               	movlw	50
  2907  0187  1283               	bcf	3,5	;RP0=0, select bank0
  2908  0188  1303               	bcf	3,6	;RP1=0, select bank0
  2909  0189  0099               	movwf	25	;volatile
  2910  018A                     l572:	
  2911                           ;PROYECTO.c: 783:             while(TXSTAbits.TRMT == 0);
  2912                           
  2913  018A  1683               	bsf	3,5	;RP0=1, select bank1
  2914  018B  1303               	bcf	3,6	;RP1=0, select bank1
  2915  018C  1C98               	btfss	24,1	;volatile
  2916  018D  298F               	goto	u2411
  2917  018E  2990               	goto	u2410
  2918  018F                     u2411:
  2919  018F  298A               	goto	l572
  2920  0190                     u2410:
  2921  0190  2856               	goto	l2286
  2922  0191                     l2360:
  2923  0191  087A               	movf	SendCharH@in,w
  2924  0192  00F8               	movwf	??_SendCharH
  2925  0193  01F9               	clrf	??_SendCharH+1
  2926                           
  2927                           ; Switch on 2 bytes has been partitioned into a top level switch of size 1, and 1 sub-sw
      +                          itches
  2928                           ; Switch size 1, requested type "simple"
  2929                           ; Number of cases is 1, Range of values is 0 to 0
  2930                           ; switch strategies available:
  2931                           ; Name         Instructions Cycles
  2932                           ; simple_byte            4     3 (average)
  2933                           ; direct_byte           11     8 (fixed)
  2934                           ; jumptable            260     6 (fixed)
  2935                           ;	Chosen strategy is simple_byte
  2936  0194  0879               	movf	??_SendCharH+1,w
  2937  0195  3A00               	xorlw	0	; case 0
  2938  0196  1903               	skipnz
  2939  0197  2999               	goto	l4122
  2940  0198  29E6               	goto	l575
  2941  0199                     l4122:
  2942                           
  2943                           ; Switch size 1, requested type "simple"
  2944                           ; Number of cases is 25, Range of values is 0 to 24
  2945                           ; switch strategies available:
  2946                           ; Name         Instructions Cycles
  2947                           ; simple_byte           76    39 (average)
  2948                           ; direct_byte           83     8 (fixed)
  2949                           ; jumptable            260     6 (fixed)
  2950                           ;	Chosen strategy is simple_byte
  2951  0199  0878               	movf	??_SendCharH,w
  2952  019A  3A00               	xorlw	0	; case 0
  2953  019B  1903               	skipnz
  2954  019C  2824               	goto	l430
  2955  019D  3A01               	xorlw	1	; case 1
  2956  019E  1903               	skipnz
  2957  019F  282F               	goto	l435
  2958  01A0  3A03               	xorlw	3	; case 2
  2959  01A1  1903               	skipnz
  2960  01A2  283A               	goto	l439
  2961  01A3  3A01               	xorlw	1	; case 3
  2962  01A4  1903               	skipnz
  2963  01A5  2845               	goto	l443
  2964  01A6  3A07               	xorlw	7	; case 4
  2965  01A7  1903               	skipnz
  2966  01A8  2850               	goto	l447
  2967  01A9  3A01               	xorlw	1	; case 5
  2968  01AA  1903               	skipnz
  2969  01AB  285B               	goto	l451
  2970  01AC  3A03               	xorlw	3	; case 6
  2971  01AD  1903               	skipnz
  2972  01AE  2866               	goto	l455
  2973  01AF  3A01               	xorlw	1	; case 7
  2974  01B0  1903               	skipnz
  2975  01B1  2871               	goto	l459
  2976  01B2  3A0F               	xorlw	15	; case 8
  2977  01B3  1903               	skipnz
  2978  01B4  287C               	goto	l463
  2979  01B5  3A01               	xorlw	1	; case 9
  2980  01B6  1903               	skipnz
  2981  01B7  2887               	goto	l467
  2982  01B8  3A03               	xorlw	3	; case 10
  2983  01B9  1903               	skipnz
  2984  01BA  2892               	goto	l471
  2985  01BB  3A01               	xorlw	1	; case 11
  2986  01BC  1903               	skipnz
  2987  01BD  28A3               	goto	l478
  2988  01BE  3A07               	xorlw	7	; case 12
  2989  01BF  1903               	skipnz
  2990  01C0  28B4               	goto	l485
  2991  01C1  3A01               	xorlw	1	; case 13
  2992  01C2  1903               	skipnz
  2993  01C3  28C5               	goto	l492
  2994  01C4  3A03               	xorlw	3	; case 14
  2995  01C5  1903               	skipnz
  2996  01C6  28D6               	goto	l499
  2997  01C7  3A01               	xorlw	1	; case 15
  2998  01C8  1903               	skipnz
  2999  01C9  28E7               	goto	l506
  3000  01CA  3A1F               	xorlw	31	; case 16
  3001  01CB  1903               	skipnz
  3002  01CC  28F8               	goto	l513
  3003  01CD  3A01               	xorlw	1	; case 17
  3004  01CE  1903               	skipnz
  3005  01CF  2909               	goto	l520
  3006  01D0  3A03               	xorlw	3	; case 18
  3007  01D1  1903               	skipnz
  3008  01D2  291A               	goto	l527
  3009  01D3  3A01               	xorlw	1	; case 19
  3010  01D4  1903               	skipnz
  3011  01D5  292B               	goto	l534
  3012  01D6  3A07               	xorlw	7	; case 20
  3013  01D7  1903               	skipnz
  3014  01D8  293C               	goto	l541
  3015  01D9  3A01               	xorlw	1	; case 21
  3016  01DA  1903               	skipnz
  3017  01DB  294D               	goto	l548
  3018  01DC  3A03               	xorlw	3	; case 22
  3019  01DD  1903               	skipnz
  3020  01DE  295E               	goto	l555
  3021  01DF  3A01               	xorlw	1	; case 23
  3022  01E0  1903               	skipnz
  3023  01E1  296F               	goto	l562
  3024  01E2  3A0F               	xorlw	15	; case 24
  3025  01E3  1903               	skipnz
  3026  01E4  2980               	goto	l569
  3027  01E5  29E6               	goto	l575
  3028  01E6                     l575:
  3029  01E6  0008               	return
  3030  01E7                     __end_of_SendCharH:
  3031                           
  3032                           	psect	text6
  3033  0529                     __ptext6:	
  3034 ;; *************** function _CharToNumM *****************
  3035 ;; Defined at:
  3036 ;;		line 884 in file "PROYECTO.c"
  3037 ;; Parameters:    Size  Location     Type
  3038 ;;  in              1    wreg     unsigned char 
  3039 ;;  her             1    2[COMMON] unsigned char 
  3040 ;; Auto vars:     Size  Location     Type
  3041 ;;  in              1    4[COMMON] unsigned char 
  3042 ;; Return value:  Size  Location     Type
  3043 ;;                  1    wreg      unsigned char 
  3044 ;; Registers used:
  3045 ;;		wreg, status,2, status,0
  3046 ;; Tracked objects:
  3047 ;;		On entry : 0/0
  3048 ;;		On exit  : 0/0
  3049 ;;		Unchanged: 0/0
  3050 ;; Data sizes:     COMMON   BANK0   BANK1   BANK3   BANK2
  3051 ;;      Params:         1       0       0       0       0
  3052 ;;      Locals:         1       0       0       0       0
  3053 ;;      Temps:          1       0       0       0       0
  3054 ;;      Totals:         3       0       0       0       0
  3055 ;;Total ram usage:        3 bytes
  3056 ;; Hardware stack levels used:    1
  3057 ;; Hardware stack levels required when called:    1
  3058 ;; This function calls:
  3059 ;;		Nothing
  3060 ;; This function is called by:
  3061 ;;		_main
  3062 ;; This function uses a non-reentrant model
  3063 ;;
  3064                           
  3065                           
  3066                           ;psect for function _CharToNumM
  3067  0529                     _CharToNumM:
  3068                           
  3069                           ;incstack = 0
  3070                           ; Regs used in _CharToNumM: [wreg+status,2+status,0]
  3071                           ;CharToNumM@in stored from wreg
  3072  0529  00FA               	movwf	CharToNumM@in
  3073  052A                     l2450:
  3074                           
  3075                           ;PROYECTO.c: 885:     if(in == 'a'){
  3076  052A  3061               	movlw	97
  3077  052B  067A               	xorwf	CharToNumM@in,w
  3078  052C  1D03               	btfss	3,2
  3079  052D  2D2F               	goto	u2481
  3080  052E  2D30               	goto	u2480
  3081  052F                     u2481:
  3082  052F  2D32               	goto	l2454
  3083  0530                     u2480:
  3084  0530                     l2452:
  3085                           
  3086                           ;PROYECTO.c: 886:         her = 0;
  3087  0530  01F8               	clrf	CharToNumM@her
  3088                           
  3089                           ;PROYECTO.c: 887:     }else if(in == 'b'){
  3090  0531  2D5E               	goto	l624
  3091  0532                     l2454:
  3092  0532  3062               	movlw	98
  3093  0533  067A               	xorwf	CharToNumM@in,w
  3094  0534  1D03               	btfss	3,2
  3095  0535  2D37               	goto	u2491
  3096  0536  2D38               	goto	u2490
  3097  0537                     u2491:
  3098  0537  2D3D               	goto	l2458
  3099  0538                     u2490:
  3100  0538                     l2456:
  3101                           
  3102                           ;PROYECTO.c: 888:         her = 15;
  3103  0538  300F               	movlw	15
  3104  0539  00F9               	movwf	??_CharToNumM
  3105  053A  0879               	movf	??_CharToNumM,w
  3106  053B  00F8               	movwf	CharToNumM@her
  3107                           
  3108                           ;PROYECTO.c: 889:     }else if(in == 'c'){
  3109  053C  2D5E               	goto	l624
  3110  053D                     l2458:
  3111  053D  3063               	movlw	99
  3112  053E  067A               	xorwf	CharToNumM@in,w
  3113  053F  1D03               	btfss	3,2
  3114  0540  2D42               	goto	u2501
  3115  0541  2D43               	goto	u2500
  3116  0542                     u2501:
  3117  0542  2D48               	goto	l2462
  3118  0543                     u2500:
  3119  0543                     l2460:
  3120                           
  3121                           ;PROYECTO.c: 890:         her = 30;
  3122  0543  301E               	movlw	30
  3123  0544  00F9               	movwf	??_CharToNumM
  3124  0545  0879               	movf	??_CharToNumM,w
  3125  0546  00F8               	movwf	CharToNumM@her
  3126                           
  3127                           ;PROYECTO.c: 891:     }else if(in == 'd'){
  3128  0547  2D5E               	goto	l624
  3129  0548                     l2462:
  3130  0548  3064               	movlw	100
  3131  0549  067A               	xorwf	CharToNumM@in,w
  3132  054A  1D03               	btfss	3,2
  3133  054B  2D4D               	goto	u2511
  3134  054C  2D4E               	goto	u2510
  3135  054D                     u2511:
  3136  054D  2D53               	goto	l2466
  3137  054E                     u2510:
  3138  054E                     l2464:
  3139                           
  3140                           ;PROYECTO.c: 892:         her = 45;
  3141  054E  302D               	movlw	45
  3142  054F  00F9               	movwf	??_CharToNumM
  3143  0550  0879               	movf	??_CharToNumM,w
  3144  0551  00F8               	movwf	CharToNumM@her
  3145                           
  3146                           ;PROYECTO.c: 893:     }else if(in == 'e'){
  3147  0552  2D5E               	goto	l624
  3148  0553                     l2466:
  3149  0553  3065               	movlw	101
  3150  0554  067A               	xorwf	CharToNumM@in,w
  3151  0555  1D03               	btfss	3,2
  3152  0556  2D58               	goto	u2521
  3153  0557  2D59               	goto	u2520
  3154  0558                     u2521:
  3155  0558  2D5E               	goto	l628
  3156  0559                     u2520:
  3157  0559                     l2468:
  3158                           
  3159                           ;PROYECTO.c: 894:         her = 55;
  3160  0559  3037               	movlw	55
  3161  055A  00F9               	movwf	??_CharToNumM
  3162  055B  0879               	movf	??_CharToNumM,w
  3163  055C  00F8               	movwf	CharToNumM@her
  3164  055D  2D5E               	goto	l624
  3165  055E                     l628:
  3166  055E                     l624:
  3167                           
  3168                           ;PROYECTO.c: 896:     return her;
  3169  055E  0878               	movf	CharToNumM@her,w
  3170  055F                     l632:
  3171  055F  0008               	return
  3172  0560                     __end_of_CharToNumM:
  3173                           
  3174                           	psect	text7
  3175  0401                     __ptext7:	
  3176 ;; *************** function _CharToNumH *****************
  3177 ;; Defined at:
  3178 ;;		line 804 in file "PROYECTO.c"
  3179 ;; Parameters:    Size  Location     Type
  3180 ;;  in              1    wreg     unsigned char 
  3181 ;;  hora_user       1    2[COMMON] unsigned char 
  3182 ;; Auto vars:     Size  Location     Type
  3183 ;;  in              1    5[COMMON] unsigned char 
  3184 ;; Return value:  Size  Location     Type
  3185 ;;                  1    wreg      unsigned char 
  3186 ;; Registers used:
  3187 ;;		wreg, fsr0l, fsr0h, status,2, status,0
  3188 ;; Tracked objects:
  3189 ;;		On entry : 0/0
  3190 ;;		On exit  : 0/0
  3191 ;;		Unchanged: 0/0
  3192 ;; Data sizes:     COMMON   BANK0   BANK1   BANK3   BANK2
  3193 ;;      Params:         1       0       0       0       0
  3194 ;;      Locals:         1       0       0       0       0
  3195 ;;      Temps:          2       0       0       0       0
  3196 ;;      Totals:         4       0       0       0       0
  3197 ;;Total ram usage:        4 bytes
  3198 ;; Hardware stack levels used:    1
  3199 ;; Hardware stack levels required when called:    1
  3200 ;; This function calls:
  3201 ;;		Nothing
  3202 ;; This function is called by:
  3203 ;;		_main
  3204 ;; This function uses a non-reentrant model
  3205 ;;
  3206                           
  3207                           
  3208                           ;psect for function _CharToNumH
  3209  0401                     _CharToNumH:
  3210                           
  3211                           ;incstack = 0
  3212                           ; Regs used in _CharToNumH: [wreg-fsr0h+status,2+status,0]
  3213                           ;CharToNumH@in stored from wreg
  3214  0401  00FB               	movwf	CharToNumH@in
  3215  0402                     l2388:
  3216                           
  3217                           ;PROYECTO.c: 805:     switch(in){
  3218  0402  2C7B               	goto	l2440
  3219  0403                     l2390:
  3220                           
  3221                           ;PROYECTO.c: 807:             hora_user = 0;
  3222  0403  01F8               	clrf	CharToNumH@hora_user
  3223                           
  3224                           ;PROYECTO.c: 808:             break;
  3225  0404  2CD0               	goto	l2442
  3226  0405                     l596:	
  3227                           ;PROYECTO.c: 809:         case('b'):
  3228                           
  3229                           
  3230                           ;PROYECTO.c: 810:             hora_user = 1;
  3231  0405  01F8               	clrf	CharToNumH@hora_user
  3232  0406  0AF8               	incf	CharToNumH@hora_user,f
  3233                           
  3234                           ;PROYECTO.c: 811:             break;
  3235  0407  2CD0               	goto	l2442
  3236  0408                     l2392:
  3237                           
  3238                           ;PROYECTO.c: 813:             hora_user = 2;
  3239  0408  3002               	movlw	2
  3240  0409  00F9               	movwf	??_CharToNumH
  3241  040A  0879               	movf	??_CharToNumH,w
  3242  040B  00F8               	movwf	CharToNumH@hora_user
  3243                           
  3244                           ;PROYECTO.c: 814:             break;
  3245  040C  2CD0               	goto	l2442
  3246  040D                     l2394:
  3247                           
  3248                           ;PROYECTO.c: 816:             hora_user = 3;
  3249  040D  3003               	movlw	3
  3250  040E  00F9               	movwf	??_CharToNumH
  3251  040F  0879               	movf	??_CharToNumH,w
  3252  0410  00F8               	movwf	CharToNumH@hora_user
  3253                           
  3254                           ;PROYECTO.c: 817:             break;
  3255  0411  2CD0               	goto	l2442
  3256  0412                     l2396:
  3257                           
  3258                           ;PROYECTO.c: 819:             hora_user = 4;
  3259  0412  3004               	movlw	4
  3260  0413  00F9               	movwf	??_CharToNumH
  3261  0414  0879               	movf	??_CharToNumH,w
  3262  0415  00F8               	movwf	CharToNumH@hora_user
  3263                           
  3264                           ;PROYECTO.c: 820:             break;
  3265  0416  2CD0               	goto	l2442
  3266  0417                     l2398:
  3267                           
  3268                           ;PROYECTO.c: 822:             hora_user = 5;
  3269  0417  3005               	movlw	5
  3270  0418  00F9               	movwf	??_CharToNumH
  3271  0419  0879               	movf	??_CharToNumH,w
  3272  041A  00F8               	movwf	CharToNumH@hora_user
  3273                           
  3274                           ;PROYECTO.c: 823:             break;
  3275  041B  2CD0               	goto	l2442
  3276  041C                     l2400:
  3277                           
  3278                           ;PROYECTO.c: 825:             hora_user = 6;
  3279  041C  3006               	movlw	6
  3280  041D  00F9               	movwf	??_CharToNumH
  3281  041E  0879               	movf	??_CharToNumH,w
  3282  041F  00F8               	movwf	CharToNumH@hora_user
  3283                           
  3284                           ;PROYECTO.c: 826:             break;
  3285  0420  2CD0               	goto	l2442
  3286  0421                     l2402:
  3287                           
  3288                           ;PROYECTO.c: 828:             hora_user = 7;
  3289  0421  3007               	movlw	7
  3290  0422  00F9               	movwf	??_CharToNumH
  3291  0423  0879               	movf	??_CharToNumH,w
  3292  0424  00F8               	movwf	CharToNumH@hora_user
  3293                           
  3294                           ;PROYECTO.c: 829:             break;
  3295  0425  2CD0               	goto	l2442
  3296  0426                     l2404:
  3297                           
  3298                           ;PROYECTO.c: 831:             hora_user = 8;
  3299  0426  3008               	movlw	8
  3300  0427  00F9               	movwf	??_CharToNumH
  3301  0428  0879               	movf	??_CharToNumH,w
  3302  0429  00F8               	movwf	CharToNumH@hora_user
  3303                           
  3304                           ;PROYECTO.c: 832:             break;
  3305  042A  2CD0               	goto	l2442
  3306  042B                     l2406:
  3307                           
  3308                           ;PROYECTO.c: 834:             hora_user = 9;
  3309  042B  3009               	movlw	9
  3310  042C  00F9               	movwf	??_CharToNumH
  3311  042D  0879               	movf	??_CharToNumH,w
  3312  042E  00F8               	movwf	CharToNumH@hora_user
  3313                           
  3314                           ;PROYECTO.c: 835:             break;
  3315  042F  2CD0               	goto	l2442
  3316  0430                     l2408:
  3317                           
  3318                           ;PROYECTO.c: 837:             hora_user = 10;
  3319  0430  300A               	movlw	10
  3320  0431  00F9               	movwf	??_CharToNumH
  3321  0432  0879               	movf	??_CharToNumH,w
  3322  0433  00F8               	movwf	CharToNumH@hora_user
  3323                           
  3324                           ;PROYECTO.c: 838:             break;
  3325  0434  2CD0               	goto	l2442
  3326  0435                     l2410:
  3327                           
  3328                           ;PROYECTO.c: 840:             hora_user = 11;
  3329  0435  300B               	movlw	11
  3330  0436  00F9               	movwf	??_CharToNumH
  3331  0437  0879               	movf	??_CharToNumH,w
  3332  0438  00F8               	movwf	CharToNumH@hora_user
  3333                           
  3334                           ;PROYECTO.c: 841:             break;
  3335  0439  2CD0               	goto	l2442
  3336  043A                     l2412:
  3337                           
  3338                           ;PROYECTO.c: 843:             hora_user = 12;
  3339  043A  300C               	movlw	12
  3340  043B  00F9               	movwf	??_CharToNumH
  3341  043C  0879               	movf	??_CharToNumH,w
  3342  043D  00F8               	movwf	CharToNumH@hora_user
  3343                           
  3344                           ;PROYECTO.c: 844:             break;
  3345  043E  2CD0               	goto	l2442
  3346  043F                     l2414:
  3347                           
  3348                           ;PROYECTO.c: 846:             hora_user = 13;
  3349  043F  300D               	movlw	13
  3350  0440  00F9               	movwf	??_CharToNumH
  3351  0441  0879               	movf	??_CharToNumH,w
  3352  0442  00F8               	movwf	CharToNumH@hora_user
  3353                           
  3354                           ;PROYECTO.c: 847:             break;
  3355  0443  2CD0               	goto	l2442
  3356  0444                     l2416:
  3357                           
  3358                           ;PROYECTO.c: 849:             hora_user = 14;
  3359  0444  300E               	movlw	14
  3360  0445  00F9               	movwf	??_CharToNumH
  3361  0446  0879               	movf	??_CharToNumH,w
  3362  0447  00F8               	movwf	CharToNumH@hora_user
  3363                           
  3364                           ;PROYECTO.c: 850:             break;
  3365  0448  2CD0               	goto	l2442
  3366  0449                     l2418:
  3367                           
  3368                           ;PROYECTO.c: 852:             hora_user = 15;
  3369  0449  300F               	movlw	15
  3370  044A  00F9               	movwf	??_CharToNumH
  3371  044B  0879               	movf	??_CharToNumH,w
  3372  044C  00F8               	movwf	CharToNumH@hora_user
  3373                           
  3374                           ;PROYECTO.c: 853:             break;
  3375  044D  2CD0               	goto	l2442
  3376  044E                     l2420:
  3377                           
  3378                           ;PROYECTO.c: 855:             hora_user = 16;
  3379  044E  3010               	movlw	16
  3380  044F  00F9               	movwf	??_CharToNumH
  3381  0450  0879               	movf	??_CharToNumH,w
  3382  0451  00F8               	movwf	CharToNumH@hora_user
  3383                           
  3384                           ;PROYECTO.c: 856:             break;
  3385  0452  2CD0               	goto	l2442
  3386  0453                     l2422:
  3387                           
  3388                           ;PROYECTO.c: 858:             hora_user = 17;
  3389  0453  3011               	movlw	17
  3390  0454  00F9               	movwf	??_CharToNumH
  3391  0455  0879               	movf	??_CharToNumH,w
  3392  0456  00F8               	movwf	CharToNumH@hora_user
  3393                           
  3394                           ;PROYECTO.c: 859:             break;
  3395  0457  2CD0               	goto	l2442
  3396  0458                     l2424:
  3397                           
  3398                           ;PROYECTO.c: 861:             hora_user = 18;
  3399  0458  3012               	movlw	18
  3400  0459  00F9               	movwf	??_CharToNumH
  3401  045A  0879               	movf	??_CharToNumH,w
  3402  045B  00F8               	movwf	CharToNumH@hora_user
  3403                           
  3404                           ;PROYECTO.c: 862:             break;
  3405  045C  2CD0               	goto	l2442
  3406  045D                     l2426:
  3407                           
  3408                           ;PROYECTO.c: 864:             hora_user = 19;
  3409  045D  3013               	movlw	19
  3410  045E  00F9               	movwf	??_CharToNumH
  3411  045F  0879               	movf	??_CharToNumH,w
  3412  0460  00F8               	movwf	CharToNumH@hora_user
  3413                           
  3414                           ;PROYECTO.c: 865:             break;
  3415  0461  2CD0               	goto	l2442
  3416  0462                     l2428:
  3417                           
  3418                           ;PROYECTO.c: 867:             hora_user = 20;
  3419  0462  3014               	movlw	20
  3420  0463  00F9               	movwf	??_CharToNumH
  3421  0464  0879               	movf	??_CharToNumH,w
  3422  0465  00F8               	movwf	CharToNumH@hora_user
  3423                           
  3424                           ;PROYECTO.c: 868:             break;
  3425  0466  2CD0               	goto	l2442
  3426  0467                     l2430:
  3427                           
  3428                           ;PROYECTO.c: 870:             hora_user = 21;
  3429  0467  3015               	movlw	21
  3430  0468  00F9               	movwf	??_CharToNumH
  3431  0469  0879               	movf	??_CharToNumH,w
  3432  046A  00F8               	movwf	CharToNumH@hora_user
  3433                           
  3434                           ;PROYECTO.c: 871:             break;
  3435  046B  2CD0               	goto	l2442
  3436  046C                     l2432:
  3437                           
  3438                           ;PROYECTO.c: 873:             hora_user = 22;
  3439  046C  3016               	movlw	22
  3440  046D  00F9               	movwf	??_CharToNumH
  3441  046E  0879               	movf	??_CharToNumH,w
  3442  046F  00F8               	movwf	CharToNumH@hora_user
  3443                           
  3444                           ;PROYECTO.c: 874:             break;
  3445  0470  2CD0               	goto	l2442
  3446  0471                     l2434:
  3447                           
  3448                           ;PROYECTO.c: 876:             hora_user = 23;
  3449  0471  3017               	movlw	23
  3450  0472  00F9               	movwf	??_CharToNumH
  3451  0473  0879               	movf	??_CharToNumH,w
  3452  0474  00F8               	movwf	CharToNumH@hora_user
  3453                           
  3454                           ;PROYECTO.c: 877:             break;
  3455  0475  2CD0               	goto	l2442
  3456  0476                     l2436:
  3457                           
  3458                           ;PROYECTO.c: 879:             hora_user = 24;
  3459  0476  3018               	movlw	24
  3460  0477  00F9               	movwf	??_CharToNumH
  3461  0478  0879               	movf	??_CharToNumH,w
  3462  0479  00F8               	movwf	CharToNumH@hora_user
  3463                           
  3464                           ;PROYECTO.c: 880:             break;
  3465  047A  2CD0               	goto	l2442
  3466  047B                     l2440:
  3467  047B  087B               	movf	CharToNumH@in,w
  3468  047C  00F9               	movwf	??_CharToNumH
  3469  047D  01FA               	clrf	??_CharToNumH+1
  3470                           
  3471                           ; Switch on 2 bytes has been partitioned into a top level switch of size 1, and 1 sub-sw
      +                          itches
  3472                           ; Switch size 1, requested type "simple"
  3473                           ; Number of cases is 1, Range of values is 0 to 0
  3474                           ; switch strategies available:
  3475                           ; Name         Instructions Cycles
  3476                           ; simple_byte            4     3 (average)
  3477                           ; direct_byte           11     8 (fixed)
  3478                           ; jumptable            260     6 (fixed)
  3479                           ;	Chosen strategy is simple_byte
  3480  047E  087A               	movf	??_CharToNumH+1,w
  3481  047F  3A00               	xorlw	0	; case 0
  3482  0480  1903               	skipnz
  3483  0481  2C83               	goto	l4124
  3484  0482  2CD0               	goto	l2442
  3485  0483                     l4124:
  3486                           
  3487                           ; Switch size 1, requested type "simple"
  3488                           ; Number of cases is 25, Range of values is 97 to 121
  3489                           ; switch strategies available:
  3490                           ; Name         Instructions Cycles
  3491                           ; simple_byte           76    39 (average)
  3492                           ; direct_byte           86    11 (fixed)
  3493                           ; jumptable            263     9 (fixed)
  3494                           ;	Chosen strategy is simple_byte
  3495  0483  0879               	movf	??_CharToNumH,w
  3496  0484  3A61               	xorlw	97	; case 97
  3497  0485  1903               	skipnz
  3498  0486  2C03               	goto	l2390
  3499  0487  3A03               	xorlw	3	; case 98
  3500  0488  1903               	skipnz
  3501  0489  2C05               	goto	l596
  3502  048A  3A01               	xorlw	1	; case 99
  3503  048B  1903               	skipnz
  3504  048C  2C08               	goto	l2392
  3505  048D  3A07               	xorlw	7	; case 100
  3506  048E  1903               	skipnz
  3507  048F  2C0D               	goto	l2394
  3508  0490  3A01               	xorlw	1	; case 101
  3509  0491  1903               	skipnz
  3510  0492  2C12               	goto	l2396
  3511  0493  3A03               	xorlw	3	; case 102
  3512  0494  1903               	skipnz
  3513  0495  2C17               	goto	l2398
  3514  0496  3A01               	xorlw	1	; case 103
  3515  0497  1903               	skipnz
  3516  0498  2C1C               	goto	l2400
  3517  0499  3A0F               	xorlw	15	; case 104
  3518  049A  1903               	skipnz
  3519  049B  2C21               	goto	l2402
  3520  049C  3A01               	xorlw	1	; case 105
  3521  049D  1903               	skipnz
  3522  049E  2C26               	goto	l2404
  3523  049F  3A03               	xorlw	3	; case 106
  3524  04A0  1903               	skipnz
  3525  04A1  2C2B               	goto	l2406
  3526  04A2  3A01               	xorlw	1	; case 107
  3527  04A3  1903               	skipnz
  3528  04A4  2C30               	goto	l2408
  3529  04A5  3A07               	xorlw	7	; case 108
  3530  04A6  1903               	skipnz
  3531  04A7  2C35               	goto	l2410
  3532  04A8  3A01               	xorlw	1	; case 109
  3533  04A9  1903               	skipnz
  3534  04AA  2C3A               	goto	l2412
  3535  04AB  3A03               	xorlw	3	; case 110
  3536  04AC  1903               	skipnz
  3537  04AD  2C3F               	goto	l2414
  3538  04AE  3A01               	xorlw	1	; case 111
  3539  04AF  1903               	skipnz
  3540  04B0  2C44               	goto	l2416
  3541  04B1  3A1F               	xorlw	31	; case 112
  3542  04B2  1903               	skipnz
  3543  04B3  2C49               	goto	l2418
  3544  04B4  3A01               	xorlw	1	; case 113
  3545  04B5  1903               	skipnz
  3546  04B6  2C4E               	goto	l2420
  3547  04B7  3A03               	xorlw	3	; case 114
  3548  04B8  1903               	skipnz
  3549  04B9  2C53               	goto	l2422
  3550  04BA  3A01               	xorlw	1	; case 115
  3551  04BB  1903               	skipnz
  3552  04BC  2C58               	goto	l2424
  3553  04BD  3A07               	xorlw	7	; case 116
  3554  04BE  1903               	skipnz
  3555  04BF  2C5D               	goto	l2426
  3556  04C0  3A01               	xorlw	1	; case 117
  3557  04C1  1903               	skipnz
  3558  04C2  2C62               	goto	l2428
  3559  04C3  3A03               	xorlw	3	; case 118
  3560  04C4  1903               	skipnz
  3561  04C5  2C67               	goto	l2430
  3562  04C6  3A01               	xorlw	1	; case 119
  3563  04C7  1903               	skipnz
  3564  04C8  2C6C               	goto	l2432
  3565  04C9  3A0F               	xorlw	15	; case 120
  3566  04CA  1903               	skipnz
  3567  04CB  2C71               	goto	l2434
  3568  04CC  3A01               	xorlw	1	; case 121
  3569  04CD  1903               	skipnz
  3570  04CE  2C76               	goto	l2436
  3571  04CF  2CD0               	goto	l2442
  3572  04D0                     l2442:
  3573                           
  3574                           ;PROYECTO.c: 882:     return hora_user;
  3575  04D0  0878               	movf	CharToNumH@hora_user,w
  3576  04D1                     l620:
  3577  04D1  0008               	return
  3578  04D2                     __end_of_CharToNumH:
  3579                           
  3580                           	psect	text8
  3581  05AC                     __ptext8:	
  3582 ;; *************** function _isr *****************
  3583 ;; Defined at:
  3584 ;;		line 70 in file "PROYECTO.c"
  3585 ;; Parameters:    Size  Location     Type
  3586 ;;		None
  3587 ;; Auto vars:     Size  Location     Type
  3588 ;;		None
  3589 ;; Return value:  Size  Location     Type
  3590 ;;                  1    wreg      void 
  3591 ;; Registers used:
  3592 ;;		None
  3593 ;; Tracked objects:
  3594 ;;		On entry : 0/0
  3595 ;;		On exit  : 0/0
  3596 ;;		Unchanged: 0/0
  3597 ;; Data sizes:     COMMON   BANK0   BANK1   BANK3   BANK2
  3598 ;;      Params:         0       0       0       0       0
  3599 ;;      Locals:         0       0       0       0       0
  3600 ;;      Temps:          2       0       0       0       0
  3601 ;;      Totals:         2       0       0       0       0
  3602 ;;Total ram usage:        2 bytes
  3603 ;; Hardware stack levels used:    1
  3604 ;; This function calls:
  3605 ;;		Nothing
  3606 ;; This function is called by:
  3607 ;;		Interrupt level 1
  3608 ;; This function uses a non-reentrant model
  3609 ;;
  3610                           
  3611                           
  3612                           ;psect for function _isr
  3613  05AC                     _isr:
  3614  05AC                     i1l153:
  3615  05AC  0877               	movf	??_isr+1,w
  3616  05AD  008A               	movwf	10
  3617  05AE  0E76               	swapf	??_isr,w
  3618  05AF  0083               	movwf	3
  3619  05B0  0EFE               	swapf	btemp,f
  3620  05B1  0E7E               	swapf	btemp,w
  3621  05B2  0009               	retfie
  3622  05B3                     __end_of_isr:
  3623  007E                     btemp	set	126	;btemp
  3624  007E                     wtemp0	set	126
  3625                           
  3626                           	psect	intentry
  3627  0004                     __pintentry:	
  3628                           ;incstack = 0
  3629                           ; Regs used in _isr: []
  3630                           
  3631  0004                     interrupt_function:
  3632  007E                     saved_w	set	btemp
  3633  0004  00FE               	movwf	btemp
  3634  0005  0E03               	swapf	3,w
  3635  0006  00F6               	movwf	??_isr
  3636  0007  080A               	movf	10,w
  3637  0008  00F7               	movwf	??_isr+1
  3638  0009  120A  118A  2DAC   	ljmp	_isr
  3639                           
  3640                           	psect	config
  3641                           
  3642                           ;Config register CONFIG1 @ 0x2007
  3643                           ;	Oscillator Selection bits
  3644                           ;	FOSC = INTRC_NOCLKOUT, INTOSCIO oscillator: I/O function on RA6/OSC2/CLKOUT pin, I/O f
      +                          unction on RA7/OSC1/CLKIN
  3645                           ;	Watchdog Timer Enable bit
  3646                           ;	WDTE = OFF, WDT disabled and can be enabled by SWDTEN bit of the WDTCON register
  3647                           ;	Power-up Timer Enable bit
  3648                           ;	PWRTE = OFF, PWRT disabled
  3649                           ;	RE3/MCLR pin function select bit
  3650                           ;	MCLRE = OFF, RE3/MCLR pin function is digital input, MCLR internally tied to VDD
  3651                           ;	Code Protection bit
  3652                           ;	CP = OFF, Program memory code protection is disabled
  3653                           ;	Data Code Protection bit
  3654                           ;	CPD = OFF, Data memory code protection is disabled
  3655                           ;	Brown Out Reset Selection bits
  3656                           ;	BOREN = OFF, BOR disabled
  3657                           ;	Internal External Switchover bit
  3658                           ;	IESO = OFF, Internal/External Switchover mode is disabled
  3659                           ;	Fail-Safe Clock Monitor Enabled bit
  3660                           ;	FCMEN = OFF, Fail-Safe Clock Monitor is disabled
  3661                           ;	Low Voltage Programming Enable bit
  3662                           ;	LVP = ON, RB3/PGM pin has PGM function, low voltage programming enabled
  3663                           ;	In-Circuit Debugger Mode bit
  3664                           ;	DEBUG = 0x1, unprogrammed default
  3665  2007                     	org	8199
  3666  2007  30D4               	dw	12500
  3667                           
  3668                           ;Config register CONFIG2 @ 0x2008
  3669                           ;	Brown-out Reset Selection bit
  3670                           ;	BOR4V = BOR40V, Brown-out Reset set to 4.0V
  3671                           ;	Flash Program Memory Self Write Enable bits
  3672                           ;	WRT = OFF, Write protection off
  3673  2008                     	org	8200
  3674  2008  3FFF               	dw	16383
  3675                           
  3676                           	psect	maintext_split_1
  3677  02FA                     l3448:
  3678  02FA  0C1F               	rrf	31,w	;volatile
  3679  02FB  00B8               	movwf	??_main
  3680  02FC  0C38               	rrf	??_main,w
  3681  02FD  390F               	andlw	15
  3682  02FE  3A05               	xorlw	5
  3683  02FF  1D03               	skipz
  3684  0300  2B02               	goto	u4131
  3685  0301  2B05               	goto	u4130
  3686  0302                     u4131:
  3687  0302  120A  158A  28B5   	goto	l3598
  3688  0305                     u4130:
  3689  0305                     l3450:
  3690                           
  3691                           ;PROYECTO.c: 198:                 escala = ADRESH;
  3692  0305  081E               	movf	30,w	;volatile
  3693  0306  00B8               	movwf	??_main
  3694  0307  0838               	movf	??_main,w
  3695  0308  00F3               	movwf	_escala
  3696                           
  3697                           ;PROYECTO.c: 199:                 if (escala >= 0 && escala <=10 ){
  3698  0309  300B               	movlw	11
  3699  030A  0273               	subwf	_escala,w
  3700  030B  1803               	skipnc
  3701  030C  2B0E               	goto	u4141
  3702  030D  2B0F               	goto	u4140
  3703  030E                     u4141:
  3704  030E  2B13               	goto	l3454
  3705  030F                     u4140:
  3706  030F                     l3452:
  3707                           
  3708                           ;PROYECTO.c: 200:                     hora = 0;
  3709  030F  01F5               	clrf	_hora
  3710  0310                     L1:
  3711                           
  3712                           ;PROYECTO.c: 201:                 }else if(escala >= 11 && escala <=20 ){
  3713  0310  120A  158A  28B1   	goto	l3596
  3714  0313                     l3454:
  3715  0313  300B               	movlw	11
  3716  0314  0273               	subwf	_escala,w
  3717  0315  1C03               	skipc
  3718  0316  2B18               	goto	u4151
  3719  0317  2B19               	goto	u4150
  3720  0318                     u4151:
  3721  0318  2B22               	goto	l3460
  3722  0319                     u4150:
  3723  0319                     l3456:
  3724  0319  3015               	movlw	21
  3725  031A  0273               	subwf	_escala,w
  3726  031B  1803               	skipnc
  3727  031C  2B1E               	goto	u4161
  3728  031D  2B1F               	goto	u4160
  3729  031E                     u4161:
  3730  031E  2B22               	goto	l3460
  3731  031F                     u4160:
  3732  031F                     l3458:
  3733                           
  3734                           ;PROYECTO.c: 202:                     hora = 1;
  3735  031F  01F5               	clrf	_hora
  3736  0320  0AF5               	incf	_hora,f
  3737                           
  3738                           ;PROYECTO.c: 203:                 }else if(escala >= 21 && escala <=30 ){
  3739  0321  2B10               	goto	L1
  3740  0322                     l3460:
  3741  0322  3015               	movlw	21
  3742  0323  0273               	subwf	_escala,w
  3743  0324  1C03               	skipc
  3744  0325  2B27               	goto	u4171
  3745  0326  2B28               	goto	u4170
  3746  0327                     u4171:
  3747  0327  2B33               	goto	l3466
  3748  0328                     u4170:
  3749  0328                     l3462:
  3750  0328  301F               	movlw	31
  3751  0329  0273               	subwf	_escala,w
  3752  032A  1803               	skipnc
  3753  032B  2B2D               	goto	u4181
  3754  032C  2B2E               	goto	u4180
  3755  032D                     u4181:
  3756  032D  2B33               	goto	l3466
  3757  032E                     u4180:
  3758  032E                     l3464:
  3759                           
  3760                           ;PROYECTO.c: 204:                     hora = 2;
  3761  032E  3002               	movlw	2
  3762  032F  00B8               	movwf	??_main
  3763  0330  0838               	movf	??_main,w
  3764  0331  00F5               	movwf	_hora
  3765                           
  3766                           ;PROYECTO.c: 205:                 }else if(escala >= 31 && escala <=40 ){
  3767  0332  2B10               	goto	L1
  3768  0333                     l3466:
  3769  0333  301F               	movlw	31
  3770  0334  0273               	subwf	_escala,w
  3771  0335  1C03               	skipc
  3772  0336  2B38               	goto	u4191
  3773  0337  2B39               	goto	u4190
  3774  0338                     u4191:
  3775  0338  2B44               	goto	l3472
  3776  0339                     u4190:
  3777  0339                     l3468:
  3778  0339  3029               	movlw	41
  3779  033A  0273               	subwf	_escala,w
  3780  033B  1803               	skipnc
  3781  033C  2B3E               	goto	u4201
  3782  033D  2B3F               	goto	u4200
  3783  033E                     u4201:
  3784  033E  2B44               	goto	l3472
  3785  033F                     u4200:
  3786  033F                     l3470:
  3787                           
  3788                           ;PROYECTO.c: 206:                     hora = 3;
  3789  033F  3003               	movlw	3
  3790  0340  00B8               	movwf	??_main
  3791  0341  0838               	movf	??_main,w
  3792  0342  00F5               	movwf	_hora
  3793                           
  3794                           ;PROYECTO.c: 207:                 }else if(escala >= 41 && escala <=50 ){
  3795  0343  2B10               	goto	L1
  3796  0344                     l3472:
  3797  0344  3029               	movlw	41
  3798  0345  0273               	subwf	_escala,w
  3799  0346  1C03               	skipc
  3800  0347  2B49               	goto	u4211
  3801  0348  2B4A               	goto	u4210
  3802  0349                     u4211:
  3803  0349  2B55               	goto	l3478
  3804  034A                     u4210:
  3805  034A                     l3474:
  3806  034A  3033               	movlw	51
  3807  034B  0273               	subwf	_escala,w
  3808  034C  1803               	skipnc
  3809  034D  2B4F               	goto	u4221
  3810  034E  2B50               	goto	u4220
  3811  034F                     u4221:
  3812  034F  2B55               	goto	l3478
  3813  0350                     u4220:
  3814  0350                     l3476:
  3815                           
  3816                           ;PROYECTO.c: 208:                     hora = 4;
  3817  0350  3004               	movlw	4
  3818  0351  00B8               	movwf	??_main
  3819  0352  0838               	movf	??_main,w
  3820  0353  00F5               	movwf	_hora
  3821                           
  3822                           ;PROYECTO.c: 209:                 }else if(escala >= 51 && escala <=60 ){
  3823  0354  2B10               	goto	L1
  3824  0355                     l3478:
  3825  0355  3033               	movlw	51
  3826  0356  0273               	subwf	_escala,w
  3827  0357  1C03               	skipc
  3828  0358  2B5A               	goto	u4231
  3829  0359  2B5B               	goto	u4230
  3830  035A                     u4231:
  3831  035A  2B66               	goto	l3484
  3832  035B                     u4230:
  3833  035B                     l3480:
  3834  035B  303D               	movlw	61
  3835  035C  0273               	subwf	_escala,w
  3836  035D  1803               	skipnc
  3837  035E  2B60               	goto	u4241
  3838  035F  2B61               	goto	u4240
  3839  0360                     u4241:
  3840  0360  2B66               	goto	l3484
  3841  0361                     u4240:
  3842  0361                     l3482:
  3843                           
  3844                           ;PROYECTO.c: 210:                     hora = 5;
  3845  0361  3005               	movlw	5
  3846  0362  00B8               	movwf	??_main
  3847  0363  0838               	movf	??_main,w
  3848  0364  00F5               	movwf	_hora
  3849                           
  3850                           ;PROYECTO.c: 211:                 }else if(escala >= 61 && escala <=70 ){
  3851  0365  2B10               	goto	L1
  3852  0366                     l3484:
  3853  0366  303D               	movlw	61
  3854  0367  0273               	subwf	_escala,w
  3855  0368  1C03               	skipc
  3856  0369  2B6B               	goto	u4251
  3857  036A  2B6C               	goto	u4250
  3858  036B                     u4251:
  3859  036B  2B77               	goto	l3490
  3860  036C                     u4250:
  3861  036C                     l3486:
  3862  036C  3047               	movlw	71
  3863  036D  0273               	subwf	_escala,w
  3864  036E  1803               	skipnc
  3865  036F  2B71               	goto	u4261
  3866  0370  2B72               	goto	u4260
  3867  0371                     u4261:
  3868  0371  2B77               	goto	l3490
  3869  0372                     u4260:
  3870  0372                     l3488:
  3871                           
  3872                           ;PROYECTO.c: 212:                     hora = 6;
  3873  0372  3006               	movlw	6
  3874  0373  00B8               	movwf	??_main
  3875  0374  0838               	movf	??_main,w
  3876  0375  00F5               	movwf	_hora
  3877                           
  3878                           ;PROYECTO.c: 213:                 }else if(escala >= 71 && escala <=80 ){
  3879  0376  2B10               	goto	L1
  3880  0377                     l3490:
  3881  0377  3047               	movlw	71
  3882  0378  0273               	subwf	_escala,w
  3883  0379  1C03               	skipc
  3884  037A  2B7C               	goto	u4271
  3885  037B  2B7D               	goto	u4270
  3886  037C                     u4271:
  3887  037C  2B88               	goto	l3496
  3888  037D                     u4270:
  3889  037D                     l3492:
  3890  037D  3051               	movlw	81
  3891  037E  0273               	subwf	_escala,w
  3892  037F  1803               	skipnc
  3893  0380  2B82               	goto	u4281
  3894  0381  2B83               	goto	u4280
  3895  0382                     u4281:
  3896  0382  2B88               	goto	l3496
  3897  0383                     u4280:
  3898  0383                     l3494:
  3899                           
  3900                           ;PROYECTO.c: 214:                     hora = 7;
  3901  0383  3007               	movlw	7
  3902  0384  00B8               	movwf	??_main
  3903  0385  0838               	movf	??_main,w
  3904  0386  00F5               	movwf	_hora
  3905                           
  3906                           ;PROYECTO.c: 215:                 }else if(escala >= 81 && escala <=90 ){
  3907  0387  2B10               	goto	L1
  3908  0388                     l3496:
  3909  0388  3051               	movlw	81
  3910  0389  0273               	subwf	_escala,w
  3911  038A  1C03               	skipc
  3912  038B  2B8D               	goto	u4291
  3913  038C  2B8E               	goto	u4290
  3914  038D                     u4291:
  3915  038D  2B99               	goto	l3502
  3916  038E                     u4290:
  3917  038E                     l3498:
  3918  038E  305B               	movlw	91
  3919  038F  0273               	subwf	_escala,w
  3920  0390  1803               	skipnc
  3921  0391  2B93               	goto	u4301
  3922  0392  2B94               	goto	u4300
  3923  0393                     u4301:
  3924  0393  2B99               	goto	l3502
  3925  0394                     u4300:
  3926  0394                     l3500:
  3927                           
  3928                           ;PROYECTO.c: 216:                     hora = 8;
  3929  0394  3008               	movlw	8
  3930  0395  00B8               	movwf	??_main
  3931  0396  0838               	movf	??_main,w
  3932  0397  00F5               	movwf	_hora
  3933                           
  3934                           ;PROYECTO.c: 217:                 }else if(escala >= 91 && escala <=100 ){
  3935  0398  2B10               	goto	L1
  3936  0399                     l3502:
  3937  0399  305B               	movlw	91
  3938  039A  0273               	subwf	_escala,w
  3939  039B  1C03               	skipc
  3940  039C  2B9E               	goto	u4311
  3941  039D  2B9F               	goto	u4310
  3942  039E                     u4311:
  3943  039E  2BAA               	goto	l3508
  3944  039F                     u4310:
  3945  039F                     l3504:
  3946  039F  3065               	movlw	101
  3947  03A0  0273               	subwf	_escala,w
  3948  03A1  1803               	skipnc
  3949  03A2  2BA4               	goto	u4321
  3950  03A3  2BA5               	goto	u4320
  3951  03A4                     u4321:
  3952  03A4  2BAA               	goto	l3508
  3953  03A5                     u4320:
  3954  03A5                     l3506:
  3955                           
  3956                           ;PROYECTO.c: 218:                     hora = 9;
  3957  03A5  3009               	movlw	9
  3958  03A6  00B8               	movwf	??_main
  3959  03A7  0838               	movf	??_main,w
  3960  03A8  00F5               	movwf	_hora
  3961                           
  3962                           ;PROYECTO.c: 219:                 }else if(escala >= 101&& escala <=110 ){
  3963  03A9  2B10               	goto	L1
  3964  03AA                     l3508:
  3965  03AA  3065               	movlw	101
  3966  03AB  0273               	subwf	_escala,w
  3967  03AC  1C03               	skipc
  3968  03AD  2BAF               	goto	u4331
  3969  03AE  2BB0               	goto	u4330
  3970  03AF                     u4331:
  3971  03AF  2BBB               	goto	l3514
  3972  03B0                     u4330:
  3973  03B0                     l3510:
  3974  03B0  306F               	movlw	111
  3975  03B1  0273               	subwf	_escala,w
  3976  03B2  1803               	skipnc
  3977  03B3  2BB5               	goto	u4341
  3978  03B4  2BB6               	goto	u4340
  3979  03B5                     u4341:
  3980  03B5  2BBB               	goto	l3514
  3981  03B6                     u4340:
  3982  03B6                     l3512:
  3983                           
  3984                           ;PROYECTO.c: 220:                     hora = 10;
  3985  03B6  300A               	movlw	10
  3986  03B7  00B8               	movwf	??_main
  3987  03B8  0838               	movf	??_main,w
  3988  03B9  00F5               	movwf	_hora
  3989                           
  3990                           ;PROYECTO.c: 221:                 }else if(escala >= 111 && escala <=120 ){
  3991  03BA  2B10               	goto	L1
  3992  03BB                     l3514:
  3993  03BB  306F               	movlw	111
  3994  03BC  0273               	subwf	_escala,w
  3995  03BD  1C03               	skipc
  3996  03BE  2BC0               	goto	u4351
  3997  03BF  2BC1               	goto	u4350
  3998  03C0                     u4351:
  3999  03C0  2BCC               	goto	l3520
  4000  03C1                     u4350:
  4001  03C1                     l3516:
  4002  03C1  3079               	movlw	121
  4003  03C2  0273               	subwf	_escala,w
  4004  03C3  1803               	skipnc
  4005  03C4  2BC6               	goto	u4361
  4006  03C5  2BC7               	goto	u4360
  4007  03C6                     u4361:
  4008  03C6  2BCC               	goto	l3520
  4009  03C7                     u4360:
  4010  03C7                     l3518:
  4011                           
  4012                           ;PROYECTO.c: 222:                     hora = 11;
  4013  03C7  300B               	movlw	11
  4014  03C8  00B8               	movwf	??_main
  4015  03C9  0838               	movf	??_main,w
  4016  03CA  00F5               	movwf	_hora
  4017                           
  4018                           ;PROYECTO.c: 223:                 }else if(escala >= 121 && escala <=130 ){
  4019  03CB  2B10               	goto	L1
  4020  03CC                     l3520:
  4021  03CC  3079               	movlw	121
  4022  03CD  0273               	subwf	_escala,w
  4023  03CE  1C03               	skipc
  4024  03CF  2BD1               	goto	u4371
  4025  03D0  2BD2               	goto	u4370
  4026  03D1                     u4371:
  4027  03D1  2BDD               	goto	l3526
  4028  03D2                     u4370:
  4029  03D2                     l3522:
  4030  03D2  3083               	movlw	131
  4031  03D3  0273               	subwf	_escala,w
  4032  03D4  1803               	skipnc
  4033  03D5  2BD7               	goto	u4381
  4034  03D6  2BD8               	goto	u4380
  4035  03D7                     u4381:
  4036  03D7  2BDD               	goto	l3526
  4037  03D8                     u4380:
  4038  03D8                     l3524:
  4039                           
  4040                           ;PROYECTO.c: 224:                     hora = 12;
  4041  03D8  300C               	movlw	12
  4042  03D9  00B8               	movwf	??_main
  4043  03DA  0838               	movf	??_main,w
  4044  03DB  00F5               	movwf	_hora
  4045                           
  4046                           ;PROYECTO.c: 225:                 }else if(escala >= 131 && escala <=140 ){
  4047  03DC  2B10               	goto	L1
  4048  03DD                     l3526:
  4049  03DD  3083               	movlw	131
  4050  03DE  0273               	subwf	_escala,w
  4051  03DF  1C03               	skipc
  4052  03E0  2BE2               	goto	u4391
  4053  03E1  2BE3               	goto	u4390
  4054  03E2                     u4391:
  4055  03E2  2BEE               	goto	l3532
  4056  03E3                     u4390:
  4057  03E3                     l3528:
  4058  03E3  308D               	movlw	141
  4059  03E4  0273               	subwf	_escala,w
  4060  03E5  1803               	skipnc
  4061  03E6  2BE8               	goto	u4401
  4062  03E7  2BE9               	goto	u4400
  4063  03E8                     u4401:
  4064  03E8  2BEE               	goto	l3532
  4065  03E9                     u4400:
  4066  03E9                     l3530:
  4067                           
  4068                           ;PROYECTO.c: 226:                     hora = 13;
  4069  03E9  300D               	movlw	13
  4070  03EA  00B8               	movwf	??_main
  4071  03EB  0838               	movf	??_main,w
  4072  03EC  00F5               	movwf	_hora
  4073                           
  4074                           ;PROYECTO.c: 227:                 }else if(escala >= 141 && escala <=150 ){
  4075  03ED  2B10               	goto	L1
  4076  03EE                     l3532:
  4077  03EE  308D               	movlw	141
  4078  03EF  0273               	subwf	_escala,w
  4079  03F0  1C03               	skipc
  4080  03F1  2BF3               	goto	u4411
  4081  03F2  2BF6               	goto	u4410
  4082  03F3                     u4411:
  4083  03F3  120A  158A  280D   	goto	l3538
  4084  03F6                     u4410:
  4085  03F6                     l3534:
  4086  03F6  3097               	movlw	151
  4087  03F7  0273               	subwf	_escala,w
  4088  03F8  1803               	skipnc
  4089  03F9  2BFB               	goto	u4421
  4090  03FA  2BFC               	goto	u4420
  4091  03FB                     u4421:
  4092  03FB  2BF3               	goto	u4411
  4093  03FC                     u4420:
  4094  03FC                     l3536:
  4095                           
  4096                           ;PROYECTO.c: 228:                     hora = 14;
  4097  03FC  300E               	movlw	14
  4098  03FD  00B8               	movwf	??_main
  4099  03FE  0838               	movf	??_main,w
  4100  03FF  00F5               	movwf	_hora
  4101                           
  4102                           ;PROYECTO.c: 229:                 }else if(escala >= 151 && escala <=160 ){
  4103  0400  2B10               	goto	L1
  4104                           
  4105                           	psect	maintext_split_2
  4106  080D                     l3538:
  4107  080D  3097               	movlw	151
  4108  080E  0273               	subwf	_escala,w
  4109  080F  1C03               	skipc
  4110  0810  2812               	goto	u4431
  4111  0811  2813               	goto	u4430
  4112  0812                     u4431:
  4113  0812  281E               	goto	l3544
  4114  0813                     u4430:
  4115  0813                     l3540:
  4116  0813  30A1               	movlw	161
  4117  0814  0273               	subwf	_escala,w
  4118  0815  1803               	skipnc
  4119  0816  2818               	goto	u4441
  4120  0817  2819               	goto	u4440
  4121  0818                     u4441:
  4122  0818  281E               	goto	l3544
  4123  0819                     u4440:
  4124  0819                     l3542:
  4125                           
  4126                           ;PROYECTO.c: 230:                     hora = 15;
  4127  0819  300F               	movlw	15
  4128  081A  00B8               	movwf	??_main
  4129  081B  0838               	movf	??_main,w
  4130  081C  00F5               	movwf	_hora
  4131                           
  4132                           ;PROYECTO.c: 231:                 }else if(escala >= 161 && escala <=170 ){
  4133  081D  28B1               	goto	l3596
  4134  081E                     l3544:
  4135  081E  30A1               	movlw	161
  4136  081F  0273               	subwf	_escala,w
  4137  0820  1C03               	skipc
  4138  0821  2823               	goto	u4451
  4139  0822  2824               	goto	u4450
  4140  0823                     u4451:
  4141  0823  282F               	goto	l3550
  4142  0824                     u4450:
  4143  0824                     l3546:
  4144  0824  30AB               	movlw	171
  4145  0825  0273               	subwf	_escala,w
  4146  0826  1803               	skipnc
  4147  0827  2829               	goto	u4461
  4148  0828  282A               	goto	u4460
  4149  0829                     u4461:
  4150  0829  282F               	goto	l3550
  4151  082A                     u4460:
  4152  082A                     l3548:
  4153                           
  4154                           ;PROYECTO.c: 232:                     hora = 16;
  4155  082A  3010               	movlw	16
  4156  082B  00B8               	movwf	??_main
  4157  082C  0838               	movf	??_main,w
  4158  082D  00F5               	movwf	_hora
  4159                           
  4160                           ;PROYECTO.c: 233:                 }else if(escala >= 171 && escala <=180 ){
  4161  082E  28B1               	goto	l3596
  4162  082F                     l3550:
  4163  082F  30AB               	movlw	171
  4164  0830  0273               	subwf	_escala,w
  4165  0831  1C03               	skipc
  4166  0832  2834               	goto	u4471
  4167  0833  2835               	goto	u4470
  4168  0834                     u4471:
  4169  0834  2840               	goto	l3556
  4170  0835                     u4470:
  4171  0835                     l3552:
  4172  0835  30B5               	movlw	181
  4173  0836  0273               	subwf	_escala,w
  4174  0837  1803               	skipnc
  4175  0838  283A               	goto	u4481
  4176  0839  283B               	goto	u4480
  4177  083A                     u4481:
  4178  083A  2840               	goto	l3556
  4179  083B                     u4480:
  4180  083B                     l3554:
  4181                           
  4182                           ;PROYECTO.c: 234:                     hora = 17;
  4183  083B  3011               	movlw	17
  4184  083C  00B8               	movwf	??_main
  4185  083D  0838               	movf	??_main,w
  4186  083E  00F5               	movwf	_hora
  4187                           
  4188                           ;PROYECTO.c: 235:                 }else if(escala >= 181 && escala <=190 ){
  4189  083F  28B1               	goto	l3596
  4190  0840                     l3556:
  4191  0840  30B5               	movlw	181
  4192  0841  0273               	subwf	_escala,w
  4193  0842  1C03               	skipc
  4194  0843  2845               	goto	u4491
  4195  0844  2846               	goto	u4490
  4196  0845                     u4491:
  4197  0845  2851               	goto	l3562
  4198  0846                     u4490:
  4199  0846                     l3558:
  4200  0846  30BF               	movlw	191
  4201  0847  0273               	subwf	_escala,w
  4202  0848  1803               	skipnc
  4203  0849  284B               	goto	u4501
  4204  084A  284C               	goto	u4500
  4205  084B                     u4501:
  4206  084B  2851               	goto	l3562
  4207  084C                     u4500:
  4208  084C                     l3560:
  4209                           
  4210                           ;PROYECTO.c: 236:                     hora = 18;
  4211  084C  3012               	movlw	18
  4212  084D  00B8               	movwf	??_main
  4213  084E  0838               	movf	??_main,w
  4214  084F  00F5               	movwf	_hora
  4215                           
  4216                           ;PROYECTO.c: 237:                 }else if(escala >= 191 && escala <=200 ){
  4217  0850  28B1               	goto	l3596
  4218  0851                     l3562:
  4219  0851  30BF               	movlw	191
  4220  0852  0273               	subwf	_escala,w
  4221  0853  1C03               	skipc
  4222  0854  2856               	goto	u4511
  4223  0855  2857               	goto	u4510
  4224  0856                     u4511:
  4225  0856  2862               	goto	l3568
  4226  0857                     u4510:
  4227  0857                     l3564:
  4228  0857  30C9               	movlw	201
  4229  0858  0273               	subwf	_escala,w
  4230  0859  1803               	skipnc
  4231  085A  285C               	goto	u4521
  4232  085B  285D               	goto	u4520
  4233  085C                     u4521:
  4234  085C  2862               	goto	l3568
  4235  085D                     u4520:
  4236  085D                     l3566:
  4237                           
  4238                           ;PROYECTO.c: 238:                     hora = 19;
  4239  085D  3013               	movlw	19
  4240  085E  00B8               	movwf	??_main
  4241  085F  0838               	movf	??_main,w
  4242  0860  00F5               	movwf	_hora
  4243                           
  4244                           ;PROYECTO.c: 239:                 }else if(escala >= 201&& escala <=210 ){
  4245  0861  28B1               	goto	l3596
  4246  0862                     l3568:
  4247  0862  30C9               	movlw	201
  4248  0863  0273               	subwf	_escala,w
  4249  0864  1C03               	skipc
  4250  0865  2867               	goto	u4531
  4251  0866  2868               	goto	u4530
  4252  0867                     u4531:
  4253  0867  2873               	goto	l3574
  4254  0868                     u4530:
  4255  0868                     l3570:
  4256  0868  30D3               	movlw	211
  4257  0869  0273               	subwf	_escala,w
  4258  086A  1803               	skipnc
  4259  086B  286D               	goto	u4541
  4260  086C  286E               	goto	u4540
  4261  086D                     u4541:
  4262  086D  2873               	goto	l3574
  4263  086E                     u4540:
  4264  086E                     l3572:
  4265                           
  4266                           ;PROYECTO.c: 240:                     hora = 20;
  4267  086E  3014               	movlw	20
  4268  086F  00B8               	movwf	??_main
  4269  0870  0838               	movf	??_main,w
  4270  0871  00F5               	movwf	_hora
  4271                           
  4272                           ;PROYECTO.c: 241:                 }else if(escala >= 211 && escala <=220 ){
  4273  0872  28B1               	goto	l3596
  4274  0873                     l3574:
  4275  0873  30D3               	movlw	211
  4276  0874  0273               	subwf	_escala,w
  4277  0875  1C03               	skipc
  4278  0876  2878               	goto	u4551
  4279  0877  2879               	goto	u4550
  4280  0878                     u4551:
  4281  0878  2884               	goto	l3580
  4282  0879                     u4550:
  4283  0879                     l3576:
  4284  0879  30DD               	movlw	221
  4285  087A  0273               	subwf	_escala,w
  4286  087B  1803               	skipnc
  4287  087C  287E               	goto	u4561
  4288  087D  287F               	goto	u4560
  4289  087E                     u4561:
  4290  087E  2884               	goto	l3580
  4291  087F                     u4560:
  4292  087F                     l3578:
  4293                           
  4294                           ;PROYECTO.c: 242:                     hora = 21;
  4295  087F  3015               	movlw	21
  4296  0880  00B8               	movwf	??_main
  4297  0881  0838               	movf	??_main,w
  4298  0882  00F5               	movwf	_hora
  4299                           
  4300                           ;PROYECTO.c: 243:                 }else if(escala >= 221 && escala <=230 ){
  4301  0883  28B1               	goto	l3596
  4302  0884                     l3580:
  4303  0884  30DD               	movlw	221
  4304  0885  0273               	subwf	_escala,w
  4305  0886  1C03               	skipc
  4306  0887  2889               	goto	u4571
  4307  0888  288A               	goto	u4570
  4308  0889                     u4571:
  4309  0889  2895               	goto	l3586
  4310  088A                     u4570:
  4311  088A                     l3582:
  4312  088A  30E7               	movlw	231
  4313  088B  0273               	subwf	_escala,w
  4314  088C  1803               	skipnc
  4315  088D  288F               	goto	u4581
  4316  088E  2890               	goto	u4580
  4317  088F                     u4581:
  4318  088F  2895               	goto	l3586
  4319  0890                     u4580:
  4320  0890                     l3584:
  4321                           
  4322                           ;PROYECTO.c: 244:                     hora = 22;
  4323  0890  3016               	movlw	22
  4324  0891  00B8               	movwf	??_main
  4325  0892  0838               	movf	??_main,w
  4326  0893  00F5               	movwf	_hora
  4327                           
  4328                           ;PROYECTO.c: 245:                 }else if(escala >= 231 && escala <=240 ){
  4329  0894  28B1               	goto	l3596
  4330  0895                     l3586:
  4331  0895  30E7               	movlw	231
  4332  0896  0273               	subwf	_escala,w
  4333  0897  1C03               	skipc
  4334  0898  289A               	goto	u4591
  4335  0899  289B               	goto	u4590
  4336  089A                     u4591:
  4337  089A  28A6               	goto	l3592
  4338  089B                     u4590:
  4339  089B                     l3588:
  4340  089B  30F1               	movlw	241
  4341  089C  0273               	subwf	_escala,w
  4342  089D  1803               	skipnc
  4343  089E  28A0               	goto	u4601
  4344  089F  28A1               	goto	u4600
  4345  08A0                     u4601:
  4346  08A0  28A6               	goto	l3592
  4347  08A1                     u4600:
  4348  08A1                     l3590:
  4349                           
  4350                           ;PROYECTO.c: 246:                     hora = 23;
  4351  08A1  3017               	movlw	23
  4352  08A2  00B8               	movwf	??_main
  4353  08A3  0838               	movf	??_main,w
  4354  08A4  00F5               	movwf	_hora
  4355                           
  4356                           ;PROYECTO.c: 247:                 }else if(escala >= 241 && escala <=255 ){
  4357  08A5  28B1               	goto	l3596
  4358  08A6                     l3592:
  4359  08A6  30F1               	movlw	241
  4360  08A7  0273               	subwf	_escala,w
  4361  08A8  1C03               	skipc
  4362  08A9  28AB               	goto	u4611
  4363  08AA  28AC               	goto	u4610
  4364  08AB                     u4611:
  4365  08AB  28B1               	goto	l222
  4366  08AC                     u4610:
  4367  08AC                     l3594:
  4368                           
  4369                           ;PROYECTO.c: 248:                     hora = 24;
  4370  08AC  3018               	movlw	24
  4371  08AD  00B8               	movwf	??_main
  4372  08AE  0838               	movf	??_main,w
  4373  08AF  00F5               	movwf	_hora
  4374  08B0  28B1               	goto	l3596
  4375  08B1                     l222:
  4376  08B1                     l3596:
  4377                           
  4378                           ;PROYECTO.c: 251:                 ADCON0bits.CHS = 6;
  4379  08B1  081F               	movf	31,w	;volatile
  4380  08B2  39C3               	andlw	-61
  4381  08B3  3818               	iorlw	24
  4382  08B4  009F               	movwf	31	;volatile
  4383  08B5                     l3598:
  4384                           
  4385                           ;PROYECTO.c: 253:             _delay((unsigned long)((50)*(4000000/4000000.0)));
  4386  08B5  300F               	movlw	15
  4387  08B6  1283               	bcf	3,5	;RP0=0, select bank0
  4388  08B7  1303               	bcf	3,6	;RP1=0, select bank0
  4389  08B8  00B8               	movwf	??_main
  4390  08B9                     u5507:
  4391  08B9  0BB8               	decfsz	??_main,f
  4392  08BA  28B9               	goto	u5507
  4393  08BB  28BC               	nop2
  4394  08BC                     l3600:
  4395                           
  4396                           ;PROYECTO.c: 255:             ADCON0bits.GO = 1;
  4397  08BC  1283               	bcf	3,5	;RP0=0, select bank0
  4398  08BD  1303               	bcf	3,6	;RP1=0, select bank0
  4399  08BE  149F               	bsf	31,1	;volatile
  4400  08BF                     l166:	
  4401                           ;PROYECTO.c: 256:         }
  4402                           
  4403                           
  4404                           ;PROYECTO.c: 258:        if(ventana == 1){
  4405  08BF  0336               	decf	_ventana,w
  4406  08C0  1D03               	btfss	3,2
  4407  08C1  28C3               	goto	u4621
  4408  08C2  28C4               	goto	u4620
  4409  08C3                     u4621:
  4410  08C3  2906               	goto	l3606
  4411  08C4                     u4620:
  4412  08C4                     l3602:
  4413                           
  4414                           ;PROYECTO.c: 260:            USART_Cadena("\r Que accion desea ejecutar? \r");
  4415  08C4  304F               	movlw	low (STR_1| (0+32768))
  4416  08C5  00F9               	movwf	USART_Cadena@str
  4417  08C6  3092               	movlw	high (STR_1| (0+32768))
  4418  08C7  00FA               	movwf	USART_Cadena@str+1
  4419  08C8  120A  118A  2560  120A  158A  	fcall	_USART_Cadena
  4420                           
  4421                           ;PROYECTO.c: 261:            USART_Cadena("1) ver datos de usuario uno \r");
  4422  08CD  308D               	movlw	low (STR_2| (0+32768))
  4423  08CE  00F9               	movwf	USART_Cadena@str
  4424  08CF  3092               	movlw	high (STR_2| (0+32768))
  4425  08D0  00FA               	movwf	USART_Cadena@str+1
  4426  08D1  120A  118A  2560  120A  158A  	fcall	_USART_Cadena
  4427                           
  4428                           ;PROYECTO.c: 262:            USART_Cadena("2) ver datos de usuario dos\r");
  4429  08D6  30AB               	movlw	low (STR_3| (0+32768))
  4430  08D7  00F9               	movwf	USART_Cadena@str
  4431  08D8  3092               	movlw	high (STR_3| (0+32768))
  4432  08D9  00FA               	movwf	USART_Cadena@str+1
  4433  08DA  120A  118A  2560  120A  158A  	fcall	_USART_Cadena
  4434                           
  4435                           ;PROYECTO.c: 263:            USART_Cadena("3) ver datos de usuario tres \r");
  4436  08DF  306E               	movlw	low (STR_4| (0+32768))
  4437  08E0  00F9               	movwf	USART_Cadena@str
  4438  08E1  3092               	movlw	high (STR_4| (0+32768))
  4439  08E2  00FA               	movwf	USART_Cadena@str+1
  4440  08E3  120A  118A  2560  120A  158A  	fcall	_USART_Cadena
  4441                           
  4442                           ;PROYECTO.c: 264:            USART_Cadena("4) Modificar horario usuario uno \r");
  4443  08E8  308B               	movlw	low (STR_5| (0+32768))
  4444  08E9  00F9               	movwf	USART_Cadena@str
  4445  08EA  3091               	movlw	high (STR_5| (0+32768))
  4446  08EB  00FA               	movwf	USART_Cadena@str+1
  4447  08EC  120A  118A  2560  120A  158A  	fcall	_USART_Cadena
  4448                           
  4449                           ;PROYECTO.c: 265:            USART_Cadena("5) Modificar horario usuario dos\r");
  4450  08F1  30AE               	movlw	low (STR_6| (0+32768))
  4451  08F2  00F9               	movwf	USART_Cadena@str
  4452  08F3  3091               	movlw	high (STR_6| (0+32768))
  4453  08F4  00FA               	movwf	USART_Cadena@str+1
  4454  08F5  120A  118A  2560  120A  158A  	fcall	_USART_Cadena
  4455                           
  4456                           ;PROYECTO.c: 266:            USART_Cadena("6) Modificar horario usuario tres \r\r");
  4457  08FA  3042               	movlw	low (STR_7| (0+32768))
  4458  08FB  00F9               	movwf	USART_Cadena@str
  4459  08FC  3091               	movlw	high (STR_7| (0+32768))
  4460  08FD  00FA               	movwf	USART_Cadena@str+1
  4461  08FE  120A  118A  2560  120A  158A  	fcall	_USART_Cadena
  4462  0903                     l3604:
  4463                           
  4464                           ;PROYECTO.c: 267:            ventana = 0;
  4465  0903  1283               	bcf	3,5	;RP0=0, select bank0
  4466  0904  1303               	bcf	3,6	;RP1=0, select bank0
  4467  0905  01B6               	clrf	_ventana
  4468  0906                     l3606:
  4469                           
  4470                           ;PROYECTO.c: 270:        if (PIR1bits.RCIF == 1){
  4471  0906  1E8C               	btfss	12,5	;volatile
  4472  0907  2909               	goto	u4631
  4473  0908  290A               	goto	u4630
  4474  0909                     u4631:
  4475  0909  2FB6               	goto	l4028
  4476  090A                     u4630:
  4477  090A                     l3608:
  4478                           
  4479                           ;PROYECTO.c: 271:            valor = USART_Rx();
  4480  090A  120A  118A  25B3  120A  158A  	fcall	_USART_Rx
  4481  090F  1283               	bcf	3,5	;RP0=0, select bank0
  4482  0910  1303               	bcf	3,6	;RP1=0, select bank0
  4483  0911  00B8               	movwf	??_main
  4484  0912  0838               	movf	??_main,w
  4485  0913  00B7               	movwf	_valor
  4486  0914                     l3610:
  4487                           
  4488                           ;PROYECTO.c: 272:            ventana = 1;
  4489  0914  01B6               	clrf	_ventana
  4490  0915  0AB6               	incf	_ventana,f
  4491  0916  2FB6               	goto	l4028
  4492  0917                     l3612:
  4493                           
  4494                           ;PROYECTO.c: 277:                 USART_Cadena(" Esperar  ");
  4495  0917  30E2               	movlw	low (STR_8| (0+32768))
  4496  0918  00F9               	movwf	USART_Cadena@str
  4497  0919  3092               	movlw	high (STR_8| (0+32768))
  4498  091A  00FA               	movwf	USART_Cadena@str+1
  4499  091B  120A  118A  2560  120A  158A  	fcall	_USART_Cadena
  4500  0920                     l3614:
  4501                           
  4502                           ;PROYECTO.c: 278:                 SendCharH(me_1_us1_h);
  4503  0920  1283               	bcf	3,5	;RP0=0, select bank0
  4504  0921  1303               	bcf	3,6	;RP1=0, select bank0
  4505  0922  0831               	movf	_me_1_us1_h,w
  4506  0923  120A  118A  2022  120A  158A  	fcall	_SendCharH
  4507  0928                     l3616:
  4508                           
  4509                           ;PROYECTO.c: 279:                 USART_Cadena(" Horas ");
  4510  0928  30ED               	movlw	low (STR_9| (0+32768))
  4511  0929  00F9               	movwf	USART_Cadena@str
  4512  092A  3092               	movlw	high (STR_9| (0+32768))
  4513  092B  00FA               	movwf	USART_Cadena@str+1
  4514  092C  120A  118A  2560  120A  158A  	fcall	_USART_Cadena
  4515  0931                     l3618:
  4516                           
  4517                           ;PROYECTO.c: 280:                 USART_Cadena(" con  ");
  4518  0931  30F5               	movlw	low (STR_10| (0+32768))
  4519  0932  00F9               	movwf	USART_Cadena@str
  4520  0933  3092               	movlw	high (STR_10| (0+32768))
  4521  0934  00FA               	movwf	USART_Cadena@str+1
  4522  0935  120A  118A  2560  120A  158A  	fcall	_USART_Cadena
  4523  093A                     l3620:
  4524                           
  4525                           ;PROYECTO.c: 281:                 SendCharM(me_1_us1_m);
  4526  093A  1283               	bcf	3,5	;RP0=0, select bank0
  4527  093B  1303               	bcf	3,6	;RP1=0, select bank0
  4528  093C  0828               	movf	_me_1_us1_m,w
  4529  093D  120A  118A  24D2  120A  158A  	fcall	_SendCharM
  4530  0942                     l3622:
  4531                           
  4532                           ;PROYECTO.c: 282:                 USART_Cadena(" mins. para el medicamento 1 \r\r");
  4533  0942  30D0               	movlw	low (STR_11| (0+32768))
  4534  0943  00F9               	movwf	USART_Cadena@str
  4535  0944  3091               	movlw	high (STR_11| (0+32768))
  4536  0945  00FA               	movwf	USART_Cadena@str+1
  4537  0946  120A  118A  2560  120A  158A  	fcall	_USART_Cadena
  4538  094B                     l3624:
  4539                           
  4540                           ;PROYECTO.c: 284:                 USART_Cadena(" Esperar  ");
  4541  094B  30E2               	movlw	low (STR_8| (0+32768))
  4542  094C  00F9               	movwf	USART_Cadena@str
  4543  094D  3092               	movlw	high (STR_8| (0+32768))
  4544  094E  00FA               	movwf	USART_Cadena@str+1
  4545  094F  120A  118A  2560  120A  158A  	fcall	_USART_Cadena
  4546                           
  4547                           ;PROYECTO.c: 285:                 SendCharH(me_2_us1_h);
  4548  0954  1283               	bcf	3,5	;RP0=0, select bank0
  4549  0955  1303               	bcf	3,6	;RP1=0, select bank0
  4550  0956  0830               	movf	_me_2_us1_h,w
  4551  0957  120A  118A  2022  120A  158A  	fcall	_SendCharH
  4552  095C                     l3626:
  4553                           
  4554                           ;PROYECTO.c: 286:                 USART_Cadena(" Horas ");
  4555  095C  30ED               	movlw	low (STR_9| (0+32768))
  4556  095D  00F9               	movwf	USART_Cadena@str
  4557  095E  3092               	movlw	high (STR_9| (0+32768))
  4558  095F  00FA               	movwf	USART_Cadena@str+1
  4559  0960  120A  118A  2560  120A  158A  	fcall	_USART_Cadena
  4560  0965                     l3628:
  4561                           
  4562                           ;PROYECTO.c: 287:                 USART_Cadena(" con  ");
  4563  0965  30F5               	movlw	low (STR_10| (0+32768))
  4564  0966  00F9               	movwf	USART_Cadena@str
  4565  0967  3092               	movlw	high (STR_10| (0+32768))
  4566  0968  00FA               	movwf	USART_Cadena@str+1
  4567  0969  120A  118A  2560  120A  158A  	fcall	_USART_Cadena
  4568  096E                     l3630:
  4569                           
  4570                           ;PROYECTO.c: 288:                 SendCharM(me_2_us1_m);
  4571  096E  1283               	bcf	3,5	;RP0=0, select bank0
  4572  096F  1303               	bcf	3,6	;RP1=0, select bank0
  4573  0970  0827               	movf	_me_2_us1_m,w
  4574  0971  120A  118A  24D2  120A  158A  	fcall	_SendCharM
  4575  0976                     l3632:
  4576                           
  4577                           ;PROYECTO.c: 289:                 USART_Cadena(" mins. para el medicamento 2 \r\r");
  4578  0976  30F0               	movlw	low (STR_15| (0+32768))
  4579  0977  00F9               	movwf	USART_Cadena@str
  4580  0978  3091               	movlw	high (STR_15| (0+32768))
  4581  0979  00FA               	movwf	USART_Cadena@str+1
  4582  097A  120A  118A  2560  120A  158A  	fcall	_USART_Cadena
  4583  097F                     l3634:
  4584                           
  4585                           ;PROYECTO.c: 291:                 USART_Cadena(" Esperar  ");
  4586  097F  30E2               	movlw	low (STR_8| (0+32768))
  4587  0980  00F9               	movwf	USART_Cadena@str
  4588  0981  3092               	movlw	high (STR_8| (0+32768))
  4589  0982  00FA               	movwf	USART_Cadena@str+1
  4590  0983  120A  118A  2560  120A  158A  	fcall	_USART_Cadena
  4591  0988                     l3636:
  4592                           
  4593                           ;PROYECTO.c: 292:                 SendCharH(me_3_us1_h);
  4594  0988  1283               	bcf	3,5	;RP0=0, select bank0
  4595  0989  1303               	bcf	3,6	;RP1=0, select bank0
  4596  098A  082F               	movf	_me_3_us1_h,w
  4597  098B  120A  118A  2022  120A  158A  	fcall	_SendCharH
  4598                           
  4599                           ;PROYECTO.c: 293:                 USART_Cadena(" Horas ");
  4600  0990  30ED               	movlw	low (STR_9| (0+32768))
  4601  0991  00F9               	movwf	USART_Cadena@str
  4602  0992  3092               	movlw	high (STR_9| (0+32768))
  4603  0993  00FA               	movwf	USART_Cadena@str+1
  4604  0994  120A  118A  2560  120A  158A  	fcall	_USART_Cadena
  4605                           
  4606                           ;PROYECTO.c: 294:                 USART_Cadena(" con  ");
  4607  0999  30F5               	movlw	low (STR_10| (0+32768))
  4608  099A  00F9               	movwf	USART_Cadena@str
  4609  099B  3092               	movlw	high (STR_10| (0+32768))
  4610  099C  00FA               	movwf	USART_Cadena@str+1
  4611  099D  120A  118A  2560  120A  158A  	fcall	_USART_Cadena
  4612                           
  4613                           ;PROYECTO.c: 295:                 SendCharM(me_3_us1_m);
  4614  09A2  1283               	bcf	3,5	;RP0=0, select bank0
  4615  09A3  1303               	bcf	3,6	;RP1=0, select bank0
  4616  09A4  0826               	movf	_me_3_us1_m,w
  4617  09A5  120A  118A  24D2  120A  158A  	fcall	_SendCharM
  4618                           
  4619                           ;PROYECTO.c: 296:                 USART_Cadena(" mins. para el medicamento 3 \r\r");
  4620  09AA  3010               	movlw	low (STR_19| (0+32768))
  4621  09AB  00F9               	movwf	USART_Cadena@str
  4622  09AC  3092               	movlw	high (STR_19| (0+32768))
  4623  09AD  00FA               	movwf	USART_Cadena@str+1
  4624  09AE  120A  118A  2560  120A  158A  	fcall	_USART_Cadena
  4625  09B3                     l3638:
  4626                           
  4627                           ;PROYECTO.c: 297:                 ventana = 1;
  4628  09B3  1283               	bcf	3,5	;RP0=0, select bank0
  4629  09B4  1303               	bcf	3,6	;RP1=0, select bank0
  4630  09B5  01B6               	clrf	_ventana
  4631  09B6  0AB6               	incf	_ventana,f
  4632                           
  4633                           ;PROYECTO.c: 298:                 break;
  4634  09B7  2FD2               	goto	l4030
  4635  09B8                     l3640:
  4636                           
  4637                           ;PROYECTO.c: 301:                 USART_Cadena(" Esperar  ");
  4638  09B8  30E2               	movlw	low (STR_8| (0+32768))
  4639  09B9  00F9               	movwf	USART_Cadena@str
  4640  09BA  3092               	movlw	high (STR_8| (0+32768))
  4641  09BB  00FA               	movwf	USART_Cadena@str+1
  4642  09BC  120A  118A  2560  120A  158A  	fcall	_USART_Cadena
  4643  09C1                     l3642:
  4644                           
  4645                           ;PROYECTO.c: 302:                 SendCharH(hora_user2);
  4646  09C1  1283               	bcf	3,5	;RP0=0, select bank0
  4647  09C2  1303               	bcf	3,6	;RP1=0, select bank0
  4648  09C3  0833               	movf	_hora_user2,w
  4649  09C4  120A  118A  2022  120A  158A  	fcall	_SendCharH
  4650  09C9                     l3644:
  4651                           
  4652                           ;PROYECTO.c: 303:                 USART_Cadena(" Horas ");
  4653  09C9  30ED               	movlw	low (STR_9| (0+32768))
  4654  09CA  00F9               	movwf	USART_Cadena@str
  4655  09CB  3092               	movlw	high (STR_9| (0+32768))
  4656  09CC  00FA               	movwf	USART_Cadena@str+1
  4657  09CD  120A  118A  2560  120A  158A  	fcall	_USART_Cadena
  4658  09D2                     l3646:
  4659                           
  4660                           ;PROYECTO.c: 304:                 USART_Cadena(" con  ");
  4661  09D2  30F5               	movlw	low (STR_10| (0+32768))
  4662  09D3  00F9               	movwf	USART_Cadena@str
  4663  09D4  3092               	movlw	high (STR_10| (0+32768))
  4664  09D5  00FA               	movwf	USART_Cadena@str+1
  4665  09D6  120A  118A  2560  120A  158A  	fcall	_USART_Cadena
  4666  09DB                     l3648:
  4667                           
  4668                           ;PROYECTO.c: 305:                 SendCharM(min_user2);
  4669  09DB  1283               	bcf	3,5	;RP0=0, select bank0
  4670  09DC  1303               	bcf	3,6	;RP1=0, select bank0
  4671  09DD  0835               	movf	_min_user2,w
  4672  09DE  120A  118A  24D2  120A  158A  	fcall	_SendCharM
  4673  09E3                     l3650:
  4674                           
  4675                           ;PROYECTO.c: 306:                 USART_Cadena(" mins. para el medicamento  \r\r");
  4676  09E3  3030               	movlw	low (STR_23| (0+32768))
  4677  09E4  00F9               	movwf	USART_Cadena@str
  4678  09E5  3092               	movlw	high (STR_23| (0+32768))
  4679  09E6  00FA               	movwf	USART_Cadena@str+1
  4680  09E7  120A  118A  2560  120A  158A  	fcall	_USART_Cadena
  4681  09EC  29B3               	goto	l3638
  4682  09ED                     l3654:
  4683                           
  4684                           ;PROYECTO.c: 311:                 USART_Cadena(" Esperar  ");
  4685  09ED  30E2               	movlw	low (STR_8| (0+32768))
  4686  09EE  00F9               	movwf	USART_Cadena@str
  4687  09EF  3092               	movlw	high (STR_8| (0+32768))
  4688  09F0  00FA               	movwf	USART_Cadena@str+1
  4689  09F1  120A  118A  2560  120A  158A  	fcall	_USART_Cadena
  4690  09F6                     l3656:
  4691                           
  4692                           ;PROYECTO.c: 312:                 SendCharH(hora_user3);
  4693  09F6  1283               	bcf	3,5	;RP0=0, select bank0
  4694  09F7  1303               	bcf	3,6	;RP1=0, select bank0
  4695  09F8  0832               	movf	_hora_user3,w
  4696  09F9  120A  118A  2022  120A  158A  	fcall	_SendCharH
  4697  09FE                     l3658:
  4698                           
  4699                           ;PROYECTO.c: 313:                 USART_Cadena(" Horas ");
  4700  09FE  30ED               	movlw	low (STR_9| (0+32768))
  4701  09FF  00F9               	movwf	USART_Cadena@str
  4702  0A00  3092               	movlw	high (STR_9| (0+32768))
  4703  0A01  00FA               	movwf	USART_Cadena@str+1
  4704  0A02  120A  118A  2560  120A  158A  	fcall	_USART_Cadena
  4705  0A07                     l3660:
  4706                           
  4707                           ;PROYECTO.c: 314:                 USART_Cadena(" con  ");
  4708  0A07  30F5               	movlw	low (STR_10| (0+32768))
  4709  0A08  00F9               	movwf	USART_Cadena@str
  4710  0A09  3092               	movlw	high (STR_10| (0+32768))
  4711  0A0A  00FA               	movwf	USART_Cadena@str+1
  4712  0A0B  120A  118A  2560  120A  158A  	fcall	_USART_Cadena
  4713  0A10                     l3662:
  4714                           
  4715                           ;PROYECTO.c: 315:                 SendCharM(min_user3);
  4716  0A10  1283               	bcf	3,5	;RP0=0, select bank0
  4717  0A11  1303               	bcf	3,6	;RP1=0, select bank0
  4718  0A12  0834               	movf	_min_user3,w
  4719  0A13  120A  118A  24D2  120A  158A  	fcall	_SendCharM
  4720  0A18                     l3664:
  4721                           
  4722                           ;PROYECTO.c: 316:                 USART_Cadena(" mins. para el medicamento  \r\r");
  4723  0A18  3030               	movlw	low (STR_23| (0+32768))
  4724  0A19  00F9               	movwf	USART_Cadena@str
  4725  0A1A  3092               	movlw	high (STR_23| (0+32768))
  4726  0A1B  00FA               	movwf	USART_Cadena@str+1
  4727  0A1C  120A  118A  2560  120A  158A  	fcall	_USART_Cadena
  4728  0A21  29B3               	goto	l3638
  4729  0A22                     l3668:
  4730                           
  4731                           ;PROYECTO.c: 321:                 USART_Cadena(" Ingresá la letra de la nueva hora  \r"
      +                          );
  4732  0A22  301B               	movlw	low (STR_28| (0+32768))
  4733  0A23  00F9               	movwf	USART_Cadena@str
  4734  0A24  3091               	movlw	high (STR_28| (0+32768))
  4735  0A25  00FA               	movwf	USART_Cadena@str+1
  4736  0A26  120A  118A  2560  120A  158A  	fcall	_USART_Cadena
  4737                           
  4738                           ;PROYECTO.c: 322:                 USART_Cadena(" a.0  b.1   c.2   d.3   e.4   f.5   g.6 
      +                            h.7  i.8\r");
  4739  0A2B  3000               	movlw	low (STR_29| (0+32768))
  4740  0A2C  00F9               	movwf	USART_Cadena@str
  4741  0A2D  3090               	movlw	high (STR_29| (0+32768))
  4742  0A2E  00FA               	movwf	USART_Cadena@str+1
  4743  0A2F  120A  118A  2560  120A  158A  	fcall	_USART_Cadena
  4744                           
  4745                           ;PROYECTO.c: 323:                 USART_Cadena(" j.9  k.10  l.11  m.12  n.13  o.14  p.15
      +                            q.16\r");
  4746  0A34  3094               	movlw	low (STR_30| (0+32768))
  4747  0A35  00F9               	movwf	USART_Cadena@str
  4748  0A36  3090               	movlw	high (STR_30| (0+32768))
  4749  0A37  00FA               	movwf	USART_Cadena@str+1
  4750  0A38  120A  118A  2560  120A  158A  	fcall	_USART_Cadena
  4751                           
  4752                           ;PROYECTO.c: 324:                 USART_Cadena("r.17  s.18  t.19  u.20  v.21  w.22  x.23
      +                            y.24\r");
  4753  0A3D  3064               	movlw	low (STR_31| (0+32768))
  4754  0A3E  00F9               	movwf	USART_Cadena@str
  4755  0A3F  3090               	movlw	high (STR_31| (0+32768))
  4756  0A40  00FA               	movwf	USART_Cadena@str+1
  4757  0A41  120A  118A  2560  120A  158A  	fcall	_USART_Cadena
  4758  0A46                     l3670:
  4759                           
  4760                           ;PROYECTO.c: 326:                     if (PIR1bits.RCIF == 1){
  4761  0A46  1283               	bcf	3,5	;RP0=0, select bank0
  4762  0A47  1303               	bcf	3,6	;RP1=0, select bank0
  4763  0A48  1E8C               	btfss	12,5	;volatile
  4764  0A49  2A4B               	goto	u4641
  4765  0A4A  2A4C               	goto	u4640
  4766  0A4B                     u4641:
  4767  0A4B  2A46               	goto	l3670
  4768  0A4C                     u4640:
  4769  0A4C                     l3672:
  4770                           
  4771                           ;PROYECTO.c: 327:                         USART_Cadena(" \r");
  4772  0A4C  3088               	movlw	low ((STR_35+33)| (0+32768))
  4773  0A4D  00F9               	movwf	USART_Cadena@str
  4774  0A4E  3091               	movlw	high ((STR_35+33)| (0+32768))
  4775  0A4F  00FA               	movwf	USART_Cadena@str+1
  4776  0A50  120A  118A  2560  120A  158A  	fcall	_USART_Cadena
  4777  0A55                     l3674:
  4778                           
  4779                           ;PROYECTO.c: 328:                         hora_nueva = USART_Rx();
  4780  0A55  120A  118A  25B3  120A  158A  	fcall	_USART_Rx
  4781  0A5A  1283               	bcf	3,5	;RP0=0, select bank0
  4782  0A5B  1303               	bcf	3,6	;RP1=0, select bank0
  4783  0A5C  00B8               	movwf	??_main
  4784  0A5D  0838               	movf	??_main,w
  4785  0A5E  00F0               	movwf	_hora_nueva
  4786  0A5F                     l3676:
  4787                           
  4788                           ;PROYECTO.c: 329:                         USART_Cadena(" \r");
  4789  0A5F  3088               	movlw	low ((STR_35+33)| (0+32768))
  4790  0A60  00F9               	movwf	USART_Cadena@str
  4791  0A61  3091               	movlw	high ((STR_35+33)| (0+32768))
  4792  0A62  00FA               	movwf	USART_Cadena@str+1
  4793  0A63  120A  118A  2560  120A  158A  	fcall	_USART_Cadena
  4794  0A68                     l3678:
  4795                           
  4796                           ;PROYECTO.c: 330:                         hora_user1 = CharToNumH(hora_nueva, hora_user1
      +                          );
  4797  0A68  0871               	movf	_hora_user1,w
  4798  0A69  1283               	bcf	3,5	;RP0=0, select bank0
  4799  0A6A  1303               	bcf	3,6	;RP1=0, select bank0
  4800  0A6B  00B8               	movwf	??_main
  4801  0A6C  0838               	movf	??_main,w
  4802  0A6D  00F8               	movwf	CharToNumH@hora_user
  4803  0A6E  0870               	movf	_hora_nueva,w
  4804  0A6F  120A  118A  2401  120A  158A  	fcall	_CharToNumH
  4805  0A74  1283               	bcf	3,5	;RP0=0, select bank0
  4806  0A75  1303               	bcf	3,6	;RP1=0, select bank0
  4807  0A76  00B9               	movwf	??_main+1
  4808  0A77  0839               	movf	??_main+1,w
  4809  0A78  00F1               	movwf	_hora_user1
  4810  0A79                     l3680:	
  4811                           ;PROYECTO.c: 331:                         break;
  4812                           
  4813                           
  4814                           ;PROYECTO.c: 334:                 USART_Cadena(" Ingresá la letra de los minutos nuevos
      +                            \r");
  4815  0A79  30C4               	movlw	low (STR_34| (0+32768))
  4816  0A7A  00F9               	movwf	USART_Cadena@str
  4817  0A7B  3090               	movlw	high (STR_34| (0+32768))
  4818  0A7C  00FA               	movwf	USART_Cadena@str+1
  4819  0A7D  120A  118A  2560  120A  158A  	fcall	_USART_Cadena
  4820                           
  4821                           ;PROYECTO.c: 335:                 USART_Cadena(" a.0  b.15   c.30   d.45   e.55   \r");
  4822  0A82  3067               	movlw	low (STR_35| (0+32768))
  4823  0A83  00F9               	movwf	USART_Cadena@str
  4824  0A84  3091               	movlw	high (STR_35| (0+32768))
  4825  0A85  00FA               	movwf	USART_Cadena@str+1
  4826  0A86  120A  118A  2560  120A  158A  	fcall	_USART_Cadena
  4827  0A8B                     l3682:
  4828                           
  4829                           ;PROYECTO.c: 337:                     if (PIR1bits.RCIF == 1){
  4830  0A8B  1283               	bcf	3,5	;RP0=0, select bank0
  4831  0A8C  1303               	bcf	3,6	;RP1=0, select bank0
  4832  0A8D  1E8C               	btfss	12,5	;volatile
  4833  0A8E  2A90               	goto	u4651
  4834  0A8F  2A91               	goto	u4650
  4835  0A90                     u4651:
  4836  0A90  2A8B               	goto	l3682
  4837  0A91                     u4650:
  4838  0A91                     l3684:
  4839                           
  4840                           ;PROYECTO.c: 338:                         USART_Cadena(" \r");
  4841  0A91  3088               	movlw	low ((STR_35+33)| (0+32768))
  4842  0A92  00F9               	movwf	USART_Cadena@str
  4843  0A93  3091               	movlw	high ((STR_35+33)| (0+32768))
  4844  0A94  00FA               	movwf	USART_Cadena@str+1
  4845  0A95  120A  118A  2560  120A  158A  	fcall	_USART_Cadena
  4846  0A9A                     l3686:
  4847                           
  4848                           ;PROYECTO.c: 339:                         hora_nueva = USART_Rx();
  4849  0A9A  120A  118A  25B3  120A  158A  	fcall	_USART_Rx
  4850  0A9F  1283               	bcf	3,5	;RP0=0, select bank0
  4851  0AA0  1303               	bcf	3,6	;RP1=0, select bank0
  4852  0AA1  00B8               	movwf	??_main
  4853  0AA2  0838               	movf	??_main,w
  4854  0AA3  00F0               	movwf	_hora_nueva
  4855  0AA4                     l3688:
  4856                           
  4857                           ;PROYECTO.c: 340:                         USART_Cadena(" \r");
  4858  0AA4  3088               	movlw	low ((STR_35+33)| (0+32768))
  4859  0AA5  00F9               	movwf	USART_Cadena@str
  4860  0AA6  3091               	movlw	high ((STR_35+33)| (0+32768))
  4861  0AA7  00FA               	movwf	USART_Cadena@str+1
  4862  0AA8  120A  118A  2560  120A  158A  	fcall	_USART_Cadena
  4863  0AAD                     l3690:
  4864                           
  4865                           ;PROYECTO.c: 341:                         min_user1 = CharToNumM(hora_nueva, min_user1);
  4866  0AAD  0872               	movf	_min_user1,w
  4867  0AAE  1283               	bcf	3,5	;RP0=0, select bank0
  4868  0AAF  1303               	bcf	3,6	;RP1=0, select bank0
  4869  0AB0  00B8               	movwf	??_main
  4870  0AB1  0838               	movf	??_main,w
  4871  0AB2  00F8               	movwf	CharToNumM@her
  4872  0AB3  0870               	movf	_hora_nueva,w
  4873  0AB4  120A  118A  2529  120A  158A  	fcall	_CharToNumM
  4874  0AB9  1283               	bcf	3,5	;RP0=0, select bank0
  4875  0ABA  1303               	bcf	3,6	;RP1=0, select bank0
  4876  0ABB  00B9               	movwf	??_main+1
  4877  0ABC  0839               	movf	??_main+1,w
  4878  0ABD  00F2               	movwf	_min_user1
  4879  0ABE                     l3692:	
  4880                           ;PROYECTO.c: 342:                         break;
  4881                           
  4882                           
  4883                           ;PROYECTO.c: 345:                 USART_Cadena(" Actualmente se cuenta con 3 medicamento
      +                          s\r");
  4884  0ABE  30F0               	movlw	low (STR_38| (0+32768))
  4885  0ABF  00F9               	movwf	USART_Cadena@str
  4886  0AC0  3090               	movlw	high (STR_38| (0+32768))
  4887  0AC1  00FA               	movwf	USART_Cadena@str+1
  4888  0AC2  120A  118A  2560  120A  158A  	fcall	_USART_Cadena
  4889                           
  4890                           ;PROYECTO.c: 346:                 USART_Cadena(" presione el número de medicamento a gu
      +                          ardar \r");
  4891  0AC7  3034               	movlw	low (STR_39| (0+32768))
  4892  0AC8  00F9               	movwf	USART_Cadena@str
  4893  0AC9  3090               	movlw	high (STR_39| (0+32768))
  4894  0ACA  00FA               	movwf	USART_Cadena@str+1
  4895  0ACB  120A  118A  2560  120A  158A  	fcall	_USART_Cadena
  4896                           
  4897                           ;PROYECTO.c: 347:                 USART_Cadena(" 1.AFC    2.FFT   3.DHL \r");
  4898  0AD0  30C8               	movlw	low (STR_40| (0+32768))
  4899  0AD1  00F9               	movwf	USART_Cadena@str
  4900  0AD2  3092               	movlw	high (STR_40| (0+32768))
  4901  0AD3  00FA               	movwf	USART_Cadena@str+1
  4902  0AD4  120A  118A  2560  120A  158A  	fcall	_USART_Cadena
  4903  0AD9                     l3694:
  4904                           
  4905                           ;PROYECTO.c: 349:                     if (PIR1bits.RCIF == 1){
  4906  0AD9  1283               	bcf	3,5	;RP0=0, select bank0
  4907  0ADA  1303               	bcf	3,6	;RP1=0, select bank0
  4908  0ADB  1E8C               	btfss	12,5	;volatile
  4909  0ADC  2ADE               	goto	u4661
  4910  0ADD  2ADF               	goto	u4660
  4911  0ADE                     u4661:
  4912  0ADE  2AD9               	goto	l3694
  4913  0ADF                     u4660:
  4914  0ADF                     l3696:
  4915                           
  4916                           ;PROYECTO.c: 350:                         hora_nueva = USART_Rx();
  4917  0ADF  120A  118A  25B3  120A  158A  	fcall	_USART_Rx
  4918  0AE4  1283               	bcf	3,5	;RP0=0, select bank0
  4919  0AE5  1303               	bcf	3,6	;RP1=0, select bank0
  4920  0AE6  00B8               	movwf	??_main
  4921  0AE7  0838               	movf	??_main,w
  4922  0AE8  00F0               	movwf	_hora_nueva
  4923  0AE9                     l3698:
  4924                           
  4925                           ;PROYECTO.c: 351:                         if(hora_nueva == '1'){
  4926  0AE9  3031               	movlw	49
  4927  0AEA  0670               	xorwf	_hora_nueva,w
  4928  0AEB  1D03               	btfss	3,2
  4929  0AEC  2AEE               	goto	u4671
  4930  0AED  2AEF               	goto	u4670
  4931  0AEE                     u4671:
  4932  0AEE  2AF8               	goto	l3702
  4933  0AEF                     u4670:
  4934  0AEF                     l3700:
  4935                           
  4936                           ;PROYECTO.c: 352:                             me_1_us1_h = hora_user1;
  4937  0AEF  0871               	movf	_hora_user1,w
  4938  0AF0  00B8               	movwf	??_main
  4939  0AF1  0838               	movf	??_main,w
  4940  0AF2  00B1               	movwf	_me_1_us1_h
  4941                           
  4942                           ;PROYECTO.c: 353:                             me_1_us1_m = min_user1;
  4943  0AF3  0872               	movf	_min_user1,w
  4944  0AF4  00B8               	movwf	??_main
  4945  0AF5  0838               	movf	??_main,w
  4946  0AF6  00A8               	movwf	_me_1_us1_m
  4947                           
  4948                           ;PROYECTO.c: 354:                         }else if(hora_nueva == '2'){
  4949  0AF7  29B3               	goto	l3638
  4950  0AF8                     l3702:
  4951  0AF8  3032               	movlw	50
  4952  0AF9  0670               	xorwf	_hora_nueva,w
  4953  0AFA  1D03               	btfss	3,2
  4954  0AFB  2AFD               	goto	u4681
  4955  0AFC  2AFE               	goto	u4680
  4956  0AFD                     u4681:
  4957  0AFD  2B07               	goto	l3706
  4958  0AFE                     u4680:
  4959  0AFE                     l3704:
  4960                           
  4961                           ;PROYECTO.c: 355:                             me_2_us1_h = hora_user1;
  4962  0AFE  0871               	movf	_hora_user1,w
  4963  0AFF  00B8               	movwf	??_main
  4964  0B00  0838               	movf	??_main,w
  4965  0B01  00B0               	movwf	_me_2_us1_h
  4966                           
  4967                           ;PROYECTO.c: 356:                             me_2_us1_m = min_user1;
  4968  0B02  0872               	movf	_min_user1,w
  4969  0B03  00B8               	movwf	??_main
  4970  0B04  0838               	movf	??_main,w
  4971  0B05  00A7               	movwf	_me_2_us1_m
  4972                           
  4973                           ;PROYECTO.c: 357:                         }else if(hora_nueva == '3'){
  4974  0B06  29B3               	goto	l3638
  4975  0B07                     l3706:
  4976  0B07  3033               	movlw	51
  4977  0B08  0670               	xorwf	_hora_nueva,w
  4978  0B09  1D03               	btfss	3,2
  4979  0B0A  2B0C               	goto	u4691
  4980  0B0B  2B0D               	goto	u4690
  4981  0B0C                     u4691:
  4982  0B0C  29B3               	goto	l3638
  4983  0B0D                     u4690:
  4984  0B0D                     l3708:
  4985                           
  4986                           ;PROYECTO.c: 358:                             me_3_us1_h = hora_user1;
  4987  0B0D  0871               	movf	_hora_user1,w
  4988  0B0E  00B8               	movwf	??_main
  4989  0B0F  0838               	movf	??_main,w
  4990  0B10  00AF               	movwf	_me_3_us1_h
  4991                           
  4992                           ;PROYECTO.c: 359:                             me_3_us1_m = min_user1;
  4993  0B11  0872               	movf	_min_user1,w
  4994  0B12  00B8               	movwf	??_main
  4995  0B13  0838               	movf	??_main,w
  4996  0B14  00A6               	movwf	_me_3_us1_m
  4997  0B15  29B3               	goto	l3638
  4998  0B16                     l3710:
  4999                           
  5000                           ;PROYECTO.c: 371:                 USART_Cadena(" Ingresá la letra de la nueva hora  \r"
      +                          );
  5001  0B16  301B               	movlw	low (STR_28| (0+32768))
  5002  0B17  00F9               	movwf	USART_Cadena@str
  5003  0B18  3091               	movlw	high (STR_28| (0+32768))
  5004  0B19  00FA               	movwf	USART_Cadena@str+1
  5005  0B1A  120A  118A  2560  120A  158A  	fcall	_USART_Cadena
  5006                           
  5007                           ;PROYECTO.c: 372:                 USART_Cadena(" a.0  b.1   c.2   d.3   e.4   f.5   g.6 
      +                            h.7  i.8\r");
  5008  0B1F  3000               	movlw	low (STR_29| (0+32768))
  5009  0B20  00F9               	movwf	USART_Cadena@str
  5010  0B21  3090               	movlw	high (STR_29| (0+32768))
  5011  0B22  00FA               	movwf	USART_Cadena@str+1
  5012  0B23  120A  118A  2560  120A  158A  	fcall	_USART_Cadena
  5013                           
  5014                           ;PROYECTO.c: 373:                 USART_Cadena(" j.9  k.10  l.11  m.12  n.13  o.14  p.15
      +                            q.16\r");
  5015  0B28  3094               	movlw	low (STR_30| (0+32768))
  5016  0B29  00F9               	movwf	USART_Cadena@str
  5017  0B2A  3090               	movlw	high (STR_30| (0+32768))
  5018  0B2B  00FA               	movwf	USART_Cadena@str+1
  5019  0B2C  120A  118A  2560  120A  158A  	fcall	_USART_Cadena
  5020                           
  5021                           ;PROYECTO.c: 374:                 USART_Cadena("r.17  s.18  t.19  u.20  v.21  w.22  x.23
      +                            y.24\r");
  5022  0B31  3064               	movlw	low (STR_31| (0+32768))
  5023  0B32  00F9               	movwf	USART_Cadena@str
  5024  0B33  3090               	movlw	high (STR_31| (0+32768))
  5025  0B34  00FA               	movwf	USART_Cadena@str+1
  5026  0B35  120A  118A  2560  120A  158A  	fcall	_USART_Cadena
  5027  0B3A                     l3712:
  5028                           
  5029                           ;PROYECTO.c: 376:                     if (PIR1bits.RCIF == 1){
  5030  0B3A  1283               	bcf	3,5	;RP0=0, select bank0
  5031  0B3B  1303               	bcf	3,6	;RP1=0, select bank0
  5032  0B3C  1E8C               	btfss	12,5	;volatile
  5033  0B3D  2B3F               	goto	u4701
  5034  0B3E  2B40               	goto	u4700
  5035  0B3F                     u4701:
  5036  0B3F  2B3A               	goto	l3712
  5037  0B40                     u4700:
  5038  0B40                     l3714:
  5039                           
  5040                           ;PROYECTO.c: 377:                         USART_Cadena(" \r");
  5041  0B40  3088               	movlw	low ((STR_35+33)| (0+32768))
  5042  0B41  00F9               	movwf	USART_Cadena@str
  5043  0B42  3091               	movlw	high ((STR_35+33)| (0+32768))
  5044  0B43  00FA               	movwf	USART_Cadena@str+1
  5045  0B44  120A  118A  2560  120A  158A  	fcall	_USART_Cadena
  5046  0B49                     l3716:
  5047                           
  5048                           ;PROYECTO.c: 378:                         hora_nueva = USART_Rx();
  5049  0B49  120A  118A  25B3  120A  158A  	fcall	_USART_Rx
  5050  0B4E  1283               	bcf	3,5	;RP0=0, select bank0
  5051  0B4F  1303               	bcf	3,6	;RP1=0, select bank0
  5052  0B50  00B8               	movwf	??_main
  5053  0B51  0838               	movf	??_main,w
  5054  0B52  00F0               	movwf	_hora_nueva
  5055  0B53                     l3718:
  5056                           
  5057                           ;PROYECTO.c: 379:                         USART_Cadena(" \r");
  5058  0B53  3088               	movlw	low ((STR_35+33)| (0+32768))
  5059  0B54  00F9               	movwf	USART_Cadena@str
  5060  0B55  3091               	movlw	high ((STR_35+33)| (0+32768))
  5061  0B56  00FA               	movwf	USART_Cadena@str+1
  5062  0B57  120A  118A  2560  120A  158A  	fcall	_USART_Cadena
  5063  0B5C                     l3720:
  5064                           
  5065                           ;PROYECTO.c: 380:                         if(hora_nueva == 'a'){
  5066  0B5C  3061               	movlw	97
  5067  0B5D  0670               	xorwf	_hora_nueva,w
  5068  0B5E  1D03               	btfss	3,2
  5069  0B5F  2B61               	goto	u4711
  5070  0B60  2B62               	goto	u4710
  5071  0B61                     u4711:
  5072  0B61  2B66               	goto	l3724
  5073  0B62                     u4710:
  5074  0B62                     l3722:
  5075                           
  5076                           ;PROYECTO.c: 381:                             hora_user2 = 0;
  5077  0B62  1283               	bcf	3,5	;RP0=0, select bank0
  5078  0B63  1303               	bcf	3,6	;RP1=0, select bank0
  5079  0B64  01B3               	clrf	_hora_user2
  5080                           
  5081                           ;PROYECTO.c: 382:                         }else if(hora_nueva == 'b'){
  5082  0B65  2C9C               	goto	l3820
  5083  0B66                     l3724:
  5084  0B66  3062               	movlw	98
  5085  0B67  0670               	xorwf	_hora_nueva,w
  5086  0B68  1D03               	btfss	3,2
  5087  0B69  2B6B               	goto	u4721
  5088  0B6A  2B6C               	goto	u4720
  5089  0B6B                     u4721:
  5090  0B6B  2B71               	goto	l3728
  5091  0B6C                     u4720:
  5092  0B6C                     l3726:
  5093                           
  5094                           ;PROYECTO.c: 383:                             hora_user2 = 1;
  5095  0B6C  1283               	bcf	3,5	;RP0=0, select bank0
  5096  0B6D  1303               	bcf	3,6	;RP1=0, select bank0
  5097  0B6E  01B3               	clrf	_hora_user2
  5098  0B6F  0AB3               	incf	_hora_user2,f
  5099                           
  5100                           ;PROYECTO.c: 384:                         }else if(hora_nueva == 'c'){
  5101  0B70  2C9C               	goto	l3820
  5102  0B71                     l3728:
  5103  0B71  3063               	movlw	99
  5104  0B72  0670               	xorwf	_hora_nueva,w
  5105  0B73  1D03               	btfss	3,2
  5106  0B74  2B76               	goto	u4731
  5107  0B75  2B77               	goto	u4730
  5108  0B76                     u4731:
  5109  0B76  2B7E               	goto	l3732
  5110  0B77                     u4730:
  5111  0B77                     l3730:
  5112                           
  5113                           ;PROYECTO.c: 385:                             hora_user2 = 2;
  5114  0B77  3002               	movlw	2
  5115  0B78  1283               	bcf	3,5	;RP0=0, select bank0
  5116  0B79  1303               	bcf	3,6	;RP1=0, select bank0
  5117  0B7A  00B8               	movwf	??_main
  5118  0B7B  0838               	movf	??_main,w
  5119  0B7C  00B3               	movwf	_hora_user2
  5120                           
  5121                           ;PROYECTO.c: 386:                         }else if(hora_nueva == 'd'){
  5122  0B7D  2C9C               	goto	l3820
  5123  0B7E                     l3732:
  5124  0B7E  3064               	movlw	100
  5125  0B7F  0670               	xorwf	_hora_nueva,w
  5126  0B80  1D03               	btfss	3,2
  5127  0B81  2B83               	goto	u4741
  5128  0B82  2B84               	goto	u4740
  5129  0B83                     u4741:
  5130  0B83  2B8B               	goto	l3736
  5131  0B84                     u4740:
  5132  0B84                     l3734:
  5133                           
  5134                           ;PROYECTO.c: 387:                             hora_user2 = 3;
  5135  0B84  3003               	movlw	3
  5136  0B85  1283               	bcf	3,5	;RP0=0, select bank0
  5137  0B86  1303               	bcf	3,6	;RP1=0, select bank0
  5138  0B87  00B8               	movwf	??_main
  5139  0B88  0838               	movf	??_main,w
  5140  0B89  00B3               	movwf	_hora_user2
  5141                           
  5142                           ;PROYECTO.c: 388:                         }else if(hora_nueva == 'e'){
  5143  0B8A  2C9C               	goto	l3820
  5144  0B8B                     l3736:
  5145  0B8B  3065               	movlw	101
  5146  0B8C  0670               	xorwf	_hora_nueva,w
  5147  0B8D  1D03               	btfss	3,2
  5148  0B8E  2B90               	goto	u4751
  5149  0B8F  2B91               	goto	u4750
  5150  0B90                     u4751:
  5151  0B90  2B98               	goto	l3740
  5152  0B91                     u4750:
  5153  0B91                     l3738:
  5154                           
  5155                           ;PROYECTO.c: 389:                             hora_user2 = 4;
  5156  0B91  3004               	movlw	4
  5157  0B92  1283               	bcf	3,5	;RP0=0, select bank0
  5158  0B93  1303               	bcf	3,6	;RP1=0, select bank0
  5159  0B94  00B8               	movwf	??_main
  5160  0B95  0838               	movf	??_main,w
  5161  0B96  00B3               	movwf	_hora_user2
  5162                           
  5163                           ;PROYECTO.c: 390:                         }else if(hora_nueva == 'f'){
  5164  0B97  2C9C               	goto	l3820
  5165  0B98                     l3740:
  5166  0B98  3066               	movlw	102
  5167  0B99  0670               	xorwf	_hora_nueva,w
  5168  0B9A  1D03               	btfss	3,2
  5169  0B9B  2B9D               	goto	u4761
  5170  0B9C  2B9E               	goto	u4760
  5171  0B9D                     u4761:
  5172  0B9D  2BA5               	goto	l3744
  5173  0B9E                     u4760:
  5174  0B9E                     l3742:
  5175                           
  5176                           ;PROYECTO.c: 391:                             hora_user2 = 5;
  5177  0B9E  3005               	movlw	5
  5178  0B9F  1283               	bcf	3,5	;RP0=0, select bank0
  5179  0BA0  1303               	bcf	3,6	;RP1=0, select bank0
  5180  0BA1  00B8               	movwf	??_main
  5181  0BA2  0838               	movf	??_main,w
  5182  0BA3  00B3               	movwf	_hora_user2
  5183                           
  5184                           ;PROYECTO.c: 392:                         }else if(hora_nueva == 'g'){
  5185  0BA4  2C9C               	goto	l3820
  5186  0BA5                     l3744:
  5187  0BA5  3067               	movlw	103
  5188  0BA6  0670               	xorwf	_hora_nueva,w
  5189  0BA7  1D03               	btfss	3,2
  5190  0BA8  2BAA               	goto	u4771
  5191  0BA9  2BAB               	goto	u4770
  5192  0BAA                     u4771:
  5193  0BAA  2BB2               	goto	l3748
  5194  0BAB                     u4770:
  5195  0BAB                     l3746:
  5196                           
  5197                           ;PROYECTO.c: 393:                             hora_user2 = 6;
  5198  0BAB  3006               	movlw	6
  5199  0BAC  1283               	bcf	3,5	;RP0=0, select bank0
  5200  0BAD  1303               	bcf	3,6	;RP1=0, select bank0
  5201  0BAE  00B8               	movwf	??_main
  5202  0BAF  0838               	movf	??_main,w
  5203  0BB0  00B3               	movwf	_hora_user2
  5204                           
  5205                           ;PROYECTO.c: 394:                         }else if(hora_nueva == 'h'){
  5206  0BB1  2C9C               	goto	l3820
  5207  0BB2                     l3748:
  5208  0BB2  3068               	movlw	104
  5209  0BB3  0670               	xorwf	_hora_nueva,w
  5210  0BB4  1D03               	btfss	3,2
  5211  0BB5  2BB7               	goto	u4781
  5212  0BB6  2BB8               	goto	u4780
  5213  0BB7                     u4781:
  5214  0BB7  2BBF               	goto	l3752
  5215  0BB8                     u4780:
  5216  0BB8                     l3750:
  5217                           
  5218                           ;PROYECTO.c: 395:                             hora_user2 = 7;
  5219  0BB8  3007               	movlw	7
  5220  0BB9  1283               	bcf	3,5	;RP0=0, select bank0
  5221  0BBA  1303               	bcf	3,6	;RP1=0, select bank0
  5222  0BBB  00B8               	movwf	??_main
  5223  0BBC  0838               	movf	??_main,w
  5224  0BBD  00B3               	movwf	_hora_user2
  5225                           
  5226                           ;PROYECTO.c: 396:                         }else if(hora_nueva == 'i'){
  5227  0BBE  2C9C               	goto	l3820
  5228  0BBF                     l3752:
  5229  0BBF  3069               	movlw	105
  5230  0BC0  0670               	xorwf	_hora_nueva,w
  5231  0BC1  1D03               	btfss	3,2
  5232  0BC2  2BC4               	goto	u4791
  5233  0BC3  2BC5               	goto	u4790
  5234  0BC4                     u4791:
  5235  0BC4  2BCC               	goto	l3756
  5236  0BC5                     u4790:
  5237  0BC5                     l3754:
  5238                           
  5239                           ;PROYECTO.c: 397:                             hora_user2 = 8;
  5240  0BC5  3008               	movlw	8
  5241  0BC6  1283               	bcf	3,5	;RP0=0, select bank0
  5242  0BC7  1303               	bcf	3,6	;RP1=0, select bank0
  5243  0BC8  00B8               	movwf	??_main
  5244  0BC9  0838               	movf	??_main,w
  5245  0BCA  00B3               	movwf	_hora_user2
  5246                           
  5247                           ;PROYECTO.c: 398:                         }else if(hora_nueva == 'j'){
  5248  0BCB  2C9C               	goto	l3820
  5249  0BCC                     l3756:
  5250  0BCC  306A               	movlw	106
  5251  0BCD  0670               	xorwf	_hora_nueva,w
  5252  0BCE  1D03               	btfss	3,2
  5253  0BCF  2BD1               	goto	u4801
  5254  0BD0  2BD2               	goto	u4800
  5255  0BD1                     u4801:
  5256  0BD1  2BD9               	goto	l3760
  5257  0BD2                     u4800:
  5258  0BD2                     l3758:
  5259                           
  5260                           ;PROYECTO.c: 399:                             hora_user2 = 9;
  5261  0BD2  3009               	movlw	9
  5262  0BD3  1283               	bcf	3,5	;RP0=0, select bank0
  5263  0BD4  1303               	bcf	3,6	;RP1=0, select bank0
  5264  0BD5  00B8               	movwf	??_main
  5265  0BD6  0838               	movf	??_main,w
  5266  0BD7  00B3               	movwf	_hora_user2
  5267                           
  5268                           ;PROYECTO.c: 400:                         }else if(hora_nueva == 'k'){
  5269  0BD8  2C9C               	goto	l3820
  5270  0BD9                     l3760:
  5271  0BD9  306B               	movlw	107
  5272  0BDA  0670               	xorwf	_hora_nueva,w
  5273  0BDB  1D03               	btfss	3,2
  5274  0BDC  2BDE               	goto	u4811
  5275  0BDD  2BDF               	goto	u4810
  5276  0BDE                     u4811:
  5277  0BDE  2BE6               	goto	l3764
  5278  0BDF                     u4810:
  5279  0BDF                     l3762:
  5280                           
  5281                           ;PROYECTO.c: 401:                             hora_user2 = 10;
  5282  0BDF  300A               	movlw	10
  5283  0BE0  1283               	bcf	3,5	;RP0=0, select bank0
  5284  0BE1  1303               	bcf	3,6	;RP1=0, select bank0
  5285  0BE2  00B8               	movwf	??_main
  5286  0BE3  0838               	movf	??_main,w
  5287  0BE4  00B3               	movwf	_hora_user2
  5288                           
  5289                           ;PROYECTO.c: 402:                         }else if(hora_nueva == 'l'){
  5290  0BE5  2C9C               	goto	l3820
  5291  0BE6                     l3764:
  5292  0BE6  306C               	movlw	108
  5293  0BE7  0670               	xorwf	_hora_nueva,w
  5294  0BE8  1D03               	btfss	3,2
  5295  0BE9  2BEB               	goto	u4821
  5296  0BEA  2BEC               	goto	u4820
  5297  0BEB                     u4821:
  5298  0BEB  2BF3               	goto	l3768
  5299  0BEC                     u4820:
  5300  0BEC                     l3766:
  5301                           
  5302                           ;PROYECTO.c: 403:                             hora_user2 = 11;
  5303  0BEC  300B               	movlw	11
  5304  0BED  1283               	bcf	3,5	;RP0=0, select bank0
  5305  0BEE  1303               	bcf	3,6	;RP1=0, select bank0
  5306  0BEF  00B8               	movwf	??_main
  5307  0BF0  0838               	movf	??_main,w
  5308  0BF1  00B3               	movwf	_hora_user2
  5309                           
  5310                           ;PROYECTO.c: 404:                         }else if(hora_nueva == 'm'){
  5311  0BF2  2C9C               	goto	l3820
  5312  0BF3                     l3768:
  5313  0BF3  306D               	movlw	109
  5314  0BF4  0670               	xorwf	_hora_nueva,w
  5315  0BF5  1D03               	btfss	3,2
  5316  0BF6  2BF8               	goto	u4831
  5317  0BF7  2BF9               	goto	u4830
  5318  0BF8                     u4831:
  5319  0BF8  2C00               	goto	l3772
  5320  0BF9                     u4830:
  5321  0BF9                     l3770:
  5322                           
  5323                           ;PROYECTO.c: 405:                             hora_user2 = 12;
  5324  0BF9  300C               	movlw	12
  5325  0BFA  1283               	bcf	3,5	;RP0=0, select bank0
  5326  0BFB  1303               	bcf	3,6	;RP1=0, select bank0
  5327  0BFC  00B8               	movwf	??_main
  5328  0BFD  0838               	movf	??_main,w
  5329  0BFE  00B3               	movwf	_hora_user2
  5330                           
  5331                           ;PROYECTO.c: 406:                         }else if(hora_nueva == 'n'){
  5332  0BFF  2C9C               	goto	l3820
  5333  0C00                     l3772:
  5334  0C00  306E               	movlw	110
  5335  0C01  0670               	xorwf	_hora_nueva,w
  5336  0C02  1D03               	btfss	3,2
  5337  0C03  2C05               	goto	u4841
  5338  0C04  2C06               	goto	u4840
  5339  0C05                     u4841:
  5340  0C05  2C0D               	goto	l3776
  5341  0C06                     u4840:
  5342  0C06                     l3774:
  5343                           
  5344                           ;PROYECTO.c: 407:                             hora_user2 = 13;
  5345  0C06  300D               	movlw	13
  5346  0C07  1283               	bcf	3,5	;RP0=0, select bank0
  5347  0C08  1303               	bcf	3,6	;RP1=0, select bank0
  5348  0C09  00B8               	movwf	??_main
  5349  0C0A  0838               	movf	??_main,w
  5350  0C0B  00B3               	movwf	_hora_user2
  5351                           
  5352                           ;PROYECTO.c: 408:                         }else if(hora_nueva == 'o'){
  5353  0C0C  2C9C               	goto	l3820
  5354  0C0D                     l3776:
  5355  0C0D  306F               	movlw	111
  5356  0C0E  0670               	xorwf	_hora_nueva,w
  5357  0C0F  1D03               	btfss	3,2
  5358  0C10  2C12               	goto	u4851
  5359  0C11  2C13               	goto	u4850
  5360  0C12                     u4851:
  5361  0C12  2C1A               	goto	l3780
  5362  0C13                     u4850:
  5363  0C13                     l3778:
  5364                           
  5365                           ;PROYECTO.c: 409:                             hora_user2 = 14;
  5366  0C13  300E               	movlw	14
  5367  0C14  1283               	bcf	3,5	;RP0=0, select bank0
  5368  0C15  1303               	bcf	3,6	;RP1=0, select bank0
  5369  0C16  00B8               	movwf	??_main
  5370  0C17  0838               	movf	??_main,w
  5371  0C18  00B3               	movwf	_hora_user2
  5372                           
  5373                           ;PROYECTO.c: 410:                         }else if(hora_nueva == 'p'){
  5374  0C19  2C9C               	goto	l3820
  5375  0C1A                     l3780:
  5376  0C1A  3070               	movlw	112
  5377  0C1B  0670               	xorwf	_hora_nueva,w
  5378  0C1C  1D03               	btfss	3,2
  5379  0C1D  2C1F               	goto	u4861
  5380  0C1E  2C20               	goto	u4860
  5381  0C1F                     u4861:
  5382  0C1F  2C27               	goto	l3784
  5383  0C20                     u4860:
  5384  0C20                     l3782:
  5385                           
  5386                           ;PROYECTO.c: 411:                             hora_user2 = 15;
  5387  0C20  300F               	movlw	15
  5388  0C21  1283               	bcf	3,5	;RP0=0, select bank0
  5389  0C22  1303               	bcf	3,6	;RP1=0, select bank0
  5390  0C23  00B8               	movwf	??_main
  5391  0C24  0838               	movf	??_main,w
  5392  0C25  00B3               	movwf	_hora_user2
  5393                           
  5394                           ;PROYECTO.c: 412:                         }else if(hora_nueva == 'q'){
  5395  0C26  2C9C               	goto	l3820
  5396  0C27                     l3784:
  5397  0C27  3071               	movlw	113
  5398  0C28  0670               	xorwf	_hora_nueva,w
  5399  0C29  1D03               	btfss	3,2
  5400  0C2A  2C2C               	goto	u4871
  5401  0C2B  2C2D               	goto	u4870
  5402  0C2C                     u4871:
  5403  0C2C  2C34               	goto	l3788
  5404  0C2D                     u4870:
  5405  0C2D                     l3786:
  5406                           
  5407                           ;PROYECTO.c: 413:                             hora_user2 = 16;
  5408  0C2D  3010               	movlw	16
  5409  0C2E  1283               	bcf	3,5	;RP0=0, select bank0
  5410  0C2F  1303               	bcf	3,6	;RP1=0, select bank0
  5411  0C30  00B8               	movwf	??_main
  5412  0C31  0838               	movf	??_main,w
  5413  0C32  00B3               	movwf	_hora_user2
  5414                           
  5415                           ;PROYECTO.c: 414:                         }else if(hora_nueva == 'r'){
  5416  0C33  2C9C               	goto	l3820
  5417  0C34                     l3788:
  5418  0C34  3072               	movlw	114
  5419  0C35  0670               	xorwf	_hora_nueva,w
  5420  0C36  1D03               	btfss	3,2
  5421  0C37  2C39               	goto	u4881
  5422  0C38  2C3A               	goto	u4880
  5423  0C39                     u4881:
  5424  0C39  2C41               	goto	l3792
  5425  0C3A                     u4880:
  5426  0C3A                     l3790:
  5427                           
  5428                           ;PROYECTO.c: 415:                             hora_user2 = 17;
  5429  0C3A  3011               	movlw	17
  5430  0C3B  1283               	bcf	3,5	;RP0=0, select bank0
  5431  0C3C  1303               	bcf	3,6	;RP1=0, select bank0
  5432  0C3D  00B8               	movwf	??_main
  5433  0C3E  0838               	movf	??_main,w
  5434  0C3F  00B3               	movwf	_hora_user2
  5435                           
  5436                           ;PROYECTO.c: 416:                         }else if(hora_nueva == 's'){
  5437  0C40  2C9C               	goto	l3820
  5438  0C41                     l3792:
  5439  0C41  3073               	movlw	115
  5440  0C42  0670               	xorwf	_hora_nueva,w
  5441  0C43  1D03               	btfss	3,2
  5442  0C44  2C46               	goto	u4891
  5443  0C45  2C47               	goto	u4890
  5444  0C46                     u4891:
  5445  0C46  2C4E               	goto	l3796
  5446  0C47                     u4890:
  5447  0C47                     l3794:
  5448                           
  5449                           ;PROYECTO.c: 417:                             hora_user2 = 18;
  5450  0C47  3012               	movlw	18
  5451  0C48  1283               	bcf	3,5	;RP0=0, select bank0
  5452  0C49  1303               	bcf	3,6	;RP1=0, select bank0
  5453  0C4A  00B8               	movwf	??_main
  5454  0C4B  0838               	movf	??_main,w
  5455  0C4C  00B3               	movwf	_hora_user2
  5456                           
  5457                           ;PROYECTO.c: 418:                         }else if(hora_nueva == 't'){
  5458  0C4D  2C9C               	goto	l3820
  5459  0C4E                     l3796:
  5460  0C4E  3074               	movlw	116
  5461  0C4F  0670               	xorwf	_hora_nueva,w
  5462  0C50  1D03               	btfss	3,2
  5463  0C51  2C53               	goto	u4901
  5464  0C52  2C54               	goto	u4900
  5465  0C53                     u4901:
  5466  0C53  2C5B               	goto	l3800
  5467  0C54                     u4900:
  5468  0C54                     l3798:
  5469                           
  5470                           ;PROYECTO.c: 419:                             hora_user2 = 19;
  5471  0C54  3013               	movlw	19
  5472  0C55  1283               	bcf	3,5	;RP0=0, select bank0
  5473  0C56  1303               	bcf	3,6	;RP1=0, select bank0
  5474  0C57  00B8               	movwf	??_main
  5475  0C58  0838               	movf	??_main,w
  5476  0C59  00B3               	movwf	_hora_user2
  5477                           
  5478                           ;PROYECTO.c: 420:                         }else if(hora_nueva == 'u'){
  5479  0C5A  2C9C               	goto	l3820
  5480  0C5B                     l3800:
  5481  0C5B  3075               	movlw	117
  5482  0C5C  0670               	xorwf	_hora_nueva,w
  5483  0C5D  1D03               	btfss	3,2
  5484  0C5E  2C60               	goto	u4911
  5485  0C5F  2C61               	goto	u4910
  5486  0C60                     u4911:
  5487  0C60  2C68               	goto	l3804
  5488  0C61                     u4910:
  5489  0C61                     l3802:
  5490                           
  5491                           ;PROYECTO.c: 421:                             hora_user2 = 20;
  5492  0C61  3014               	movlw	20
  5493  0C62  1283               	bcf	3,5	;RP0=0, select bank0
  5494  0C63  1303               	bcf	3,6	;RP1=0, select bank0
  5495  0C64  00B8               	movwf	??_main
  5496  0C65  0838               	movf	??_main,w
  5497  0C66  00B3               	movwf	_hora_user2
  5498                           
  5499                           ;PROYECTO.c: 422:                         }else if(hora_nueva == 'v'){
  5500  0C67  2C9C               	goto	l3820
  5501  0C68                     l3804:
  5502  0C68  3076               	movlw	118
  5503  0C69  0670               	xorwf	_hora_nueva,w
  5504  0C6A  1D03               	btfss	3,2
  5505  0C6B  2C6D               	goto	u4921
  5506  0C6C  2C6E               	goto	u4920
  5507  0C6D                     u4921:
  5508  0C6D  2C75               	goto	l3808
  5509  0C6E                     u4920:
  5510  0C6E                     l3806:
  5511                           
  5512                           ;PROYECTO.c: 423:                             hora_user2 = 21;
  5513  0C6E  3015               	movlw	21
  5514  0C6F  1283               	bcf	3,5	;RP0=0, select bank0
  5515  0C70  1303               	bcf	3,6	;RP1=0, select bank0
  5516  0C71  00B8               	movwf	??_main
  5517  0C72  0838               	movf	??_main,w
  5518  0C73  00B3               	movwf	_hora_user2
  5519                           
  5520                           ;PROYECTO.c: 424:                         }else if(hora_nueva == 'w'){
  5521  0C74  2C9C               	goto	l3820
  5522  0C75                     l3808:
  5523  0C75  3077               	movlw	119
  5524  0C76  0670               	xorwf	_hora_nueva,w
  5525  0C77  1D03               	btfss	3,2
  5526  0C78  2C7A               	goto	u4931
  5527  0C79  2C7B               	goto	u4930
  5528  0C7A                     u4931:
  5529  0C7A  2C82               	goto	l3812
  5530  0C7B                     u4930:
  5531  0C7B                     l3810:
  5532                           
  5533                           ;PROYECTO.c: 425:                             hora_user2 = 22;
  5534  0C7B  3016               	movlw	22
  5535  0C7C  1283               	bcf	3,5	;RP0=0, select bank0
  5536  0C7D  1303               	bcf	3,6	;RP1=0, select bank0
  5537  0C7E  00B8               	movwf	??_main
  5538  0C7F  0838               	movf	??_main,w
  5539  0C80  00B3               	movwf	_hora_user2
  5540                           
  5541                           ;PROYECTO.c: 426:                         }else if(hora_nueva == 'x'){
  5542  0C81  2C9C               	goto	l3820
  5543  0C82                     l3812:
  5544  0C82  3078               	movlw	120
  5545  0C83  0670               	xorwf	_hora_nueva,w
  5546  0C84  1D03               	btfss	3,2
  5547  0C85  2C87               	goto	u4941
  5548  0C86  2C88               	goto	u4940
  5549  0C87                     u4941:
  5550  0C87  2C8F               	goto	l3816
  5551  0C88                     u4940:
  5552  0C88                     l3814:
  5553                           
  5554                           ;PROYECTO.c: 427:                             hora_user2 = 23;
  5555  0C88  3017               	movlw	23
  5556  0C89  1283               	bcf	3,5	;RP0=0, select bank0
  5557  0C8A  1303               	bcf	3,6	;RP1=0, select bank0
  5558  0C8B  00B8               	movwf	??_main
  5559  0C8C  0838               	movf	??_main,w
  5560  0C8D  00B3               	movwf	_hora_user2
  5561                           
  5562                           ;PROYECTO.c: 428:                         }else if(hora_nueva == 'y'){
  5563  0C8E  2C9C               	goto	l3820
  5564  0C8F                     l3816:
  5565  0C8F  3079               	movlw	121
  5566  0C90  0670               	xorwf	_hora_nueva,w
  5567  0C91  1D03               	btfss	3,2
  5568  0C92  2C94               	goto	u4951
  5569  0C93  2C95               	goto	u4950
  5570  0C94                     u4951:
  5571  0C94  2C9C               	goto	l299
  5572  0C95                     u4950:
  5573  0C95                     l3818:
  5574                           
  5575                           ;PROYECTO.c: 429:                             hora_user2 = 24;
  5576  0C95  3018               	movlw	24
  5577  0C96  1283               	bcf	3,5	;RP0=0, select bank0
  5578  0C97  1303               	bcf	3,6	;RP1=0, select bank0
  5579  0C98  00B8               	movwf	??_main
  5580  0C99  0838               	movf	??_main,w
  5581  0C9A  00B3               	movwf	_hora_user2
  5582  0C9B  2C9C               	goto	l3820
  5583  0C9C                     l299:
  5584  0C9C                     l3820:
  5585                           
  5586                           ;PROYECTO.c: 434:                 USART_Cadena(" Ingresá la letra de los minutos nuevos
      +                            \r");
  5587  0C9C  30C4               	movlw	low (STR_34| (0+32768))
  5588  0C9D  00F9               	movwf	USART_Cadena@str
  5589  0C9E  3090               	movlw	high (STR_34| (0+32768))
  5590  0C9F  00FA               	movwf	USART_Cadena@str+1
  5591  0CA0  120A  118A  2560  120A  158A  	fcall	_USART_Cadena
  5592                           
  5593                           ;PROYECTO.c: 435:                 USART_Cadena(" a.0  b.15   c.30   d.45   e.55   \r");
  5594  0CA5  3067               	movlw	low (STR_35| (0+32768))
  5595  0CA6  00F9               	movwf	USART_Cadena@str
  5596  0CA7  3091               	movlw	high (STR_35| (0+32768))
  5597  0CA8  00FA               	movwf	USART_Cadena@str+1
  5598  0CA9  120A  118A  2560  120A  158A  	fcall	_USART_Cadena
  5599  0CAE                     l3822:
  5600                           
  5601                           ;PROYECTO.c: 437:                     if (PIR1bits.RCIF == 1){
  5602  0CAE  1283               	bcf	3,5	;RP0=0, select bank0
  5603  0CAF  1303               	bcf	3,6	;RP1=0, select bank0
  5604  0CB0  1E8C               	btfss	12,5	;volatile
  5605  0CB1  2CB3               	goto	u4961
  5606  0CB2  2CB4               	goto	u4960
  5607  0CB3                     u4961:
  5608  0CB3  2CAE               	goto	l3822
  5609  0CB4                     u4960:
  5610  0CB4                     l3824:
  5611                           
  5612                           ;PROYECTO.c: 438:                         USART_Cadena(" \r");
  5613  0CB4  3088               	movlw	low ((STR_35+33)| (0+32768))
  5614  0CB5  00F9               	movwf	USART_Cadena@str
  5615  0CB6  3091               	movlw	high ((STR_35+33)| (0+32768))
  5616  0CB7  00FA               	movwf	USART_Cadena@str+1
  5617  0CB8  120A  118A  2560  120A  158A  	fcall	_USART_Cadena
  5618  0CBD                     l3826:
  5619                           
  5620                           ;PROYECTO.c: 439:                         hora_nueva = USART_Rx();
  5621  0CBD  120A  118A  25B3  120A  158A  	fcall	_USART_Rx
  5622  0CC2  1283               	bcf	3,5	;RP0=0, select bank0
  5623  0CC3  1303               	bcf	3,6	;RP1=0, select bank0
  5624  0CC4  00B8               	movwf	??_main
  5625  0CC5  0838               	movf	??_main,w
  5626  0CC6  00F0               	movwf	_hora_nueva
  5627  0CC7                     l3828:
  5628                           
  5629                           ;PROYECTO.c: 440:                         USART_Cadena(" \r");
  5630  0CC7  3088               	movlw	low ((STR_35+33)| (0+32768))
  5631  0CC8  00F9               	movwf	USART_Cadena@str
  5632  0CC9  3091               	movlw	high ((STR_35+33)| (0+32768))
  5633  0CCA  00FA               	movwf	USART_Cadena@str+1
  5634  0CCB  120A  118A  2560  120A  158A  	fcall	_USART_Cadena
  5635  0CD0                     l3830:
  5636                           
  5637                           ;PROYECTO.c: 441:                         if(hora_nueva == 'a'){
  5638  0CD0  3061               	movlw	97
  5639  0CD1  0670               	xorwf	_hora_nueva,w
  5640  0CD2  1D03               	btfss	3,2
  5641  0CD3  2CD5               	goto	u4971
  5642  0CD4  2CD6               	goto	u4970
  5643  0CD5                     u4971:
  5644  0CD5  2CDA               	goto	l3834
  5645  0CD6                     u4970:
  5646  0CD6                     l3832:
  5647                           
  5648                           ;PROYECTO.c: 442:                             min_user2 = 0;
  5649  0CD6  1283               	bcf	3,5	;RP0=0, select bank0
  5650  0CD7  1303               	bcf	3,6	;RP1=0, select bank0
  5651  0CD8  01B5               	clrf	_min_user2
  5652                           
  5653                           ;PROYECTO.c: 443:                         }else if(hora_nueva == 'b'){
  5654  0CD9  2D0E               	goto	l3850
  5655  0CDA                     l3834:
  5656  0CDA  3062               	movlw	98
  5657  0CDB  0670               	xorwf	_hora_nueva,w
  5658  0CDC  1D03               	btfss	3,2
  5659  0CDD  2CDF               	goto	u4981
  5660  0CDE  2CE0               	goto	u4980
  5661  0CDF                     u4981:
  5662  0CDF  2CE7               	goto	l3838
  5663  0CE0                     u4980:
  5664  0CE0                     l3836:
  5665                           
  5666                           ;PROYECTO.c: 444:                             min_user2 = 15;
  5667  0CE0  300F               	movlw	15
  5668  0CE1  1283               	bcf	3,5	;RP0=0, select bank0
  5669  0CE2  1303               	bcf	3,6	;RP1=0, select bank0
  5670  0CE3  00B8               	movwf	??_main
  5671  0CE4  0838               	movf	??_main,w
  5672  0CE5  00B5               	movwf	_min_user2
  5673                           
  5674                           ;PROYECTO.c: 445:                         }else if(hora_nueva == 'c'){
  5675  0CE6  2D0E               	goto	l3850
  5676  0CE7                     l3838:
  5677  0CE7  3063               	movlw	99
  5678  0CE8  0670               	xorwf	_hora_nueva,w
  5679  0CE9  1D03               	btfss	3,2
  5680  0CEA  2CEC               	goto	u4991
  5681  0CEB  2CED               	goto	u4990
  5682  0CEC                     u4991:
  5683  0CEC  2CF4               	goto	l3842
  5684  0CED                     u4990:
  5685  0CED                     l3840:
  5686                           
  5687                           ;PROYECTO.c: 446:                             min_user2 = 30;
  5688  0CED  301E               	movlw	30
  5689  0CEE  1283               	bcf	3,5	;RP0=0, select bank0
  5690  0CEF  1303               	bcf	3,6	;RP1=0, select bank0
  5691  0CF0  00B8               	movwf	??_main
  5692  0CF1  0838               	movf	??_main,w
  5693  0CF2  00B5               	movwf	_min_user2
  5694                           
  5695                           ;PROYECTO.c: 447:                         }else if(hora_nueva == 'd'){
  5696  0CF3  2D0E               	goto	l3850
  5697  0CF4                     l3842:
  5698  0CF4  3064               	movlw	100
  5699  0CF5  0670               	xorwf	_hora_nueva,w
  5700  0CF6  1D03               	btfss	3,2
  5701  0CF7  2CF9               	goto	u5001
  5702  0CF8  2CFA               	goto	u5000
  5703  0CF9                     u5001:
  5704  0CF9  2D01               	goto	l3846
  5705  0CFA                     u5000:
  5706  0CFA                     l3844:
  5707                           
  5708                           ;PROYECTO.c: 448:                             min_user2 = 45;
  5709  0CFA  302D               	movlw	45
  5710  0CFB  1283               	bcf	3,5	;RP0=0, select bank0
  5711  0CFC  1303               	bcf	3,6	;RP1=0, select bank0
  5712  0CFD  00B8               	movwf	??_main
  5713  0CFE  0838               	movf	??_main,w
  5714  0CFF  00B5               	movwf	_min_user2
  5715                           
  5716                           ;PROYECTO.c: 449:                         }else if(hora_nueva == 'e'){
  5717  0D00  2D0E               	goto	l3850
  5718  0D01                     l3846:
  5719  0D01  3065               	movlw	101
  5720  0D02  0670               	xorwf	_hora_nueva,w
  5721  0D03  1D03               	btfss	3,2
  5722  0D04  2D06               	goto	u5011
  5723  0D05  2D07               	goto	u5010
  5724  0D06                     u5011:
  5725  0D06  2D0E               	goto	l312
  5726  0D07                     u5010:
  5727  0D07                     l3848:
  5728                           
  5729                           ;PROYECTO.c: 450:                             min_user2 = 55;
  5730  0D07  3037               	movlw	55
  5731  0D08  1283               	bcf	3,5	;RP0=0, select bank0
  5732  0D09  1303               	bcf	3,6	;RP1=0, select bank0
  5733  0D0A  00B8               	movwf	??_main
  5734  0D0B  0838               	movf	??_main,w
  5735  0D0C  00B5               	movwf	_min_user2
  5736  0D0D  2D0E               	goto	l3850
  5737  0D0E                     l312:
  5738  0D0E                     l3850:
  5739                           
  5740                           ;PROYECTO.c: 456:                 USART_Cadena(" Actualmente se cuenta con 3 medicamento
      +                          s\r");
  5741  0D0E  30F0               	movlw	low (STR_38| (0+32768))
  5742  0D0F  00F9               	movwf	USART_Cadena@str
  5743  0D10  3090               	movlw	high (STR_38| (0+32768))
  5744  0D11  00FA               	movwf	USART_Cadena@str+1
  5745  0D12  120A  118A  2560  120A  158A  	fcall	_USART_Cadena
  5746                           
  5747                           ;PROYECTO.c: 457:                 USART_Cadena(" presione el número de medicamento a gu
      +                          ardar \r");
  5748  0D17  3034               	movlw	low (STR_39| (0+32768))
  5749  0D18  00F9               	movwf	USART_Cadena@str
  5750  0D19  3090               	movlw	high (STR_39| (0+32768))
  5751  0D1A  00FA               	movwf	USART_Cadena@str+1
  5752  0D1B  120A  118A  2560  120A  158A  	fcall	_USART_Cadena
  5753                           
  5754                           ;PROYECTO.c: 458:                 USART_Cadena(" 1.AFC    2.FFT   3.DHL \r");
  5755  0D20  30C8               	movlw	low (STR_40| (0+32768))
  5756  0D21  00F9               	movwf	USART_Cadena@str
  5757  0D22  3092               	movlw	high (STR_40| (0+32768))
  5758  0D23  00FA               	movwf	USART_Cadena@str+1
  5759  0D24  120A  118A  2560  120A  158A  	fcall	_USART_Cadena
  5760  0D29                     l3852:
  5761                           
  5762                           ;PROYECTO.c: 460:                     if (PIR1bits.RCIF == 1){
  5763  0D29  1283               	bcf	3,5	;RP0=0, select bank0
  5764  0D2A  1303               	bcf	3,6	;RP1=0, select bank0
  5765  0D2B  1E8C               	btfss	12,5	;volatile
  5766  0D2C  2D2E               	goto	u5021
  5767  0D2D  2D2F               	goto	u5020
  5768  0D2E                     u5021:
  5769  0D2E  2D29               	goto	l3852
  5770  0D2F                     u5020:
  5771  0D2F                     l3854:
  5772                           
  5773                           ;PROYECTO.c: 461:                         hora_nueva = USART_Rx();
  5774  0D2F  120A  118A  25B3  120A  158A  	fcall	_USART_Rx
  5775  0D34  1283               	bcf	3,5	;RP0=0, select bank0
  5776  0D35  1303               	bcf	3,6	;RP1=0, select bank0
  5777  0D36  00B8               	movwf	??_main
  5778  0D37  0838               	movf	??_main,w
  5779  0D38  00F0               	movwf	_hora_nueva
  5780  0D39                     l3856:
  5781                           
  5782                           ;PROYECTO.c: 462:                         if(hora_nueva == '1'){
  5783  0D39  3031               	movlw	49
  5784  0D3A  0670               	xorwf	_hora_nueva,w
  5785  0D3B  1D03               	btfss	3,2
  5786  0D3C  2D3E               	goto	u5031
  5787  0D3D  2D3F               	goto	u5030
  5788  0D3E                     u5031:
  5789  0D3E  2D48               	goto	l3860
  5790  0D3F                     u5030:
  5791  0D3F                     l3858:
  5792                           
  5793                           ;PROYECTO.c: 463:                             me_1_us2_h = hora_user1;
  5794  0D3F  0871               	movf	_hora_user1,w
  5795  0D40  00B8               	movwf	??_main
  5796  0D41  0838               	movf	??_main,w
  5797  0D42  00AE               	movwf	_me_1_us2_h
  5798                           
  5799                           ;PROYECTO.c: 464:                             me_1_us2_m = min_user1;
  5800  0D43  0872               	movf	_min_user1,w
  5801  0D44  00B8               	movwf	??_main
  5802  0D45  0838               	movf	??_main,w
  5803  0D46  00A5               	movwf	_me_1_us2_m
  5804                           
  5805                           ;PROYECTO.c: 465:                         }else if(hora_nueva == '2'){
  5806  0D47  29B3               	goto	l3638
  5807  0D48                     l3860:
  5808  0D48  3032               	movlw	50
  5809  0D49  0670               	xorwf	_hora_nueva,w
  5810  0D4A  1D03               	btfss	3,2
  5811  0D4B  2D4D               	goto	u5041
  5812  0D4C  2D4E               	goto	u5040
  5813  0D4D                     u5041:
  5814  0D4D  2D57               	goto	l3864
  5815  0D4E                     u5040:
  5816  0D4E                     l3862:
  5817                           
  5818                           ;PROYECTO.c: 466:                             me_2_us2_h = hora_user1;
  5819  0D4E  0871               	movf	_hora_user1,w
  5820  0D4F  00B8               	movwf	??_main
  5821  0D50  0838               	movf	??_main,w
  5822  0D51  00AD               	movwf	_me_2_us2_h
  5823                           
  5824                           ;PROYECTO.c: 467:                             me_2_us2_m = min_user1;
  5825  0D52  0872               	movf	_min_user1,w
  5826  0D53  00B8               	movwf	??_main
  5827  0D54  0838               	movf	??_main,w
  5828  0D55  00A4               	movwf	_me_2_us2_m
  5829                           
  5830                           ;PROYECTO.c: 468:                         }else if(hora_nueva == '3'){
  5831  0D56  29B3               	goto	l3638
  5832  0D57                     l3864:
  5833  0D57  3033               	movlw	51
  5834  0D58  0670               	xorwf	_hora_nueva,w
  5835  0D59  1D03               	btfss	3,2
  5836  0D5A  2D5C               	goto	u5051
  5837  0D5B  2D5D               	goto	u5050
  5838  0D5C                     u5051:
  5839  0D5C  29B3               	goto	l3638
  5840  0D5D                     u5050:
  5841  0D5D                     l3866:
  5842                           
  5843                           ;PROYECTO.c: 469:                             me_3_us2_h = hora_user1;
  5844  0D5D  0871               	movf	_hora_user1,w
  5845  0D5E  00B8               	movwf	??_main
  5846  0D5F  0838               	movf	??_main,w
  5847  0D60  00AC               	movwf	_me_3_us2_h
  5848                           
  5849                           ;PROYECTO.c: 470:                             me_3_us2_m = min_user1;
  5850  0D61  0872               	movf	_min_user1,w
  5851  0D62  00B8               	movwf	??_main
  5852  0D63  0838               	movf	??_main,w
  5853  0D64  00A3               	movwf	_me_3_us2_m
  5854  0D65  29B3               	goto	l3638
  5855  0D66                     l3868:
  5856                           
  5857                           ;PROYECTO.c: 480:                 USART_Cadena(" Ingresá la letra de la nueva hora  \r"
      +                          );
  5858  0D66  301B               	movlw	low (STR_28| (0+32768))
  5859  0D67  00F9               	movwf	USART_Cadena@str
  5860  0D68  3091               	movlw	high (STR_28| (0+32768))
  5861  0D69  00FA               	movwf	USART_Cadena@str+1
  5862  0D6A  120A  118A  2560  120A  158A  	fcall	_USART_Cadena
  5863                           
  5864                           ;PROYECTO.c: 481:                 USART_Cadena(" a.0  b.1   c.2   d.3   e.4   f.5   g.6 
      +                            h.7  i.8\r");
  5865  0D6F  3000               	movlw	low (STR_29| (0+32768))
  5866  0D70  00F9               	movwf	USART_Cadena@str
  5867  0D71  3090               	movlw	high (STR_29| (0+32768))
  5868  0D72  00FA               	movwf	USART_Cadena@str+1
  5869  0D73  120A  118A  2560  120A  158A  	fcall	_USART_Cadena
  5870                           
  5871                           ;PROYECTO.c: 482:                 USART_Cadena(" j.9  k.10  l.11  m.12  n.13  o.14  p.15
      +                            q.16\r");
  5872  0D78  3094               	movlw	low (STR_30| (0+32768))
  5873  0D79  00F9               	movwf	USART_Cadena@str
  5874  0D7A  3090               	movlw	high (STR_30| (0+32768))
  5875  0D7B  00FA               	movwf	USART_Cadena@str+1
  5876  0D7C  120A  118A  2560  120A  158A  	fcall	_USART_Cadena
  5877                           
  5878                           ;PROYECTO.c: 483:                 USART_Cadena("r.17  s.18  t.19  u.20  v.21  w.22  x.23
      +                            y.24\r");
  5879  0D81  3064               	movlw	low (STR_31| (0+32768))
  5880  0D82  00F9               	movwf	USART_Cadena@str
  5881  0D83  3090               	movlw	high (STR_31| (0+32768))
  5882  0D84  00FA               	movwf	USART_Cadena@str+1
  5883  0D85  120A  118A  2560  120A  158A  	fcall	_USART_Cadena
  5884  0D8A                     l3870:
  5885                           
  5886                           ;PROYECTO.c: 485:                     if (PIR1bits.RCIF == 1){
  5887  0D8A  1283               	bcf	3,5	;RP0=0, select bank0
  5888  0D8B  1303               	bcf	3,6	;RP1=0, select bank0
  5889  0D8C  1E8C               	btfss	12,5	;volatile
  5890  0D8D  2D8F               	goto	u5061
  5891  0D8E  2D90               	goto	u5060
  5892  0D8F                     u5061:
  5893  0D8F  2D8A               	goto	l3870
  5894  0D90                     u5060:
  5895  0D90                     l3872:
  5896                           
  5897                           ;PROYECTO.c: 486:                         USART_Cadena(" \r");
  5898  0D90  3088               	movlw	low ((STR_35+33)| (0+32768))
  5899  0D91  00F9               	movwf	USART_Cadena@str
  5900  0D92  3091               	movlw	high ((STR_35+33)| (0+32768))
  5901  0D93  00FA               	movwf	USART_Cadena@str+1
  5902  0D94  120A  118A  2560  120A  158A  	fcall	_USART_Cadena
  5903  0D99                     l3874:
  5904                           
  5905                           ;PROYECTO.c: 487:                         hora_nueva = USART_Rx();
  5906  0D99  120A  118A  25B3  120A  158A  	fcall	_USART_Rx
  5907  0D9E  1283               	bcf	3,5	;RP0=0, select bank0
  5908  0D9F  1303               	bcf	3,6	;RP1=0, select bank0
  5909  0DA0  00B8               	movwf	??_main
  5910  0DA1  0838               	movf	??_main,w
  5911  0DA2  00F0               	movwf	_hora_nueva
  5912  0DA3                     l3876:
  5913                           
  5914                           ;PROYECTO.c: 488:                         USART_Cadena(" \r");
  5915  0DA3  3088               	movlw	low ((STR_35+33)| (0+32768))
  5916  0DA4  00F9               	movwf	USART_Cadena@str
  5917  0DA5  3091               	movlw	high ((STR_35+33)| (0+32768))
  5918  0DA6  00FA               	movwf	USART_Cadena@str+1
  5919  0DA7  120A  118A  2560  120A  158A  	fcall	_USART_Cadena
  5920  0DAC                     l3878:
  5921                           
  5922                           ;PROYECTO.c: 489:                         if(hora_nueva == 'a'){
  5923  0DAC  3061               	movlw	97
  5924  0DAD  0670               	xorwf	_hora_nueva,w
  5925  0DAE  1D03               	btfss	3,2
  5926  0DAF  2DB1               	goto	u5071
  5927  0DB0  2DB2               	goto	u5070
  5928  0DB1                     u5071:
  5929  0DB1  2DB6               	goto	l3882
  5930  0DB2                     u5070:
  5931  0DB2                     l3880:
  5932                           
  5933                           ;PROYECTO.c: 490:                             hora_user3 = 0;
  5934  0DB2  1283               	bcf	3,5	;RP0=0, select bank0
  5935  0DB3  1303               	bcf	3,6	;RP1=0, select bank0
  5936  0DB4  01B2               	clrf	_hora_user3
  5937                           
  5938                           ;PROYECTO.c: 491:                         }else if(hora_nueva == 'b'){
  5939  0DB5  2EEC               	goto	l3978
  5940  0DB6                     l3882:
  5941  0DB6  3062               	movlw	98
  5942  0DB7  0670               	xorwf	_hora_nueva,w
  5943  0DB8  1D03               	btfss	3,2
  5944  0DB9  2DBB               	goto	u5081
  5945  0DBA  2DBC               	goto	u5080
  5946  0DBB                     u5081:
  5947  0DBB  2DC1               	goto	l3886
  5948  0DBC                     u5080:
  5949  0DBC                     l3884:
  5950                           
  5951                           ;PROYECTO.c: 492:                             hora_user3 = 1;
  5952  0DBC  1283               	bcf	3,5	;RP0=0, select bank0
  5953  0DBD  1303               	bcf	3,6	;RP1=0, select bank0
  5954  0DBE  01B2               	clrf	_hora_user3
  5955  0DBF  0AB2               	incf	_hora_user3,f
  5956                           
  5957                           ;PROYECTO.c: 493:                         }else if(hora_nueva == 'c'){
  5958  0DC0  2EEC               	goto	l3978
  5959  0DC1                     l3886:
  5960  0DC1  3063               	movlw	99
  5961  0DC2  0670               	xorwf	_hora_nueva,w
  5962  0DC3  1D03               	btfss	3,2
  5963  0DC4  2DC6               	goto	u5091
  5964  0DC5  2DC7               	goto	u5090
  5965  0DC6                     u5091:
  5966  0DC6  2DCE               	goto	l3890
  5967  0DC7                     u5090:
  5968  0DC7                     l3888:
  5969                           
  5970                           ;PROYECTO.c: 494:                             hora_user3 = 2;
  5971  0DC7  3002               	movlw	2
  5972  0DC8  1283               	bcf	3,5	;RP0=0, select bank0
  5973  0DC9  1303               	bcf	3,6	;RP1=0, select bank0
  5974  0DCA  00B8               	movwf	??_main
  5975  0DCB  0838               	movf	??_main,w
  5976  0DCC  00B2               	movwf	_hora_user3
  5977                           
  5978                           ;PROYECTO.c: 495:                         }else if(hora_nueva == 'd'){
  5979  0DCD  2EEC               	goto	l3978
  5980  0DCE                     l3890:
  5981  0DCE  3064               	movlw	100
  5982  0DCF  0670               	xorwf	_hora_nueva,w
  5983  0DD0  1D03               	btfss	3,2
  5984  0DD1  2DD3               	goto	u5101
  5985  0DD2  2DD4               	goto	u5100
  5986  0DD3                     u5101:
  5987  0DD3  2DDB               	goto	l3894
  5988  0DD4                     u5100:
  5989  0DD4                     l3892:
  5990                           
  5991                           ;PROYECTO.c: 496:                             hora_user3 = 3;
  5992  0DD4  3003               	movlw	3
  5993  0DD5  1283               	bcf	3,5	;RP0=0, select bank0
  5994  0DD6  1303               	bcf	3,6	;RP1=0, select bank0
  5995  0DD7  00B8               	movwf	??_main
  5996  0DD8  0838               	movf	??_main,w
  5997  0DD9  00B2               	movwf	_hora_user3
  5998                           
  5999                           ;PROYECTO.c: 497:                         }else if(hora_nueva == 'e'){
  6000  0DDA  2EEC               	goto	l3978
  6001  0DDB                     l3894:
  6002  0DDB  3065               	movlw	101
  6003  0DDC  0670               	xorwf	_hora_nueva,w
  6004  0DDD  1D03               	btfss	3,2
  6005  0DDE  2DE0               	goto	u5111
  6006  0DDF  2DE1               	goto	u5110
  6007  0DE0                     u5111:
  6008  0DE0  2DE8               	goto	l3898
  6009  0DE1                     u5110:
  6010  0DE1                     l3896:
  6011                           
  6012                           ;PROYECTO.c: 498:                             hora_user3 = 4;
  6013  0DE1  3004               	movlw	4
  6014  0DE2  1283               	bcf	3,5	;RP0=0, select bank0
  6015  0DE3  1303               	bcf	3,6	;RP1=0, select bank0
  6016  0DE4  00B8               	movwf	??_main
  6017  0DE5  0838               	movf	??_main,w
  6018  0DE6  00B2               	movwf	_hora_user3
  6019                           
  6020                           ;PROYECTO.c: 499:                         }else if(hora_nueva == 'f'){
  6021  0DE7  2EEC               	goto	l3978
  6022  0DE8                     l3898:
  6023  0DE8  3066               	movlw	102
  6024  0DE9  0670               	xorwf	_hora_nueva,w
  6025  0DEA  1D03               	btfss	3,2
  6026  0DEB  2DED               	goto	u5121
  6027  0DEC  2DEE               	goto	u5120
  6028  0DED                     u5121:
  6029  0DED  2DF5               	goto	l3902
  6030  0DEE                     u5120:
  6031  0DEE                     l3900:
  6032                           
  6033                           ;PROYECTO.c: 500:                             hora_user3 = 5;
  6034  0DEE  3005               	movlw	5
  6035  0DEF  1283               	bcf	3,5	;RP0=0, select bank0
  6036  0DF0  1303               	bcf	3,6	;RP1=0, select bank0
  6037  0DF1  00B8               	movwf	??_main
  6038  0DF2  0838               	movf	??_main,w
  6039  0DF3  00B2               	movwf	_hora_user3
  6040                           
  6041                           ;PROYECTO.c: 501:                         }else if(hora_nueva == 'g'){
  6042  0DF4  2EEC               	goto	l3978
  6043  0DF5                     l3902:
  6044  0DF5  3067               	movlw	103
  6045  0DF6  0670               	xorwf	_hora_nueva,w
  6046  0DF7  1D03               	btfss	3,2
  6047  0DF8  2DFA               	goto	u5131
  6048  0DF9  2DFB               	goto	u5130
  6049  0DFA                     u5131:
  6050  0DFA  2E02               	goto	l3906
  6051  0DFB                     u5130:
  6052  0DFB                     l3904:
  6053                           
  6054                           ;PROYECTO.c: 502:                             hora_user3 = 6;
  6055  0DFB  3006               	movlw	6
  6056  0DFC  1283               	bcf	3,5	;RP0=0, select bank0
  6057  0DFD  1303               	bcf	3,6	;RP1=0, select bank0
  6058  0DFE  00B8               	movwf	??_main
  6059  0DFF  0838               	movf	??_main,w
  6060  0E00  00B2               	movwf	_hora_user3
  6061                           
  6062                           ;PROYECTO.c: 503:                         }else if(hora_nueva == 'h'){
  6063  0E01  2EEC               	goto	l3978
  6064  0E02                     l3906:
  6065  0E02  3068               	movlw	104
  6066  0E03  0670               	xorwf	_hora_nueva,w
  6067  0E04  1D03               	btfss	3,2
  6068  0E05  2E07               	goto	u5141
  6069  0E06  2E08               	goto	u5140
  6070  0E07                     u5141:
  6071  0E07  2E0F               	goto	l3910
  6072  0E08                     u5140:
  6073  0E08                     l3908:
  6074                           
  6075                           ;PROYECTO.c: 504:                             hora_user3 = 7;
  6076  0E08  3007               	movlw	7
  6077  0E09  1283               	bcf	3,5	;RP0=0, select bank0
  6078  0E0A  1303               	bcf	3,6	;RP1=0, select bank0
  6079  0E0B  00B8               	movwf	??_main
  6080  0E0C  0838               	movf	??_main,w
  6081  0E0D  00B2               	movwf	_hora_user3
  6082                           
  6083                           ;PROYECTO.c: 505:                         }else if(hora_nueva == 'i'){
  6084  0E0E  2EEC               	goto	l3978
  6085  0E0F                     l3910:
  6086  0E0F  3069               	movlw	105
  6087  0E10  0670               	xorwf	_hora_nueva,w
  6088  0E11  1D03               	btfss	3,2
  6089  0E12  2E14               	goto	u5151
  6090  0E13  2E15               	goto	u5150
  6091  0E14                     u5151:
  6092  0E14  2E1C               	goto	l3914
  6093  0E15                     u5150:
  6094  0E15                     l3912:
  6095                           
  6096                           ;PROYECTO.c: 506:                             hora_user3 = 8;
  6097  0E15  3008               	movlw	8
  6098  0E16  1283               	bcf	3,5	;RP0=0, select bank0
  6099  0E17  1303               	bcf	3,6	;RP1=0, select bank0
  6100  0E18  00B8               	movwf	??_main
  6101  0E19  0838               	movf	??_main,w
  6102  0E1A  00B2               	movwf	_hora_user3
  6103                           
  6104                           ;PROYECTO.c: 507:                         }else if(hora_nueva == 'j'){
  6105  0E1B  2EEC               	goto	l3978
  6106  0E1C                     l3914:
  6107  0E1C  306A               	movlw	106
  6108  0E1D  0670               	xorwf	_hora_nueva,w
  6109  0E1E  1D03               	btfss	3,2
  6110  0E1F  2E21               	goto	u5161
  6111  0E20  2E22               	goto	u5160
  6112  0E21                     u5161:
  6113  0E21  2E29               	goto	l3918
  6114  0E22                     u5160:
  6115  0E22                     l3916:
  6116                           
  6117                           ;PROYECTO.c: 508:                             hora_user3 = 9;
  6118  0E22  3009               	movlw	9
  6119  0E23  1283               	bcf	3,5	;RP0=0, select bank0
  6120  0E24  1303               	bcf	3,6	;RP1=0, select bank0
  6121  0E25  00B8               	movwf	??_main
  6122  0E26  0838               	movf	??_main,w
  6123  0E27  00B2               	movwf	_hora_user3
  6124                           
  6125                           ;PROYECTO.c: 509:                         }else if(hora_nueva == 'k'){
  6126  0E28  2EEC               	goto	l3978
  6127  0E29                     l3918:
  6128  0E29  306B               	movlw	107
  6129  0E2A  0670               	xorwf	_hora_nueva,w
  6130  0E2B  1D03               	btfss	3,2
  6131  0E2C  2E2E               	goto	u5171
  6132  0E2D  2E2F               	goto	u5170
  6133  0E2E                     u5171:
  6134  0E2E  2E36               	goto	l3922
  6135  0E2F                     u5170:
  6136  0E2F                     l3920:
  6137                           
  6138                           ;PROYECTO.c: 510:                             hora_user3 = 10;
  6139  0E2F  300A               	movlw	10
  6140  0E30  1283               	bcf	3,5	;RP0=0, select bank0
  6141  0E31  1303               	bcf	3,6	;RP1=0, select bank0
  6142  0E32  00B8               	movwf	??_main
  6143  0E33  0838               	movf	??_main,w
  6144  0E34  00B2               	movwf	_hora_user3
  6145                           
  6146                           ;PROYECTO.c: 511:                         }else if(hora_nueva == 'l'){
  6147  0E35  2EEC               	goto	l3978
  6148  0E36                     l3922:
  6149  0E36  306C               	movlw	108
  6150  0E37  0670               	xorwf	_hora_nueva,w
  6151  0E38  1D03               	btfss	3,2
  6152  0E39  2E3B               	goto	u5181
  6153  0E3A  2E3C               	goto	u5180
  6154  0E3B                     u5181:
  6155  0E3B  2E43               	goto	l3926
  6156  0E3C                     u5180:
  6157  0E3C                     l3924:
  6158                           
  6159                           ;PROYECTO.c: 512:                             hora_user3 = 11;
  6160  0E3C  300B               	movlw	11
  6161  0E3D  1283               	bcf	3,5	;RP0=0, select bank0
  6162  0E3E  1303               	bcf	3,6	;RP1=0, select bank0
  6163  0E3F  00B8               	movwf	??_main
  6164  0E40  0838               	movf	??_main,w
  6165  0E41  00B2               	movwf	_hora_user3
  6166                           
  6167                           ;PROYECTO.c: 513:                         }else if(hora_nueva == 'm'){
  6168  0E42  2EEC               	goto	l3978
  6169  0E43                     l3926:
  6170  0E43  306D               	movlw	109
  6171  0E44  0670               	xorwf	_hora_nueva,w
  6172  0E45  1D03               	btfss	3,2
  6173  0E46  2E48               	goto	u5191
  6174  0E47  2E49               	goto	u5190
  6175  0E48                     u5191:
  6176  0E48  2E50               	goto	l3930
  6177  0E49                     u5190:
  6178  0E49                     l3928:
  6179                           
  6180                           ;PROYECTO.c: 514:                             hora_user3 = 12;
  6181  0E49  300C               	movlw	12
  6182  0E4A  1283               	bcf	3,5	;RP0=0, select bank0
  6183  0E4B  1303               	bcf	3,6	;RP1=0, select bank0
  6184  0E4C  00B8               	movwf	??_main
  6185  0E4D  0838               	movf	??_main,w
  6186  0E4E  00B2               	movwf	_hora_user3
  6187                           
  6188                           ;PROYECTO.c: 515:                         }else if(hora_nueva == 'n'){
  6189  0E4F  2EEC               	goto	l3978
  6190  0E50                     l3930:
  6191  0E50  306E               	movlw	110
  6192  0E51  0670               	xorwf	_hora_nueva,w
  6193  0E52  1D03               	btfss	3,2
  6194  0E53  2E55               	goto	u5201
  6195  0E54  2E56               	goto	u5200
  6196  0E55                     u5201:
  6197  0E55  2E5D               	goto	l3934
  6198  0E56                     u5200:
  6199  0E56                     l3932:
  6200                           
  6201                           ;PROYECTO.c: 516:                             hora_user3 = 13;
  6202  0E56  300D               	movlw	13
  6203  0E57  1283               	bcf	3,5	;RP0=0, select bank0
  6204  0E58  1303               	bcf	3,6	;RP1=0, select bank0
  6205  0E59  00B8               	movwf	??_main
  6206  0E5A  0838               	movf	??_main,w
  6207  0E5B  00B2               	movwf	_hora_user3
  6208                           
  6209                           ;PROYECTO.c: 517:                         }else if(hora_nueva == 'o'){
  6210  0E5C  2EEC               	goto	l3978
  6211  0E5D                     l3934:
  6212  0E5D  306F               	movlw	111
  6213  0E5E  0670               	xorwf	_hora_nueva,w
  6214  0E5F  1D03               	btfss	3,2
  6215  0E60  2E62               	goto	u5211
  6216  0E61  2E63               	goto	u5210
  6217  0E62                     u5211:
  6218  0E62  2E6A               	goto	l3938
  6219  0E63                     u5210:
  6220  0E63                     l3936:
  6221                           
  6222                           ;PROYECTO.c: 518:                             hora_user3 = 14;
  6223  0E63  300E               	movlw	14
  6224  0E64  1283               	bcf	3,5	;RP0=0, select bank0
  6225  0E65  1303               	bcf	3,6	;RP1=0, select bank0
  6226  0E66  00B8               	movwf	??_main
  6227  0E67  0838               	movf	??_main,w
  6228  0E68  00B2               	movwf	_hora_user3
  6229                           
  6230                           ;PROYECTO.c: 519:                         }else if(hora_nueva == 'p'){
  6231  0E69  2EEC               	goto	l3978
  6232  0E6A                     l3938:
  6233  0E6A  3070               	movlw	112
  6234  0E6B  0670               	xorwf	_hora_nueva,w
  6235  0E6C  1D03               	btfss	3,2
  6236  0E6D  2E6F               	goto	u5221
  6237  0E6E  2E70               	goto	u5220
  6238  0E6F                     u5221:
  6239  0E6F  2E77               	goto	l3942
  6240  0E70                     u5220:
  6241  0E70                     l3940:
  6242                           
  6243                           ;PROYECTO.c: 520:                             hora_user3 = 15;
  6244  0E70  300F               	movlw	15
  6245  0E71  1283               	bcf	3,5	;RP0=0, select bank0
  6246  0E72  1303               	bcf	3,6	;RP1=0, select bank0
  6247  0E73  00B8               	movwf	??_main
  6248  0E74  0838               	movf	??_main,w
  6249  0E75  00B2               	movwf	_hora_user3
  6250                           
  6251                           ;PROYECTO.c: 521:                         }else if(hora_nueva == 'q'){
  6252  0E76  2EEC               	goto	l3978
  6253  0E77                     l3942:
  6254  0E77  3071               	movlw	113
  6255  0E78  0670               	xorwf	_hora_nueva,w
  6256  0E79  1D03               	btfss	3,2
  6257  0E7A  2E7C               	goto	u5231
  6258  0E7B  2E7D               	goto	u5230
  6259  0E7C                     u5231:
  6260  0E7C  2E84               	goto	l3946
  6261  0E7D                     u5230:
  6262  0E7D                     l3944:
  6263                           
  6264                           ;PROYECTO.c: 522:                             hora_user3 = 16;
  6265  0E7D  3010               	movlw	16
  6266  0E7E  1283               	bcf	3,5	;RP0=0, select bank0
  6267  0E7F  1303               	bcf	3,6	;RP1=0, select bank0
  6268  0E80  00B8               	movwf	??_main
  6269  0E81  0838               	movf	??_main,w
  6270  0E82  00B2               	movwf	_hora_user3
  6271                           
  6272                           ;PROYECTO.c: 523:                         }else if(hora_nueva == 'r'){
  6273  0E83  2EEC               	goto	l3978
  6274  0E84                     l3946:
  6275  0E84  3072               	movlw	114
  6276  0E85  0670               	xorwf	_hora_nueva,w
  6277  0E86  1D03               	btfss	3,2
  6278  0E87  2E89               	goto	u5241
  6279  0E88  2E8A               	goto	u5240
  6280  0E89                     u5241:
  6281  0E89  2E91               	goto	l3950
  6282  0E8A                     u5240:
  6283  0E8A                     l3948:
  6284                           
  6285                           ;PROYECTO.c: 524:                             hora_user3 = 17;
  6286  0E8A  3011               	movlw	17
  6287  0E8B  1283               	bcf	3,5	;RP0=0, select bank0
  6288  0E8C  1303               	bcf	3,6	;RP1=0, select bank0
  6289  0E8D  00B8               	movwf	??_main
  6290  0E8E  0838               	movf	??_main,w
  6291  0E8F  00B2               	movwf	_hora_user3
  6292                           
  6293                           ;PROYECTO.c: 525:                         }else if(hora_nueva == 's'){
  6294  0E90  2EEC               	goto	l3978
  6295  0E91                     l3950:
  6296  0E91  3073               	movlw	115
  6297  0E92  0670               	xorwf	_hora_nueva,w
  6298  0E93  1D03               	btfss	3,2
  6299  0E94  2E96               	goto	u5251
  6300  0E95  2E97               	goto	u5250
  6301  0E96                     u5251:
  6302  0E96  2E9E               	goto	l3954
  6303  0E97                     u5250:
  6304  0E97                     l3952:
  6305                           
  6306                           ;PROYECTO.c: 526:                             hora_user3 = 18;
  6307  0E97  3012               	movlw	18
  6308  0E98  1283               	bcf	3,5	;RP0=0, select bank0
  6309  0E99  1303               	bcf	3,6	;RP1=0, select bank0
  6310  0E9A  00B8               	movwf	??_main
  6311  0E9B  0838               	movf	??_main,w
  6312  0E9C  00B2               	movwf	_hora_user3
  6313                           
  6314                           ;PROYECTO.c: 527:                         }else if(hora_nueva == 't'){
  6315  0E9D  2EEC               	goto	l3978
  6316  0E9E                     l3954:
  6317  0E9E  3074               	movlw	116
  6318  0E9F  0670               	xorwf	_hora_nueva,w
  6319  0EA0  1D03               	btfss	3,2
  6320  0EA1  2EA3               	goto	u5261
  6321  0EA2  2EA4               	goto	u5260
  6322  0EA3                     u5261:
  6323  0EA3  2EAB               	goto	l3958
  6324  0EA4                     u5260:
  6325  0EA4                     l3956:
  6326                           
  6327                           ;PROYECTO.c: 528:                             hora_user3 = 19;
  6328  0EA4  3013               	movlw	19
  6329  0EA5  1283               	bcf	3,5	;RP0=0, select bank0
  6330  0EA6  1303               	bcf	3,6	;RP1=0, select bank0
  6331  0EA7  00B8               	movwf	??_main
  6332  0EA8  0838               	movf	??_main,w
  6333  0EA9  00B2               	movwf	_hora_user3
  6334                           
  6335                           ;PROYECTO.c: 529:                         }else if(hora_nueva == 'u'){
  6336  0EAA  2EEC               	goto	l3978
  6337  0EAB                     l3958:
  6338  0EAB  3075               	movlw	117
  6339  0EAC  0670               	xorwf	_hora_nueva,w
  6340  0EAD  1D03               	btfss	3,2
  6341  0EAE  2EB0               	goto	u5271
  6342  0EAF  2EB1               	goto	u5270
  6343  0EB0                     u5271:
  6344  0EB0  2EB8               	goto	l3962
  6345  0EB1                     u5270:
  6346  0EB1                     l3960:
  6347                           
  6348                           ;PROYECTO.c: 530:                             hora_user3 = 20;
  6349  0EB1  3014               	movlw	20
  6350  0EB2  1283               	bcf	3,5	;RP0=0, select bank0
  6351  0EB3  1303               	bcf	3,6	;RP1=0, select bank0
  6352  0EB4  00B8               	movwf	??_main
  6353  0EB5  0838               	movf	??_main,w
  6354  0EB6  00B2               	movwf	_hora_user3
  6355                           
  6356                           ;PROYECTO.c: 531:                         }else if(hora_nueva == 'v'){
  6357  0EB7  2EEC               	goto	l3978
  6358  0EB8                     l3962:
  6359  0EB8  3076               	movlw	118
  6360  0EB9  0670               	xorwf	_hora_nueva,w
  6361  0EBA  1D03               	btfss	3,2
  6362  0EBB  2EBD               	goto	u5281
  6363  0EBC  2EBE               	goto	u5280
  6364  0EBD                     u5281:
  6365  0EBD  2EC5               	goto	l3966
  6366  0EBE                     u5280:
  6367  0EBE                     l3964:
  6368                           
  6369                           ;PROYECTO.c: 532:                             hora_user3 = 21;
  6370  0EBE  3015               	movlw	21
  6371  0EBF  1283               	bcf	3,5	;RP0=0, select bank0
  6372  0EC0  1303               	bcf	3,6	;RP1=0, select bank0
  6373  0EC1  00B8               	movwf	??_main
  6374  0EC2  0838               	movf	??_main,w
  6375  0EC3  00B2               	movwf	_hora_user3
  6376                           
  6377                           ;PROYECTO.c: 533:                         }else if(hora_nueva == 'w'){
  6378  0EC4  2EEC               	goto	l3978
  6379  0EC5                     l3966:
  6380  0EC5  3077               	movlw	119
  6381  0EC6  0670               	xorwf	_hora_nueva,w
  6382  0EC7  1D03               	btfss	3,2
  6383  0EC8  2ECA               	goto	u5291
  6384  0EC9  2ECB               	goto	u5290
  6385  0ECA                     u5291:
  6386  0ECA  2ED2               	goto	l3970
  6387  0ECB                     u5290:
  6388  0ECB                     l3968:
  6389                           
  6390                           ;PROYECTO.c: 534:                             hora_user3 = 22;
  6391  0ECB  3016               	movlw	22
  6392  0ECC  1283               	bcf	3,5	;RP0=0, select bank0
  6393  0ECD  1303               	bcf	3,6	;RP1=0, select bank0
  6394  0ECE  00B8               	movwf	??_main
  6395  0ECF  0838               	movf	??_main,w
  6396  0ED0  00B2               	movwf	_hora_user3
  6397                           
  6398                           ;PROYECTO.c: 535:                         }else if(hora_nueva == 'x'){
  6399  0ED1  2EEC               	goto	l3978
  6400  0ED2                     l3970:
  6401  0ED2  3078               	movlw	120
  6402  0ED3  0670               	xorwf	_hora_nueva,w
  6403  0ED4  1D03               	btfss	3,2
  6404  0ED5  2ED7               	goto	u5301
  6405  0ED6  2ED8               	goto	u5300
  6406  0ED7                     u5301:
  6407  0ED7  2EDF               	goto	l3974
  6408  0ED8                     u5300:
  6409  0ED8                     l3972:
  6410                           
  6411                           ;PROYECTO.c: 536:                             hora_user3 = 23;
  6412  0ED8  3017               	movlw	23
  6413  0ED9  1283               	bcf	3,5	;RP0=0, select bank0
  6414  0EDA  1303               	bcf	3,6	;RP1=0, select bank0
  6415  0EDB  00B8               	movwf	??_main
  6416  0EDC  0838               	movf	??_main,w
  6417  0EDD  00B2               	movwf	_hora_user3
  6418                           
  6419                           ;PROYECTO.c: 537:                         }else if(hora_nueva == 'y'){
  6420  0EDE  2EEC               	goto	l3978
  6421  0EDF                     l3974:
  6422  0EDF  3079               	movlw	121
  6423  0EE0  0670               	xorwf	_hora_nueva,w
  6424  0EE1  1D03               	btfss	3,2
  6425  0EE2  2EE4               	goto	u5311
  6426  0EE3  2EE5               	goto	u5310
  6427  0EE4                     u5311:
  6428  0EE4  2EEC               	goto	l375
  6429  0EE5                     u5310:
  6430  0EE5                     l3976:
  6431                           
  6432                           ;PROYECTO.c: 538:                             hora_user3 = 24;
  6433  0EE5  3018               	movlw	24
  6434  0EE6  1283               	bcf	3,5	;RP0=0, select bank0
  6435  0EE7  1303               	bcf	3,6	;RP1=0, select bank0
  6436  0EE8  00B8               	movwf	??_main
  6437  0EE9  0838               	movf	??_main,w
  6438  0EEA  00B2               	movwf	_hora_user3
  6439  0EEB  2EEC               	goto	l3978
  6440  0EEC                     l375:
  6441  0EEC                     l3978:
  6442                           
  6443                           ;PROYECTO.c: 543:                 USART_Cadena(" Ingresá la letra de los minutos nuevos
      +                            \r");
  6444  0EEC  30C4               	movlw	low (STR_34| (0+32768))
  6445  0EED  00F9               	movwf	USART_Cadena@str
  6446  0EEE  3090               	movlw	high (STR_34| (0+32768))
  6447  0EEF  00FA               	movwf	USART_Cadena@str+1
  6448  0EF0  120A  118A  2560  120A  158A  	fcall	_USART_Cadena
  6449                           
  6450                           ;PROYECTO.c: 544:                 USART_Cadena(" a.0  b.15   c.30   d.45   e.55   \r");
  6451  0EF5  3067               	movlw	low (STR_35| (0+32768))
  6452  0EF6  00F9               	movwf	USART_Cadena@str
  6453  0EF7  3091               	movlw	high (STR_35| (0+32768))
  6454  0EF8  00FA               	movwf	USART_Cadena@str+1
  6455  0EF9  120A  118A  2560  120A  158A  	fcall	_USART_Cadena
  6456  0EFE                     l3980:
  6457                           
  6458                           ;PROYECTO.c: 546:                     if (PIR1bits.RCIF == 1){
  6459  0EFE  1283               	bcf	3,5	;RP0=0, select bank0
  6460  0EFF  1303               	bcf	3,6	;RP1=0, select bank0
  6461  0F00  1E8C               	btfss	12,5	;volatile
  6462  0F01  2F03               	goto	u5321
  6463  0F02  2F04               	goto	u5320
  6464  0F03                     u5321:
  6465  0F03  2EFE               	goto	l3980
  6466  0F04                     u5320:
  6467  0F04                     l3982:
  6468                           
  6469                           ;PROYECTO.c: 547:                         USART_Cadena(" \r");
  6470  0F04  3088               	movlw	low ((STR_35+33)| (0+32768))
  6471  0F05  00F9               	movwf	USART_Cadena@str
  6472  0F06  3091               	movlw	high ((STR_35+33)| (0+32768))
  6473  0F07  00FA               	movwf	USART_Cadena@str+1
  6474  0F08  120A  118A  2560  120A  158A  	fcall	_USART_Cadena
  6475  0F0D                     l3984:
  6476                           
  6477                           ;PROYECTO.c: 548:                         hora_nueva = USART_Rx();
  6478  0F0D  120A  118A  25B3  120A  158A  	fcall	_USART_Rx
  6479  0F12  1283               	bcf	3,5	;RP0=0, select bank0
  6480  0F13  1303               	bcf	3,6	;RP1=0, select bank0
  6481  0F14  00B8               	movwf	??_main
  6482  0F15  0838               	movf	??_main,w
  6483  0F16  00F0               	movwf	_hora_nueva
  6484  0F17                     l3986:
  6485                           
  6486                           ;PROYECTO.c: 549:                         USART_Cadena(" \r");
  6487  0F17  3088               	movlw	low ((STR_35+33)| (0+32768))
  6488  0F18  00F9               	movwf	USART_Cadena@str
  6489  0F19  3091               	movlw	high ((STR_35+33)| (0+32768))
  6490  0F1A  00FA               	movwf	USART_Cadena@str+1
  6491  0F1B  120A  118A  2560  120A  158A  	fcall	_USART_Cadena
  6492  0F20                     l3988:
  6493                           
  6494                           ;PROYECTO.c: 550:                         if(hora_nueva == 'a'){
  6495  0F20  3061               	movlw	97
  6496  0F21  0670               	xorwf	_hora_nueva,w
  6497  0F22  1D03               	btfss	3,2
  6498  0F23  2F25               	goto	u5331
  6499  0F24  2F26               	goto	u5330
  6500  0F25                     u5331:
  6501  0F25  2F2A               	goto	l3992
  6502  0F26                     u5330:
  6503  0F26                     l3990:
  6504                           
  6505                           ;PROYECTO.c: 551:                             min_user3 = 0;
  6506  0F26  1283               	bcf	3,5	;RP0=0, select bank0
  6507  0F27  1303               	bcf	3,6	;RP1=0, select bank0
  6508  0F28  01B4               	clrf	_min_user3
  6509                           
  6510                           ;PROYECTO.c: 552:                         }else if(hora_nueva == 'b'){
  6511  0F29  2F5E               	goto	l4008
  6512  0F2A                     l3992:
  6513  0F2A  3062               	movlw	98
  6514  0F2B  0670               	xorwf	_hora_nueva,w
  6515  0F2C  1D03               	btfss	3,2
  6516  0F2D  2F2F               	goto	u5341
  6517  0F2E  2F30               	goto	u5340
  6518  0F2F                     u5341:
  6519  0F2F  2F37               	goto	l3996
  6520  0F30                     u5340:
  6521  0F30                     l3994:
  6522                           
  6523                           ;PROYECTO.c: 553:                             min_user3 = 15;
  6524  0F30  300F               	movlw	15
  6525  0F31  1283               	bcf	3,5	;RP0=0, select bank0
  6526  0F32  1303               	bcf	3,6	;RP1=0, select bank0
  6527  0F33  00B8               	movwf	??_main
  6528  0F34  0838               	movf	??_main,w
  6529  0F35  00B4               	movwf	_min_user3
  6530                           
  6531                           ;PROYECTO.c: 554:                         }else if(hora_nueva == 'c'){
  6532  0F36  2F5E               	goto	l4008
  6533  0F37                     l3996:
  6534  0F37  3063               	movlw	99
  6535  0F38  0670               	xorwf	_hora_nueva,w
  6536  0F39  1D03               	btfss	3,2
  6537  0F3A  2F3C               	goto	u5351
  6538  0F3B  2F3D               	goto	u5350
  6539  0F3C                     u5351:
  6540  0F3C  2F44               	goto	l4000
  6541  0F3D                     u5350:
  6542  0F3D                     l3998:
  6543                           
  6544                           ;PROYECTO.c: 555:                             min_user3 = 30;
  6545  0F3D  301E               	movlw	30
  6546  0F3E  1283               	bcf	3,5	;RP0=0, select bank0
  6547  0F3F  1303               	bcf	3,6	;RP1=0, select bank0
  6548  0F40  00B8               	movwf	??_main
  6549  0F41  0838               	movf	??_main,w
  6550  0F42  00B4               	movwf	_min_user3
  6551                           
  6552                           ;PROYECTO.c: 556:                         }else if(hora_nueva == 'd'){
  6553  0F43  2F5E               	goto	l4008
  6554  0F44                     l4000:
  6555  0F44  3064               	movlw	100
  6556  0F45  0670               	xorwf	_hora_nueva,w
  6557  0F46  1D03               	btfss	3,2
  6558  0F47  2F49               	goto	u5361
  6559  0F48  2F4A               	goto	u5360
  6560  0F49                     u5361:
  6561  0F49  2F51               	goto	l4004
  6562  0F4A                     u5360:
  6563  0F4A                     l4002:
  6564                           
  6565                           ;PROYECTO.c: 557:                             min_user3 = 45;
  6566  0F4A  302D               	movlw	45
  6567  0F4B  1283               	bcf	3,5	;RP0=0, select bank0
  6568  0F4C  1303               	bcf	3,6	;RP1=0, select bank0
  6569  0F4D  00B8               	movwf	??_main
  6570  0F4E  0838               	movf	??_main,w
  6571  0F4F  00B4               	movwf	_min_user3
  6572                           
  6573                           ;PROYECTO.c: 558:                         }else if(hora_nueva == 'e'){
  6574  0F50  2F5E               	goto	l4008
  6575  0F51                     l4004:
  6576  0F51  3065               	movlw	101
  6577  0F52  0670               	xorwf	_hora_nueva,w
  6578  0F53  1D03               	btfss	3,2
  6579  0F54  2F56               	goto	u5371
  6580  0F55  2F57               	goto	u5370
  6581  0F56                     u5371:
  6582  0F56  2F5E               	goto	l388
  6583  0F57                     u5370:
  6584  0F57                     l4006:
  6585                           
  6586                           ;PROYECTO.c: 559:                             min_user3 = 55;
  6587  0F57  3037               	movlw	55
  6588  0F58  1283               	bcf	3,5	;RP0=0, select bank0
  6589  0F59  1303               	bcf	3,6	;RP1=0, select bank0
  6590  0F5A  00B8               	movwf	??_main
  6591  0F5B  0838               	movf	??_main,w
  6592  0F5C  00B4               	movwf	_min_user3
  6593  0F5D  2F5E               	goto	l4008
  6594  0F5E                     l388:
  6595  0F5E                     l4008:
  6596                           
  6597                           ;PROYECTO.c: 566:                 USART_Cadena(" Actualmente se cuenta con 3 medicamento
      +                          s\r");
  6598  0F5E  30F0               	movlw	low (STR_38| (0+32768))
  6599  0F5F  00F9               	movwf	USART_Cadena@str
  6600  0F60  3090               	movlw	high (STR_38| (0+32768))
  6601  0F61  00FA               	movwf	USART_Cadena@str+1
  6602  0F62  120A  118A  2560  120A  158A  	fcall	_USART_Cadena
  6603                           
  6604                           ;PROYECTO.c: 567:                 USART_Cadena(" presione el número de medicamento a gu
      +                          ardar \r");
  6605  0F67  3034               	movlw	low (STR_39| (0+32768))
  6606  0F68  00F9               	movwf	USART_Cadena@str
  6607  0F69  3090               	movlw	high (STR_39| (0+32768))
  6608  0F6A  00FA               	movwf	USART_Cadena@str+1
  6609  0F6B  120A  118A  2560  120A  158A  	fcall	_USART_Cadena
  6610                           
  6611                           ;PROYECTO.c: 568:                 USART_Cadena(" 1.AFC    2.FFT   3.DHL \r");
  6612  0F70  30C8               	movlw	low (STR_40| (0+32768))
  6613  0F71  00F9               	movwf	USART_Cadena@str
  6614  0F72  3092               	movlw	high (STR_40| (0+32768))
  6615  0F73  00FA               	movwf	USART_Cadena@str+1
  6616  0F74  120A  118A  2560  120A  158A  	fcall	_USART_Cadena
  6617  0F79                     l4010:
  6618                           
  6619                           ;PROYECTO.c: 570:                     if (PIR1bits.RCIF == 1){
  6620  0F79  1283               	bcf	3,5	;RP0=0, select bank0
  6621  0F7A  1303               	bcf	3,6	;RP1=0, select bank0
  6622  0F7B  1E8C               	btfss	12,5	;volatile
  6623  0F7C  2F7E               	goto	u5381
  6624  0F7D  2F7F               	goto	u5380
  6625  0F7E                     u5381:
  6626  0F7E  2F79               	goto	l4010
  6627  0F7F                     u5380:
  6628  0F7F                     l4012:
  6629                           
  6630                           ;PROYECTO.c: 571:                         hora_nueva = USART_Rx();
  6631  0F7F  120A  118A  25B3  120A  158A  	fcall	_USART_Rx
  6632  0F84  1283               	bcf	3,5	;RP0=0, select bank0
  6633  0F85  1303               	bcf	3,6	;RP1=0, select bank0
  6634  0F86  00B8               	movwf	??_main
  6635  0F87  0838               	movf	??_main,w
  6636  0F88  00F0               	movwf	_hora_nueva
  6637  0F89                     l4014:
  6638                           
  6639                           ;PROYECTO.c: 572:                         if(hora_nueva == '1'){
  6640  0F89  3031               	movlw	49
  6641  0F8A  0670               	xorwf	_hora_nueva,w
  6642  0F8B  1D03               	btfss	3,2
  6643  0F8C  2F8E               	goto	u5391
  6644  0F8D  2F8F               	goto	u5390
  6645  0F8E                     u5391:
  6646  0F8E  2F98               	goto	l4018
  6647  0F8F                     u5390:
  6648  0F8F                     l4016:
  6649                           
  6650                           ;PROYECTO.c: 573:                             me_1_us3_h = hora_user1;
  6651  0F8F  0871               	movf	_hora_user1,w
  6652  0F90  00B8               	movwf	??_main
  6653  0F91  0838               	movf	??_main,w
  6654  0F92  00AB               	movwf	_me_1_us3_h
  6655                           
  6656                           ;PROYECTO.c: 574:                             me_1_us3_m = min_user1;
  6657  0F93  0872               	movf	_min_user1,w
  6658  0F94  00B8               	movwf	??_main
  6659  0F95  0838               	movf	??_main,w
  6660  0F96  00A2               	movwf	_me_1_us3_m
  6661                           
  6662                           ;PROYECTO.c: 575:                         }else if(hora_nueva == '2'){
  6663  0F97  29B3               	goto	l3638
  6664  0F98                     l4018:
  6665  0F98  3032               	movlw	50
  6666  0F99  0670               	xorwf	_hora_nueva,w
  6667  0F9A  1D03               	btfss	3,2
  6668  0F9B  2F9D               	goto	u5401
  6669  0F9C  2F9E               	goto	u5400
  6670  0F9D                     u5401:
  6671  0F9D  2FA7               	goto	l4022
  6672  0F9E                     u5400:
  6673  0F9E                     l4020:
  6674                           
  6675                           ;PROYECTO.c: 576:                             me_2_us3_h = hora_user1;
  6676  0F9E  0871               	movf	_hora_user1,w
  6677  0F9F  00B8               	movwf	??_main
  6678  0FA0  0838               	movf	??_main,w
  6679  0FA1  00AA               	movwf	_me_2_us3_h
  6680                           
  6681                           ;PROYECTO.c: 577:                             me_2_us3_m = min_user1;
  6682  0FA2  0872               	movf	_min_user1,w
  6683  0FA3  00B8               	movwf	??_main
  6684  0FA4  0838               	movf	??_main,w
  6685  0FA5  00A1               	movwf	_me_2_us3_m
  6686                           
  6687                           ;PROYECTO.c: 578:                         }else if(hora_nueva == '3'){
  6688  0FA6  29B3               	goto	l3638
  6689  0FA7                     l4022:
  6690  0FA7  3033               	movlw	51
  6691  0FA8  0670               	xorwf	_hora_nueva,w
  6692  0FA9  1D03               	btfss	3,2
  6693  0FAA  2FAC               	goto	u5411
  6694  0FAB  2FAD               	goto	u5410
  6695  0FAC                     u5411:
  6696  0FAC  29B3               	goto	l3638
  6697  0FAD                     u5410:
  6698  0FAD                     l4024:
  6699                           
  6700                           ;PROYECTO.c: 579:                             me_3_us3_h = hora_user1;
  6701  0FAD  0871               	movf	_hora_user1,w
  6702  0FAE  00B8               	movwf	??_main
  6703  0FAF  0838               	movf	??_main,w
  6704  0FB0  00A9               	movwf	_me_3_us3_h
  6705                           
  6706                           ;PROYECTO.c: 580:                             me_3_us3_m = min_user1;
  6707  0FB1  0872               	movf	_min_user1,w
  6708  0FB2  00B8               	movwf	??_main
  6709  0FB3  0838               	movf	??_main,w
  6710  0FB4  00A0               	movwf	_me_3_us3_m
  6711  0FB5  29B3               	goto	l3638
  6712  0FB6                     l4028:
  6713  0FB6  0837               	movf	_valor,w
  6714  0FB7  00B8               	movwf	??_main
  6715  0FB8  01B9               	clrf	??_main+1
  6716                           
  6717                           ; Switch on 2 bytes has been partitioned into a top level switch of size 1, and 1 sub-sw
      +                          itches
  6718                           ; Switch size 1, requested type "simple"
  6719                           ; Number of cases is 1, Range of values is 0 to 0
  6720                           ; switch strategies available:
  6721                           ; Name         Instructions Cycles
  6722                           ; simple_byte            4     3 (average)
  6723                           ; direct_byte           11     8 (fixed)
  6724                           ; jumptable            260     6 (fixed)
  6725                           ;	Chosen strategy is simple_byte
  6726  0FB9  0839               	movf	??_main+1,w
  6727  0FBA  3A00               	xorlw	0	; case 0
  6728  0FBB  1903               	skipnz
  6729  0FBC  2FBE               	goto	l4120
  6730  0FBD  2FD2               	goto	l4030
  6731  0FBE                     l4120:
  6732                           
  6733                           ; Switch size 1, requested type "simple"
  6734                           ; Number of cases is 6, Range of values is 49 to 54
  6735                           ; switch strategies available:
  6736                           ; Name         Instructions Cycles
  6737                           ; simple_byte           19    10 (average)
  6738                           ; direct_byte           29    11 (fixed)
  6739                           ; jumptable            263     9 (fixed)
  6740                           ;	Chosen strategy is simple_byte
  6741  0FBE  0838               	movf	??_main,w
  6742  0FBF  3A31               	xorlw	49	; case 49
  6743  0FC0  1903               	skipnz
  6744  0FC1  2917               	goto	l3612
  6745  0FC2  3A03               	xorlw	3	; case 50
  6746  0FC3  1903               	skipnz
  6747  0FC4  29B8               	goto	l3640
  6748  0FC5  3A01               	xorlw	1	; case 51
  6749  0FC6  1903               	skipnz
  6750  0FC7  29ED               	goto	l3654
  6751  0FC8  3A07               	xorlw	7	; case 52
  6752  0FC9  1903               	skipnz
  6753  0FCA  2A22               	goto	l3668
  6754  0FCB  3A01               	xorlw	1	; case 53
  6755  0FCC  1903               	skipnz
  6756  0FCD  2B16               	goto	l3710
  6757  0FCE  3A03               	xorlw	3	; case 54
  6758  0FCF  1903               	skipnz
  6759  0FD0  2D66               	goto	l3868
  6760  0FD1  2FD2               	goto	l4030
  6761  0FD2                     l4030:
  6762                           
  6763                           ;PROYECTO.c: 590:        valor = '0';
  6764  0FD2  3030               	movlw	48
  6765  0FD3  00B8               	movwf	??_main
  6766  0FD4  0838               	movf	??_main,w
  6767  0FD5  00B7               	movwf	_valor
  6768  0FD6                     l4032:
  6769                           
  6770                           ;PROYECTO.c: 594:        if (!RB7){
  6771  0FD6  1B86               	btfsc	6,7	;volatile
  6772  0FD7  2FD9               	goto	u5421
  6773  0FD8  2FDA               	goto	u5420
  6774  0FD9                     u5421:
  6775  0FD9  2FE2               	goto	l4036
  6776  0FDA                     u5420:
  6777  0FDA                     l4034:
  6778                           
  6779                           ;PROYECTO.c: 595:            min_user3 = minuto;
  6780  0FDA  0874               	movf	_minuto,w
  6781  0FDB  00B8               	movwf	??_main
  6782  0FDC  0838               	movf	??_main,w
  6783  0FDD  00B4               	movwf	_min_user3
  6784                           
  6785                           ;PROYECTO.c: 596:            hora_user3 = hora;
  6786  0FDE  0875               	movf	_hora,w
  6787  0FDF  00B8               	movwf	??_main
  6788  0FE0  0838               	movf	??_main,w
  6789  0FE1  00B2               	movwf	_hora_user3
  6790  0FE2                     l4036:
  6791                           
  6792                           ;PROYECTO.c: 598:        if (!RB6){
  6793  0FE2  1B06               	btfsc	6,6	;volatile
  6794  0FE3  2FE5               	goto	u5431
  6795  0FE4  2FE6               	goto	u5430
  6796  0FE5                     u5431:
  6797  0FE5  2FEE               	goto	l4040
  6798  0FE6                     u5430:
  6799  0FE6                     l4038:
  6800                           
  6801                           ;PROYECTO.c: 599:            min_user2 = minuto;
  6802  0FE6  0874               	movf	_minuto,w
  6803  0FE7  00B8               	movwf	??_main
  6804  0FE8  0838               	movf	??_main,w
  6805  0FE9  00B5               	movwf	_min_user2
  6806                           
  6807                           ;PROYECTO.c: 600:            hora_user2 = hora;
  6808  0FEA  0875               	movf	_hora,w
  6809  0FEB  00B8               	movwf	??_main
  6810  0FEC  0838               	movf	??_main,w
  6811  0FED  00B3               	movwf	_hora_user2
  6812  0FEE                     l4040:
  6813                           
  6814                           ;PROYECTO.c: 602:        if (!RB5){
  6815  0FEE  1A86               	btfsc	6,5	;volatile
  6816  0FEF  2FF1               	goto	u5441
  6817  0FF0  2FF4               	goto	u5440
  6818  0FF1                     u5441:
  6819  0FF1  120A  118A  2A3F   	goto	l3378
  6820  0FF4                     u5440:
  6821  0FF4                     l4042:
  6822                           
  6823                           ;PROYECTO.c: 603:            min_user1 = minuto;
  6824  0FF4  0874               	movf	_minuto,w
  6825  0FF5  00B8               	movwf	??_main
  6826  0FF6  0838               	movf	??_main,w
  6827  0FF7  00F2               	movwf	_min_user1
  6828                           
  6829                           ;PROYECTO.c: 604:            hora_user1 = hora;
  6830  0FF8  0875               	movf	_hora,w
  6831  0FF9  00B8               	movwf	??_main
  6832  0FFA  0838               	movf	??_main,w
  6833  0FFB  00F1               	movwf	_hora_user1
  6834  0FFC  2FF1               	goto	u5441
  6835  0FFD  120A  118A  280C   	ljmp	start
  6836  1000                     __end_of_main:

Data Sizes:
    Strings     776
    Constant    0
    Data        0
    BSS         30
    Persistent  0
    Stack       0

Auto Spaces:
    Space          Size  Autos    Used
    COMMON           14      6      12
    BANK0            80      2      26
    BANK1            80      0       0
    BANK3            96      0       0
    BANK2            96      0       0

Pointer List with Targets:

    USART_Cadena@str	PTR unsigned char  size(2) Largest target is 52
		 -> STR_71(CODE[3]), STR_70(CODE[3]), STR_69(CODE[3]), STR_68(CODE[3]), 
		 -> STR_67(CODE[2]), STR_66(CODE[26]), STR_65(CODE[48]), STR_64(CODE[43]), 
		 -> STR_63(CODE[3]), STR_62(CODE[3]), STR_61(CODE[36]), STR_60(CODE[44]), 
		 -> STR_59(CODE[3]), STR_58(CODE[3]), STR_57(CODE[48]), STR_56(CODE[48]), 
		 -> STR_55(CODE[52]), STR_54(CODE[39]), STR_53(CODE[26]), STR_52(CODE[48]), 
		 -> STR_51(CODE[43]), STR_50(CODE[3]), STR_49(CODE[3]), STR_48(CODE[36]), 
		 -> STR_47(CODE[44]), STR_46(CODE[3]), STR_45(CODE[3]), STR_44(CODE[48]), 
		 -> STR_43(CODE[48]), STR_42(CODE[52]), STR_41(CODE[39]), STR_40(CODE[26]), 
		 -> STR_39(CODE[48]), STR_38(CODE[43]), STR_37(CODE[3]), STR_36(CODE[3]), 
		 -> STR_35(CODE[36]), STR_34(CODE[44]), STR_33(CODE[3]), STR_32(CODE[3]), 
		 -> STR_31(CODE[48]), STR_30(CODE[48]), STR_29(CODE[52]), STR_28(CODE[39]), 
		 -> STR_27(CODE[31]), STR_26(CODE[7]), STR_25(CODE[8]), STR_24(CODE[11]), 
		 -> STR_23(CODE[31]), STR_22(CODE[7]), STR_21(CODE[8]), STR_20(CODE[11]), 
		 -> STR_19(CODE[32]), STR_18(CODE[7]), STR_17(CODE[8]), STR_16(CODE[11]), 
		 -> STR_15(CODE[32]), STR_14(CODE[7]), STR_13(CODE[8]), STR_12(CODE[11]), 
		 -> STR_11(CODE[32]), STR_10(CODE[7]), STR_9(CODE[8]), STR_8(CODE[11]), 
		 -> STR_7(CODE[37]), STR_6(CODE[34]), STR_5(CODE[35]), STR_4(CODE[31]), 
		 -> STR_3(CODE[29]), STR_2(CODE[30]), STR_1(CODE[31]), 


Critical Paths under _main in COMMON

    _main->_CharToNumH
    _main->_SendCharM
    _SendCharM->_USART_Cadena
    _USART_Cadena->_USART_Tx

Critical Paths under _isr in COMMON

    None.

Critical Paths under _main in BANK0

    None.

Critical Paths under _isr in BANK0

    None.

Critical Paths under _main in BANK1

    None.

Critical Paths under _isr in BANK1

    None.

Critical Paths under _main in BANK3

    None.

Critical Paths under _isr in BANK3

    None.

Critical Paths under _main in BANK2

    None.

Critical Paths under _isr in BANK2

    None.

Call Graph Tables:

 ---------------------------------------------------------------------------------
 (Depth) Function   	        Calls       Base Space   Used Autos Params    Refs
 ---------------------------------------------------------------------------------
 (0) _main                                                 2     2      0   11416
                                              0 BANK0      2     2      0
                         _CharToNumH
                         _CharToNumM
                          _SendCharH
                          _SendCharM
                       _USART_Cadena
                           _USART_Rx
 ---------------------------------------------------------------------------------
 (1) _USART_Rx                                             0     0      0       0
 ---------------------------------------------------------------------------------
 (1) _SendCharM                                            1     1      0    5573
                                              5 COMMON     1     1      0
                       _USART_Cadena
 ---------------------------------------------------------------------------------
 (1) _USART_Cadena                                         2     0      2    5463
                                              3 COMMON     2     0      2
                           _USART_Tx
 ---------------------------------------------------------------------------------
 (2) _USART_Tx                                             1     1      0      22
                                              2 COMMON     1     1      0
 ---------------------------------------------------------------------------------
 (1) _SendCharH                                            3     3      0      22
                                              2 COMMON     3     3      0
 ---------------------------------------------------------------------------------
 (1) _CharToNumM                                           3     2      1     213
                                              2 COMMON     3     2      1
 ---------------------------------------------------------------------------------
 (1) _CharToNumH                                           4     3      1     145
                                              2 COMMON     4     3      1
 ---------------------------------------------------------------------------------
 Estimated maximum stack depth 2
 ---------------------------------------------------------------------------------
 (Depth) Function   	        Calls       Base Space   Used Autos Params    Refs
 ---------------------------------------------------------------------------------
 (4) _isr                                                  2     2      0       0
                                              0 COMMON     2     2      0
 ---------------------------------------------------------------------------------
 Estimated maximum stack depth 4
 ---------------------------------------------------------------------------------

 Call Graph Graphs:

 _main (ROOT)
   _CharToNumH
   _CharToNumM
   _SendCharH
   _SendCharM
     _USART_Cadena
       _USART_Tx
   _USART_Cadena
     _USART_Tx
   _USART_Rx

 _isr (ROOT)

 Address spaces:
Name               Size   Autos  Total    Cost      Usage
BITCOMMON            E      0       0       0        0.0%
EEDATA             100      0       0       0        0.0%
NULL                 0      0       0       0        0.0%
CODE                 0      0       0       0        0.0%
COMMON               E      6       C       1       85.7%
BITSFR0              0      0       0       1        0.0%
SFR0                 0      0       0       1        0.0%
BITSFR1              0      0       0       2        0.0%
SFR1                 0      0       0       2        0.0%
STACK                0      0       0       2        0.0%
ABS                  0      0      26       3        0.0%
BITBANK0            50      0       0       4        0.0%
BITSFR3              0      0       0       4        0.0%
SFR3                 0      0       0       4        0.0%
BANK0               50      2      1A       5       32.5%
BITSFR2              0      0       0       5        0.0%
SFR2                 0      0       0       5        0.0%
BITBANK1            50      0       0       6        0.0%
BANK1               50      0       0       7        0.0%
BITBANK3            60      0       0       8        0.0%
BANK3               60      0       0       9        0.0%
BITBANK2            60      0       0      10        0.0%
BANK2               60      0       0      11        0.0%
DATA                 0      0      26      12        0.0%


Microchip Technology PIC Macro Assembler V2.31 build 20201012212115 
Symbol Table                                                                                   Fri May 28 10:12:45 2021

                      pc 0002                       fsr 0004                      l222 08B1  
                    l312 0D0E                      l160 0259                      l162 026F  
                    l171 02F3                      l164 0285                      l413 0599  
                    l502 00E0                      l430 0024                      l166 08BF  
                    l520 0109                      l416 05A3                      l513 00F8  
                    l425 0585                      l530 0124                      l506 00E7  
                    l523 0113                      l451 005B                      l443 0045  
                    l435 002F                      l419 05B6                      l620 04D1  
                    l516 0102                      l541 013C                      l509 00F1  
                    l534 012B                      l551 0157                      l527 011A  
                    l471 0092                      l463 007C                      l455 0066  
                    l447 0050                      l439 003A                      l375 0EEC  
                    l632 055F                      l624 055E                      l544 0146  
                    l537 0135                      l481 00AD                      l562 016F  
                    l474 009C                      l555 015E                      l467 0087  
                    l459 0071                      l299 0C9C                      l628 055E  
                    l572 018A                      l548 014D                      l492 00C5  
                    l388 0F5E                      l565 0179                      l485 00B4  
                    l558 0168                      l478 00A3                      l590 0528  
                    l495 00CF                      l575 01E6                      l488 00BE  
                    l584 0528                      l569 0180                      l578 04D3  
                    l499 00D6                      l596 0405                      _RB0 0030  
                    _RB1 0031                      _RB2 0032                      _RD0 0040  
                    _RD1 0041                      _RB5 0035                      _RD2 0042  
                    _RB6 0036                      _RB7 0037                      _isr 05AC  
                    fsr0 0004                      indf 0000               _CharToNumH 0401  
             _CharToNumM 0529                     l2310 00CB                     l2302 00A9  
                   l2400 041C                     l4000 0F44                     l2410 0435  
                   l2402 0421                     l2330 0120                     l2322 00FE  
                   l2314 00DC                     l2306 00BA                     l4010 0F79  
                   l4002 0F4A                     l2420 044E                     l2412 043A  
                   l2404 0426                     l2260 0599                     l4020 0F9E  
                   l4012 0F7F                     l4004 0F51                     l3300 01F0  
                   l2430 0467                     l2422 0453                     l2414 043F  
                   l2406 042B                     l2350 0175                     l2342 0153  
                   l2334 0131                     l2326 010F                     l2318 00ED  
                   l2262 059F                     l2270 0575                     l4022 0FA7  
                   l4014 0F89                     l4006 0F57                     l4030 0FD2  
                   l3310 01F9                     l3302 01F3                     l2432 046C  
                   l2424 0458                     l2416 0444                     l2408 0430  
                   l2440 047B                     l2280 0035                     l2360 0191  
                   l2264 0560                     l2272 05B3                     l4040 0FEE  
                   l4032 0FD6                     l4120 0FBE                     l4024 0FAD  
                   l4016 0F8F                     l4008 0F5E                     l3400 0274  
                   l3320 020B                     l3312 01FA                     l3304 01F4  
                   l2434 0471                     l2426 045D                     l2418 0449  
                   l2442 04D0                     l2450 052A                     l4122 0199  
                   l2354 0186                     l2346 0164                     l2338 0142  
                   l2290 006C                     l2282 0040                     l2266 0561  
                   l2370 04DE                     l4042 0FF4                     l4034 0FDA  
                   l4018 0F98                     l3410 0293                     l3402 027E  
                   l3330 0210                     l3322 020C                     l3314 01FE  
                   l3306 01F5                     l4124 0483                     l2436 0476  
                   l2428 0462                     l2460 0543                     l2452 0530  
                   l2292 0077                     l2284 004B                     l2276 0023  
                   l2268 056F                     l2380 0508                     l2372 04E8  
                   l4036 0FE2                     l4028 0FB6                     l3500 0394  
                   l3420 02A9                     l3412 0294                     l3404 0283  
                   l3340 021E                     l3332 0215                     l3324 020D  
                   l3316 0205                     l3308 01F6                     l2390 0403  
                   l2462 0548                     l2454 0532                     l2294 0082  
                   l2286 0056                     l2278 002A                     l2382 050E  
                   l2374 04EE                     l2366 04D3                     l4038 0FE6  
                   l3510 03B0                     l3502 0399                     l3430 02C6  
                   l3422 02B3                     l3414 0297                     l3406 0288  
                   l3350 022A                     l3342 0221                     l3334 0216  
                   l3326 020E                     l3318 0208                     l2392 0408  
                   l2464 054E                     l2456 0538                     l2296 008D  
                   l2288 0061                     l2384 0518                     l2376 04F8  
                   l2368 04D9                     l3600 08BC                     l3520 03CC  
                   l3512 03B6                     l3504 039F                     l3440 02E3  
                   l3432 02CC                     l3424 02B5                     l3408 0290  
                   l3416 0298                     l3360 0233                     l3352 022D  
                   l3344 0222                     l3336 0217                     l3328 020F  
                   l2394 040D                     l2466 0553                     l2458 053D  
                   l2298 0098                     l2386 051E                     l2378 04FE  
                   l3610 0914                     l3602 08C4                     l3530 03E9  
                   l3522 03D2                     l3514 03BB                     l3506 03A5  
                   l3450 0305                     l3442 02E8                     l3434 02D2  
                   l3426 02BB                     l3418 029E                     l3370 023A  
                   l3362 0234                     l3354 022E                     l3346 0225  
                   l3338 021A                     l2396 0412                     l2388 0402  
                   l2468 0559                     l3700 0AEF                     l3620 093A  
                   l3612 0917                     l3604 0903                     l3540 0813  
                   l3532 03EE                     l3524 03D8                     l3516 03C1  
                   l3508 03AA                     l3460 0322                     l3452 030F  
                   l3444 02EE                     l3436 02D7                     l3428 02C1  
                   l3380 0243                     l3372 023B                     l3364 0235  
                   l3356 022F                     l3348 0229                     l2398 0417  
                   l3710 0B16                     l3702 0AF8                     l3630 096E  
                   l3622 0942                     l3614 0920                     l3606 0906  
                   l3550 082F                     l3542 0819                     l3534 03F6  
                   l3526 03DD                     l3518 03C7                     l3470 033F  
                   l3462 0328                     l3454 0313                     l3438 02DD  
                   l3446 02F3                     l3390 025D                     l3382 0247  
                   l3374 023C                     l3366 0238                     l3358 0232  
                   l3800 0C5B                     l3720 0B5C                     l3712 0B3A  
                   l3704 0AFE                     l3640 09B8                     l3632 0976  
                   l3624 094B                     l3616 0928                     l3608 090A  
                   l3560 084C                     l3552 0835                     l3544 081E  
                   l3536 03FC                     l3528 03E3                     l3480 035B  
                   l3472 0344                     l3464 032E                     l3456 0319  
                   l3448 02FA                     l3392 025E                     l3384 0248  
                   l3376 023D                     l3368 0239                     l3296 01E7  
                   l3810 0C7B                     l3802 0C61                     l3730 0B77  
                   l3722 0B62                     l3714 0B40                     l3706 0B07  
                   l3650 09E3                     l3642 09C1                     l3634 097F  
                   l3626 095C                     l3618 0931                     l3570 0868  
                   l3562 0851                     l3554 083B                     l3546 0824  
                   l3538 080D                     l3490 0377                     l3482 0361  
                   l3474 034A                     l3466 0333                     l3458 031F  
                   l3394 0268                     l3386 0252                     l3378 023F  
                   l3298 01EE                     l3900 0DEE                     l3812 0C82  
                   l3804 0C68                     l3740 0B98                     l3732 0B7E  
                   l3820 0C9C                     l3724 0B66                     l3716 0B49  
                   l3708 0B0D                     l3660 0A07                     l3644 09C9  
                   l3636 0988                     l3628 0965                     l3580 0884  
                   l3572 086E                     l3564 0857                     l3556 0840  
                   l3548 082A                     l3492 037D                     l3484 0366  
                   l3476 0350                     l3468 0339                     l3396 026D  
                   l3388 0257                     l3910 0E0F                     l3902 0DF5  
                   l3830 0CD0                     l3822 0CAE                     l3814 0C88  
                   l3806 0C6E                     l3750 0BB8                     l3742 0B9E  
                   l3734 0B84                     l3726 0B6C                     l3718 0B53  
                   l3670 0A46                     l3662 0A10                     l3654 09ED  
                   l3646 09D2                     l3638 09B3                     l3590 08A1  
                   l3582 088A                     l3574 0873                     l3566 085D  
                   l3558 0846                     l3494 0383                     l3486 036C  
                   l3478 0355                     l3398 0273                     l3920 0E2F  
                   l3912 0E15                     l3904 0DFB                     l3840 0CED  
                   l3832 0CD6                     l3824 0CB4                     l3816 0C8F  
                   l3808 0C75                     l3760 0BD9                     l3752 0BBF  
                   l3744 0BA5                     l3736 0B8B                     l3728 0B71  
                   l3680 0A79                     l3672 0A4C                     l3664 0A18  
                   l3656 09F6                     l3648 09DB                     l3592 08A6  
                   l3584 0890                     l3576 0879                     l3568 0862  
                   l3496 0388                     l3488 0372                     l3930 0E50  
                   l3922 0E36                     l3914 0E1C                     l3906 0E02  
                   l3842 0CF4                     l3850 0D0E                     l3834 0CDA  
                   l3826 0CBD                     l3818 0C95                     l3770 0BF9  
                   l3762 0BDF                     l3754 0BC5                     l3746 0BAB  
                   l3738 0B91                     l3690 0AAD                     l3682 0A8B  
                   l3674 0A55                     l3658 09FE                     l3594 08AC  
                   l3586 0895                     l3578 087F                     l3498 038E  
                   l3940 0E70                     l3932 0E56                     l3924 0E3C  
                   l3916 0E22                     l3908 0E08                     l3860 0D48  
                   l3852 0D29                     l3844 0CFA                     l3836 0CE0  
                   l3828 0CC7                     l3780 0C1A                     l3772 0C00  
                   l3764 0BE6                     l3756 0BCC                     l3748 0BB2  
                   l3692 0ABE                     l3684 0A91                     l3676 0A5F  
                   l3668 0A22                     l3588 089B                     l3596 08B1  
                   l3950 0E91                     l3942 0E77                     l3934 0E5D  
                   l3926 0E43                     l3918 0E29                     l3870 0D8A  
                   l3862 0D4E                     l3854 0D2F                     l3846 0D01  
                   l3838 0CE7                     l3790 0C3A                     l3782 0C20  
                   l3774 0C06                     l3766 0BEC                     l3758 0BD2  
                   l3694 0AD9                     l3686 0A9A                     l3678 0A68  
                   l3598 08B5                     l3960 0EB1                     l3952 0E97  
                   l3944 0E7D                     l3936 0E63                     l3928 0E49  
                   l3880 0DB2                     l3872 0D90                     l3864 0D57  
                   l3856 0D39                     l3848 0D07                     l3792 0C41  
                   l3784 0C27                     l3776 0C0D                     l3768 0BF3  
                   l3696 0ADF                     l3688 0AA4                     l3970 0ED2  
                   l3962 0EB8                     l3954 0E9E                     l3946 0E84  
                   l3938 0E6A                     l3890 0DCE                     l3882 0DB6  
                   l3874 0D99                     l3866 0D5D                     l3858 0D3F  
                   l3794 0C47                     l3786 0C2D                     l3778 0C13  
                   l3698 0AE9                     l3980 0EFE                     l3972 0ED8  
                   l3964 0EBE                     l3956 0EA4                     l3948 0E8A  
                   l3892 0DD4                     l3884 0DBC                     l3876 0DA3  
                   l3868 0D66                     l3796 0C4E                     l3788 0C34  
                   l3990 0F26                     l3982 0F04                     l3974 0EDF  
                   l3966 0EC5                     l3958 0EAB                     l3894 0DDB  
                   l3886 0DC1                     l3878 0DAC                     l3798 0C54  
                   l3992 0F2A                     l3984 0F0D                     l3976 0EE5  
                   l3968 0ECB                     l3896 0DE1                     l3888 0DC7  
                   l3994 0F30                     l3986 0F17                     l3898 0DE8  
                   l3978 0EEC                     l3996 0F37                     l3988 0F20  
                   ?_isr 0076                     l3998 0F3D                     STR_1 124F  
                   STR_2 128D                     STR_3 12AB                     STR_4 126E  
                   STR_5 118B                     STR_6 11AE                     STR_7 1142  
                   STR_8 12E2                     STR_9 12ED                     _T0IF 005A  
                   u2000 059F                     u2001 059E                     u2010 0585  
                   u2011 0584                     u2100 0082                     u2020 002A  
                   u2101 0081                     u2021 0029                     u2110 008D  
                   u2030 0035                     u2111 008C                     u2031 0034  
                   u2200 00DC                     u2120 0098                     u2040 0040  
                   u2201 00DB                     u2121 0097                     u2041 003F  
                   u2210 00E6                     u2130 00A2                     u2050 004B  
                   u2211 00E5                     u2131 00A1                     u2051 004A  
                   u2300 0131                     u2220 00ED                     u2140 00A9  
                   u2060 0056                     u2301 0130                     u2221 00EC  
                   u2141 00A8                     u2061 0055                     u2310 013B  
                   u2230 00F7                     u2150 00B3                     u2070 0061  
                   u2311 013A                     u2231 00F6                     u2151 00B2  
                   u2071 0060                     u2400 0186                     u2320 0142  
                   u2240 00FE                     u2160 00BA                     u2080 006C  
                   u4000 0247                     u2401 0185                     u2321 0141  
                   u2241 00FD                     u2161 00B9                     u2081 006B  
                   u4001 0246                     u2410 0190                     u2330 014C  
                   u2250 0108                     u2170 00C4                     u2090 0077  
                   u4010 025D                     u2411 018F                     u2331 014B  
                   u2251 0107                     u2171 00C3                     u2091 0076  
                   u4011 025C                     u2500 0543                     u2340 0153  
                   u2260 010F                     u2180 00CB                     u2420 04D9  
                   u4100 02DD                     u4020 0273                     u2501 0542  
                   u2341 0152                     u2261 010E                     u2181 00CA  
                   u2421 04D8                     u4101 02DC                     u4021 0272  
                   u2510 054E                     u2350 015D                     u2270 0119  
                   u2190 00D5                     u2430 04DE                     u4110 02E3  
                   u4030 029E                     u2511 054D                     u2351 015C  
                   u2271 0118                     u2191 00D4                     u2431 04DD  
                   u4111 02E2                     u4031 029B                     u2520 0559  
                   u2360 0164                     u2280 0120                     u2440 04EE  
                   u5000 0CFA                     u4200 033F                     u4120 02EE  
                   u4040 02A9                     u2521 0558                     u2361 0163  
                   u2281 011F                     u2441 04ED                     u5001 0CF9  
                   u4201 033E                     u4121 02ED                     u4041 02A6  
                   u2370 016E                     u2290 012A                     u2450 04FE  
                   u5010 0D07                     u4210 034A                     u4130 0305  
                   u4050 02B3                     u2371 016D                     u2291 0129  
                   u2451 04FD                     u5011 0D06                     u4211 0349  
                   u4131 0302                     u4051 02B2                     u2380 0175  
                   u2460 050E                     u5100 0DD4                     u5020 0D2F  
                   u4300 0394                     u4220 0350                     u4140 030F  
                   u4060 02BB                     u2381 0174                     u2461 050D  
                   u5101 0DD3                     u5021 0D2E                     u4301 0393  
                   u4221 034F                     u4141 030E                     u4061 02BA  
                   u2390 017F                     u2470 051E                     u5110 0DE1  
                   u5030 0D3F                     u4310 039F                     u4230 035B  
                   u4150 0319                     u4070 02C1                     u2391 017E  
                   u2471 051D                     u5111 0DE0                     u5031 0D3E  
                   u4311 039E                     u4231 035A                     u4151 0318  
                   u4071 02C0                     u2480 0530                     u5200 0E56  
                   u5120 0DEE                     u5040 0D4E                     u4400 03E9  
                   u4320 03A5                     u4240 0361                     u4160 031F  
                   u4080 02CC                     u2481 052F                     u5201 0E55  
                   u5121 0DED                     u5041 0D4D                     u4401 03E8  
                   u4321 03A4                     u4241 0360                     u4161 031E  
                   u4081 02CB                     u2490 0538                     u5210 0E63  
                   u5130 0DFB                     u5050 0D5D                     u4410 03F6  
                   u4330 03B0                     u4250 036C                     u4170 0328  
                   u4090 02D2                     u2491 0537                     u5211 0E62  
                   u5131 0DFA                     u5051 0D5C                     u4411 03F3  
                   u4331 03AF                     u4251 036B                     u4171 0327  
                   u4091 02D1                     u5300 0ED8                     u5220 0E70  
                   u5140 0E08                     u5060 0D90                     u4500 084C  
                   u4420 03FC                     u4340 03B6                     u4260 0372  
                   u4180 032E                     u5301 0ED7                     u5221 0E6F  
                   u5141 0E07                     u5061 0D8F                     u4501 084B  
                   u4421 03FB                     u4341 03B5                     u4261 0371  
                   u4181 032D                     u5310 0EE5                     u5230 0E7D  
                   u5150 0E15                     u5070 0DB2                     u4510 0857  
                   u4430 0813                     u4350 03C1                     u4270 037D  
                   u4190 0339                     u5311 0EE4                     u5231 0E7C  
                   u5151 0E14                     u5071 0DB1                     u4511 0856  
                   u4431 0812                     u4351 03C0                     u4271 037C  
                   u4191 0338                     u5400 0F9E                     u5320 0F04  
                   u5240 0E8A                     u5160 0E22                     u5080 0DBC  
                   u4600 08A1                     u4520 085D                     u4440 0819  
                   u4360 03C7                     u4280 0383                     u5401 0F9D  
                   u5321 0F03                     u5241 0E89                     u5161 0E21  
                   u5081 0DBB                     u4601 08A0                     u4521 085C  
                   u4441 0818                     u4361 03C6                     u4281 0382  
                   u5410 0FAD                     u5330 0F26                     u5250 0E97  
                   u5170 0E2F                     u5090 0DC7                     u4610 08AC  
                   u4530 0868                     u4450 0824                     u4370 03D2  
                   u4290 038E                     u5411 0FAC                     u5331 0F25  
                   u5251 0E96                     u5171 0E2E                     u5091 0DC6  
                   u4611 08AB                     u4531 0867                     u4451 0823  
                   u4371 03D1                     u4291 038D                     u5420 0FDA  
                   u5340 0F30                     u5260 0EA4                     u5180 0E3C  
                   u4700 0B40                     u4620 08C4                     u4540 086E  
                   u4460 082A                     u4380 03D8                     u5421 0FD9  
                   u5341 0F2F                     u5261 0EA3                     u5181 0E3B  
                   u4701 0B3F                     u4621 08C3                     u4541 086D  
                   u4461 0829                     u4381 03D7                     u5430 0FE6  
                   u5350 0F3D                     u5270 0EB1                     u5190 0E49  
                   u4710 0B62                     u4630 090A                     u4550 0879  
                   u4470 0835                     u4390 03E3                     u5431 0FE5  
                   u5351 0F3C                     u5271 0EB0                     u5191 0E48  
                   u4711 0B61                     u4631 0909                     u4551 0878  
                   u4471 0834                     u4391 03E2                     u5440 0FF4  
                   u5360 0F4A                     u5280 0EBE                     u4800 0BD2  
                   u4720 0B6C                     u4640 0A4C                     u4560 087F  
                   u4480 083B                     u5441 0FF1                     u5361 0F49  
                   u5281 0EBD                     u4801 0BD1                     u4721 0B6B  
                   u4641 0A4B                     u4561 087E                     u4481 083A  
                   u5370 0F57                     u5290 0ECB                     u4810 0BDF  
                   u4730 0B77                     u4650 0A91                     u4570 088A  
                   u4490 0846                     u5371 0F56                     u5291 0ECA  
                   u4811 0BDE                     u4731 0B76                     u4651 0A90  
                   u5507 08B9                     u4571 0889                     u4491 0845  
                   u5380 0F7F                     u4900 0C54                     u4820 0BEC  
                   u4740 0B84                     u4660 0ADF                     u4580 0890  
                   u5381 0F7E                     u4901 0C53                     u4821 0BEB  
                   u4741 0B83                     u4661 0ADE                     u4581 088F  
                   u5390 0F8F                     u4910 0C61                     u4830 0BF9  
                   u4750 0B91                     u4670 0AEF                     u4590 089B  
                   u5391 0F8E                     u4911 0C60                     u4831 0BF8  
                   u4751 0B90                     u4671 0AEE                     u4591 089A  
                   u4920 0C6E                     u4840 0C06                     u4760 0B9E  
                   u4680 0AFE                     u4921 0C6D                     u4841 0C05  
                   u4761 0B9D                     u4681 0AFD                     u5457 0202  
                   u4930 0C7B                     u4850 0C13                     u4770 0BAB  
                   u4690 0B0D                     u4931 0C7A                     u4851 0C12  
                   u4771 0BAA                     u4691 0B0C                     u5467 024E  
                   u4940 0C88                     u4860 0C20                     u4780 0BB8  
                   u4941 0C87                     u4861 0C1F                     u4781 0BB7  
                   u5477 0264                     u4950 0C95                     u4870 0C2D  
                   u4790 0BC5                     u3990 0243                     u4951 0C94  
                   u4871 0C2C                     u4791 0BC4                     u5487 027A  
                   u3991 0242                     u4960 0CB4                     u4880 0C3A  
                   u4961 0CB3                     u4881 0C39                     u5497 028C  
                   u4970 0CD6                     u4890 0C47                     u4971 0CD5  
                   u4891 0C46                     u4980 0CE0                     u4981 0CDF  
                   u4990 0CED                     u4991 0CEC                     _TMR0 0001  
                   _main 01E7                     _hora 0075                     btemp 007E  
                   start 000C                    ??_isr 0076                    ?_main 0076  
                  STR_10 12F5                    STR_11 11D0                    STR_20 12E2  
                  STR_12 12E2                    STR_21 12ED                    STR_13 12ED  
                  STR_22 12F5                    STR_14 12F5                    STR_30 1094  
                  STR_23 1230                    STR_15 11F0                    STR_31 1064  
                  STR_32 1188                    STR_24 12E2                    STR_16 12E2  
                  STR_40 12C8                    STR_33 1188                    STR_41 111B  
                  STR_25 12ED                    STR_17 12ED                    STR_50 1188  
                  STR_42 1000                    STR_26 12F5                    STR_18 12F5  
                  STR_34 10C4                    STR_27 1230                    STR_43 1094  
                  STR_51 10F0                    STR_19 1210                    STR_35 1167  
                  STR_36 1188                    STR_60 10C4                    STR_52 1034  
                  STR_44 1064                    STR_28 111B                    STR_45 1188  
                  STR_37 1188                    STR_61 1167                    STR_53 12C8  
                  STR_29 1000                    STR_62 1188                    STR_46 1188  
                  STR_54 111B                    STR_70 1302                    STR_38 10F0  
                  STR_63 1188                    STR_47 10C4                    STR_55 1000  
                  STR_71 1305                    STR_39 1034                    STR_48 1167  
                  STR_56 1094                    STR_64 10F0                    STR_49 1188  
                  STR_65 1034                    STR_57 1064                    STR_58 1188  
                  STR_66 12C8                    STR_59 1188                    STR_67 12FD  
                  STR_68 12FF                    STR_69 12FC                    _ANSEL 0188  
                  i1l153 05AC                    _RCREG 001A                    _SPBRG 0099  
                  _PORTA 0005                    _PORTB 0006                    _PORTC 0007  
                  _PORTD 0008                    _PORTE 0009                    _TRISA 0085  
                  _TRISB 0086                    _TRISD 0088                    _TRISE 0089  
                  _TXREG 0019                    _valor 0037         __end_of_USART_Rx 05B7  
       __end_of_USART_Tx 05A4             USART_Tx@data 0078                    pclath 000A  
                  status 0003                    wtemp0 007E          __initialization 000F  
           __end_of_main 1000                   ??_main 0038              ?_CharToNumH 0078  
            ?_CharToNumM 0078                   _ADRESH 001E                   _ANSELH 0189  
                 _SPBRGH 009A       __size_of_SendCharH 01C5       __size_of_SendCharM 0057  
                 _escala 0073                   _minuto 0074              SendCharH@in 007A  
            SendCharM@in 007B                   saved_w 007E  __end_of__initialization 001E  
         __pcstackCOMMON 0076      __size_of_CharToNumH 00D1      __size_of_CharToNumM 0037  
              ?_USART_Rx 0076                ?_USART_Tx 0076           _OPTION_REGbits 0081  
      __end_of_SendCharH 01E7        __end_of_SendCharM 0529               __pbssBANK0 0020  
             _me_1_us1_h 0031               _me_1_us2_h 002E               _me_1_us1_m 0028  
             _me_1_us3_h 002B               _me_1_us2_m 0025               _me_1_us3_m 0022  
             _me_2_us1_h 0030               _me_2_us2_h 002D               _me_2_us1_m 0027  
             _me_2_us3_h 002A               _me_2_us2_m 0024               _me_2_us3_m 0021  
             _me_3_us1_h 002F               _me_3_us2_h 002C               _me_3_us1_m 0026  
             _me_3_us3_h 0029               _me_3_us2_m 0023               _me_3_us3_m 0020  
             __pmaintext 01E7               __pintentry 0004               ??_USART_Rx 0078  
             ??_USART_Tx 0078               __stringtab 0586               _hora_nueva 0070  
             _hora_user1 0071               _hora_user2 0033               _hora_user3 0032  
                __ptext1 05B3                  __ptext2 04D2                  __ptext3 0560  
                __ptext4 0598                  __ptext5 0022                  __ptext6 0529  
                __ptext7 0401                  __ptext8 05AC             __size_of_isr 0007  
                _ventana 0036             ??_CharToNumH 0079             ??_CharToNumM 0079  
                clrloop0 05A5      CharToNumH@hora_user 0078     end_of_initialization 001E  
           CharToNumH@in 007B             CharToNumM@in 007A                _RCSTAbits 0018  
                psplit$0 A0015                  psplit$1 150016             __pstringtext 1000  
     __end_of_CharToNumH 04D2       __end_of_CharToNumM 0560     pnum$maintext_split_1 0015  
   pnum$maintext_split_2 0016            ?_USART_Cadena 0079                _TXSTAbits 0098  
            _BAUDCTLbits 0187        __size_of_USART_Rx 0004        __size_of_USART_Tx 000C  
    start_initialization 000F              __end_of_isr 05B3           ??_USART_Cadena 007B  
              _SendCharH 0022                _SendCharM 04D2              __pbssCOMMON 0070  
              ___latbits 0002            __pcstackBANK0 0038               ?_SendCharH 0076  
             ?_SendCharM 0076                __pstrings 0586                _min_user1 0072  
              _min_user2 0035                _min_user3 0034        interrupt_function 0004  
              clear_ram0 05A4                 _PIR1bits 000C          USART_Cadena@str 0079  
   __end_of_USART_Cadena 0586                 _USART_Rx 05B3                 _USART_Tx 0598  
             _ADCON0bits 001F              __stringbase 0598               _ADCON1bits 009F  
               _WPUBbits 0095              ??_SendCharH 0078              ??_SendCharM 007B  
           pnum$maintext 000A       __end_of__stringtab 0598            __size_of_main 0E19  
             _INTCONbits 000B            CharToNumM@her 0078                 intlevel1 0000  
              stringcode 0590    __size_of_USART_Cadena 0026               _OSCCONbits 008F  
               stringtab 0586             _USART_Cadena 0560  
