

Microchip MPLAB XC8 Assembler V2.31 build 20201012212115 
                                                                                               Mon May 31 19:47:16 2021

Microchip MPLAB XC8 C Compiler v2.31 (Free license) build 20201012212115 Og1 
     1                           	processor	16F887
     2                           	pagewidth 120
     3                           	opt	flic
     4                           	psect	strings,global,class=STRING,delta=2,noexec
     5                           	psect	stringtext,global,reloc=256,class=STRCODE,delta=2,noexec
     6                           	psect	cinit,global,class=CODE,merge=1,delta=2
     7                           	psect	bssCOMMON,global,class=COMMON,space=1,delta=1,noexec
     8                           	psect	bssBANK0,global,class=BANK0,space=1,delta=1,noexec
     9                           	psect	clrtext,global,class=CODE,delta=2
    10                           	psect	cstackCOMMON,global,class=COMMON,space=1,delta=1,noexec
    11                           	psect	cstackBANK0,global,class=BANK0,space=1,delta=1,noexec
    12                           	psect	maintext,global,class=CODE,split=1,delta=2
    13                           	psect	text1,local,class=CODE,merge=1,delta=2
    14                           	psect	text2,local,class=CODE,merge=1,delta=2
    15                           	psect	text3,local,class=CODE,merge=1,delta=2
    16                           	psect	text4,local,class=CODE,merge=1,delta=2
    17                           	psect	text5,local,class=CODE,merge=1,delta=2
    18                           	psect	text6,local,class=CODE,merge=1,delta=2
    19                           	psect	text7,local,class=CODE,merge=1,delta=2
    20                           	psect	text8,local,class=CODE,merge=1,delta=2
    21                           	psect	intentry,global,class=CODE,delta=2
    22                           	psect	config,global,abs,ovrld,class=CONFIG,space=4,delta=2,noexec
    23                           	psect	maintext_split_1,global,class=CODE,split=1,delta=2
    24                           	dabs	1,0x7E,2
    25  0000                     
    26                           ; Version 2.20
    27                           ; Generated 12/02/2020 GMT
    28                           ; 
    29                           ; Copyright © 2020, Microchip Technology Inc. and its subsidiaries ("Microchip")
    30                           ; All rights reserved.
    31                           ; 
    32                           ; This software is developed by Microchip Technology Inc. and its subsidiaries ("Microch
      +                          ip").
    33                           ; 
    34                           ; Redistribution and use in source and binary forms, with or without modification, are
    35                           ; permitted provided that the following conditions are met:
    36                           ; 
    37                           ;     1. Redistributions of source code must retain the above copyright notice, this lis
      +                          t of
    38                           ;        conditions and the following disclaimer.
    39                           ; 
    40                           ;     2. Redistributions in binary form must reproduce the above copyright notice, this 
      +                          list
    41                           ;        of conditions and the following disclaimer in the documentation and/or other
    42                           ;        materials provided with the distribution.
    43                           ; 
    44                           ;     3. Microchip's name may not be used to endorse or promote products derived from th
      +                          is
    45                           ;        software without specific prior written permission.
    46                           ; 
    47                           ; THIS SOFTWARE IS PROVIDED BY MICROCHIP "AS IS" AND ANY EXPRESS OR IMPLIED WARRANTIES,
    48                           ; INCLUDING, BUT NOT LIMITED TO, THE IMPLIED WARRANTIES OF MERCHANTABILITY AND FITNESS F
      +                          OR
    49                           ; PURPOSE ARE DISCLAIMED.  IN NO EVENT SHALL MICROCHIP BE LIABLE FOR ANY DIRECT, INDIREC
      +                          T,
    50                           ; INCIDENTAL, SPECIAL, EXEMPLARY, OR CONSEQUENTIAL DAMAGES (INCLUDING BUT NOT LIMITED TO
    51                           ; PROCUREMENT OF SUBSTITUTE GOODS OR SERVICES; LOSS OF USE, DATA OR PROFITS; OR BUSINESS
    52                           ; INTERRUPTION) HOWSOEVER CAUSED AND ON ANY THEORY OF LIABILITY, WHETHER IN CONTRACT, ST
      +                          RICT
    53                           ; LIABILITY, OR TORT (INCLUDING NEGLIGENCE OR OTHERWISE) ARISING IN ANY WAY OUT OF THE U
      +                          SE OF
    54                           ; THIS SOFTWARE, EVEN IF ADVISED OF THE POSSIBILITY OF SUCH DAMAGE.
    55                           ; 
    56                           ; 
    57                           ; Code-generator required, PIC16F887 Definitions
    58                           ; 
    59                           ; SFR Addresses
    60  0000                     	;# 
    61  0001                     	;# 
    62  0002                     	;# 
    63  0003                     	;# 
    64  0004                     	;# 
    65  0005                     	;# 
    66  0006                     	;# 
    67  0007                     	;# 
    68  0008                     	;# 
    69  0009                     	;# 
    70  000A                     	;# 
    71  000B                     	;# 
    72  000C                     	;# 
    73  000D                     	;# 
    74  000E                     	;# 
    75  000E                     	;# 
    76  000F                     	;# 
    77  0010                     	;# 
    78  0011                     	;# 
    79  0012                     	;# 
    80  0013                     	;# 
    81  0014                     	;# 
    82  0015                     	;# 
    83  0015                     	;# 
    84  0016                     	;# 
    85  0017                     	;# 
    86  0018                     	;# 
    87  0019                     	;# 
    88  001A                     	;# 
    89  001B                     	;# 
    90  001B                     	;# 
    91  001C                     	;# 
    92  001D                     	;# 
    93  001E                     	;# 
    94  001F                     	;# 
    95  0081                     	;# 
    96  0085                     	;# 
    97  0086                     	;# 
    98  0087                     	;# 
    99  0088                     	;# 
   100  0089                     	;# 
   101  008C                     	;# 
   102  008D                     	;# 
   103  008E                     	;# 
   104  008F                     	;# 
   105  0090                     	;# 
   106  0091                     	;# 
   107  0092                     	;# 
   108  0093                     	;# 
   109  0093                     	;# 
   110  0093                     	;# 
   111  0094                     	;# 
   112  0095                     	;# 
   113  0096                     	;# 
   114  0097                     	;# 
   115  0098                     	;# 
   116  0099                     	;# 
   117  009A                     	;# 
   118  009B                     	;# 
   119  009C                     	;# 
   120  009D                     	;# 
   121  009E                     	;# 
   122  009F                     	;# 
   123  0105                     	;# 
   124  0107                     	;# 
   125  0108                     	;# 
   126  0109                     	;# 
   127  010C                     	;# 
   128  010C                     	;# 
   129  010D                     	;# 
   130  010E                     	;# 
   131  010F                     	;# 
   132  0185                     	;# 
   133  0187                     	;# 
   134  0188                     	;# 
   135  0189                     	;# 
   136  018C                     	;# 
   137  018D                     	;# 
   138  0000                     	;# 
   139  0001                     	;# 
   140  0002                     	;# 
   141  0003                     	;# 
   142  0004                     	;# 
   143  0005                     	;# 
   144  0006                     	;# 
   145  0007                     	;# 
   146  0008                     	;# 
   147  0009                     	;# 
   148  000A                     	;# 
   149  000B                     	;# 
   150  000C                     	;# 
   151  000D                     	;# 
   152  000E                     	;# 
   153  000E                     	;# 
   154  000F                     	;# 
   155  0010                     	;# 
   156  0011                     	;# 
   157  0012                     	;# 
   158  0013                     	;# 
   159  0014                     	;# 
   160  0015                     	;# 
   161  0015                     	;# 
   162  0016                     	;# 
   163  0017                     	;# 
   164  0018                     	;# 
   165  0019                     	;# 
   166  001A                     	;# 
   167  001B                     	;# 
   168  001B                     	;# 
   169  001C                     	;# 
   170  001D                     	;# 
   171  001E                     	;# 
   172  001F                     	;# 
   173  0081                     	;# 
   174  0085                     	;# 
   175  0086                     	;# 
   176  0087                     	;# 
   177  0088                     	;# 
   178  0089                     	;# 
   179  008C                     	;# 
   180  008D                     	;# 
   181  008E                     	;# 
   182  008F                     	;# 
   183  0090                     	;# 
   184  0091                     	;# 
   185  0092                     	;# 
   186  0093                     	;# 
   187  0093                     	;# 
   188  0093                     	;# 
   189  0094                     	;# 
   190  0095                     	;# 
   191  0096                     	;# 
   192  0097                     	;# 
   193  0098                     	;# 
   194  0099                     	;# 
   195  009A                     	;# 
   196  009B                     	;# 
   197  009C                     	;# 
   198  009D                     	;# 
   199  009E                     	;# 
   200  009F                     	;# 
   201  0105                     	;# 
   202  0107                     	;# 
   203  0108                     	;# 
   204  0109                     	;# 
   205  010C                     	;# 
   206  010C                     	;# 
   207  010D                     	;# 
   208  010E                     	;# 
   209  010F                     	;# 
   210  0185                     	;# 
   211  0187                     	;# 
   212  0188                     	;# 
   213  0189                     	;# 
   214  018C                     	;# 
   215  018D                     	;# 
   216  001A                     _RCREG	set	26
   217  0019                     _TXREG	set	25
   218  001E                     _ADRESH	set	30
   219  0009                     _PORTE	set	9
   220  0008                     _PORTD	set	8
   221  0007                     _PORTC	set	7
   222  0006                     _PORTB	set	6
   223  000C                     _PIR1bits	set	12
   224  000B                     _INTCONbits	set	11
   225  0018                     _RCSTAbits	set	24
   226  0010                     _T1CONbits	set	16
   227  0001                     _TMR0	set	1
   228  001F                     _ADCON0bits	set	31
   229  000E                     _TMR1L	set	14
   230  000F                     _TMR1H	set	15
   231  0005                     _PORTA	set	5
   232  0035                     _RB5	set	53
   233  0036                     _RB6	set	54
   234  0034                     _RB4	set	52
   235  0033                     _RB3	set	51
   236  0037                     _RB7	set	55
   237  0042                     _RD2	set	66
   238  0032                     _RB2	set	50
   239  0041                     _RD1	set	65
   240  0031                     _RB1	set	49
   241  0040                     _RD0	set	64
   242  0030                     _RB0	set	48
   243  005A                     _T0IF	set	90
   244  0060                     _TMR1IF	set	96
   245  008C                     _PIE1bits	set	140
   246  009A                     _SPBRGH	set	154
   247  0099                     _SPBRG	set	153
   248  0098                     _TXSTAbits	set	152
   249  008F                     _OSCCONbits	set	143
   250  0095                     _WPUBbits	set	149
   251  0081                     _OPTION_REGbits	set	129
   252  009F                     _ADCON1bits	set	159
   253  0089                     _TRISE	set	137
   254  0088                     _TRISD	set	136
   255  0086                     _TRISB	set	134
   256  0085                     _TRISA	set	133
   257  0460                     _TMR1IE	set	1120
   258  0187                     _BAUDCTLbits	set	391
   259  0189                     _ANSELH	set	393
   260  0188                     _ANSEL	set	392
   261                           
   262                           	psect	strings
   263  07DF                     __pstrings:
   264  07DF                     stringtab:
   265  07DF                     __stringtab:
   266                           
   267                           ;	String table - string pointers are 2 bytes each
   268  07DF  1BFF               	btfsc	btemp+1,7
   269  07E0  2FE9               	ljmp	stringcode
   270  07E1  1383               	bcf	3,7
   271  07E2  187F               	btfsc	btemp+1,0
   272  07E3  1783               	bsf	3,7
   273  07E4  0800               	movf	0,w
   274  07E5  0A84               	incf	4,f
   275  07E6  1903               	skipnz
   276  07E7  0AFF               	incf	btemp+1,f
   277  07E8  0008               	return
   278  07E9                     stringcode:
   279  07E9  087F               	movf	btemp+1,w
   280  07EA  397F               	andlw	127
   281  07EB  008A               	movwf	10
   282  07EC  0804               	movf	4,w
   283  07ED  0A84               	incf	4,f
   284  07EE  1903               	skipnz
   285  07EF  0AFF               	incf	btemp+1,f
   286  07F0  0082               	movwf	2
   287  07F1                     __stringbase:
   288  07F1                     __end_of__stringtab:
   289                           
   290                           	psect	stringtext
   291  0800                     __pstringtext:
   292  0800                     STR_45:
   293  0800  3420               	retlw	32	;' '
   294  0801  3461               	retlw	97	;'a'
   295  0802  342E               	retlw	46	;'.'
   296  0803  3430               	retlw	48	;'0'
   297  0804  3420               	retlw	32	;' '
   298  0805  3420               	retlw	32	;' '
   299  0806  3462               	retlw	98	;'b'
   300  0807  342E               	retlw	46	;'.'
   301  0808  3431               	retlw	49	;'1'
   302  0809  3420               	retlw	32	;' '
   303  080A  3420               	retlw	32	;' '
   304  080B  3420               	retlw	32	;' '
   305  080C  3463               	retlw	99	;'c'
   306  080D  342E               	retlw	46	;'.'
   307  080E  3432               	retlw	50	;'2'
   308  080F  3420               	retlw	32	;' '
   309  0810  3420               	retlw	32	;' '
   310  0811  3420               	retlw	32	;' '
   311  0812  3464               	retlw	100	;'d'
   312  0813  342E               	retlw	46	;'.'
   313  0814  3433               	retlw	51	;'3'
   314  0815  3420               	retlw	32	;' '
   315  0816  3420               	retlw	32	;' '
   316  0817  3420               	retlw	32	;' '
   317  0818  3465               	retlw	101	;'e'
   318  0819  342E               	retlw	46	;'.'
   319  081A  3434               	retlw	52	;'4'
   320  081B  3420               	retlw	32	;' '
   321  081C  3420               	retlw	32	;' '
   322  081D  3420               	retlw	32	;' '
   323  081E  3466               	retlw	102	;'f'
   324  081F  342E               	retlw	46	;'.'
   325  0820  3435               	retlw	53	;'5'
   326  0821  3420               	retlw	32	;' '
   327  0822  3420               	retlw	32	;' '
   328  0823  3420               	retlw	32	;' '
   329  0824  3467               	retlw	103	;'g'
   330  0825  342E               	retlw	46	;'.'
   331  0826  3436               	retlw	54	;'6'
   332  0827  3420               	retlw	32	;' '
   333  0828  3420               	retlw	32	;' '
   334  0829  3420               	retlw	32	;' '
   335  082A  3468               	retlw	104	;'h'
   336  082B  342E               	retlw	46	;'.'
   337  082C  3437               	retlw	55	;'7'
   338  082D  3420               	retlw	32	;' '
   339  082E  3420               	retlw	32	;' '
   340  082F  3469               	retlw	105	;'i'
   341  0830  342E               	retlw	46	;'.'
   342  0831  3438               	retlw	56	;'8'
   343  0832  340D               	retlw	13
   344  0833  3400               	retlw	0
   345  0834                     STR_55:
   346  0834  3420               	retlw	32	;' '
   347  0835  3470               	retlw	112	;'p'
   348  0836  3472               	retlw	114	;'r'
   349  0837  3465               	retlw	101	;'e'
   350  0838  3473               	retlw	115	;'s'
   351  0839  3469               	retlw	105	;'i'
   352  083A  346F               	retlw	111	;'o'
   353  083B  346E               	retlw	110	;'n'
   354  083C  3465               	retlw	101	;'e'
   355  083D  3420               	retlw	32	;' '
   356  083E  3465               	retlw	101	;'e'
   357  083F  346C               	retlw	108	;'l'
   358  0840  3420               	retlw	32	;' '
   359  0841  346E               	retlw	110	;'n'
   360  0842  34C3               	retlw	-61
   361  0843  34BA               	retlw	-70
   362  0844  346D               	retlw	109	;'m'
   363  0845  3465               	retlw	101	;'e'
   364  0846  3472               	retlw	114	;'r'
   365  0847  346F               	retlw	111	;'o'
   366  0848  3420               	retlw	32	;' '
   367  0849  3464               	retlw	100	;'d'
   368  084A  3465               	retlw	101	;'e'
   369  084B  3420               	retlw	32	;' '
   370  084C  346D               	retlw	109	;'m'
   371  084D  3465               	retlw	101	;'e'
   372  084E  3464               	retlw	100	;'d'
   373  084F  3469               	retlw	105	;'i'
   374  0850  3463               	retlw	99	;'c'
   375  0851  3461               	retlw	97	;'a'
   376  0852  346D               	retlw	109	;'m'
   377  0853  3465               	retlw	101	;'e'
   378  0854  346E               	retlw	110	;'n'
   379  0855  3474               	retlw	116	;'t'
   380  0856  346F               	retlw	111	;'o'
   381  0857  3420               	retlw	32	;' '
   382  0858  3461               	retlw	97	;'a'
   383  0859  3420               	retlw	32	;' '
   384  085A  3467               	retlw	103	;'g'
   385  085B  3475               	retlw	117	;'u'
   386  085C  3461               	retlw	97	;'a'
   387  085D  3472               	retlw	114	;'r'
   388  085E  3464               	retlw	100	;'d'
   389  085F  3461               	retlw	97	;'a'
   390  0860  3472               	retlw	114	;'r'
   391  0861  3420               	retlw	32	;' '
   392  0862  340D               	retlw	13
   393  0863  3400               	retlw	0
   394  0864                     STR_47:
   395  0864  3472               	retlw	114	;'r'
   396  0865  342E               	retlw	46	;'.'
   397  0866  3431               	retlw	49	;'1'
   398  0867  3437               	retlw	55	;'7'
   399  0868  3420               	retlw	32	;' '
   400  0869  3420               	retlw	32	;' '
   401  086A  3473               	retlw	115	;'s'
   402  086B  342E               	retlw	46	;'.'
   403  086C  3431               	retlw	49	;'1'
   404  086D  3438               	retlw	56	;'8'
   405  086E  3420               	retlw	32	;' '
   406  086F  3420               	retlw	32	;' '
   407  0870  3474               	retlw	116	;'t'
   408  0871  342E               	retlw	46	;'.'
   409  0872  3431               	retlw	49	;'1'
   410  0873  3439               	retlw	57	;'9'
   411  0874  3420               	retlw	32	;' '
   412  0875  3420               	retlw	32	;' '
   413  0876  3475               	retlw	117	;'u'
   414  0877  342E               	retlw	46	;'.'
   415  0878  3432               	retlw	50	;'2'
   416  0879  3430               	retlw	48	;'0'
   417  087A  3420               	retlw	32	;' '
   418  087B  3420               	retlw	32	;' '
   419  087C  3476               	retlw	118	;'v'
   420  087D  342E               	retlw	46	;'.'
   421  087E  3432               	retlw	50	;'2'
   422  087F  3431               	retlw	49	;'1'
   423  0880  3420               	retlw	32	;' '
   424  0881  3420               	retlw	32	;' '
   425  0882  3477               	retlw	119	;'w'
   426  0883  342E               	retlw	46	;'.'
   427  0884  3432               	retlw	50	;'2'
   428  0885  3432               	retlw	50	;'2'
   429  0886  3420               	retlw	32	;' '
   430  0887  3420               	retlw	32	;' '
   431  0888  3478               	retlw	120	;'x'
   432  0889  342E               	retlw	46	;'.'
   433  088A  3432               	retlw	50	;'2'
   434  088B  3433               	retlw	51	;'3'
   435  088C  3420               	retlw	32	;' '
   436  088D  3420               	retlw	32	;' '
   437  088E  3479               	retlw	121	;'y'
   438  088F  342E               	retlw	46	;'.'
   439  0890  3432               	retlw	50	;'2'
   440  0891  3434               	retlw	52	;'4'
   441  0892  340D               	retlw	13
   442  0893  3400               	retlw	0
   443  0894                     STR_46:
   444  0894  3420               	retlw	32	;' '
   445  0895  346A               	retlw	106	;'j'
   446  0896  342E               	retlw	46	;'.'
   447  0897  3439               	retlw	57	;'9'
   448  0898  3420               	retlw	32	;' '
   449  0899  3420               	retlw	32	;' '
   450  089A  346B               	retlw	107	;'k'
   451  089B  342E               	retlw	46	;'.'
   452  089C  3431               	retlw	49	;'1'
   453  089D  3430               	retlw	48	;'0'
   454  089E  3420               	retlw	32	;' '
   455  089F  3420               	retlw	32	;' '
   456  08A0  346C               	retlw	108	;'l'
   457  08A1  342E               	retlw	46	;'.'
   458  08A2  3431               	retlw	49	;'1'
   459  08A3  3431               	retlw	49	;'1'
   460  08A4  3420               	retlw	32	;' '
   461  08A5  3420               	retlw	32	;' '
   462  08A6  346D               	retlw	109	;'m'
   463  08A7  342E               	retlw	46	;'.'
   464  08A8  3431               	retlw	49	;'1'
   465  08A9  3432               	retlw	50	;'2'
   466  08AA  3420               	retlw	32	;' '
   467  08AB  3420               	retlw	32	;' '
   468  08AC  346E               	retlw	110	;'n'
   469  08AD  342E               	retlw	46	;'.'
   470  08AE  3431               	retlw	49	;'1'
   471  08AF  3433               	retlw	51	;'3'
   472  08B0  3420               	retlw	32	;' '
   473  08B1  3420               	retlw	32	;' '
   474  08B2  346F               	retlw	111	;'o'
   475  08B3  342E               	retlw	46	;'.'
   476  08B4  3431               	retlw	49	;'1'
   477  08B5  3434               	retlw	52	;'4'
   478  08B6  3420               	retlw	32	;' '
   479  08B7  3420               	retlw	32	;' '
   480  08B8  3470               	retlw	112	;'p'
   481  08B9  342E               	retlw	46	;'.'
   482  08BA  3431               	retlw	49	;'1'
   483  08BB  3435               	retlw	53	;'5'
   484  08BC  3420               	retlw	32	;' '
   485  08BD  3420               	retlw	32	;' '
   486  08BE  3471               	retlw	113	;'q'
   487  08BF  342E               	retlw	46	;'.'
   488  08C0  3431               	retlw	49	;'1'
   489  08C1  3436               	retlw	54	;'6'
   490  08C2  340D               	retlw	13
   491  08C3  3400               	retlw	0
   492  08C4                     STR_50:
   493  08C4  3420               	retlw	32	;' '
   494  08C5  3449               	retlw	73	;'I'
   495  08C6  346E               	retlw	110	;'n'
   496  08C7  3467               	retlw	103	;'g'
   497  08C8  3472               	retlw	114	;'r'
   498  08C9  3465               	retlw	101	;'e'
   499  08CA  3473               	retlw	115	;'s'
   500  08CB  34C3               	retlw	-61
   501  08CC  34A1               	retlw	-95
   502  08CD  3420               	retlw	32	;' '
   503  08CE  346C               	retlw	108	;'l'
   504  08CF  3461               	retlw	97	;'a'
   505  08D0  3420               	retlw	32	;' '
   506  08D1  346C               	retlw	108	;'l'
   507  08D2  3465               	retlw	101	;'e'
   508  08D3  3474               	retlw	116	;'t'
   509  08D4  3472               	retlw	114	;'r'
   510  08D5  3461               	retlw	97	;'a'
   511  08D6  3420               	retlw	32	;' '
   512  08D7  3464               	retlw	100	;'d'
   513  08D8  3465               	retlw	101	;'e'
   514  08D9  3420               	retlw	32	;' '
   515  08DA  346C               	retlw	108	;'l'
   516  08DB  346F               	retlw	111	;'o'
   517  08DC  3473               	retlw	115	;'s'
   518  08DD  3420               	retlw	32	;' '
   519  08DE  346D               	retlw	109	;'m'
   520  08DF  3469               	retlw	105	;'i'
   521  08E0  346E               	retlw	110	;'n'
   522  08E1  3475               	retlw	117	;'u'
   523  08E2  3474               	retlw	116	;'t'
   524  08E3  346F               	retlw	111	;'o'
   525  08E4  3473               	retlw	115	;'s'
   526  08E5  3420               	retlw	32	;' '
   527  08E6  346E               	retlw	110	;'n'
   528  08E7  3475               	retlw	117	;'u'
   529  08E8  3465               	retlw	101	;'e'
   530  08E9  3476               	retlw	118	;'v'
   531  08EA  346F               	retlw	111	;'o'
   532  08EB  3473               	retlw	115	;'s'
   533  08EC  3420               	retlw	32	;' '
   534  08ED  3420               	retlw	32	;' '
   535  08EE  340D               	retlw	13
   536  08EF  3400               	retlw	0
   537  08F0                     STR_54:
   538  08F0  3420               	retlw	32	;' '
   539  08F1  3441               	retlw	65	;'A'
   540  08F2  3463               	retlw	99	;'c'
   541  08F3  3474               	retlw	116	;'t'
   542  08F4  3475               	retlw	117	;'u'
   543  08F5  3461               	retlw	97	;'a'
   544  08F6  346C               	retlw	108	;'l'
   545  08F7  346D               	retlw	109	;'m'
   546  08F8  3465               	retlw	101	;'e'
   547  08F9  346E               	retlw	110	;'n'
   548  08FA  3474               	retlw	116	;'t'
   549  08FB  3465               	retlw	101	;'e'
   550  08FC  3420               	retlw	32	;' '
   551  08FD  3473               	retlw	115	;'s'
   552  08FE  3465               	retlw	101	;'e'
   553  08FF  3420               	retlw	32	;' '
   554  0900  3463               	retlw	99	;'c'
   555  0901  3475               	retlw	117	;'u'
   556  0902  3465               	retlw	101	;'e'
   557  0903  346E               	retlw	110	;'n'
   558  0904  3474               	retlw	116	;'t'
   559  0905  3461               	retlw	97	;'a'
   560  0906  3420               	retlw	32	;' '
   561  0907  3463               	retlw	99	;'c'
   562  0908  346F               	retlw	111	;'o'
   563  0909  346E               	retlw	110	;'n'
   564  090A  3420               	retlw	32	;' '
   565  090B  3433               	retlw	51	;'3'
   566  090C  3420               	retlw	32	;' '
   567  090D  346D               	retlw	109	;'m'
   568  090E  3465               	retlw	101	;'e'
   569  090F  3464               	retlw	100	;'d'
   570  0910  3469               	retlw	105	;'i'
   571  0911  3463               	retlw	99	;'c'
   572  0912  3461               	retlw	97	;'a'
   573  0913  346D               	retlw	109	;'m'
   574  0914  3465               	retlw	101	;'e'
   575  0915  346E               	retlw	110	;'n'
   576  0916  3474               	retlw	116	;'t'
   577  0917  346F               	retlw	111	;'o'
   578  0918  3473               	retlw	115	;'s'
   579  0919  340D               	retlw	13
   580  091A  3400               	retlw	0
   581  091B                     STR_44:
   582  091B  3420               	retlw	32	;' '
   583  091C  3449               	retlw	73	;'I'
   584  091D  346E               	retlw	110	;'n'
   585  091E  3467               	retlw	103	;'g'
   586  091F  3472               	retlw	114	;'r'
   587  0920  3465               	retlw	101	;'e'
   588  0921  3473               	retlw	115	;'s'
   589  0922  34C3               	retlw	-61
   590  0923  34A1               	retlw	-95
   591  0924  3420               	retlw	32	;' '
   592  0925  346C               	retlw	108	;'l'
   593  0926  3461               	retlw	97	;'a'
   594  0927  3420               	retlw	32	;' '
   595  0928  346C               	retlw	108	;'l'
   596  0929  3465               	retlw	101	;'e'
   597  092A  3474               	retlw	116	;'t'
   598  092B  3472               	retlw	114	;'r'
   599  092C  3461               	retlw	97	;'a'
   600  092D  3420               	retlw	32	;' '
   601  092E  3464               	retlw	100	;'d'
   602  092F  3465               	retlw	101	;'e'
   603  0930  3420               	retlw	32	;' '
   604  0931  346C               	retlw	108	;'l'
   605  0932  3461               	retlw	97	;'a'
   606  0933  3420               	retlw	32	;' '
   607  0934  346E               	retlw	110	;'n'
   608  0935  3475               	retlw	117	;'u'
   609  0936  3465               	retlw	101	;'e'
   610  0937  3476               	retlw	118	;'v'
   611  0938  3461               	retlw	97	;'a'
   612  0939  3420               	retlw	32	;' '
   613  093A  3468               	retlw	104	;'h'
   614  093B  346F               	retlw	111	;'o'
   615  093C  3472               	retlw	114	;'r'
   616  093D  3461               	retlw	97	;'a'
   617  093E  3420               	retlw	32	;' '
   618  093F  3420               	retlw	32	;' '
   619  0940  340D               	retlw	13
   620  0941  3400               	retlw	0
   621  0942                     STR_7:
   622  0942  3436               	retlw	54	;'6'
   623  0943  3429               	retlw	41	;')'
   624  0944  3420               	retlw	32	;' '
   625  0945  344D               	retlw	77	;'M'
   626  0946  346F               	retlw	111	;'o'
   627  0947  3464               	retlw	100	;'d'
   628  0948  3469               	retlw	105	;'i'
   629  0949  3466               	retlw	102	;'f'
   630  094A  3469               	retlw	105	;'i'
   631  094B  3463               	retlw	99	;'c'
   632  094C  3461               	retlw	97	;'a'
   633  094D  3472               	retlw	114	;'r'
   634  094E  3420               	retlw	32	;' '
   635  094F  3468               	retlw	104	;'h'
   636  0950  346F               	retlw	111	;'o'
   637  0951  3472               	retlw	114	;'r'
   638  0952  3461               	retlw	97	;'a'
   639  0953  3472               	retlw	114	;'r'
   640  0954  3469               	retlw	105	;'i'
   641  0955  346F               	retlw	111	;'o'
   642  0956  3420               	retlw	32	;' '
   643  0957  3475               	retlw	117	;'u'
   644  0958  3473               	retlw	115	;'s'
   645  0959  3475               	retlw	117	;'u'
   646  095A  3461               	retlw	97	;'a'
   647  095B  3472               	retlw	114	;'r'
   648  095C  3469               	retlw	105	;'i'
   649  095D  346F               	retlw	111	;'o'
   650  095E  3420               	retlw	32	;' '
   651  095F  3474               	retlw	116	;'t'
   652  0960  3472               	retlw	114	;'r'
   653  0961  3465               	retlw	101	;'e'
   654  0962  3473               	retlw	115	;'s'
   655  0963  3420               	retlw	32	;' '
   656  0964  340D               	retlw	13
   657  0965  340D               	retlw	13
   658  0966  3400               	retlw	0
   659  0967                     STR_51:
   660  0967  3420               	retlw	32	;' '
   661  0968  3461               	retlw	97	;'a'
   662  0969  342E               	retlw	46	;'.'
   663  096A  3430               	retlw	48	;'0'
   664  096B  3420               	retlw	32	;' '
   665  096C  3420               	retlw	32	;' '
   666  096D  3462               	retlw	98	;'b'
   667  096E  342E               	retlw	46	;'.'
   668  096F  3431               	retlw	49	;'1'
   669  0970  3435               	retlw	53	;'5'
   670  0971  3420               	retlw	32	;' '
   671  0972  3420               	retlw	32	;' '
   672  0973  3420               	retlw	32	;' '
   673  0974  3463               	retlw	99	;'c'
   674  0975  342E               	retlw	46	;'.'
   675  0976  3433               	retlw	51	;'3'
   676  0977  3430               	retlw	48	;'0'
   677  0978  3420               	retlw	32	;' '
   678  0979  3420               	retlw	32	;' '
   679  097A  3420               	retlw	32	;' '
   680  097B  3464               	retlw	100	;'d'
   681  097C  342E               	retlw	46	;'.'
   682  097D  3434               	retlw	52	;'4'
   683  097E  3435               	retlw	53	;'5'
   684  097F  3420               	retlw	32	;' '
   685  0980  3420               	retlw	32	;' '
   686  0981  3420               	retlw	32	;' '
   687  0982  3465               	retlw	101	;'e'
   688  0983  342E               	retlw	46	;'.'
   689  0984  3435               	retlw	53	;'5'
   690  0985  3435               	retlw	53	;'5'
   691  0986  3420               	retlw	32	;' '
   692  0987  3420               	retlw	32	;' '
   693  0988  3420               	retlw	32	;' '
   694  0989  340D               	retlw	13
   695  098A  3400               	retlw	0
   696  098B                     STR_5:
   697  098B  3434               	retlw	52	;'4'
   698  098C  3429               	retlw	41	;')'
   699  098D  3420               	retlw	32	;' '
   700  098E  344D               	retlw	77	;'M'
   701  098F  346F               	retlw	111	;'o'
   702  0990  3464               	retlw	100	;'d'
   703  0991  3469               	retlw	105	;'i'
   704  0992  3466               	retlw	102	;'f'
   705  0993  3469               	retlw	105	;'i'
   706  0994  3463               	retlw	99	;'c'
   707  0995  3461               	retlw	97	;'a'
   708  0996  3472               	retlw	114	;'r'
   709  0997  3420               	retlw	32	;' '
   710  0998  3468               	retlw	104	;'h'
   711  0999  346F               	retlw	111	;'o'
   712  099A  3472               	retlw	114	;'r'
   713  099B  3461               	retlw	97	;'a'
   714  099C  3472               	retlw	114	;'r'
   715  099D  3469               	retlw	105	;'i'
   716  099E  346F               	retlw	111	;'o'
   717  099F  3420               	retlw	32	;' '
   718  09A0  3475               	retlw	117	;'u'
   719  09A1  3473               	retlw	115	;'s'
   720  09A2  3475               	retlw	117	;'u'
   721  09A3  3461               	retlw	97	;'a'
   722  09A4  3472               	retlw	114	;'r'
   723  09A5  3469               	retlw	105	;'i'
   724  09A6  346F               	retlw	111	;'o'
   725  09A7  3420               	retlw	32	;' '
   726  09A8  3475               	retlw	117	;'u'
   727  09A9  346E               	retlw	110	;'n'
   728  09AA  346F               	retlw	111	;'o'
   729  09AB  3420               	retlw	32	;' '
   730  09AC  340D               	retlw	13
   731  09AD  3400               	retlw	0
   732  09AE                     STR_6:
   733  09AE  3435               	retlw	53	;'5'
   734  09AF  3429               	retlw	41	;')'
   735  09B0  3420               	retlw	32	;' '
   736  09B1  344D               	retlw	77	;'M'
   737  09B2  346F               	retlw	111	;'o'
   738  09B3  3464               	retlw	100	;'d'
   739  09B4  3469               	retlw	105	;'i'
   740  09B5  3466               	retlw	102	;'f'
   741  09B6  3469               	retlw	105	;'i'
   742  09B7  3463               	retlw	99	;'c'
   743  09B8  3461               	retlw	97	;'a'
   744  09B9  3472               	retlw	114	;'r'
   745  09BA  3420               	retlw	32	;' '
   746  09BB  3468               	retlw	104	;'h'
   747  09BC  346F               	retlw	111	;'o'
   748  09BD  3472               	retlw	114	;'r'
   749  09BE  3461               	retlw	97	;'a'
   750  09BF  3472               	retlw	114	;'r'
   751  09C0  3469               	retlw	105	;'i'
   752  09C1  346F               	retlw	111	;'o'
   753  09C2  3420               	retlw	32	;' '
   754  09C3  3475               	retlw	117	;'u'
   755  09C4  3473               	retlw	115	;'s'
   756  09C5  3475               	retlw	117	;'u'
   757  09C6  3461               	retlw	97	;'a'
   758  09C7  3472               	retlw	114	;'r'
   759  09C8  3469               	retlw	105	;'i'
   760  09C9  346F               	retlw	111	;'o'
   761  09CA  3420               	retlw	32	;' '
   762  09CB  3464               	retlw	100	;'d'
   763  09CC  346F               	retlw	111	;'o'
   764  09CD  3473               	retlw	115	;'s'
   765  09CE  340D               	retlw	13
   766  09CF  3400               	retlw	0
   767  09D0                     STR_19:
   768  09D0  3420               	retlw	32	;' '
   769  09D1  346D               	retlw	109	;'m'
   770  09D2  3469               	retlw	105	;'i'
   771  09D3  346E               	retlw	110	;'n'
   772  09D4  3473               	retlw	115	;'s'
   773  09D5  342E               	retlw	46	;'.'
   774  09D6  3420               	retlw	32	;' '
   775  09D7  3470               	retlw	112	;'p'
   776  09D8  3461               	retlw	97	;'a'
   777  09D9  3472               	retlw	114	;'r'
   778  09DA  3461               	retlw	97	;'a'
   779  09DB  3420               	retlw	32	;' '
   780  09DC  3465               	retlw	101	;'e'
   781  09DD  346C               	retlw	108	;'l'
   782  09DE  3420               	retlw	32	;' '
   783  09DF  346D               	retlw	109	;'m'
   784  09E0  3465               	retlw	101	;'e'
   785  09E1  3464               	retlw	100	;'d'
   786  09E2  3469               	retlw	105	;'i'
   787  09E3  3463               	retlw	99	;'c'
   788  09E4  3461               	retlw	97	;'a'
   789  09E5  346D               	retlw	109	;'m'
   790  09E6  3465               	retlw	101	;'e'
   791  09E7  346E               	retlw	110	;'n'
   792  09E8  3474               	retlw	116	;'t'
   793  09E9  346F               	retlw	111	;'o'
   794  09EA  3420               	retlw	32	;' '
   795  09EB  3433               	retlw	51	;'3'
   796  09EC  3420               	retlw	32	;' '
   797  09ED  340D               	retlw	13
   798  09EE  340D               	retlw	13
   799  09EF  3400               	retlw	0
   800  09F0                     STR_11:
   801  09F0  3420               	retlw	32	;' '
   802  09F1  346D               	retlw	109	;'m'
   803  09F2  3469               	retlw	105	;'i'
   804  09F3  346E               	retlw	110	;'n'
   805  09F4  3473               	retlw	115	;'s'
   806  09F5  342E               	retlw	46	;'.'
   807  09F6  3420               	retlw	32	;' '
   808  09F7  3470               	retlw	112	;'p'
   809  09F8  3461               	retlw	97	;'a'
   810  09F9  3472               	retlw	114	;'r'
   811  09FA  3461               	retlw	97	;'a'
   812  09FB  3420               	retlw	32	;' '
   813  09FC  3465               	retlw	101	;'e'
   814  09FD  346C               	retlw	108	;'l'
   815  09FE  3420               	retlw	32	;' '
   816  09FF  346D               	retlw	109	;'m'
   817  0A00  3465               	retlw	101	;'e'
   818  0A01  3464               	retlw	100	;'d'
   819  0A02  3469               	retlw	105	;'i'
   820  0A03  3463               	retlw	99	;'c'
   821  0A04  3461               	retlw	97	;'a'
   822  0A05  346D               	retlw	109	;'m'
   823  0A06  3465               	retlw	101	;'e'
   824  0A07  346E               	retlw	110	;'n'
   825  0A08  3474               	retlw	116	;'t'
   826  0A09  346F               	retlw	111	;'o'
   827  0A0A  3420               	retlw	32	;' '
   828  0A0B  3431               	retlw	49	;'1'
   829  0A0C  3420               	retlw	32	;' '
   830  0A0D  340D               	retlw	13
   831  0A0E  3400               	retlw	0
   832  0A0F                     STR_15:
   833  0A0F  3420               	retlw	32	;' '
   834  0A10  346D               	retlw	109	;'m'
   835  0A11  3469               	retlw	105	;'i'
   836  0A12  346E               	retlw	110	;'n'
   837  0A13  3473               	retlw	115	;'s'
   838  0A14  342E               	retlw	46	;'.'
   839  0A15  3420               	retlw	32	;' '
   840  0A16  3470               	retlw	112	;'p'
   841  0A17  3461               	retlw	97	;'a'
   842  0A18  3472               	retlw	114	;'r'
   843  0A19  3461               	retlw	97	;'a'
   844  0A1A  3420               	retlw	32	;' '
   845  0A1B  3465               	retlw	101	;'e'
   846  0A1C  346C               	retlw	108	;'l'
   847  0A1D  3420               	retlw	32	;' '
   848  0A1E  346D               	retlw	109	;'m'
   849  0A1F  3465               	retlw	101	;'e'
   850  0A20  3464               	retlw	100	;'d'
   851  0A21  3469               	retlw	105	;'i'
   852  0A22  3463               	retlw	99	;'c'
   853  0A23  3461               	retlw	97	;'a'
   854  0A24  346D               	retlw	109	;'m'
   855  0A25  3465               	retlw	101	;'e'
   856  0A26  346E               	retlw	110	;'n'
   857  0A27  3474               	retlw	116	;'t'
   858  0A28  346F               	retlw	111	;'o'
   859  0A29  3420               	retlw	32	;' '
   860  0A2A  3432               	retlw	50	;'2'
   861  0A2B  3420               	retlw	32	;' '
   862  0A2C  340D               	retlw	13
   863  0A2D  3400               	retlw	0
   864  0A2E                     STR_1:
   865  0A2E  340D               	retlw	13
   866  0A2F  3420               	retlw	32	;' '
   867  0A30  3451               	retlw	81	;'Q'
   868  0A31  3475               	retlw	117	;'u'
   869  0A32  3465               	retlw	101	;'e'
   870  0A33  3420               	retlw	32	;' '
   871  0A34  3461               	retlw	97	;'a'
   872  0A35  3463               	retlw	99	;'c'
   873  0A36  3463               	retlw	99	;'c'
   874  0A37  3469               	retlw	105	;'i'
   875  0A38  346F               	retlw	111	;'o'
   876  0A39  346E               	retlw	110	;'n'
   877  0A3A  3420               	retlw	32	;' '
   878  0A3B  3464               	retlw	100	;'d'
   879  0A3C  3465               	retlw	101	;'e'
   880  0A3D  3473               	retlw	115	;'s'
   881  0A3E  3465               	retlw	101	;'e'
   882  0A3F  3461               	retlw	97	;'a'
   883  0A40  3420               	retlw	32	;' '
   884  0A41  3465               	retlw	101	;'e'
   885  0A42  346A               	retlw	106	;'j'
   886  0A43  3465               	retlw	101	;'e'
   887  0A44  3463               	retlw	99	;'c'
   888  0A45  3475               	retlw	117	;'u'
   889  0A46  3474               	retlw	116	;'t'
   890  0A47  3461               	retlw	97	;'a'
   891  0A48  3472               	retlw	114	;'r'
   892  0A49  343F               	retlw	63	;'?'
   893  0A4A  3420               	retlw	32	;' '
   894  0A4B  340D               	retlw	13
   895  0A4C  3400               	retlw	0
   896  0A4D                     STR_4:
   897  0A4D  3433               	retlw	51	;'3'
   898  0A4E  3429               	retlw	41	;')'
   899  0A4F  3420               	retlw	32	;' '
   900  0A50  3476               	retlw	118	;'v'
   901  0A51  3465               	retlw	101	;'e'
   902  0A52  3472               	retlw	114	;'r'
   903  0A53  3420               	retlw	32	;' '
   904  0A54  3464               	retlw	100	;'d'
   905  0A55  3461               	retlw	97	;'a'
   906  0A56  3474               	retlw	116	;'t'
   907  0A57  346F               	retlw	111	;'o'
   908  0A58  3473               	retlw	115	;'s'
   909  0A59  3420               	retlw	32	;' '
   910  0A5A  3464               	retlw	100	;'d'
   911  0A5B  3465               	retlw	101	;'e'
   912  0A5C  3420               	retlw	32	;' '
   913  0A5D  3475               	retlw	117	;'u'
   914  0A5E  3473               	retlw	115	;'s'
   915  0A5F  3475               	retlw	117	;'u'
   916  0A60  3461               	retlw	97	;'a'
   917  0A61  3472               	retlw	114	;'r'
   918  0A62  3469               	retlw	105	;'i'
   919  0A63  346F               	retlw	111	;'o'
   920  0A64  3420               	retlw	32	;' '
   921  0A65  3474               	retlw	116	;'t'
   922  0A66  3472               	retlw	114	;'r'
   923  0A67  3465               	retlw	101	;'e'
   924  0A68  3473               	retlw	115	;'s'
   925  0A69  3420               	retlw	32	;' '
   926  0A6A  340D               	retlw	13
   927  0A6B  3400               	retlw	0
   928  0A6C                     STR_2:
   929  0A6C  3431               	retlw	49	;'1'
   930  0A6D  3429               	retlw	41	;')'
   931  0A6E  3420               	retlw	32	;' '
   932  0A6F  3476               	retlw	118	;'v'
   933  0A70  3465               	retlw	101	;'e'
   934  0A71  3472               	retlw	114	;'r'
   935  0A72  3420               	retlw	32	;' '
   936  0A73  3464               	retlw	100	;'d'
   937  0A74  3461               	retlw	97	;'a'
   938  0A75  3474               	retlw	116	;'t'
   939  0A76  346F               	retlw	111	;'o'
   940  0A77  3473               	retlw	115	;'s'
   941  0A78  3420               	retlw	32	;' '
   942  0A79  3464               	retlw	100	;'d'
   943  0A7A  3465               	retlw	101	;'e'
   944  0A7B  3420               	retlw	32	;' '
   945  0A7C  3475               	retlw	117	;'u'
   946  0A7D  3473               	retlw	115	;'s'
   947  0A7E  3475               	retlw	117	;'u'
   948  0A7F  3461               	retlw	97	;'a'
   949  0A80  3472               	retlw	114	;'r'
   950  0A81  3469               	retlw	105	;'i'
   951  0A82  346F               	retlw	111	;'o'
   952  0A83  3420               	retlw	32	;' '
   953  0A84  3475               	retlw	117	;'u'
   954  0A85  346E               	retlw	110	;'n'
   955  0A86  346F               	retlw	111	;'o'
   956  0A87  3420               	retlw	32	;' '
   957  0A88  340D               	retlw	13
   958  0A89  3400               	retlw	0
   959  0A8A                     STR_3:
   960  0A8A  3432               	retlw	50	;'2'
   961  0A8B  3429               	retlw	41	;')'
   962  0A8C  3420               	retlw	32	;' '
   963  0A8D  3476               	retlw	118	;'v'
   964  0A8E  3465               	retlw	101	;'e'
   965  0A8F  3472               	retlw	114	;'r'
   966  0A90  3420               	retlw	32	;' '
   967  0A91  3464               	retlw	100	;'d'
   968  0A92  3461               	retlw	97	;'a'
   969  0A93  3474               	retlw	116	;'t'
   970  0A94  346F               	retlw	111	;'o'
   971  0A95  3473               	retlw	115	;'s'
   972  0A96  3420               	retlw	32	;' '
   973  0A97  3464               	retlw	100	;'d'
   974  0A98  3465               	retlw	101	;'e'
   975  0A99  3420               	retlw	32	;' '
   976  0A9A  3475               	retlw	117	;'u'
   977  0A9B  3473               	retlw	115	;'s'
   978  0A9C  3475               	retlw	117	;'u'
   979  0A9D  3461               	retlw	97	;'a'
   980  0A9E  3472               	retlw	114	;'r'
   981  0A9F  3469               	retlw	105	;'i'
   982  0AA0  346F               	retlw	111	;'o'
   983  0AA1  3420               	retlw	32	;' '
   984  0AA2  3464               	retlw	100	;'d'
   985  0AA3  346F               	retlw	111	;'o'
   986  0AA4  3473               	retlw	115	;'s'
   987  0AA5  340D               	retlw	13
   988  0AA6  3400               	retlw	0
   989  0AA7                     STR_56:
   990  0AA7  3420               	retlw	32	;' '
   991  0AA8  3431               	retlw	49	;'1'
   992  0AA9  342E               	retlw	46	;'.'
   993  0AAA  3441               	retlw	65	;'A'
   994  0AAB  3446               	retlw	70	;'F'
   995  0AAC  3443               	retlw	67	;'C'
   996  0AAD  3420               	retlw	32	;' '
   997  0AAE  3420               	retlw	32	;' '
   998  0AAF  3420               	retlw	32	;' '
   999  0AB0  3420               	retlw	32	;' '
  1000  0AB1  3432               	retlw	50	;'2'
  1001  0AB2  342E               	retlw	46	;'.'
  1002  0AB3  3446               	retlw	70	;'F'
  1003  0AB4  3446               	retlw	70	;'F'
  1004  0AB5  3454               	retlw	84	;'T'
  1005  0AB6  3420               	retlw	32	;' '
  1006  0AB7  3420               	retlw	32	;' '
  1007  0AB8  3420               	retlw	32	;' '
  1008  0AB9  3433               	retlw	51	;'3'
  1009  0ABA  342E               	retlw	46	;'.'
  1010  0ABB  3444               	retlw	68	;'D'
  1011  0ABC  3448               	retlw	72	;'H'
  1012  0ABD  344C               	retlw	76	;'L'
  1013  0ABE  3420               	retlw	32	;' '
  1014  0ABF  340D               	retlw	13
  1015  0AC0  3400               	retlw	0
  1016  0AC1                     STR_8:
  1017  0AC1  3420               	retlw	32	;' '
  1018  0AC2  3445               	retlw	69	;'E'
  1019  0AC3  3473               	retlw	115	;'s'
  1020  0AC4  3470               	retlw	112	;'p'
  1021  0AC5  3465               	retlw	101	;'e'
  1022  0AC6  3472               	retlw	114	;'r'
  1023  0AC7  3461               	retlw	97	;'a'
  1024  0AC8  3472               	retlw	114	;'r'
  1025  0AC9  3420               	retlw	32	;' '
  1026  0ACA  3420               	retlw	32	;' '
  1027  0ACB  3400               	retlw	0
  1028  0ACC                     STR_9:
  1029  0ACC  3420               	retlw	32	;' '
  1030  0ACD  3448               	retlw	72	;'H'
  1031  0ACE  346F               	retlw	111	;'o'
  1032  0ACF  3472               	retlw	114	;'r'
  1033  0AD0  3461               	retlw	97	;'a'
  1034  0AD1  3473               	retlw	115	;'s'
  1035  0AD2  3420               	retlw	32	;' '
  1036  0AD3  3400               	retlw	0
  1037  0AD4                     STR_10:
  1038  0AD4  3420               	retlw	32	;' '
  1039  0AD5  3463               	retlw	99	;'c'
  1040  0AD6  346F               	retlw	111	;'o'
  1041  0AD7  346E               	retlw	110	;'n'
  1042  0AD8  3420               	retlw	32	;' '
  1043  0AD9  3420               	retlw	32	;' '
  1044  0ADA  3400               	retlw	0
  1045  0ADB                     STR_85:
  1046  0ADB  3433               	retlw	51	;'3'
  1047  0ADC  3430               	retlw	48	;'0'
  1048  0ADD  3400               	retlw	0
  1049  0ADE                     STR_84:
  1050  0ADE  3431               	retlw	49	;'1'
  1051  0ADF  3435               	retlw	53	;'5'
  1052  0AE0  3400               	retlw	0
  1053  0AE1                     STR_86:
  1054  0AE1  3434               	retlw	52	;'4'
  1055  0AE2  3435               	retlw	53	;'5'
  1056  0AE3  3400               	retlw	0
  1057  0AE4                     STR_87:
  1058  0AE4  3435               	retlw	53	;'5'
  1059  0AE5  3435               	retlw	53	;'5'
  1060  0AE6  3400               	retlw	0
  1061  09D0                     
  1062                           	psect	cinit
  1063  000F                     start_initialization:	
  1064                           ; #config settings
  1065                           
  1066  000F                     __initialization:
  1067                           
  1068                           ; Clear objects allocated to COMMON
  1069  000F  01F6               	clrf	__pbssCOMMON& (0+127)
  1070  0010  01F7               	clrf	(__pbssCOMMON+1)& (0+127)
  1071  0011  01F8               	clrf	(__pbssCOMMON+2)& (0+127)
  1072  0012  01F9               	clrf	(__pbssCOMMON+3)& (0+127)
  1073  0013  01FA               	clrf	(__pbssCOMMON+4)& (0+127)
  1074                           
  1075                           ; Clear objects allocated to BANK0
  1076  0014  1383               	bcf	3,7	;select IRP bank0
  1077  0015  3020               	movlw	low __pbssBANK0
  1078  0016  0084               	movwf	4
  1079  0017  303C               	movlw	low (__pbssBANK0+28)
  1080  0018  120A  158A  2374  120A  118A  	fcall	clear_ram0
  1081  001D                     end_of_initialization:	
  1082                           ;End of C runtime variable initialization code
  1083                           
  1084  001D                     __end_of__initialization:
  1085  001D  0183               	clrf	3
  1086  001E  120A  158A  2D30   	ljmp	_main	;jump to C main() function
  1087                           
  1088                           	psect	bssCOMMON
  1089  0076                     __pbssCOMMON:
  1090  0076                     _hora_nueva:
  1091  0076                     	ds	1
  1092  0077                     _min_user1:
  1093  0077                     	ds	1
  1094  0078                     _escala:
  1095  0078                     	ds	1
  1096  0079                     _minuto:
  1097  0079                     	ds	1
  1098  007A                     _hora:
  1099  007A                     	ds	1
  1100                           
  1101                           	psect	bssBANK0
  1102  0020                     __pbssBANK0:
  1103  0020                     _horas:
  1104  0020                     	ds	1
  1105  0021                     _mins:
  1106  0021                     	ds	1
  1107  0022                     _cont:
  1108  0022                     	ds	1
  1109  0023                     _me_3_us3_m:
  1110  0023                     	ds	1
  1111  0024                     _me_2_us3_m:
  1112  0024                     	ds	1
  1113  0025                     _me_1_us3_m:
  1114  0025                     	ds	1
  1115  0026                     _me_3_us2_m:
  1116  0026                     	ds	1
  1117  0027                     _me_2_us2_m:
  1118  0027                     	ds	1
  1119  0028                     _me_1_us2_m:
  1120  0028                     	ds	1
  1121  0029                     _me_3_us1_m:
  1122  0029                     	ds	1
  1123  002A                     _me_2_us1_m:
  1124  002A                     	ds	1
  1125  002B                     _me_1_us1_m:
  1126  002B                     	ds	1
  1127  002C                     _me_3_us3_h:
  1128  002C                     	ds	1
  1129  002D                     _me_2_us3_h:
  1130  002D                     	ds	1
  1131  002E                     _me_1_us3_h:
  1132  002E                     	ds	1
  1133  002F                     _me_3_us2_h:
  1134  002F                     	ds	1
  1135  0030                     _me_2_us2_h:
  1136  0030                     	ds	1
  1137  0031                     _me_1_us2_h:
  1138  0031                     	ds	1
  1139  0032                     _me_3_us1_h:
  1140  0032                     	ds	1
  1141  0033                     _me_2_us1_h:
  1142  0033                     	ds	1
  1143  0034                     _me_1_us1_h:
  1144  0034                     	ds	1
  1145  0035                     _hora_user3:
  1146  0035                     	ds	1
  1147  0036                     _hora_user2:
  1148  0036                     	ds	1
  1149  0037                     _hora_user1:
  1150  0037                     	ds	1
  1151  0038                     _min_user3:
  1152  0038                     	ds	1
  1153  0039                     _min_user2:
  1154  0039                     	ds	1
  1155  003A                     _ventana:
  1156  003A                     	ds	1
  1157  003B                     _valor:
  1158  003B                     	ds	1
  1159                           
  1160                           	psect	clrtext
  1161  0B74                     clear_ram0:	
  1162                           ;	Called with FSR containing the base address, and
  1163                           ;	W with the last address+1
  1164                           
  1165  0B74  0064               	clrwdt	;clear the watchdog before getting into this loop
  1166  0B75                     clrloop0:
  1167  0B75  0180               	clrf	0	;clear RAM location pointed to by FSR
  1168  0B76  0A84               	incf	4,f	;increment pointer
  1169  0B77  0604               	xorwf	4,w	;XOR with final address
  1170  0B78  1903               	btfsc	3,2	;have we reached the end yet?
  1171  0B79  3400               	retlw	0	;all done for this memory range, return
  1172  0B7A  0604               	xorwf	4,w	;XOR again to restore value
  1173  0B7B  2B75               	goto	clrloop0	;do the next byte
  1174                           
  1175                           	psect	cstackCOMMON
  1176  0070                     __pcstackCOMMON:
  1177  0070                     ?_USART_Rx:
  1178  0070                     ?_SendCharH:	
  1179                           ; 1 bytes @ 0x0
  1180                           
  1181  0070                     ?_SendCharM:	
  1182                           ; 1 bytes @ 0x0
  1183                           
  1184  0070                     ?_isr:	
  1185                           ; 1 bytes @ 0x0
  1186                           
  1187  0070                     ??_isr:	
  1188                           ; 1 bytes @ 0x0
  1189                           
  1190  0070                     ?_main:	
  1191                           ; 1 bytes @ 0x0
  1192                           
  1193  0070                     ?_USART_Tx:	
  1194                           ; 1 bytes @ 0x0
  1195                           
  1196                           
  1197                           ; 1 bytes @ 0x0
  1198  0070                     	ds	3
  1199  0073                     ??_USART_Rx:
  1200  0073                     ??_SendCharH:	
  1201                           ; 1 bytes @ 0x3
  1202                           
  1203  0073                     ?_CharToNumH:	
  1204                           ; 1 bytes @ 0x3
  1205                           
  1206  0073                     ?_CharToNumM:	
  1207                           ; 1 bytes @ 0x3
  1208                           
  1209  0073                     ??_USART_Tx:	
  1210                           ; 1 bytes @ 0x3
  1211                           
  1212  0073                     USART_Tx@data:	
  1213                           ; 1 bytes @ 0x3
  1214                           
  1215  0073                     CharToNumH@hora_user:	
  1216                           ; 1 bytes @ 0x3
  1217                           
  1218  0073                     CharToNumM@her:	
  1219                           ; 1 bytes @ 0x3
  1220                           
  1221                           
  1222                           ; 1 bytes @ 0x3
  1223  0073                     	ds	1
  1224  0074                     ?_USART_Cadena:
  1225  0074                     ??_CharToNumH:	
  1226                           ; 1 bytes @ 0x4
  1227                           
  1228  0074                     ??_CharToNumM:	
  1229                           ; 1 bytes @ 0x4
  1230                           
  1231  0074                     USART_Cadena@str:	
  1232                           ; 1 bytes @ 0x4
  1233                           
  1234                           
  1235                           ; 2 bytes @ 0x4
  1236  0074                     	ds	1
  1237  0075                     SendCharH@in:
  1238  0075                     CharToNumM@in:	
  1239                           ; 1 bytes @ 0x5
  1240                           
  1241                           
  1242                           ; 1 bytes @ 0x5
  1243  0075                     	ds	1
  1244  0076                     ??_USART_Cadena:
  1245  0076                     ??_SendCharM:	
  1246                           ; 1 bytes @ 0x6
  1247                           
  1248                           
  1249                           	psect	cstackBANK0
  1250  003C                     __pcstackBANK0:	
  1251                           ; 1 bytes @ 0x6
  1252                           
  1253  003C                     SendCharM@in:
  1254  003C                     CharToNumH@in:	
  1255                           ; 1 bytes @ 0x0
  1256                           
  1257                           
  1258                           ; 1 bytes @ 0x0
  1259  003C                     	ds	1
  1260  003D                     ??_main:
  1261                           
  1262                           ; 1 bytes @ 0x1
  1263  003D                     	ds	2
  1264                           
  1265                           	psect	maintext
  1266  0D30                     __pmaintext:	
  1267 ;;
  1268 ;;Main: autosize = 0, tempsize = 2, incstack = 0, save=0
  1269 ;;
  1270 ;; *************** function _main *****************
  1271 ;; Defined at:
  1272 ;;		line 94 in file "PROYECTO.c"
  1273 ;; Parameters:    Size  Location     Type
  1274 ;;		None
  1275 ;; Auto vars:     Size  Location     Type
  1276 ;;		None
  1277 ;; Return value:  Size  Location     Type
  1278 ;;                  1    wreg      void 
  1279 ;; Registers used:
  1280 ;;		wreg, fsr0l, fsr0h, status,2, status,0, btemp+1, pclath, cstack
  1281 ;; Tracked objects:
  1282 ;;		On entry : B00/0
  1283 ;;		On exit  : 0/0
  1284 ;;		Unchanged: 0/0
  1285 ;; Data sizes:     COMMON   BANK0   BANK1   BANK3   BANK2
  1286 ;;      Params:         0       0       0       0       0
  1287 ;;      Locals:         0       0       0       0       0
  1288 ;;      Temps:          0       2       0       0       0
  1289 ;;      Totals:         0       2       0       0       0
  1290 ;;Total ram usage:        2 bytes
  1291 ;; Hardware stack levels required when called:    4
  1292 ;; This function calls:
  1293 ;;		_CharToNumH
  1294 ;;		_CharToNumM
  1295 ;;		_SendCharH
  1296 ;;		_SendCharM
  1297 ;;		_USART_Cadena
  1298 ;;		_USART_Rx
  1299 ;; This function is called by:
  1300 ;;		Startup code after reset
  1301 ;; This function uses a non-reentrant model
  1302 ;;
  1303                           
  1304                           
  1305                           ;psect for function _main
  1306  0D30                     _main:
  1307  0D30                     l3082:	
  1308                           ;incstack = 0
  1309                           ; Regs used in _main: [wreg-fsr0h+status,2+status,0+btemp+1+pclath+cstack]
  1310                           
  1311                           
  1312                           ;PROYECTO.c: 95:     ANSEL = 0x00;
  1313  0D30  1683               	bsf	3,5	;RP0=1, select bank3
  1314  0D31  1703               	bsf	3,6	;RP1=1, select bank3
  1315  0D32  0188               	clrf	8	;volatile
  1316                           
  1317                           ;PROYECTO.c: 96:     ANSELH = 0x00;
  1318  0D33  0189               	clrf	9	;volatile
  1319                           
  1320                           ;PROYECTO.c: 98:     TRISA = 0x00;
  1321  0D34  1683               	bsf	3,5	;RP0=1, select bank1
  1322  0D35  1303               	bcf	3,6	;RP1=0, select bank1
  1323  0D36  0185               	clrf	5	;volatile
  1324  0D37                     l3084:
  1325                           
  1326                           ;PROYECTO.c: 99:     TRISB = 0xff;
  1327  0D37  30FF               	movlw	255
  1328  0D38  0086               	movwf	6	;volatile
  1329  0D39                     l3086:
  1330                           
  1331                           ;PROYECTO.c: 100:     TRISD = 0x00;
  1332  0D39  0188               	clrf	8	;volatile
  1333                           
  1334                           ;PROYECTO.c: 101:     TRISE = 0b0011;
  1335  0D3A  3003               	movlw	3
  1336  0D3B  0089               	movwf	9	;volatile
  1337  0D3C                     l3088:
  1338                           
  1339                           ;PROYECTO.c: 104:     ADCON1bits.ADFM = 0;
  1340  0D3C  139F               	bcf	31,7	;volatile
  1341  0D3D                     l3090:
  1342                           
  1343                           ;PROYECTO.c: 105:     ADCON1bits.VCFG0 = 0;
  1344  0D3D  121F               	bcf	31,4	;volatile
  1345  0D3E                     l3092:
  1346                           
  1347                           ;PROYECTO.c: 106:     ADCON1bits.VCFG1 = 0;
  1348  0D3E  129F               	bcf	31,5	;volatile
  1349  0D3F                     l3094:
  1350                           
  1351                           ;PROYECTO.c: 107:     ADCON0bits.ADCS0 = 1;
  1352  0D3F  1283               	bcf	3,5	;RP0=0, select bank0
  1353  0D40  1303               	bcf	3,6	;RP1=0, select bank0
  1354  0D41  171F               	bsf	31,6	;volatile
  1355  0D42                     l3096:
  1356                           
  1357                           ;PROYECTO.c: 108:     ADCON0bits.ADCS1 = 0;
  1358  0D42  139F               	bcf	31,7	;volatile
  1359  0D43                     l3098:
  1360                           
  1361                           ;PROYECTO.c: 109:     ADCON0bits.CHS = 5;
  1362  0D43  081F               	movf	31,w	;volatile
  1363  0D44  39C3               	andlw	-61
  1364  0D45  3814               	iorlw	20
  1365  0D46  009F               	movwf	31	;volatile
  1366  0D47                     l3100:
  1367                           
  1368                           ;PROYECTO.c: 110:     _delay((unsigned long)((100)*(4000000/4000000.0)));
  1369  0D47  3020               	movlw	32
  1370  0D48  1283               	bcf	3,5	;RP0=0, select bank0
  1371  0D49  1303               	bcf	3,6	;RP1=0, select bank0
  1372  0D4A  00BD               	movwf	??_main
  1373  0D4B                     u4497:
  1374  0D4B  0BBD               	decfsz	??_main,f
  1375  0D4C  2D4B               	goto	u4497
  1376  0D4D  0000               	nop
  1377  0D4E                     l3102:
  1378                           
  1379                           ;PROYECTO.c: 111:     ADCON0bits.ADON = 1;
  1380  0D4E  1283               	bcf	3,5	;RP0=0, select bank0
  1381  0D4F  1303               	bcf	3,6	;RP1=0, select bank0
  1382  0D50  141F               	bsf	31,0	;volatile
  1383  0D51                     l3104:
  1384                           
  1385                           ;PROYECTO.c: 113:     OPTION_REGbits.nRBPU = 0;
  1386  0D51  1683               	bsf	3,5	;RP0=1, select bank1
  1387  0D52  1303               	bcf	3,6	;RP1=0, select bank1
  1388  0D53  1381               	bcf	1,7	;volatile
  1389  0D54                     l3106:
  1390                           
  1391                           ;PROYECTO.c: 114:     WPUBbits.WPUB0 = 1;
  1392  0D54  1415               	bsf	21,0	;volatile
  1393  0D55                     l3108:
  1394                           
  1395                           ;PROYECTO.c: 115:     WPUBbits.WPUB1 = 1;
  1396  0D55  1495               	bsf	21,1	;volatile
  1397  0D56                     l3110:
  1398                           
  1399                           ;PROYECTO.c: 116:     WPUBbits.WPUB2 = 1;
  1400  0D56  1515               	bsf	21,2	;volatile
  1401  0D57                     l3112:
  1402                           
  1403                           ;PROYECTO.c: 117:     WPUBbits.WPUB5 = 1;
  1404  0D57  1695               	bsf	21,5	;volatile
  1405  0D58                     l3114:
  1406                           
  1407                           ;PROYECTO.c: 118:     WPUBbits.WPUB6 = 1;
  1408  0D58  1715               	bsf	21,6	;volatile
  1409  0D59                     l3116:
  1410                           
  1411                           ;PROYECTO.c: 119:     WPUBbits.WPUB7 = 1;
  1412  0D59  1795               	bsf	21,7	;volatile
  1413                           
  1414                           ;PROYECTO.c: 122:     OSCCONbits.IRCF = 0b110;
  1415  0D5A  080F               	movf	15,w	;volatile
  1416  0D5B  398F               	andlw	-113
  1417  0D5C  3860               	iorlw	96
  1418  0D5D  008F               	movwf	15	;volatile
  1419  0D5E                     l3118:
  1420                           
  1421                           ;PROYECTO.c: 123:     OSCCONbits.SCS = 1;
  1422  0D5E  140F               	bsf	15,0	;volatile
  1423  0D5F                     l3120:
  1424                           
  1425                           ;PROYECTO.c: 126:     OPTION_REGbits.T0CS = 0;
  1426  0D5F  1281               	bcf	1,5	;volatile
  1427  0D60                     l3122:
  1428                           
  1429                           ;PROYECTO.c: 127:     OPTION_REGbits.PSA = 0;
  1430  0D60  1181               	bcf	1,3	;volatile
  1431                           
  1432                           ;PROYECTO.c: 128:     OPTION_REGbits.PS = 0b111;
  1433  0D61  3007               	movlw	7
  1434  0D62  0481               	iorwf	1,f	;volatile
  1435  0D63                     l3124:
  1436                           
  1437                           ;PROYECTO.c: 129:     TMR0 = 78;
  1438  0D63  304E               	movlw	78
  1439  0D64  1283               	bcf	3,5	;RP0=0, select bank0
  1440  0D65  1303               	bcf	3,6	;RP1=0, select bank0
  1441  0D66  0081               	movwf	1	;volatile
  1442  0D67                     l3126:
  1443                           
  1444                           ;PROYECTO.c: 132:     T1CONbits.T1CKPS1 = 1;
  1445  0D67  1690               	bsf	16,5	;volatile
  1446  0D68                     l3128:
  1447                           
  1448                           ;PROYECTO.c: 133:     T1CONbits.T1CKPS0 = 1;
  1449  0D68  1610               	bsf	16,4	;volatile
  1450  0D69                     l3130:
  1451                           
  1452                           ;PROYECTO.c: 134:     T1CONbits.T1OSCEN = 1;
  1453  0D69  1590               	bsf	16,3	;volatile
  1454  0D6A                     l3132:
  1455                           
  1456                           ;PROYECTO.c: 135:     T1CONbits.T1SYNC = 1;
  1457  0D6A  1510               	bsf	16,2	;volatile
  1458  0D6B                     l3134:
  1459                           
  1460                           ;PROYECTO.c: 136:     T1CONbits.TMR1CS = 0;
  1461  0D6B  1090               	bcf	16,1	;volatile
  1462  0D6C                     l3136:
  1463                           
  1464                           ;PROYECTO.c: 137:     T1CONbits.TMR1ON = 1;
  1465  0D6C  1410               	bsf	16,0	;volatile
  1466  0D6D                     l3138:
  1467                           
  1468                           ;PROYECTO.c: 138:     TMR1H = 0;
  1469  0D6D  018F               	clrf	15	;volatile
  1470  0D6E                     l3140:
  1471                           
  1472                           ;PROYECTO.c: 139:     TMR1L = 0;
  1473  0D6E  018E               	clrf	14	;volatile
  1474  0D6F                     l3142:
  1475                           
  1476                           ;PROYECTO.c: 143:     TXSTAbits.SYNC = 0;
  1477  0D6F  1683               	bsf	3,5	;RP0=1, select bank1
  1478  0D70  1303               	bcf	3,6	;RP1=0, select bank1
  1479  0D71  1218               	bcf	24,4	;volatile
  1480  0D72                     l3144:
  1481                           
  1482                           ;PROYECTO.c: 144:     TXSTAbits.BRGH = 1;
  1483  0D72  1518               	bsf	24,2	;volatile
  1484  0D73                     l3146:
  1485                           
  1486                           ;PROYECTO.c: 145:     BAUDCTLbits.BRG16 = 1;
  1487  0D73  1683               	bsf	3,5	;RP0=1, select bank3
  1488  0D74  1703               	bsf	3,6	;RP1=1, select bank3
  1489  0D75  1587               	bsf	7,3	;volatile
  1490  0D76                     l3148:
  1491                           
  1492                           ;PROYECTO.c: 147:     SPBRG = 103;
  1493  0D76  3067               	movlw	103
  1494  0D77  1683               	bsf	3,5	;RP0=1, select bank1
  1495  0D78  1303               	bcf	3,6	;RP1=0, select bank1
  1496  0D79  0099               	movwf	25	;volatile
  1497  0D7A                     l3150:
  1498                           
  1499                           ;PROYECTO.c: 148:     SPBRGH = 0;
  1500  0D7A  019A               	clrf	26	;volatile
  1501  0D7B                     l3152:
  1502                           
  1503                           ;PROYECTO.c: 150:     RCSTAbits.SPEN = 1;
  1504  0D7B  1283               	bcf	3,5	;RP0=0, select bank0
  1505  0D7C  1303               	bcf	3,6	;RP1=0, select bank0
  1506  0D7D  1798               	bsf	24,7	;volatile
  1507  0D7E                     l3154:
  1508                           
  1509                           ;PROYECTO.c: 151:     RCSTAbits.RX9 = 0;
  1510  0D7E  1318               	bcf	24,6	;volatile
  1511  0D7F                     l3156:
  1512                           
  1513                           ;PROYECTO.c: 152:     RCSTAbits.CREN = 1;
  1514  0D7F  1618               	bsf	24,4	;volatile
  1515  0D80                     l3158:
  1516                           
  1517                           ;PROYECTO.c: 153:     TXSTAbits.TXEN = 1;
  1518  0D80  1683               	bsf	3,5	;RP0=1, select bank1
  1519  0D81  1303               	bcf	3,6	;RP1=0, select bank1
  1520  0D82  1698               	bsf	24,5	;volatile
  1521  0D83                     l3160:
  1522                           
  1523                           ;PROYECTO.c: 155:     INTCONbits.GIE = 1;
  1524  0D83  178B               	bsf	11,7	;volatile
  1525  0D84                     l3162:
  1526                           
  1527                           ;PROYECTO.c: 156:     INTCONbits.T0IE = 0;
  1528  0D84  128B               	bcf	11,5	;volatile
  1529  0D85                     l3164:
  1530                           
  1531                           ;PROYECTO.c: 157:     INTCONbits.T0IF = 0;
  1532  0D85  110B               	bcf	11,2	;volatile
  1533  0D86                     l3166:
  1534                           
  1535                           ;PROYECTO.c: 158:     PIR1bits.TMR1IF = 0;
  1536  0D86  1283               	bcf	3,5	;RP0=0, select bank0
  1537  0D87  1303               	bcf	3,6	;RP1=0, select bank0
  1538  0D88  100C               	bcf	12,0	;volatile
  1539  0D89                     l3168:
  1540                           
  1541                           ;PROYECTO.c: 159:     PIE1bits.TMR1IE = 1;
  1542  0D89  1683               	bsf	3,5	;RP0=1, select bank1
  1543  0D8A  1303               	bcf	3,6	;RP1=0, select bank1
  1544  0D8B  140C               	bsf	12,0	;volatile
  1545  0D8C                     l3170:
  1546                           
  1547                           ;PROYECTO.c: 160:     INTCONbits.PEIE = 1;
  1548  0D8C  170B               	bsf	11,6	;volatile
  1549  0D8D                     l3172:
  1550                           
  1551                           ;PROYECTO.c: 165:     ADCON0bits.GO = 1;
  1552  0D8D  1283               	bcf	3,5	;RP0=0, select bank0
  1553  0D8E  1303               	bcf	3,6	;RP1=0, select bank0
  1554  0D8F  149F               	bsf	31,1	;volatile
  1555  0D90                     l3174:
  1556                           
  1557                           ;PROYECTO.c: 167:     PORTA = 0;
  1558  0D90  0185               	clrf	5	;volatile
  1559  0D91                     l3176:
  1560                           
  1561                           ;PROYECTO.c: 168:     PORTB = 0;
  1562  0D91  0186               	clrf	6	;volatile
  1563  0D92                     l3178:
  1564                           
  1565                           ;PROYECTO.c: 169:     PORTC = 0;
  1566  0D92  0187               	clrf	7	;volatile
  1567  0D93                     l3180:
  1568                           
  1569                           ;PROYECTO.c: 170:     PORTD = 0;
  1570  0D93  0188               	clrf	8	;volatile
  1571  0D94                     l3182:
  1572                           
  1573                           ;PROYECTO.c: 171:     PORTE = 0;
  1574  0D94  0189               	clrf	9	;volatile
  1575  0D95                     l3184:
  1576                           
  1577                           ;PROYECTO.c: 173:     ventana = 1;
  1578  0D95  01BA               	clrf	_ventana
  1579  0D96  0ABA               	incf	_ventana,f
  1580  0D97                     l3186:
  1581                           
  1582                           ;PROYECTO.c: 177:        if (T0IF == 1) {
  1583  0D97  1D0B               	btfss	11,2	;volatile
  1584  0D98  2D9A               	goto	u3391
  1585  0D99  2D9B               	goto	u3390
  1586  0D9A                     u3391:
  1587  0D9A  2DF0               	goto	l3224
  1588  0D9B                     u3390:
  1589  0D9B                     l3188:
  1590                           
  1591                           ;PROYECTO.c: 178:             if(!RB0){
  1592  0D9B  1806               	btfsc	6,0	;volatile
  1593  0D9C  2D9E               	goto	u3401
  1594  0D9D  2D9F               	goto	u3400
  1595  0D9E                     u3401:
  1596  0D9E  2DB1               	goto	l184
  1597  0D9F                     u3400:
  1598  0D9F                     l3190:
  1599                           
  1600                           ;PROYECTO.c: 179:                 RD0 = 1;
  1601  0D9F  1408               	bsf	8,0	;volatile
  1602  0DA0                     l3192:
  1603                           
  1604                           ;PROYECTO.c: 180:                 _delay((unsigned long)((2)*(4000000/4000.0)));
  1605  0DA0  3003               	movlw	3
  1606  0DA1  1283               	bcf	3,5	;RP0=0, select bank0
  1607  0DA2  1303               	bcf	3,6	;RP1=0, select bank0
  1608  0DA3  00BE               	movwf	??_main+1
  1609  0DA4  3097               	movlw	151
  1610  0DA5  00BD               	movwf	??_main
  1611  0DA6                     u4507:
  1612  0DA6  0BBD               	decfsz	??_main,f
  1613  0DA7  2DA6               	goto	u4507
  1614  0DA8  0BBE               	decfsz	??_main+1,f
  1615  0DA9  2DA6               	goto	u4507
  1616  0DAA                     l3194:
  1617                           
  1618                           ;PROYECTO.c: 181:                 RD0 = 0;
  1619  0DAA  1283               	bcf	3,5	;RP0=0, select bank0
  1620  0DAB  1303               	bcf	3,6	;RP1=0, select bank0
  1621  0DAC  1008               	bcf	8,0	;volatile
  1622                           
  1623                           ;PROYECTO.c: 182:                 TMR0 = 70;
  1624  0DAD  3046               	movlw	70
  1625  0DAE  0081               	movwf	1	;volatile
  1626  0DAF                     l3196:
  1627                           
  1628                           ;PROYECTO.c: 183:                 INTCONbits.T0IF = 0;
  1629  0DAF  110B               	bcf	11,2	;volatile
  1630                           
  1631                           ;PROYECTO.c: 184:             }
  1632  0DB0  2DF0               	goto	l3224
  1633  0DB1                     l184:	
  1634                           ;PROYECTO.c: 185:             else if(!RB1){
  1635                           
  1636  0DB1  1886               	btfsc	6,1	;volatile
  1637  0DB2  2DB4               	goto	u3411
  1638  0DB3  2DB5               	goto	u3410
  1639  0DB4                     u3411:
  1640  0DB4  2DC7               	goto	l186
  1641  0DB5                     u3410:
  1642  0DB5                     l3198:
  1643                           
  1644                           ;PROYECTO.c: 186:                 RD1 = 1;
  1645  0DB5  1488               	bsf	8,1	;volatile
  1646  0DB6                     l3200:
  1647                           
  1648                           ;PROYECTO.c: 187:                 _delay((unsigned long)((2)*(4000000/4000.0)));
  1649  0DB6  3003               	movlw	3
  1650  0DB7  1283               	bcf	3,5	;RP0=0, select bank0
  1651  0DB8  1303               	bcf	3,6	;RP1=0, select bank0
  1652  0DB9  00BE               	movwf	??_main+1
  1653  0DBA  3097               	movlw	151
  1654  0DBB  00BD               	movwf	??_main
  1655  0DBC                     u4517:
  1656  0DBC  0BBD               	decfsz	??_main,f
  1657  0DBD  2DBC               	goto	u4517
  1658  0DBE  0BBE               	decfsz	??_main+1,f
  1659  0DBF  2DBC               	goto	u4517
  1660  0DC0                     l3202:
  1661                           
  1662                           ;PROYECTO.c: 188:                 RD1 = 0;
  1663  0DC0  1283               	bcf	3,5	;RP0=0, select bank0
  1664  0DC1  1303               	bcf	3,6	;RP1=0, select bank0
  1665  0DC2  1088               	bcf	8,1	;volatile
  1666                           
  1667                           ;PROYECTO.c: 189:                 TMR0 = 70;
  1668  0DC3  3046               	movlw	70
  1669  0DC4  0081               	movwf	1	;volatile
  1670  0DC5                     l3204:
  1671                           
  1672                           ;PROYECTO.c: 190:                 INTCONbits.T0IF = 0;
  1673  0DC5  110B               	bcf	11,2	;volatile
  1674                           
  1675                           ;PROYECTO.c: 191:             }
  1676  0DC6  2DF0               	goto	l3224
  1677  0DC7                     l186:	
  1678                           ;PROYECTO.c: 192:             else if(!RB2){
  1679                           
  1680  0DC7  1906               	btfsc	6,2	;volatile
  1681  0DC8  2DCA               	goto	u3421
  1682  0DC9  2DCB               	goto	u3420
  1683  0DCA                     u3421:
  1684  0DCA  2DDD               	goto	l188
  1685  0DCB                     u3420:
  1686  0DCB                     l3206:
  1687                           
  1688                           ;PROYECTO.c: 193:                 RD2 = 1;
  1689  0DCB  1508               	bsf	8,2	;volatile
  1690  0DCC                     l3208:
  1691                           
  1692                           ;PROYECTO.c: 194:                 _delay((unsigned long)((2)*(4000000/4000.0)));
  1693  0DCC  3003               	movlw	3
  1694  0DCD  1283               	bcf	3,5	;RP0=0, select bank0
  1695  0DCE  1303               	bcf	3,6	;RP1=0, select bank0
  1696  0DCF  00BE               	movwf	??_main+1
  1697  0DD0  3097               	movlw	151
  1698  0DD1  00BD               	movwf	??_main
  1699  0DD2                     u4527:
  1700  0DD2  0BBD               	decfsz	??_main,f
  1701  0DD3  2DD2               	goto	u4527
  1702  0DD4  0BBE               	decfsz	??_main+1,f
  1703  0DD5  2DD2               	goto	u4527
  1704  0DD6                     l3210:
  1705                           
  1706                           ;PROYECTO.c: 195:                 RD2 = 0;
  1707  0DD6  1283               	bcf	3,5	;RP0=0, select bank0
  1708  0DD7  1303               	bcf	3,6	;RP1=0, select bank0
  1709  0DD8  1108               	bcf	8,2	;volatile
  1710                           
  1711                           ;PROYECTO.c: 196:                 TMR0 = 70;
  1712  0DD9  3046               	movlw	70
  1713  0DDA  0081               	movwf	1	;volatile
  1714  0DDB                     l3212:
  1715                           
  1716                           ;PROYECTO.c: 197:                 INTCONbits.T0IF = 0;
  1717  0DDB  110B               	bcf	11,2	;volatile
  1718                           
  1719                           ;PROYECTO.c: 198:             }
  1720  0DDC  2DF0               	goto	l3224
  1721  0DDD                     l188:	
  1722                           ;PROYECTO.c: 199:             else{
  1723                           
  1724                           
  1725                           ;PROYECTO.c: 200:                 RD0 = 1;
  1726  0DDD  1408               	bsf	8,0	;volatile
  1727                           
  1728                           ;PROYECTO.c: 201:                 RD1 = 1;
  1729  0DDE  1488               	bsf	8,1	;volatile
  1730                           
  1731                           ;PROYECTO.c: 202:                 RD2 = 1;
  1732  0DDF  1508               	bsf	8,2	;volatile
  1733  0DE0                     l3214:
  1734                           
  1735                           ;PROYECTO.c: 203:                 _delay((unsigned long)((1)*(4000000/4000.0)));
  1736  0DE0  30C7               	movlw	199
  1737  0DE1  1283               	bcf	3,5	;RP0=0, select bank0
  1738  0DE2  1303               	bcf	3,6	;RP1=0, select bank0
  1739  0DE3  00BD               	movwf	??_main
  1740  0DE4                     u4537:
  1741  0DE4  2DE5               	nop2
  1742  0DE5  0BBD               	decfsz	??_main,f
  1743  0DE6  2DE4               	goto	u4537
  1744  0DE7  2DE8               	nop2
  1745  0DE8                     l3216:
  1746                           
  1747                           ;PROYECTO.c: 204:                 RD1 = 0;
  1748  0DE8  1283               	bcf	3,5	;RP0=0, select bank0
  1749  0DE9  1303               	bcf	3,6	;RP1=0, select bank0
  1750  0DEA  1088               	bcf	8,1	;volatile
  1751  0DEB                     l3218:
  1752                           
  1753                           ;PROYECTO.c: 205:                 RD2 = 0;
  1754  0DEB  1108               	bcf	8,2	;volatile
  1755  0DEC                     l3220:
  1756                           
  1757                           ;PROYECTO.c: 206:                 RD0 = 0;
  1758  0DEC  1008               	bcf	8,0	;volatile
  1759                           
  1760                           ;PROYECTO.c: 207:                 TMR0 = 74;
  1761  0DED  304A               	movlw	74
  1762  0DEE  0081               	movwf	1	;volatile
  1763  0DEF                     l3222:
  1764                           
  1765                           ;PROYECTO.c: 208:                 INTCONbits.T0IF = 0;
  1766  0DEF  110B               	bcf	11,2	;volatile
  1767  0DF0                     l3224:
  1768                           
  1769                           ;PROYECTO.c: 212:        if(ADCON0bits.GO == 0){
  1770  0DF0  189F               	btfsc	31,1	;volatile
  1771  0DF1  2DF3               	goto	u3431
  1772  0DF2  2DF6               	goto	u3430
  1773  0DF3                     u3431:
  1774  0DF3  120A  118A  29EF   	goto	l190
  1775  0DF6                     u3430:
  1776  0DF6                     l3226:
  1777                           
  1778                           ;PROYECTO.c: 214:             if(ADCON0bits.CHS == 6){
  1779  0DF6  0C1F               	rrf	31,w	;volatile
  1780  0DF7  00BD               	movwf	??_main
  1781  0DF8  0C3D               	rrf	??_main,w
  1782  0DF9  390F               	andlw	15
  1783  0DFA  3A06               	xorlw	6
  1784  0DFB  1D03               	skipz
  1785  0DFC  2DFE               	goto	u3441
  1786  0DFD  2E01               	goto	u3440
  1787  0DFE                     u3441:
  1788  0DFE  120A  118A  283C   	goto	l3256
  1789  0E01                     u3440:
  1790  0E01                     l3228:
  1791                           
  1792                           ;PROYECTO.c: 215:                 escala = ADRESH;
  1793  0E01  081E               	movf	30,w	;volatile
  1794  0E02  00BD               	movwf	??_main
  1795  0E03  083D               	movf	??_main,w
  1796  0E04  00F8               	movwf	_escala
  1797                           
  1798                           ;PROYECTO.c: 216:                 if (escala >= 0 && escala <=42){
  1799  0E05  302B               	movlw	43
  1800  0E06  0278               	subwf	_escala,w
  1801  0E07  1803               	skipnc
  1802  0E08  2E0A               	goto	u3451
  1803  0E09  2E0B               	goto	u3450
  1804  0E0A                     u3451:
  1805  0E0A  2E0F               	goto	l3232
  1806  0E0B                     u3450:
  1807  0E0B                     l3230:
  1808                           
  1809                           ;PROYECTO.c: 217:                     minuto = 0;
  1810  0E0B  01F9               	clrf	_minuto
  1811  0E0C                     L1:
  1812                           
  1813                           ;PROYECTO.c: 218:                 }else if(escala >= 43 && escala <= 84 ){
  1814  0E0C  120A  118A  2837   	goto	l3254
  1815  0E0F                     l3232:
  1816  0E0F  302B               	movlw	43
  1817  0E10  0278               	subwf	_escala,w
  1818  0E11  1C03               	skipc
  1819  0E12  2E14               	goto	u3461
  1820  0E13  2E15               	goto	u3460
  1821  0E14                     u3461:
  1822  0E14  2E20               	goto	l3238
  1823  0E15                     u3460:
  1824  0E15                     l3234:
  1825  0E15  3055               	movlw	85
  1826  0E16  0278               	subwf	_escala,w
  1827  0E17  1803               	skipnc
  1828  0E18  2E1A               	goto	u3471
  1829  0E19  2E1B               	goto	u3470
  1830  0E1A                     u3471:
  1831  0E1A  2E20               	goto	l3238
  1832  0E1B                     u3470:
  1833  0E1B                     l3236:
  1834                           
  1835                           ;PROYECTO.c: 219:                     minuto = 15;
  1836  0E1B  300F               	movlw	15
  1837  0E1C  00BD               	movwf	??_main
  1838  0E1D  083D               	movf	??_main,w
  1839  0E1E  00F9               	movwf	_minuto
  1840                           
  1841                           ;PROYECTO.c: 220:                 }else if(escala >= 85 && escala <= 126 ){
  1842  0E1F  2E0C               	goto	L1
  1843  0E20                     l3238:
  1844  0E20  3055               	movlw	85
  1845  0E21  0278               	subwf	_escala,w
  1846  0E22  1C03               	skipc
  1847  0E23  2E25               	goto	u3481
  1848  0E24  2E26               	goto	u3480
  1849  0E25                     u3481:
  1850  0E25  2E31               	goto	l3244
  1851  0E26                     u3480:
  1852  0E26                     l3240:
  1853  0E26  307F               	movlw	127
  1854  0E27  0278               	subwf	_escala,w
  1855  0E28  1803               	skipnc
  1856  0E29  2E2B               	goto	u3491
  1857  0E2A  2E2C               	goto	u3490
  1858  0E2B                     u3491:
  1859  0E2B  2E31               	goto	l3244
  1860  0E2C                     u3490:
  1861  0E2C                     l3242:
  1862                           
  1863                           ;PROYECTO.c: 221:                     minuto = 30;
  1864  0E2C  301E               	movlw	30
  1865  0E2D  00BD               	movwf	??_main
  1866  0E2E  083D               	movf	??_main,w
  1867  0E2F  00F9               	movwf	_minuto
  1868                           
  1869                           ;PROYECTO.c: 222:                 }else if(escala >= 127 && escala <= 168 ){
  1870  0E30  2E0C               	goto	L1
  1871  0E31                     l3244:
  1872  0E31  307F               	movlw	127
  1873  0E32  0278               	subwf	_escala,w
  1874  0E33  1C03               	skipc
  1875  0E34  2E38               	goto	u3501
  1876  0E35  120A  118A  2821   	goto	u3500
  1877  0E38                     u3501:
  1878  0E38  120A  118A  282C   	goto	l3250
  1879                           
  1880                           	psect	text1
  1881  0B70                     __ptext1:	
  1882 ;; *************** function _USART_Rx *****************
  1883 ;; Defined at:
  1884 ;;		line 566 in file "PROYECTO.c"
  1885 ;; Parameters:    Size  Location     Type
  1886 ;;		None
  1887 ;; Auto vars:     Size  Location     Type
  1888 ;;		None
  1889 ;; Return value:  Size  Location     Type
  1890 ;;                  1    wreg      unsigned char 
  1891 ;; Registers used:
  1892 ;;		wreg
  1893 ;; Tracked objects:
  1894 ;;		On entry : 0/0
  1895 ;;		On exit  : 0/0
  1896 ;;		Unchanged: 0/0
  1897 ;; Data sizes:     COMMON   BANK0   BANK1   BANK3   BANK2
  1898 ;;      Params:         0       0       0       0       0
  1899 ;;      Locals:         0       0       0       0       0
  1900 ;;      Temps:          0       0       0       0       0
  1901 ;;      Totals:         0       0       0       0       0
  1902 ;;Total ram usage:        0 bytes
  1903 ;; Hardware stack levels used:    1
  1904 ;; Hardware stack levels required when called:    1
  1905 ;; This function calls:
  1906 ;;		Nothing
  1907 ;; This function is called by:
  1908 ;;		_main
  1909 ;; This function uses a non-reentrant model
  1910 ;;
  1911                           
  1912                           
  1913                           ;psect for function _USART_Rx
  1914  0B70                     _USART_Rx:
  1915  0B70                     l2076:	
  1916                           ;incstack = 0
  1917                           ; Regs used in _USART_Rx: [wreg]
  1918                           
  1919                           
  1920                           ;PROYECTO.c: 567:     return RCREG;
  1921  0B70  1283               	bcf	3,5	;RP0=0, select bank0
  1922  0B71  1303               	bcf	3,6	;RP1=0, select bank0
  1923  0B72  081A               	movf	26,w	;volatile
  1924  0B73                     l339:
  1925  0B73  0008               	return
  1926  0B74                     __end_of_USART_Rx:
  1927                           
  1928                           	psect	text2
  1929  0C02                     __ptext2:	
  1930 ;; *************** function _SendCharM *****************
  1931 ;; Defined at:
  1932 ;;		line 736 in file "PROYECTO.c"
  1933 ;; Parameters:    Size  Location     Type
  1934 ;;  in              1    wreg     unsigned char 
  1935 ;; Auto vars:     Size  Location     Type
  1936 ;;  in              1    0[BANK0 ] unsigned char 
  1937 ;; Return value:  Size  Location     Type
  1938 ;;                  1    wreg      void 
  1939 ;; Registers used:
  1940 ;;		wreg, fsr0l, fsr0h, status,2, status,0, btemp+1, pclath, cstack
  1941 ;; Tracked objects:
  1942 ;;		On entry : 0/0
  1943 ;;		On exit  : 0/0
  1944 ;;		Unchanged: 0/0
  1945 ;; Data sizes:     COMMON   BANK0   BANK1   BANK3   BANK2
  1946 ;;      Params:         0       0       0       0       0
  1947 ;;      Locals:         0       1       0       0       0
  1948 ;;      Temps:          0       0       0       0       0
  1949 ;;      Totals:         0       1       0       0       0
  1950 ;;Total ram usage:        1 bytes
  1951 ;; Hardware stack levels used:    1
  1952 ;; Hardware stack levels required when called:    3
  1953 ;; This function calls:
  1954 ;;		_USART_Cadena
  1955 ;; This function is called by:
  1956 ;;		_main
  1957 ;; This function uses a non-reentrant model
  1958 ;;
  1959                           
  1960                           
  1961                           ;psect for function _SendCharM
  1962  0C02                     _SendCharM:
  1963                           
  1964                           ;incstack = 0
  1965                           ; Regs used in _SendCharM: [wreg-fsr0h+status,2+status,0+btemp+1+pclath+cstack]
  1966                           ;SendCharM@in stored from wreg
  1967  0C02  1283               	bcf	3,5	;RP0=0, select bank0
  1968  0C03  1303               	bcf	3,6	;RP1=0, select bank0
  1969  0C04  00BC               	movwf	SendCharM@in
  1970  0C05                     l2996:
  1971  0C05                     l498:	
  1972                           ;PROYECTO.c: 737:     while(TXSTAbits.TRMT == 0);
  1973                           
  1974  0C05  1683               	bsf	3,5	;RP0=1, select bank1
  1975  0C06  1303               	bcf	3,6	;RP1=0, select bank1
  1976  0C07  1C98               	btfss	24,1	;volatile
  1977  0C08  2C0A               	goto	u3331
  1978  0C09  2C0B               	goto	u3330
  1979  0C0A                     u3331:
  1980  0C0A  2C05               	goto	l498
  1981  0C0B                     u3330:
  1982  0C0B                     l2998:
  1983                           
  1984                           ;PROYECTO.c: 738:         if(in == 0) {
  1985  0C0B  1283               	bcf	3,5	;RP0=0, select bank0
  1986  0C0C  1303               	bcf	3,6	;RP1=0, select bank0
  1987  0C0D  083C               	movf	SendCharM@in,w
  1988  0C0E  1D03               	btfss	3,2
  1989  0C0F  2C11               	goto	u3341
  1990  0C10  2C12               	goto	u3340
  1991  0C11                     u3341:
  1992  0C11  2C1C               	goto	l3002
  1993  0C12                     u3340:
  1994  0C12                     l3000:
  1995                           
  1996                           ;PROYECTO.c: 739:             USART_Cadena("0");
  1997  0C12  30DC               	movlw	low ((STR_85+1)| (0+32768))
  1998  0C13  00F4               	movwf	USART_Cadena@str
  1999  0C14  308A               	movlw	high ((STR_85+1)| (0+32768))
  2000  0C15  00F5               	movwf	USART_Cadena@str+1
  2001  0C16  120A  158A  237C  120A  158A  	fcall	_USART_Cadena
  2002                           
  2003                           ;PROYECTO.c: 740:         }else if (in == 15){
  2004  0C1B  2C5C               	goto	l510
  2005  0C1C                     l3002:
  2006  0C1C  300F               	movlw	15
  2007  0C1D  063C               	xorwf	SendCharM@in,w
  2008  0C1E  1D03               	btfss	3,2
  2009  0C1F  2C21               	goto	u3351
  2010  0C20  2C22               	goto	u3350
  2011  0C21                     u3351:
  2012  0C21  2C2C               	goto	l3006
  2013  0C22                     u3350:
  2014  0C22                     l3004:
  2015                           
  2016                           ;PROYECTO.c: 741:             USART_Cadena("15");
  2017  0C22  30DE               	movlw	low (STR_84| (0+32768))
  2018  0C23  00F4               	movwf	USART_Cadena@str
  2019  0C24  308A               	movlw	high (STR_84| (0+32768))
  2020  0C25  00F5               	movwf	USART_Cadena@str+1
  2021  0C26  120A  158A  237C  120A  158A  	fcall	_USART_Cadena
  2022                           
  2023                           ;PROYECTO.c: 742:         }else if (in == 30){
  2024  0C2B  2C5C               	goto	l510
  2025  0C2C                     l3006:
  2026  0C2C  301E               	movlw	30
  2027  0C2D  063C               	xorwf	SendCharM@in,w
  2028  0C2E  1D03               	btfss	3,2
  2029  0C2F  2C31               	goto	u3361
  2030  0C30  2C32               	goto	u3360
  2031  0C31                     u3361:
  2032  0C31  2C3C               	goto	l3010
  2033  0C32                     u3360:
  2034  0C32                     l3008:
  2035                           
  2036                           ;PROYECTO.c: 743:             USART_Cadena("30");
  2037  0C32  30DB               	movlw	low (STR_85| (0+32768))
  2038  0C33  00F4               	movwf	USART_Cadena@str
  2039  0C34  308A               	movlw	high (STR_85| (0+32768))
  2040  0C35  00F5               	movwf	USART_Cadena@str+1
  2041  0C36  120A  158A  237C  120A  158A  	fcall	_USART_Cadena
  2042                           
  2043                           ;PROYECTO.c: 744:         }else if (in == 45){
  2044  0C3B  2C5C               	goto	l510
  2045  0C3C                     l3010:
  2046  0C3C  302D               	movlw	45
  2047  0C3D  063C               	xorwf	SendCharM@in,w
  2048  0C3E  1D03               	btfss	3,2
  2049  0C3F  2C41               	goto	u3371
  2050  0C40  2C42               	goto	u3370
  2051  0C41                     u3371:
  2052  0C41  2C4C               	goto	l3014
  2053  0C42                     u3370:
  2054  0C42                     l3012:
  2055                           
  2056                           ;PROYECTO.c: 745:             USART_Cadena("45");
  2057  0C42  30E1               	movlw	low (STR_86| (0+32768))
  2058  0C43  00F4               	movwf	USART_Cadena@str
  2059  0C44  308A               	movlw	high (STR_86| (0+32768))
  2060  0C45  00F5               	movwf	USART_Cadena@str+1
  2061  0C46  120A  158A  237C  120A  158A  	fcall	_USART_Cadena
  2062                           
  2063                           ;PROYECTO.c: 746:         }else if (in == 55){
  2064  0C4B  2C5C               	goto	l510
  2065  0C4C                     l3014:
  2066  0C4C  3037               	movlw	55
  2067  0C4D  063C               	xorwf	SendCharM@in,w
  2068  0C4E  1D03               	btfss	3,2
  2069  0C4F  2C51               	goto	u3381
  2070  0C50  2C52               	goto	u3380
  2071  0C51                     u3381:
  2072  0C51  2C5C               	goto	l504
  2073  0C52                     u3380:
  2074  0C52                     l3016:
  2075                           
  2076                           ;PROYECTO.c: 747:             USART_Cadena("55");
  2077  0C52  30E4               	movlw	low (STR_87| (0+32768))
  2078  0C53  00F4               	movwf	USART_Cadena@str
  2079  0C54  308A               	movlw	high (STR_87| (0+32768))
  2080  0C55  00F5               	movwf	USART_Cadena@str+1
  2081  0C56  120A  158A  237C  120A  158A  	fcall	_USART_Cadena
  2082  0C5B  2C5C               	goto	l510
  2083  0C5C                     l504:
  2084  0C5C                     l510:
  2085  0C5C  0008               	return
  2086  0C5D                     __end_of_SendCharM:
  2087                           
  2088                           	psect	text3
  2089  0B7C                     __ptext3:	
  2090 ;; *************** function _USART_Cadena *****************
  2091 ;; Defined at:
  2092 ;;		line 570 in file "PROYECTO.c"
  2093 ;; Parameters:    Size  Location     Type
  2094 ;;  str             2    4[COMMON] PTR unsigned char 
  2095 ;;		 -> STR_87(3), STR_86(3), STR_85(3), STR_84(3), 
  2096 ;;		 -> STR_83(2), STR_82(26), STR_81(48), STR_80(43), 
  2097 ;;		 -> STR_79(3), STR_78(3), STR_77(36), STR_76(44), 
  2098 ;;		 -> STR_75(3), STR_74(3), STR_73(48), STR_72(48), 
  2099 ;;		 -> STR_71(52), STR_70(39), STR_69(26), STR_68(48), 
  2100 ;;		 -> STR_67(43), STR_66(3), STR_65(3), STR_64(36), 
  2101 ;;		 -> STR_63(44), STR_62(3), STR_61(3), STR_60(48), 
  2102 ;;		 -> STR_59(48), STR_58(52), STR_57(39), STR_56(26), 
  2103 ;;		 -> STR_55(48), STR_54(43), STR_53(3), STR_52(3), 
  2104 ;;		 -> STR_51(36), STR_50(44), STR_49(3), STR_48(3), 
  2105 ;;		 -> STR_47(48), STR_46(48), STR_45(52), STR_44(39), 
  2106 ;;		 -> STR_43(32), STR_42(7), STR_41(8), STR_40(11), 
  2107 ;;		 -> STR_39(31), STR_38(7), STR_37(8), STR_36(11), 
  2108 ;;		 -> STR_35(31), STR_34(7), STR_33(8), STR_32(11), 
  2109 ;;		 -> STR_31(32), STR_30(7), STR_29(8), STR_28(11), 
  2110 ;;		 -> STR_27(31), STR_26(7), STR_25(8), STR_24(11), 
  2111 ;;		 -> STR_23(31), STR_22(7), STR_21(8), STR_20(11), 
  2112 ;;		 -> STR_19(32), STR_18(7), STR_17(8), STR_16(11), 
  2113 ;;		 -> STR_15(31), STR_14(7), STR_13(8), STR_12(11), 
  2114 ;;		 -> STR_11(31), STR_10(7), STR_9(8), STR_8(11), 
  2115 ;;		 -> STR_7(37), STR_6(34), STR_5(35), STR_4(31), 
  2116 ;;		 -> STR_3(29), STR_2(30), STR_1(31), 
  2117 ;; Auto vars:     Size  Location     Type
  2118 ;;		None
  2119 ;; Return value:  Size  Location     Type
  2120 ;;                  1    wreg      void 
  2121 ;; Registers used:
  2122 ;;		wreg, fsr0l, fsr0h, status,2, status,0, btemp+1, pclath, cstack
  2123 ;; Tracked objects:
  2124 ;;		On entry : 0/0
  2125 ;;		On exit  : 0/0
  2126 ;;		Unchanged: 0/0
  2127 ;; Data sizes:     COMMON   BANK0   BANK1   BANK3   BANK2
  2128 ;;      Params:         2       0       0       0       0
  2129 ;;      Locals:         0       0       0       0       0
  2130 ;;      Temps:          0       0       0       0       0
  2131 ;;      Totals:         2       0       0       0       0
  2132 ;;Total ram usage:        2 bytes
  2133 ;; Hardware stack levels used:    1
  2134 ;; Hardware stack levels required when called:    2
  2135 ;; This function calls:
  2136 ;;		_USART_Tx
  2137 ;; This function is called by:
  2138 ;;		_main
  2139 ;;		_SendCharM
  2140 ;; This function uses a non-reentrant model
  2141 ;;
  2142                           
  2143                           
  2144                           ;psect for function _USART_Cadena
  2145  0B7C                     _USART_Cadena:
  2146  0B7C                     l2988:	
  2147                           ;incstack = 0
  2148                           ; Regs used in _USART_Cadena: [wreg-fsr0h+status,2+status,0+btemp+1+pclath+cstack]
  2149                           
  2150                           
  2151                           ;PROYECTO.c: 571:     while(*str != '\0'){
  2152  0B7C  2B91               	goto	l2994
  2153  0B7D                     l2990:
  2154                           
  2155                           ;PROYECTO.c: 572:         USART_Tx(*str);
  2156  0B7D  0875               	movf	USART_Cadena@str+1,w
  2157  0B7E  00FF               	movwf	btemp+1
  2158  0B7F  0874               	movf	USART_Cadena@str,w
  2159  0B80  0084               	movwf	4
  2160  0B81  120A  118A  27DF  120A  158A  	fcall	stringtab
  2161  0B86  120A  118A  27F1  120A  158A  	fcall	_USART_Tx
  2162  0B8B                     l2992:
  2163                           
  2164                           ;PROYECTO.c: 573:         str++;
  2165  0B8B  3001               	movlw	1
  2166  0B8C  07F4               	addwf	USART_Cadena@str,f
  2167  0B8D  1803               	skipnc
  2168  0B8E  0AF5               	incf	USART_Cadena@str+1,f
  2169  0B8F  3000               	movlw	0
  2170  0B90  07F5               	addwf	USART_Cadena@str+1,f
  2171  0B91                     l2994:
  2172                           
  2173                           ;PROYECTO.c: 571:     while(*str != '\0'){
  2174  0B91  0875               	movf	USART_Cadena@str+1,w
  2175  0B92  1283               	bcf	3,5	;RP0=0, select bank0
  2176  0B93  1303               	bcf	3,6	;RP1=0, select bank0
  2177  0B94  00FF               	movwf	btemp+1
  2178  0B95  0874               	movf	USART_Cadena@str,w
  2179  0B96  0084               	movwf	4
  2180  0B97  120A  118A  27DF  120A  158A  	fcall	stringtab
  2181  0B9C  3A00               	xorlw	0
  2182  0B9D  1D03               	skipz
  2183  0B9E  2BA0               	goto	u3321
  2184  0B9F  2BA1               	goto	u3320
  2185  0BA0                     u3321:
  2186  0BA0  2B7D               	goto	l2990
  2187  0BA1                     u3320:
  2188  0BA1                     l345:
  2189  0BA1  0008               	return
  2190  0BA2                     __end_of_USART_Cadena:
  2191                           
  2192                           	psect	text4
  2193  07F1                     __ptext4:	
  2194 ;; *************** function _USART_Tx *****************
  2195 ;; Defined at:
  2196 ;;		line 561 in file "PROYECTO.c"
  2197 ;; Parameters:    Size  Location     Type
  2198 ;;  data            1    wreg     unsigned char 
  2199 ;; Auto vars:     Size  Location     Type
  2200 ;;  data            1    3[COMMON] unsigned char 
  2201 ;; Return value:  Size  Location     Type
  2202 ;;                  1    wreg      void 
  2203 ;; Registers used:
  2204 ;;		wreg
  2205 ;; Tracked objects:
  2206 ;;		On entry : 0/0
  2207 ;;		On exit  : 0/0
  2208 ;;		Unchanged: 0/0
  2209 ;; Data sizes:     COMMON   BANK0   BANK1   BANK3   BANK2
  2210 ;;      Params:         0       0       0       0       0
  2211 ;;      Locals:         1       0       0       0       0
  2212 ;;      Temps:          0       0       0       0       0
  2213 ;;      Totals:         1       0       0       0       0
  2214 ;;Total ram usage:        1 bytes
  2215 ;; Hardware stack levels used:    1
  2216 ;; Hardware stack levels required when called:    1
  2217 ;; This function calls:
  2218 ;;		Nothing
  2219 ;; This function is called by:
  2220 ;;		_USART_Cadena
  2221 ;; This function uses a non-reentrant model
  2222 ;;
  2223                           
  2224                           
  2225                           ;psect for function _USART_Tx
  2226  07F1                     _USART_Tx:
  2227                           
  2228                           ;incstack = 0
  2229                           ; Regs used in _USART_Tx: [wreg]
  2230                           ;USART_Tx@data stored from wreg
  2231  07F1  00F3               	movwf	USART_Tx@data
  2232  07F2                     l2984:
  2233  07F2                     l333:	
  2234                           ;PROYECTO.c: 562:     while(TXSTAbits.TRMT == 0);
  2235                           
  2236  07F2  1683               	bsf	3,5	;RP0=1, select bank1
  2237  07F3  1303               	bcf	3,6	;RP1=0, select bank1
  2238  07F4  1C98               	btfss	24,1	;volatile
  2239  07F5  2FF7               	goto	u3311
  2240  07F6  2FF8               	goto	u3310
  2241  07F7                     u3311:
  2242  07F7  2FF2               	goto	l333
  2243  07F8                     u3310:
  2244  07F8                     l2986:
  2245                           
  2246                           ;PROYECTO.c: 563:     TXREG = data;
  2247  07F8  0873               	movf	USART_Tx@data,w
  2248  07F9  1283               	bcf	3,5	;RP0=0, select bank0
  2249  07FA  1303               	bcf	3,6	;RP1=0, select bank0
  2250  07FB  0099               	movwf	25	;volatile
  2251  07FC                     l336:
  2252  07FC  0008               	return
  2253  07FD                     __end_of_USART_Tx:
  2254                           
  2255                           	psect	text5
  2256  0E3B                     __ptext5:	
  2257 ;; *************** function _SendCharH *****************
  2258 ;; Defined at:
  2259 ;;		line 577 in file "PROYECTO.c"
  2260 ;; Parameters:    Size  Location     Type
  2261 ;;  in              1    wreg     unsigned char 
  2262 ;; Auto vars:     Size  Location     Type
  2263 ;;  in              1    5[COMMON] unsigned char 
  2264 ;; Return value:  Size  Location     Type
  2265 ;;                  1    wreg      void 
  2266 ;; Registers used:
  2267 ;;		wreg, fsr0l, fsr0h, status,2, status,0
  2268 ;; Tracked objects:
  2269 ;;		On entry : 0/0
  2270 ;;		On exit  : 0/0
  2271 ;;		Unchanged: 0/0
  2272 ;; Data sizes:     COMMON   BANK0   BANK1   BANK3   BANK2
  2273 ;;      Params:         0       0       0       0       0
  2274 ;;      Locals:         1       0       0       0       0
  2275 ;;      Temps:          2       0       0       0       0
  2276 ;;      Totals:         3       0       0       0       0
  2277 ;;Total ram usage:        3 bytes
  2278 ;; Hardware stack levels used:    1
  2279 ;; Hardware stack levels required when called:    1
  2280 ;; This function calls:
  2281 ;;		Nothing
  2282 ;; This function is called by:
  2283 ;;		_main
  2284 ;; This function uses a non-reentrant model
  2285 ;;
  2286                           
  2287                           
  2288                           ;psect for function _SendCharH
  2289  0E3B                     _SendCharH:
  2290                           
  2291                           ;incstack = 0
  2292                           ; Regs used in _SendCharH: [wreg-fsr0h+status,2+status,0]
  2293                           ;SendCharH@in stored from wreg
  2294  0E3B  00F5               	movwf	SendCharH@in
  2295  0E3C                     l2080:
  2296                           
  2297                           ;PROYECTO.c: 578:     switch(in){
  2298  0E3C  2FAA               	goto	l2164
  2299  0E3D                     l350:
  2300  0E3D  1683               	bsf	3,5	;RP0=1, select bank1
  2301  0E3E  1303               	bcf	3,6	;RP1=0, select bank1
  2302  0E3F  1C98               	btfss	24,1	;volatile
  2303  0E40  2E42               	goto	u1681
  2304  0E41  2E43               	goto	u1680
  2305  0E42                     u1681:
  2306  0E42  2E3D               	goto	l350
  2307  0E43                     u1680:
  2308  0E43                     l2082:
  2309                           
  2310                           ;PROYECTO.c: 581:             TXREG = 48;
  2311  0E43  3030               	movlw	48
  2312  0E44  1283               	bcf	3,5	;RP0=0, select bank0
  2313  0E45  1303               	bcf	3,6	;RP1=0, select bank0
  2314  0E46  0099               	movwf	25	;volatile
  2315                           
  2316                           ;PROYECTO.c: 582:         break;
  2317  0E47  2FFF               	goto	l495
  2318  0E48                     l355:
  2319  0E48  1683               	bsf	3,5	;RP0=1, select bank1
  2320  0E49  1303               	bcf	3,6	;RP1=0, select bank1
  2321  0E4A  1C98               	btfss	24,1	;volatile
  2322  0E4B  2E4D               	goto	u1691
  2323  0E4C  2E4E               	goto	u1690
  2324  0E4D                     u1691:
  2325  0E4D  2E48               	goto	l355
  2326  0E4E                     u1690:
  2327  0E4E                     l2084:
  2328                           
  2329                           ;PROYECTO.c: 586:             TXREG = 49;
  2330  0E4E  3031               	movlw	49
  2331  0E4F  1283               	bcf	3,5	;RP0=0, select bank0
  2332  0E50  1303               	bcf	3,6	;RP1=0, select bank0
  2333  0E51  0099               	movwf	25	;volatile
  2334                           
  2335                           ;PROYECTO.c: 587:         break;
  2336  0E52  2FFF               	goto	l495
  2337  0E53                     l359:
  2338  0E53  1683               	bsf	3,5	;RP0=1, select bank1
  2339  0E54  1303               	bcf	3,6	;RP1=0, select bank1
  2340  0E55  1C98               	btfss	24,1	;volatile
  2341  0E56  2E58               	goto	u1701
  2342  0E57  2E59               	goto	u1700
  2343  0E58                     u1701:
  2344  0E58  2E53               	goto	l359
  2345  0E59                     u1700:
  2346  0E59                     l2086:
  2347                           
  2348                           ;PROYECTO.c: 591:             TXREG = 50;
  2349  0E59  3032               	movlw	50
  2350  0E5A  1283               	bcf	3,5	;RP0=0, select bank0
  2351  0E5B  1303               	bcf	3,6	;RP1=0, select bank0
  2352  0E5C  0099               	movwf	25	;volatile
  2353                           
  2354                           ;PROYECTO.c: 592:         break;
  2355  0E5D  2FFF               	goto	l495
  2356  0E5E                     l363:
  2357  0E5E  1683               	bsf	3,5	;RP0=1, select bank1
  2358  0E5F  1303               	bcf	3,6	;RP1=0, select bank1
  2359  0E60  1C98               	btfss	24,1	;volatile
  2360  0E61  2E63               	goto	u1711
  2361  0E62  2E64               	goto	u1710
  2362  0E63                     u1711:
  2363  0E63  2E5E               	goto	l363
  2364  0E64                     u1710:
  2365  0E64                     l2088:
  2366                           
  2367                           ;PROYECTO.c: 596:             TXREG = 51;
  2368  0E64  3033               	movlw	51
  2369  0E65  1283               	bcf	3,5	;RP0=0, select bank0
  2370  0E66  1303               	bcf	3,6	;RP1=0, select bank0
  2371  0E67  0099               	movwf	25	;volatile
  2372                           
  2373                           ;PROYECTO.c: 597:         break;
  2374  0E68  2FFF               	goto	l495
  2375  0E69                     l367:
  2376  0E69  1683               	bsf	3,5	;RP0=1, select bank1
  2377  0E6A  1303               	bcf	3,6	;RP1=0, select bank1
  2378  0E6B  1C98               	btfss	24,1	;volatile
  2379  0E6C  2E6E               	goto	u1721
  2380  0E6D  2E6F               	goto	u1720
  2381  0E6E                     u1721:
  2382  0E6E  2E69               	goto	l367
  2383  0E6F                     u1720:
  2384  0E6F                     l2090:
  2385                           
  2386                           ;PROYECTO.c: 601:             TXREG = 52;
  2387  0E6F  3034               	movlw	52
  2388  0E70  1283               	bcf	3,5	;RP0=0, select bank0
  2389  0E71  1303               	bcf	3,6	;RP1=0, select bank0
  2390  0E72  0099               	movwf	25	;volatile
  2391                           
  2392                           ;PROYECTO.c: 602:         break;
  2393  0E73  2FFF               	goto	l495
  2394  0E74                     l371:
  2395  0E74  1683               	bsf	3,5	;RP0=1, select bank1
  2396  0E75  1303               	bcf	3,6	;RP1=0, select bank1
  2397  0E76  1C98               	btfss	24,1	;volatile
  2398  0E77  2E79               	goto	u1731
  2399  0E78  2E7A               	goto	u1730
  2400  0E79                     u1731:
  2401  0E79  2E74               	goto	l371
  2402  0E7A                     u1730:
  2403  0E7A                     l2092:
  2404                           
  2405                           ;PROYECTO.c: 606:             TXREG = 53;
  2406  0E7A  3035               	movlw	53
  2407  0E7B  1283               	bcf	3,5	;RP0=0, select bank0
  2408  0E7C  1303               	bcf	3,6	;RP1=0, select bank0
  2409  0E7D  0099               	movwf	25	;volatile
  2410                           
  2411                           ;PROYECTO.c: 607:         break;
  2412  0E7E  2FFF               	goto	l495
  2413  0E7F                     l375:
  2414  0E7F  1683               	bsf	3,5	;RP0=1, select bank1
  2415  0E80  1303               	bcf	3,6	;RP1=0, select bank1
  2416  0E81  1C98               	btfss	24,1	;volatile
  2417  0E82  2E84               	goto	u1741
  2418  0E83  2E85               	goto	u1740
  2419  0E84                     u1741:
  2420  0E84  2E7F               	goto	l375
  2421  0E85                     u1740:
  2422  0E85                     l2094:
  2423                           
  2424                           ;PROYECTO.c: 611:             TXREG = 54;
  2425  0E85  3036               	movlw	54
  2426  0E86  1283               	bcf	3,5	;RP0=0, select bank0
  2427  0E87  1303               	bcf	3,6	;RP1=0, select bank0
  2428  0E88  0099               	movwf	25	;volatile
  2429                           
  2430                           ;PROYECTO.c: 612:         break;
  2431  0E89  2FFF               	goto	l495
  2432  0E8A                     l379:
  2433  0E8A  1683               	bsf	3,5	;RP0=1, select bank1
  2434  0E8B  1303               	bcf	3,6	;RP1=0, select bank1
  2435  0E8C  1C98               	btfss	24,1	;volatile
  2436  0E8D  2E8F               	goto	u1751
  2437  0E8E  2E90               	goto	u1750
  2438  0E8F                     u1751:
  2439  0E8F  2E8A               	goto	l379
  2440  0E90                     u1750:
  2441  0E90                     l2096:
  2442                           
  2443                           ;PROYECTO.c: 616:             TXREG = 55;
  2444  0E90  3037               	movlw	55
  2445  0E91  1283               	bcf	3,5	;RP0=0, select bank0
  2446  0E92  1303               	bcf	3,6	;RP1=0, select bank0
  2447  0E93  0099               	movwf	25	;volatile
  2448                           
  2449                           ;PROYECTO.c: 617:         break;
  2450  0E94  2FFF               	goto	l495
  2451  0E95                     l383:
  2452  0E95  1683               	bsf	3,5	;RP0=1, select bank1
  2453  0E96  1303               	bcf	3,6	;RP1=0, select bank1
  2454  0E97  1C98               	btfss	24,1	;volatile
  2455  0E98  2E9A               	goto	u1761
  2456  0E99  2E9B               	goto	u1760
  2457  0E9A                     u1761:
  2458  0E9A  2E95               	goto	l383
  2459  0E9B                     u1760:
  2460  0E9B                     l2098:
  2461                           
  2462                           ;PROYECTO.c: 621:             TXREG = 56;
  2463  0E9B  3038               	movlw	56
  2464  0E9C  1283               	bcf	3,5	;RP0=0, select bank0
  2465  0E9D  1303               	bcf	3,6	;RP1=0, select bank0
  2466  0E9E  0099               	movwf	25	;volatile
  2467                           
  2468                           ;PROYECTO.c: 622:         break;
  2469  0E9F  2FFF               	goto	l495
  2470  0EA0                     l387:
  2471  0EA0  1683               	bsf	3,5	;RP0=1, select bank1
  2472  0EA1  1303               	bcf	3,6	;RP1=0, select bank1
  2473  0EA2  1C98               	btfss	24,1	;volatile
  2474  0EA3  2EA5               	goto	u1771
  2475  0EA4  2EA6               	goto	u1770
  2476  0EA5                     u1771:
  2477  0EA5  2EA0               	goto	l387
  2478  0EA6                     u1770:
  2479  0EA6                     l2100:
  2480                           
  2481                           ;PROYECTO.c: 626:             TXREG = 57;
  2482  0EA6  3039               	movlw	57
  2483  0EA7  1283               	bcf	3,5	;RP0=0, select bank0
  2484  0EA8  1303               	bcf	3,6	;RP1=0, select bank0
  2485  0EA9  0099               	movwf	25	;volatile
  2486                           
  2487                           ;PROYECTO.c: 627:         break;
  2488  0EAA  2FFF               	goto	l495
  2489  0EAB                     l391:
  2490  0EAB  1683               	bsf	3,5	;RP0=1, select bank1
  2491  0EAC  1303               	bcf	3,6	;RP1=0, select bank1
  2492  0EAD  1C98               	btfss	24,1	;volatile
  2493  0EAE  2EB0               	goto	u1781
  2494  0EAF  2EB1               	goto	u1780
  2495  0EB0                     u1781:
  2496  0EB0  2EAB               	goto	l391
  2497  0EB1                     u1780:
  2498  0EB1                     l2102:
  2499                           
  2500                           ;PROYECTO.c: 631:             TXREG = 49;
  2501  0EB1  3031               	movlw	49
  2502  0EB2  1283               	bcf	3,5	;RP0=0, select bank0
  2503  0EB3  1303               	bcf	3,6	;RP1=0, select bank0
  2504  0EB4  0099               	movwf	25	;volatile
  2505  0EB5                     l394:	
  2506                           ;PROYECTO.c: 632:             while(TXSTAbits.TRMT == 0);
  2507                           
  2508  0EB5  1683               	bsf	3,5	;RP0=1, select bank1
  2509  0EB6  1303               	bcf	3,6	;RP1=0, select bank1
  2510  0EB7  1C98               	btfss	24,1	;volatile
  2511  0EB8  2EBA               	goto	u1791
  2512  0EB9  2EBB               	goto	u1790
  2513  0EBA                     u1791:
  2514  0EBA  2EB5               	goto	l394
  2515  0EBB                     u1790:
  2516  0EBB  2E43               	goto	l2082
  2517  0EBC                     l398:
  2518  0EBC  1683               	bsf	3,5	;RP0=1, select bank1
  2519  0EBD  1303               	bcf	3,6	;RP1=0, select bank1
  2520  0EBE  1C98               	btfss	24,1	;volatile
  2521  0EBF  2EC1               	goto	u1801
  2522  0EC0  2EC2               	goto	u1800
  2523  0EC1                     u1801:
  2524  0EC1  2EBC               	goto	l398
  2525  0EC2                     u1800:
  2526  0EC2                     l2106:
  2527                           
  2528                           ;PROYECTO.c: 638:             TXREG = 49;
  2529  0EC2  3031               	movlw	49
  2530  0EC3  1283               	bcf	3,5	;RP0=0, select bank0
  2531  0EC4  1303               	bcf	3,6	;RP1=0, select bank0
  2532  0EC5  0099               	movwf	25	;volatile
  2533  0EC6                     l401:	
  2534                           ;PROYECTO.c: 639:             while(TXSTAbits.TRMT == 0);
  2535                           
  2536  0EC6  1683               	bsf	3,5	;RP0=1, select bank1
  2537  0EC7  1303               	bcf	3,6	;RP1=0, select bank1
  2538  0EC8  1C98               	btfss	24,1	;volatile
  2539  0EC9  2ECB               	goto	u1811
  2540  0ECA  2ECC               	goto	u1810
  2541  0ECB                     u1811:
  2542  0ECB  2EC6               	goto	l401
  2543  0ECC                     u1810:
  2544  0ECC  2E4E               	goto	l2084
  2545  0ECD                     l405:
  2546  0ECD  1683               	bsf	3,5	;RP0=1, select bank1
  2547  0ECE  1303               	bcf	3,6	;RP1=0, select bank1
  2548  0ECF  1C98               	btfss	24,1	;volatile
  2549  0ED0  2ED2               	goto	u1821
  2550  0ED1  2ED3               	goto	u1820
  2551  0ED2                     u1821:
  2552  0ED2  2ECD               	goto	l405
  2553  0ED3                     u1820:
  2554  0ED3                     l2110:
  2555                           
  2556                           ;PROYECTO.c: 645:             TXREG = 49;
  2557  0ED3  3031               	movlw	49
  2558  0ED4  1283               	bcf	3,5	;RP0=0, select bank0
  2559  0ED5  1303               	bcf	3,6	;RP1=0, select bank0
  2560  0ED6  0099               	movwf	25	;volatile
  2561  0ED7                     l408:	
  2562                           ;PROYECTO.c: 646:             while(TXSTAbits.TRMT == 0);
  2563                           
  2564  0ED7  1683               	bsf	3,5	;RP0=1, select bank1
  2565  0ED8  1303               	bcf	3,6	;RP1=0, select bank1
  2566  0ED9  1C98               	btfss	24,1	;volatile
  2567  0EDA  2EDC               	goto	u1831
  2568  0EDB  2EDD               	goto	u1830
  2569  0EDC                     u1831:
  2570  0EDC  2ED7               	goto	l408
  2571  0EDD                     u1830:
  2572  0EDD  2E59               	goto	l2086
  2573  0EDE                     l412:
  2574  0EDE  1683               	bsf	3,5	;RP0=1, select bank1
  2575  0EDF  1303               	bcf	3,6	;RP1=0, select bank1
  2576  0EE0  1C98               	btfss	24,1	;volatile
  2577  0EE1  2EE3               	goto	u1841
  2578  0EE2  2EE4               	goto	u1840
  2579  0EE3                     u1841:
  2580  0EE3  2EDE               	goto	l412
  2581  0EE4                     u1840:
  2582  0EE4                     l2114:
  2583                           
  2584                           ;PROYECTO.c: 652:             TXREG = 49;
  2585  0EE4  3031               	movlw	49
  2586  0EE5  1283               	bcf	3,5	;RP0=0, select bank0
  2587  0EE6  1303               	bcf	3,6	;RP1=0, select bank0
  2588  0EE7  0099               	movwf	25	;volatile
  2589  0EE8                     l415:	
  2590                           ;PROYECTO.c: 653:             while(TXSTAbits.TRMT == 0);
  2591                           
  2592  0EE8  1683               	bsf	3,5	;RP0=1, select bank1
  2593  0EE9  1303               	bcf	3,6	;RP1=0, select bank1
  2594  0EEA  1C98               	btfss	24,1	;volatile
  2595  0EEB  2EED               	goto	u1851
  2596  0EEC  2EEE               	goto	u1850
  2597  0EED                     u1851:
  2598  0EED  2EE8               	goto	l415
  2599  0EEE                     u1850:
  2600  0EEE  2E64               	goto	l2088
  2601  0EEF                     l419:
  2602  0EEF  1683               	bsf	3,5	;RP0=1, select bank1
  2603  0EF0  1303               	bcf	3,6	;RP1=0, select bank1
  2604  0EF1  1C98               	btfss	24,1	;volatile
  2605  0EF2  2EF4               	goto	u1861
  2606  0EF3  2EF5               	goto	u1860
  2607  0EF4                     u1861:
  2608  0EF4  2EEF               	goto	l419
  2609  0EF5                     u1860:
  2610  0EF5                     l2118:
  2611                           
  2612                           ;PROYECTO.c: 659:             TXREG = 49;
  2613  0EF5  3031               	movlw	49
  2614  0EF6  1283               	bcf	3,5	;RP0=0, select bank0
  2615  0EF7  1303               	bcf	3,6	;RP1=0, select bank0
  2616  0EF8  0099               	movwf	25	;volatile
  2617  0EF9                     l422:	
  2618                           ;PROYECTO.c: 660:             while(TXSTAbits.TRMT == 0);
  2619                           
  2620  0EF9  1683               	bsf	3,5	;RP0=1, select bank1
  2621  0EFA  1303               	bcf	3,6	;RP1=0, select bank1
  2622  0EFB  1C98               	btfss	24,1	;volatile
  2623  0EFC  2EFE               	goto	u1871
  2624  0EFD  2EFF               	goto	u1870
  2625  0EFE                     u1871:
  2626  0EFE  2EF9               	goto	l422
  2627  0EFF                     u1870:
  2628  0EFF  2E6F               	goto	l2090
  2629  0F00                     l426:
  2630  0F00  1683               	bsf	3,5	;RP0=1, select bank1
  2631  0F01  1303               	bcf	3,6	;RP1=0, select bank1
  2632  0F02  1C98               	btfss	24,1	;volatile
  2633  0F03  2F05               	goto	u1881
  2634  0F04  2F06               	goto	u1880
  2635  0F05                     u1881:
  2636  0F05  2F00               	goto	l426
  2637  0F06                     u1880:
  2638  0F06                     l2122:
  2639                           
  2640                           ;PROYECTO.c: 666:             TXREG = 49;
  2641  0F06  3031               	movlw	49
  2642  0F07  1283               	bcf	3,5	;RP0=0, select bank0
  2643  0F08  1303               	bcf	3,6	;RP1=0, select bank0
  2644  0F09  0099               	movwf	25	;volatile
  2645  0F0A                     l429:	
  2646                           ;PROYECTO.c: 667:             while(TXSTAbits.TRMT == 0);
  2647                           
  2648  0F0A  1683               	bsf	3,5	;RP0=1, select bank1
  2649  0F0B  1303               	bcf	3,6	;RP1=0, select bank1
  2650  0F0C  1C98               	btfss	24,1	;volatile
  2651  0F0D  2F0F               	goto	u1891
  2652  0F0E  2F10               	goto	u1890
  2653  0F0F                     u1891:
  2654  0F0F  2F0A               	goto	l429
  2655  0F10                     u1890:
  2656  0F10  2E7A               	goto	l2092
  2657  0F11                     l433:
  2658  0F11  1683               	bsf	3,5	;RP0=1, select bank1
  2659  0F12  1303               	bcf	3,6	;RP1=0, select bank1
  2660  0F13  1C98               	btfss	24,1	;volatile
  2661  0F14  2F16               	goto	u1901
  2662  0F15  2F17               	goto	u1900
  2663  0F16                     u1901:
  2664  0F16  2F11               	goto	l433
  2665  0F17                     u1900:
  2666  0F17                     l2126:
  2667                           
  2668                           ;PROYECTO.c: 673:             TXREG = 49;
  2669  0F17  3031               	movlw	49
  2670  0F18  1283               	bcf	3,5	;RP0=0, select bank0
  2671  0F19  1303               	bcf	3,6	;RP1=0, select bank0
  2672  0F1A  0099               	movwf	25	;volatile
  2673  0F1B                     l436:	
  2674                           ;PROYECTO.c: 674:             while(TXSTAbits.TRMT == 0);
  2675                           
  2676  0F1B  1683               	bsf	3,5	;RP0=1, select bank1
  2677  0F1C  1303               	bcf	3,6	;RP1=0, select bank1
  2678  0F1D  1C98               	btfss	24,1	;volatile
  2679  0F1E  2F20               	goto	u1911
  2680  0F1F  2F21               	goto	u1910
  2681  0F20                     u1911:
  2682  0F20  2F1B               	goto	l436
  2683  0F21                     u1910:
  2684  0F21  2E85               	goto	l2094
  2685  0F22                     l440:
  2686  0F22  1683               	bsf	3,5	;RP0=1, select bank1
  2687  0F23  1303               	bcf	3,6	;RP1=0, select bank1
  2688  0F24  1C98               	btfss	24,1	;volatile
  2689  0F25  2F27               	goto	u1921
  2690  0F26  2F28               	goto	u1920
  2691  0F27                     u1921:
  2692  0F27  2F22               	goto	l440
  2693  0F28                     u1920:
  2694  0F28                     l2130:
  2695                           
  2696                           ;PROYECTO.c: 680:             TXREG = 49;
  2697  0F28  3031               	movlw	49
  2698  0F29  1283               	bcf	3,5	;RP0=0, select bank0
  2699  0F2A  1303               	bcf	3,6	;RP1=0, select bank0
  2700  0F2B  0099               	movwf	25	;volatile
  2701  0F2C                     l443:	
  2702                           ;PROYECTO.c: 681:             while(TXSTAbits.TRMT == 0);
  2703                           
  2704  0F2C  1683               	bsf	3,5	;RP0=1, select bank1
  2705  0F2D  1303               	bcf	3,6	;RP1=0, select bank1
  2706  0F2E  1C98               	btfss	24,1	;volatile
  2707  0F2F  2F31               	goto	u1931
  2708  0F30  2F32               	goto	u1930
  2709  0F31                     u1931:
  2710  0F31  2F2C               	goto	l443
  2711  0F32                     u1930:
  2712  0F32  2E90               	goto	l2096
  2713  0F33                     l447:
  2714  0F33  1683               	bsf	3,5	;RP0=1, select bank1
  2715  0F34  1303               	bcf	3,6	;RP1=0, select bank1
  2716  0F35  1C98               	btfss	24,1	;volatile
  2717  0F36  2F38               	goto	u1941
  2718  0F37  2F39               	goto	u1940
  2719  0F38                     u1941:
  2720  0F38  2F33               	goto	l447
  2721  0F39                     u1940:
  2722  0F39                     l2134:
  2723                           
  2724                           ;PROYECTO.c: 687:             TXREG = 49;
  2725  0F39  3031               	movlw	49
  2726  0F3A  1283               	bcf	3,5	;RP0=0, select bank0
  2727  0F3B  1303               	bcf	3,6	;RP1=0, select bank0
  2728  0F3C  0099               	movwf	25	;volatile
  2729  0F3D                     l450:	
  2730                           ;PROYECTO.c: 688:             while(TXSTAbits.TRMT == 0);
  2731                           
  2732  0F3D  1683               	bsf	3,5	;RP0=1, select bank1
  2733  0F3E  1303               	bcf	3,6	;RP1=0, select bank1
  2734  0F3F  1C98               	btfss	24,1	;volatile
  2735  0F40  2F42               	goto	u1951
  2736  0F41  2F43               	goto	u1950
  2737  0F42                     u1951:
  2738  0F42  2F3D               	goto	l450
  2739  0F43                     u1950:
  2740  0F43  2E9B               	goto	l2098
  2741  0F44                     l454:
  2742  0F44  1683               	bsf	3,5	;RP0=1, select bank1
  2743  0F45  1303               	bcf	3,6	;RP1=0, select bank1
  2744  0F46  1C98               	btfss	24,1	;volatile
  2745  0F47  2F49               	goto	u1961
  2746  0F48  2F4A               	goto	u1960
  2747  0F49                     u1961:
  2748  0F49  2F44               	goto	l454
  2749  0F4A                     u1960:
  2750  0F4A                     l2138:
  2751                           
  2752                           ;PROYECTO.c: 694:             TXREG = 49;
  2753  0F4A  3031               	movlw	49
  2754  0F4B  1283               	bcf	3,5	;RP0=0, select bank0
  2755  0F4C  1303               	bcf	3,6	;RP1=0, select bank0
  2756  0F4D  0099               	movwf	25	;volatile
  2757  0F4E                     l457:	
  2758                           ;PROYECTO.c: 695:             while(TXSTAbits.TRMT == 0);
  2759                           
  2760  0F4E  1683               	bsf	3,5	;RP0=1, select bank1
  2761  0F4F  1303               	bcf	3,6	;RP1=0, select bank1
  2762  0F50  1C98               	btfss	24,1	;volatile
  2763  0F51  2F53               	goto	u1971
  2764  0F52  2F54               	goto	u1970
  2765  0F53                     u1971:
  2766  0F53  2F4E               	goto	l457
  2767  0F54                     u1970:
  2768  0F54  2EA6               	goto	l2100
  2769  0F55                     l461:
  2770  0F55  1683               	bsf	3,5	;RP0=1, select bank1
  2771  0F56  1303               	bcf	3,6	;RP1=0, select bank1
  2772  0F57  1C98               	btfss	24,1	;volatile
  2773  0F58  2F5A               	goto	u1981
  2774  0F59  2F5B               	goto	u1980
  2775  0F5A                     u1981:
  2776  0F5A  2F55               	goto	l461
  2777  0F5B                     u1980:
  2778  0F5B                     l2142:
  2779                           
  2780                           ;PROYECTO.c: 701:             TXREG = 50;
  2781  0F5B  3032               	movlw	50
  2782  0F5C  1283               	bcf	3,5	;RP0=0, select bank0
  2783  0F5D  1303               	bcf	3,6	;RP1=0, select bank0
  2784  0F5E  0099               	movwf	25	;volatile
  2785  0F5F                     l464:	
  2786                           ;PROYECTO.c: 702:             while(TXSTAbits.TRMT == 0);
  2787                           
  2788  0F5F  1683               	bsf	3,5	;RP0=1, select bank1
  2789  0F60  1303               	bcf	3,6	;RP1=0, select bank1
  2790  0F61  1C98               	btfss	24,1	;volatile
  2791  0F62  2F64               	goto	u1991
  2792  0F63  2F65               	goto	u1990
  2793  0F64                     u1991:
  2794  0F64  2F5F               	goto	l464
  2795  0F65                     u1990:
  2796  0F65  2E43               	goto	l2082
  2797  0F66                     l468:
  2798  0F66  1683               	bsf	3,5	;RP0=1, select bank1
  2799  0F67  1303               	bcf	3,6	;RP1=0, select bank1
  2800  0F68  1C98               	btfss	24,1	;volatile
  2801  0F69  2F6B               	goto	u2001
  2802  0F6A  2F6C               	goto	u2000
  2803  0F6B                     u2001:
  2804  0F6B  2F66               	goto	l468
  2805  0F6C                     u2000:
  2806  0F6C                     l2146:
  2807                           
  2808                           ;PROYECTO.c: 708:             TXREG = 50;
  2809  0F6C  3032               	movlw	50
  2810  0F6D  1283               	bcf	3,5	;RP0=0, select bank0
  2811  0F6E  1303               	bcf	3,6	;RP1=0, select bank0
  2812  0F6F  0099               	movwf	25	;volatile
  2813  0F70                     l471:	
  2814                           ;PROYECTO.c: 709:             while(TXSTAbits.TRMT == 0);
  2815                           
  2816  0F70  1683               	bsf	3,5	;RP0=1, select bank1
  2817  0F71  1303               	bcf	3,6	;RP1=0, select bank1
  2818  0F72  1C98               	btfss	24,1	;volatile
  2819  0F73  2F75               	goto	u2011
  2820  0F74  2F76               	goto	u2010
  2821  0F75                     u2011:
  2822  0F75  2F70               	goto	l471
  2823  0F76                     u2010:
  2824  0F76  2E4E               	goto	l2084
  2825  0F77                     l475:
  2826  0F77  1683               	bsf	3,5	;RP0=1, select bank1
  2827  0F78  1303               	bcf	3,6	;RP1=0, select bank1
  2828  0F79  1C98               	btfss	24,1	;volatile
  2829  0F7A  2F7C               	goto	u2021
  2830  0F7B  2F7D               	goto	u2020
  2831  0F7C                     u2021:
  2832  0F7C  2F77               	goto	l475
  2833  0F7D                     u2020:
  2834  0F7D                     l2150:
  2835                           
  2836                           ;PROYECTO.c: 715:             TXREG = 50;
  2837  0F7D  3032               	movlw	50
  2838  0F7E  1283               	bcf	3,5	;RP0=0, select bank0
  2839  0F7F  1303               	bcf	3,6	;RP1=0, select bank0
  2840  0F80  0099               	movwf	25	;volatile
  2841  0F81                     l478:	
  2842                           ;PROYECTO.c: 716:             while(TXSTAbits.TRMT == 0);
  2843                           
  2844  0F81  1683               	bsf	3,5	;RP0=1, select bank1
  2845  0F82  1303               	bcf	3,6	;RP1=0, select bank1
  2846  0F83  1C98               	btfss	24,1	;volatile
  2847  0F84  2F86               	goto	u2031
  2848  0F85  2F87               	goto	u2030
  2849  0F86                     u2031:
  2850  0F86  2F81               	goto	l478
  2851  0F87                     u2030:
  2852  0F87  2E59               	goto	l2086
  2853  0F88                     l482:
  2854  0F88  1683               	bsf	3,5	;RP0=1, select bank1
  2855  0F89  1303               	bcf	3,6	;RP1=0, select bank1
  2856  0F8A  1C98               	btfss	24,1	;volatile
  2857  0F8B  2F8D               	goto	u2041
  2858  0F8C  2F8E               	goto	u2040
  2859  0F8D                     u2041:
  2860  0F8D  2F88               	goto	l482
  2861  0F8E                     u2040:
  2862  0F8E                     l2154:
  2863                           
  2864                           ;PROYECTO.c: 722:             TXREG = 50;
  2865  0F8E  3032               	movlw	50
  2866  0F8F  1283               	bcf	3,5	;RP0=0, select bank0
  2867  0F90  1303               	bcf	3,6	;RP1=0, select bank0
  2868  0F91  0099               	movwf	25	;volatile
  2869  0F92                     l485:	
  2870                           ;PROYECTO.c: 723:             while(TXSTAbits.TRMT == 0);
  2871                           
  2872  0F92  1683               	bsf	3,5	;RP0=1, select bank1
  2873  0F93  1303               	bcf	3,6	;RP1=0, select bank1
  2874  0F94  1C98               	btfss	24,1	;volatile
  2875  0F95  2F97               	goto	u2051
  2876  0F96  2F98               	goto	u2050
  2877  0F97                     u2051:
  2878  0F97  2F92               	goto	l485
  2879  0F98                     u2050:
  2880  0F98  2E64               	goto	l2088
  2881  0F99                     l489:
  2882  0F99  1683               	bsf	3,5	;RP0=1, select bank1
  2883  0F9A  1303               	bcf	3,6	;RP1=0, select bank1
  2884  0F9B  1C98               	btfss	24,1	;volatile
  2885  0F9C  2F9E               	goto	u2061
  2886  0F9D  2F9F               	goto	u2060
  2887  0F9E                     u2061:
  2888  0F9E  2F99               	goto	l489
  2889  0F9F                     u2060:
  2890  0F9F                     l2158:
  2891                           
  2892                           ;PROYECTO.c: 729:             TXREG = 50;
  2893  0F9F  3032               	movlw	50
  2894  0FA0  1283               	bcf	3,5	;RP0=0, select bank0
  2895  0FA1  1303               	bcf	3,6	;RP1=0, select bank0
  2896  0FA2  0099               	movwf	25	;volatile
  2897  0FA3                     l492:	
  2898                           ;PROYECTO.c: 730:             while(TXSTAbits.TRMT == 0);
  2899                           
  2900  0FA3  1683               	bsf	3,5	;RP0=1, select bank1
  2901  0FA4  1303               	bcf	3,6	;RP1=0, select bank1
  2902  0FA5  1C98               	btfss	24,1	;volatile
  2903  0FA6  2FA8               	goto	u2071
  2904  0FA7  2FA9               	goto	u2070
  2905  0FA8                     u2071:
  2906  0FA8  2FA3               	goto	l492
  2907  0FA9                     u2070:
  2908  0FA9  2E6F               	goto	l2090
  2909  0FAA                     l2164:
  2910  0FAA  0875               	movf	SendCharH@in,w
  2911  0FAB  00F3               	movwf	??_SendCharH
  2912  0FAC  01F4               	clrf	??_SendCharH+1
  2913                           
  2914                           ; Switch on 2 bytes has been partitioned into a top level switch of size 1, and 1 sub-sw
      +                          itches
  2915                           ; Switch size 1, requested type "simple"
  2916                           ; Number of cases is 1, Range of values is 0 to 0
  2917                           ; switch strategies available:
  2918                           ; Name         Instructions Cycles
  2919                           ; simple_byte            4     3 (average)
  2920                           ; direct_byte           11     8 (fixed)
  2921                           ; jumptable            260     6 (fixed)
  2922                           ;	Chosen strategy is simple_byte
  2923  0FAD  0874               	movf	??_SendCharH+1,w
  2924  0FAE  3A00               	xorlw	0	; case 0
  2925  0FAF  1903               	skipnz
  2926  0FB0  2FB2               	goto	l3784
  2927  0FB1  2FFF               	goto	l495
  2928  0FB2                     l3784:
  2929                           
  2930                           ; Switch size 1, requested type "simple"
  2931                           ; Number of cases is 25, Range of values is 0 to 24
  2932                           ; switch strategies available:
  2933                           ; Name         Instructions Cycles
  2934                           ; simple_byte           76    39 (average)
  2935                           ; direct_byte           83     8 (fixed)
  2936                           ; jumptable            260     6 (fixed)
  2937                           ;	Chosen strategy is simple_byte
  2938  0FB2  0873               	movf	??_SendCharH,w
  2939  0FB3  3A00               	xorlw	0	; case 0
  2940  0FB4  1903               	skipnz
  2941  0FB5  2E3D               	goto	l350
  2942  0FB6  3A01               	xorlw	1	; case 1
  2943  0FB7  1903               	skipnz
  2944  0FB8  2E48               	goto	l355
  2945  0FB9  3A03               	xorlw	3	; case 2
  2946  0FBA  1903               	skipnz
  2947  0FBB  2E53               	goto	l359
  2948  0FBC  3A01               	xorlw	1	; case 3
  2949  0FBD  1903               	skipnz
  2950  0FBE  2E5E               	goto	l363
  2951  0FBF  3A07               	xorlw	7	; case 4
  2952  0FC0  1903               	skipnz
  2953  0FC1  2E69               	goto	l367
  2954  0FC2  3A01               	xorlw	1	; case 5
  2955  0FC3  1903               	skipnz
  2956  0FC4  2E74               	goto	l371
  2957  0FC5  3A03               	xorlw	3	; case 6
  2958  0FC6  1903               	skipnz
  2959  0FC7  2E7F               	goto	l375
  2960  0FC8  3A01               	xorlw	1	; case 7
  2961  0FC9  1903               	skipnz
  2962  0FCA  2E8A               	goto	l379
  2963  0FCB  3A0F               	xorlw	15	; case 8
  2964  0FCC  1903               	skipnz
  2965  0FCD  2E95               	goto	l383
  2966  0FCE  3A01               	xorlw	1	; case 9
  2967  0FCF  1903               	skipnz
  2968  0FD0  2EA0               	goto	l387
  2969  0FD1  3A03               	xorlw	3	; case 10
  2970  0FD2  1903               	skipnz
  2971  0FD3  2EAB               	goto	l391
  2972  0FD4  3A01               	xorlw	1	; case 11
  2973  0FD5  1903               	skipnz
  2974  0FD6  2EBC               	goto	l398
  2975  0FD7  3A07               	xorlw	7	; case 12
  2976  0FD8  1903               	skipnz
  2977  0FD9  2ECD               	goto	l405
  2978  0FDA  3A01               	xorlw	1	; case 13
  2979  0FDB  1903               	skipnz
  2980  0FDC  2EDE               	goto	l412
  2981  0FDD  3A03               	xorlw	3	; case 14
  2982  0FDE  1903               	skipnz
  2983  0FDF  2EEF               	goto	l419
  2984  0FE0  3A01               	xorlw	1	; case 15
  2985  0FE1  1903               	skipnz
  2986  0FE2  2F00               	goto	l426
  2987  0FE3  3A1F               	xorlw	31	; case 16
  2988  0FE4  1903               	skipnz
  2989  0FE5  2F11               	goto	l433
  2990  0FE6  3A01               	xorlw	1	; case 17
  2991  0FE7  1903               	skipnz
  2992  0FE8  2F22               	goto	l440
  2993  0FE9  3A03               	xorlw	3	; case 18
  2994  0FEA  1903               	skipnz
  2995  0FEB  2F33               	goto	l447
  2996  0FEC  3A01               	xorlw	1	; case 19
  2997  0FED  1903               	skipnz
  2998  0FEE  2F44               	goto	l454
  2999  0FEF  3A07               	xorlw	7	; case 20
  3000  0FF0  1903               	skipnz
  3001  0FF1  2F55               	goto	l461
  3002  0FF2  3A01               	xorlw	1	; case 21
  3003  0FF3  1903               	skipnz
  3004  0FF4  2F66               	goto	l468
  3005  0FF5  3A03               	xorlw	3	; case 22
  3006  0FF6  1903               	skipnz
  3007  0FF7  2F77               	goto	l475
  3008  0FF8  3A01               	xorlw	1	; case 23
  3009  0FF9  1903               	skipnz
  3010  0FFA  2F88               	goto	l482
  3011  0FFB  3A0F               	xorlw	15	; case 24
  3012  0FFC  1903               	skipnz
  3013  0FFD  2F99               	goto	l489
  3014  0FFE  2FFF               	goto	l495
  3015  0FFF                     l495:
  3016  0FFF  0008               	return
  3017  1000                     __end_of_SendCharH:
  3018                           
  3019                           	psect	text6
  3020  0BCB                     __ptext6:	
  3021 ;; *************** function _CharToNumM *****************
  3022 ;; Defined at:
  3023 ;;		line 831 in file "PROYECTO.c"
  3024 ;; Parameters:    Size  Location     Type
  3025 ;;  in              1    wreg     unsigned char 
  3026 ;;  her             1    3[COMMON] unsigned char 
  3027 ;; Auto vars:     Size  Location     Type
  3028 ;;  in              1    5[COMMON] unsigned char 
  3029 ;; Return value:  Size  Location     Type
  3030 ;;                  1    wreg      unsigned char 
  3031 ;; Registers used:
  3032 ;;		wreg, status,2, status,0
  3033 ;; Tracked objects:
  3034 ;;		On entry : 0/0
  3035 ;;		On exit  : 0/0
  3036 ;;		Unchanged: 0/0
  3037 ;; Data sizes:     COMMON   BANK0   BANK1   BANK3   BANK2
  3038 ;;      Params:         1       0       0       0       0
  3039 ;;      Locals:         1       0       0       0       0
  3040 ;;      Temps:          1       0       0       0       0
  3041 ;;      Totals:         3       0       0       0       0
  3042 ;;Total ram usage:        3 bytes
  3043 ;; Hardware stack levels used:    1
  3044 ;; Hardware stack levels required when called:    1
  3045 ;; This function calls:
  3046 ;;		Nothing
  3047 ;; This function is called by:
  3048 ;;		_main
  3049 ;; This function uses a non-reentrant model
  3050 ;;
  3051                           
  3052                           
  3053                           ;psect for function _CharToNumM
  3054  0BCB                     _CharToNumM:
  3055                           
  3056                           ;incstack = 0
  3057                           ; Regs used in _CharToNumM: [wreg+status,2+status,0]
  3058                           ;CharToNumM@in stored from wreg
  3059  0BCB  00F5               	movwf	CharToNumM@in
  3060  0BCC                     l2254:
  3061                           
  3062                           ;PROYECTO.c: 832:     if(in == 'a'){
  3063  0BCC  3061               	movlw	97
  3064  0BCD  0675               	xorwf	CharToNumM@in,w
  3065  0BCE  1D03               	btfss	3,2
  3066  0BCF  2BD1               	goto	u2141
  3067  0BD0  2BD2               	goto	u2140
  3068  0BD1                     u2141:
  3069  0BD1  2BD4               	goto	l2258
  3070  0BD2                     u2140:
  3071  0BD2                     l2256:
  3072                           
  3073                           ;PROYECTO.c: 833:         her = 0;
  3074  0BD2  01F3               	clrf	CharToNumM@her
  3075                           
  3076                           ;PROYECTO.c: 834:     }else if(in == 'b'){
  3077  0BD3  2C00               	goto	l544
  3078  0BD4                     l2258:
  3079  0BD4  3062               	movlw	98
  3080  0BD5  0675               	xorwf	CharToNumM@in,w
  3081  0BD6  1D03               	btfss	3,2
  3082  0BD7  2BD9               	goto	u2151
  3083  0BD8  2BDA               	goto	u2150
  3084  0BD9                     u2151:
  3085  0BD9  2BDF               	goto	l2262
  3086  0BDA                     u2150:
  3087  0BDA                     l2260:
  3088                           
  3089                           ;PROYECTO.c: 835:         her = 15;
  3090  0BDA  300F               	movlw	15
  3091  0BDB  00F4               	movwf	??_CharToNumM
  3092  0BDC  0874               	movf	??_CharToNumM,w
  3093  0BDD  00F3               	movwf	CharToNumM@her
  3094                           
  3095                           ;PROYECTO.c: 836:     }else if(in == 'c'){
  3096  0BDE  2C00               	goto	l544
  3097  0BDF                     l2262:
  3098  0BDF  3063               	movlw	99
  3099  0BE0  0675               	xorwf	CharToNumM@in,w
  3100  0BE1  1D03               	btfss	3,2
  3101  0BE2  2BE4               	goto	u2161
  3102  0BE3  2BE5               	goto	u2160
  3103  0BE4                     u2161:
  3104  0BE4  2BEA               	goto	l2266
  3105  0BE5                     u2160:
  3106  0BE5                     l2264:
  3107                           
  3108                           ;PROYECTO.c: 837:         her = 30;
  3109  0BE5  301E               	movlw	30
  3110  0BE6  00F4               	movwf	??_CharToNumM
  3111  0BE7  0874               	movf	??_CharToNumM,w
  3112  0BE8  00F3               	movwf	CharToNumM@her
  3113                           
  3114                           ;PROYECTO.c: 838:     }else if(in == 'd'){
  3115  0BE9  2C00               	goto	l544
  3116  0BEA                     l2266:
  3117  0BEA  3064               	movlw	100
  3118  0BEB  0675               	xorwf	CharToNumM@in,w
  3119  0BEC  1D03               	btfss	3,2
  3120  0BED  2BEF               	goto	u2171
  3121  0BEE  2BF0               	goto	u2170
  3122  0BEF                     u2171:
  3123  0BEF  2BF5               	goto	l2270
  3124  0BF0                     u2170:
  3125  0BF0                     l2268:
  3126                           
  3127                           ;PROYECTO.c: 839:         her = 45;
  3128  0BF0  302D               	movlw	45
  3129  0BF1  00F4               	movwf	??_CharToNumM
  3130  0BF2  0874               	movf	??_CharToNumM,w
  3131  0BF3  00F3               	movwf	CharToNumM@her
  3132                           
  3133                           ;PROYECTO.c: 840:     }else if(in == 'e'){
  3134  0BF4  2C00               	goto	l544
  3135  0BF5                     l2270:
  3136  0BF5  3065               	movlw	101
  3137  0BF6  0675               	xorwf	CharToNumM@in,w
  3138  0BF7  1D03               	btfss	3,2
  3139  0BF8  2BFA               	goto	u2181
  3140  0BF9  2BFB               	goto	u2180
  3141  0BFA                     u2181:
  3142  0BFA  2C00               	goto	l548
  3143  0BFB                     u2180:
  3144  0BFB                     l2272:
  3145                           
  3146                           ;PROYECTO.c: 841:         her = 55;
  3147  0BFB  3037               	movlw	55
  3148  0BFC  00F4               	movwf	??_CharToNumM
  3149  0BFD  0874               	movf	??_CharToNumM,w
  3150  0BFE  00F3               	movwf	CharToNumM@her
  3151  0BFF  2C00               	goto	l544
  3152  0C00                     l548:
  3153  0C00                     l544:
  3154                           
  3155                           ;PROYECTO.c: 843:     return her;
  3156  0C00  0873               	movf	CharToNumM@her,w
  3157  0C01                     l552:
  3158  0C01  0008               	return
  3159  0C02                     __end_of_CharToNumM:
  3160                           
  3161                           	psect	text7
  3162  0C5D                     __ptext7:	
  3163 ;; *************** function _CharToNumH *****************
  3164 ;; Defined at:
  3165 ;;		line 751 in file "PROYECTO.c"
  3166 ;; Parameters:    Size  Location     Type
  3167 ;;  in              1    wreg     unsigned char 
  3168 ;;  hora_user       1    3[COMMON] unsigned char 
  3169 ;; Auto vars:     Size  Location     Type
  3170 ;;  in              1    0[BANK0 ] unsigned char 
  3171 ;; Return value:  Size  Location     Type
  3172 ;;                  1    wreg      unsigned char 
  3173 ;; Registers used:
  3174 ;;		wreg, fsr0l, fsr0h, status,2, status,0
  3175 ;; Tracked objects:
  3176 ;;		On entry : 0/0
  3177 ;;		On exit  : 0/0
  3178 ;;		Unchanged: 0/0
  3179 ;; Data sizes:     COMMON   BANK0   BANK1   BANK3   BANK2
  3180 ;;      Params:         1       0       0       0       0
  3181 ;;      Locals:         0       1       0       0       0
  3182 ;;      Temps:          2       0       0       0       0
  3183 ;;      Totals:         3       1       0       0       0
  3184 ;;Total ram usage:        4 bytes
  3185 ;; Hardware stack levels used:    1
  3186 ;; Hardware stack levels required when called:    1
  3187 ;; This function calls:
  3188 ;;		Nothing
  3189 ;; This function is called by:
  3190 ;;		_main
  3191 ;; This function uses a non-reentrant model
  3192 ;;
  3193                           
  3194                           
  3195                           ;psect for function _CharToNumH
  3196  0C5D                     _CharToNumH:
  3197                           
  3198                           ;incstack = 0
  3199                           ; Regs used in _CharToNumH: [wreg-fsr0h+status,2+status,0]
  3200                           ;CharToNumH@in stored from wreg
  3201  0C5D  1283               	bcf	3,5	;RP0=0, select bank0
  3202  0C5E  1303               	bcf	3,6	;RP1=0, select bank0
  3203  0C5F  00BC               	movwf	CharToNumH@in
  3204  0C60                     l3018:
  3205                           
  3206                           ;PROYECTO.c: 752:     switch(in){
  3207  0C60  2CD9               	goto	l3070
  3208  0C61                     l3020:
  3209                           
  3210                           ;PROYECTO.c: 754:             hora_user = 0;
  3211  0C61  01F3               	clrf	CharToNumH@hora_user
  3212                           
  3213                           ;PROYECTO.c: 755:             break;
  3214  0C62  2D2E               	goto	l3072
  3215  0C63                     l516:	
  3216                           ;PROYECTO.c: 756:         case('b'):
  3217                           
  3218                           
  3219                           ;PROYECTO.c: 757:             hora_user = 1;
  3220  0C63  01F3               	clrf	CharToNumH@hora_user
  3221  0C64  0AF3               	incf	CharToNumH@hora_user,f
  3222                           
  3223                           ;PROYECTO.c: 758:             break;
  3224  0C65  2D2E               	goto	l3072
  3225  0C66                     l3022:
  3226                           
  3227                           ;PROYECTO.c: 760:             hora_user = 2;
  3228  0C66  3002               	movlw	2
  3229  0C67  00F4               	movwf	??_CharToNumH
  3230  0C68  0874               	movf	??_CharToNumH,w
  3231  0C69  00F3               	movwf	CharToNumH@hora_user
  3232                           
  3233                           ;PROYECTO.c: 761:             break;
  3234  0C6A  2D2E               	goto	l3072
  3235  0C6B                     l3024:
  3236                           
  3237                           ;PROYECTO.c: 763:             hora_user = 3;
  3238  0C6B  3003               	movlw	3
  3239  0C6C  00F4               	movwf	??_CharToNumH
  3240  0C6D  0874               	movf	??_CharToNumH,w
  3241  0C6E  00F3               	movwf	CharToNumH@hora_user
  3242                           
  3243                           ;PROYECTO.c: 764:             break;
  3244  0C6F  2D2E               	goto	l3072
  3245  0C70                     l3026:
  3246                           
  3247                           ;PROYECTO.c: 766:             hora_user = 4;
  3248  0C70  3004               	movlw	4
  3249  0C71  00F4               	movwf	??_CharToNumH
  3250  0C72  0874               	movf	??_CharToNumH,w
  3251  0C73  00F3               	movwf	CharToNumH@hora_user
  3252                           
  3253                           ;PROYECTO.c: 767:             break;
  3254  0C74  2D2E               	goto	l3072
  3255  0C75                     l3028:
  3256                           
  3257                           ;PROYECTO.c: 769:             hora_user = 5;
  3258  0C75  3005               	movlw	5
  3259  0C76  00F4               	movwf	??_CharToNumH
  3260  0C77  0874               	movf	??_CharToNumH,w
  3261  0C78  00F3               	movwf	CharToNumH@hora_user
  3262                           
  3263                           ;PROYECTO.c: 770:             break;
  3264  0C79  2D2E               	goto	l3072
  3265  0C7A                     l3030:
  3266                           
  3267                           ;PROYECTO.c: 772:             hora_user = 6;
  3268  0C7A  3006               	movlw	6
  3269  0C7B  00F4               	movwf	??_CharToNumH
  3270  0C7C  0874               	movf	??_CharToNumH,w
  3271  0C7D  00F3               	movwf	CharToNumH@hora_user
  3272                           
  3273                           ;PROYECTO.c: 773:             break;
  3274  0C7E  2D2E               	goto	l3072
  3275  0C7F                     l3032:
  3276                           
  3277                           ;PROYECTO.c: 775:             hora_user = 7;
  3278  0C7F  3007               	movlw	7
  3279  0C80  00F4               	movwf	??_CharToNumH
  3280  0C81  0874               	movf	??_CharToNumH,w
  3281  0C82  00F3               	movwf	CharToNumH@hora_user
  3282                           
  3283                           ;PROYECTO.c: 776:             break;
  3284  0C83  2D2E               	goto	l3072
  3285  0C84                     l3034:
  3286                           
  3287                           ;PROYECTO.c: 778:             hora_user = 8;
  3288  0C84  3008               	movlw	8
  3289  0C85  00F4               	movwf	??_CharToNumH
  3290  0C86  0874               	movf	??_CharToNumH,w
  3291  0C87  00F3               	movwf	CharToNumH@hora_user
  3292                           
  3293                           ;PROYECTO.c: 779:             break;
  3294  0C88  2D2E               	goto	l3072
  3295  0C89                     l3036:
  3296                           
  3297                           ;PROYECTO.c: 781:             hora_user = 9;
  3298  0C89  3009               	movlw	9
  3299  0C8A  00F4               	movwf	??_CharToNumH
  3300  0C8B  0874               	movf	??_CharToNumH,w
  3301  0C8C  00F3               	movwf	CharToNumH@hora_user
  3302                           
  3303                           ;PROYECTO.c: 782:             break;
  3304  0C8D  2D2E               	goto	l3072
  3305  0C8E                     l3038:
  3306                           
  3307                           ;PROYECTO.c: 784:             hora_user = 10;
  3308  0C8E  300A               	movlw	10
  3309  0C8F  00F4               	movwf	??_CharToNumH
  3310  0C90  0874               	movf	??_CharToNumH,w
  3311  0C91  00F3               	movwf	CharToNumH@hora_user
  3312                           
  3313                           ;PROYECTO.c: 785:             break;
  3314  0C92  2D2E               	goto	l3072
  3315  0C93                     l3040:
  3316                           
  3317                           ;PROYECTO.c: 787:             hora_user = 11;
  3318  0C93  300B               	movlw	11
  3319  0C94  00F4               	movwf	??_CharToNumH
  3320  0C95  0874               	movf	??_CharToNumH,w
  3321  0C96  00F3               	movwf	CharToNumH@hora_user
  3322                           
  3323                           ;PROYECTO.c: 788:             break;
  3324  0C97  2D2E               	goto	l3072
  3325  0C98                     l3042:
  3326                           
  3327                           ;PROYECTO.c: 790:             hora_user = 12;
  3328  0C98  300C               	movlw	12
  3329  0C99  00F4               	movwf	??_CharToNumH
  3330  0C9A  0874               	movf	??_CharToNumH,w
  3331  0C9B  00F3               	movwf	CharToNumH@hora_user
  3332                           
  3333                           ;PROYECTO.c: 791:             break;
  3334  0C9C  2D2E               	goto	l3072
  3335  0C9D                     l3044:
  3336                           
  3337                           ;PROYECTO.c: 793:             hora_user = 13;
  3338  0C9D  300D               	movlw	13
  3339  0C9E  00F4               	movwf	??_CharToNumH
  3340  0C9F  0874               	movf	??_CharToNumH,w
  3341  0CA0  00F3               	movwf	CharToNumH@hora_user
  3342                           
  3343                           ;PROYECTO.c: 794:             break;
  3344  0CA1  2D2E               	goto	l3072
  3345  0CA2                     l3046:
  3346                           
  3347                           ;PROYECTO.c: 796:             hora_user = 14;
  3348  0CA2  300E               	movlw	14
  3349  0CA3  00F4               	movwf	??_CharToNumH
  3350  0CA4  0874               	movf	??_CharToNumH,w
  3351  0CA5  00F3               	movwf	CharToNumH@hora_user
  3352                           
  3353                           ;PROYECTO.c: 797:             break;
  3354  0CA6  2D2E               	goto	l3072
  3355  0CA7                     l3048:
  3356                           
  3357                           ;PROYECTO.c: 799:             hora_user = 15;
  3358  0CA7  300F               	movlw	15
  3359  0CA8  00F4               	movwf	??_CharToNumH
  3360  0CA9  0874               	movf	??_CharToNumH,w
  3361  0CAA  00F3               	movwf	CharToNumH@hora_user
  3362                           
  3363                           ;PROYECTO.c: 800:             break;
  3364  0CAB  2D2E               	goto	l3072
  3365  0CAC                     l3050:
  3366                           
  3367                           ;PROYECTO.c: 802:             hora_user = 16;
  3368  0CAC  3010               	movlw	16
  3369  0CAD  00F4               	movwf	??_CharToNumH
  3370  0CAE  0874               	movf	??_CharToNumH,w
  3371  0CAF  00F3               	movwf	CharToNumH@hora_user
  3372                           
  3373                           ;PROYECTO.c: 803:             break;
  3374  0CB0  2D2E               	goto	l3072
  3375  0CB1                     l3052:
  3376                           
  3377                           ;PROYECTO.c: 805:             hora_user = 17;
  3378  0CB1  3011               	movlw	17
  3379  0CB2  00F4               	movwf	??_CharToNumH
  3380  0CB3  0874               	movf	??_CharToNumH,w
  3381  0CB4  00F3               	movwf	CharToNumH@hora_user
  3382                           
  3383                           ;PROYECTO.c: 806:             break;
  3384  0CB5  2D2E               	goto	l3072
  3385  0CB6                     l3054:
  3386                           
  3387                           ;PROYECTO.c: 808:             hora_user = 18;
  3388  0CB6  3012               	movlw	18
  3389  0CB7  00F4               	movwf	??_CharToNumH
  3390  0CB8  0874               	movf	??_CharToNumH,w
  3391  0CB9  00F3               	movwf	CharToNumH@hora_user
  3392                           
  3393                           ;PROYECTO.c: 809:             break;
  3394  0CBA  2D2E               	goto	l3072
  3395  0CBB                     l3056:
  3396                           
  3397                           ;PROYECTO.c: 811:             hora_user = 19;
  3398  0CBB  3013               	movlw	19
  3399  0CBC  00F4               	movwf	??_CharToNumH
  3400  0CBD  0874               	movf	??_CharToNumH,w
  3401  0CBE  00F3               	movwf	CharToNumH@hora_user
  3402                           
  3403                           ;PROYECTO.c: 812:             break;
  3404  0CBF  2D2E               	goto	l3072
  3405  0CC0                     l3058:
  3406                           
  3407                           ;PROYECTO.c: 814:             hora_user = 20;
  3408  0CC0  3014               	movlw	20
  3409  0CC1  00F4               	movwf	??_CharToNumH
  3410  0CC2  0874               	movf	??_CharToNumH,w
  3411  0CC3  00F3               	movwf	CharToNumH@hora_user
  3412                           
  3413                           ;PROYECTO.c: 815:             break;
  3414  0CC4  2D2E               	goto	l3072
  3415  0CC5                     l3060:
  3416                           
  3417                           ;PROYECTO.c: 817:             hora_user = 21;
  3418  0CC5  3015               	movlw	21
  3419  0CC6  00F4               	movwf	??_CharToNumH
  3420  0CC7  0874               	movf	??_CharToNumH,w
  3421  0CC8  00F3               	movwf	CharToNumH@hora_user
  3422                           
  3423                           ;PROYECTO.c: 818:             break;
  3424  0CC9  2D2E               	goto	l3072
  3425  0CCA                     l3062:
  3426                           
  3427                           ;PROYECTO.c: 820:             hora_user = 22;
  3428  0CCA  3016               	movlw	22
  3429  0CCB  00F4               	movwf	??_CharToNumH
  3430  0CCC  0874               	movf	??_CharToNumH,w
  3431  0CCD  00F3               	movwf	CharToNumH@hora_user
  3432                           
  3433                           ;PROYECTO.c: 821:             break;
  3434  0CCE  2D2E               	goto	l3072
  3435  0CCF                     l3064:
  3436                           
  3437                           ;PROYECTO.c: 823:             hora_user = 23;
  3438  0CCF  3017               	movlw	23
  3439  0CD0  00F4               	movwf	??_CharToNumH
  3440  0CD1  0874               	movf	??_CharToNumH,w
  3441  0CD2  00F3               	movwf	CharToNumH@hora_user
  3442                           
  3443                           ;PROYECTO.c: 824:             break;
  3444  0CD3  2D2E               	goto	l3072
  3445  0CD4                     l3066:
  3446                           
  3447                           ;PROYECTO.c: 826:             hora_user = 24;
  3448  0CD4  3018               	movlw	24
  3449  0CD5  00F4               	movwf	??_CharToNumH
  3450  0CD6  0874               	movf	??_CharToNumH,w
  3451  0CD7  00F3               	movwf	CharToNumH@hora_user
  3452                           
  3453                           ;PROYECTO.c: 827:             break;
  3454  0CD8  2D2E               	goto	l3072
  3455  0CD9                     l3070:
  3456  0CD9  083C               	movf	CharToNumH@in,w
  3457  0CDA  00F4               	movwf	??_CharToNumH
  3458  0CDB  01F5               	clrf	??_CharToNumH+1
  3459                           
  3460                           ; Switch on 2 bytes has been partitioned into a top level switch of size 1, and 1 sub-sw
      +                          itches
  3461                           ; Switch size 1, requested type "simple"
  3462                           ; Number of cases is 1, Range of values is 0 to 0
  3463                           ; switch strategies available:
  3464                           ; Name         Instructions Cycles
  3465                           ; simple_byte            4     3 (average)
  3466                           ; direct_byte           11     8 (fixed)
  3467                           ; jumptable            260     6 (fixed)
  3468                           ;	Chosen strategy is simple_byte
  3469  0CDC  0875               	movf	??_CharToNumH+1,w
  3470  0CDD  3A00               	xorlw	0	; case 0
  3471  0CDE  1903               	skipnz
  3472  0CDF  2CE1               	goto	l3786
  3473  0CE0  2D2E               	goto	l3072
  3474  0CE1                     l3786:
  3475                           
  3476                           ; Switch size 1, requested type "simple"
  3477                           ; Number of cases is 25, Range of values is 97 to 121
  3478                           ; switch strategies available:
  3479                           ; Name         Instructions Cycles
  3480                           ; simple_byte           76    39 (average)
  3481                           ; direct_byte           86    11 (fixed)
  3482                           ; jumptable            263     9 (fixed)
  3483                           ;	Chosen strategy is simple_byte
  3484  0CE1  0874               	movf	??_CharToNumH,w
  3485  0CE2  3A61               	xorlw	97	; case 97
  3486  0CE3  1903               	skipnz
  3487  0CE4  2C61               	goto	l3020
  3488  0CE5  3A03               	xorlw	3	; case 98
  3489  0CE6  1903               	skipnz
  3490  0CE7  2C63               	goto	l516
  3491  0CE8  3A01               	xorlw	1	; case 99
  3492  0CE9  1903               	skipnz
  3493  0CEA  2C66               	goto	l3022
  3494  0CEB  3A07               	xorlw	7	; case 100
  3495  0CEC  1903               	skipnz
  3496  0CED  2C6B               	goto	l3024
  3497  0CEE  3A01               	xorlw	1	; case 101
  3498  0CEF  1903               	skipnz
  3499  0CF0  2C70               	goto	l3026
  3500  0CF1  3A03               	xorlw	3	; case 102
  3501  0CF2  1903               	skipnz
  3502  0CF3  2C75               	goto	l3028
  3503  0CF4  3A01               	xorlw	1	; case 103
  3504  0CF5  1903               	skipnz
  3505  0CF6  2C7A               	goto	l3030
  3506  0CF7  3A0F               	xorlw	15	; case 104
  3507  0CF8  1903               	skipnz
  3508  0CF9  2C7F               	goto	l3032
  3509  0CFA  3A01               	xorlw	1	; case 105
  3510  0CFB  1903               	skipnz
  3511  0CFC  2C84               	goto	l3034
  3512  0CFD  3A03               	xorlw	3	; case 106
  3513  0CFE  1903               	skipnz
  3514  0CFF  2C89               	goto	l3036
  3515  0D00  3A01               	xorlw	1	; case 107
  3516  0D01  1903               	skipnz
  3517  0D02  2C8E               	goto	l3038
  3518  0D03  3A07               	xorlw	7	; case 108
  3519  0D04  1903               	skipnz
  3520  0D05  2C93               	goto	l3040
  3521  0D06  3A01               	xorlw	1	; case 109
  3522  0D07  1903               	skipnz
  3523  0D08  2C98               	goto	l3042
  3524  0D09  3A03               	xorlw	3	; case 110
  3525  0D0A  1903               	skipnz
  3526  0D0B  2C9D               	goto	l3044
  3527  0D0C  3A01               	xorlw	1	; case 111
  3528  0D0D  1903               	skipnz
  3529  0D0E  2CA2               	goto	l3046
  3530  0D0F  3A1F               	xorlw	31	; case 112
  3531  0D10  1903               	skipnz
  3532  0D11  2CA7               	goto	l3048
  3533  0D12  3A01               	xorlw	1	; case 113
  3534  0D13  1903               	skipnz
  3535  0D14  2CAC               	goto	l3050
  3536  0D15  3A03               	xorlw	3	; case 114
  3537  0D16  1903               	skipnz
  3538  0D17  2CB1               	goto	l3052
  3539  0D18  3A01               	xorlw	1	; case 115
  3540  0D19  1903               	skipnz
  3541  0D1A  2CB6               	goto	l3054
  3542  0D1B  3A07               	xorlw	7	; case 116
  3543  0D1C  1903               	skipnz
  3544  0D1D  2CBB               	goto	l3056
  3545  0D1E  3A01               	xorlw	1	; case 117
  3546  0D1F  1903               	skipnz
  3547  0D20  2CC0               	goto	l3058
  3548  0D21  3A03               	xorlw	3	; case 118
  3549  0D22  1903               	skipnz
  3550  0D23  2CC5               	goto	l3060
  3551  0D24  3A01               	xorlw	1	; case 119
  3552  0D25  1903               	skipnz
  3553  0D26  2CCA               	goto	l3062
  3554  0D27  3A0F               	xorlw	15	; case 120
  3555  0D28  1903               	skipnz
  3556  0D29  2CCF               	goto	l3064
  3557  0D2A  3A01               	xorlw	1	; case 121
  3558  0D2B  1903               	skipnz
  3559  0D2C  2CD4               	goto	l3066
  3560  0D2D  2D2E               	goto	l3072
  3561  0D2E                     l3072:
  3562                           
  3563                           ;PROYECTO.c: 829:     return hora_user;
  3564  0D2E  0873               	movf	CharToNumH@hora_user,w
  3565  0D2F                     l540:
  3566  0D2F  0008               	return
  3567  0D30                     __end_of_CharToNumH:
  3568                           
  3569                           	psect	text8
  3570  0BA2                     __ptext8:	
  3571 ;; *************** function _isr *****************
  3572 ;; Defined at:
  3573 ;;		line 72 in file "PROYECTO.c"
  3574 ;; Parameters:    Size  Location     Type
  3575 ;;		None
  3576 ;; Auto vars:     Size  Location     Type
  3577 ;;		None
  3578 ;; Return value:  Size  Location     Type
  3579 ;;                  1    wreg      void 
  3580 ;; Registers used:
  3581 ;;		wreg, status,2, status,0
  3582 ;; Tracked objects:
  3583 ;;		On entry : 0/0
  3584 ;;		On exit  : 0/0
  3585 ;;		Unchanged: 0/0
  3586 ;; Data sizes:     COMMON   BANK0   BANK1   BANK3   BANK2
  3587 ;;      Params:         0       0       0       0       0
  3588 ;;      Locals:         0       0       0       0       0
  3589 ;;      Temps:          3       0       0       0       0
  3590 ;;      Totals:         3       0       0       0       0
  3591 ;;Total ram usage:        3 bytes
  3592 ;; Hardware stack levels used:    1
  3593 ;; This function calls:
  3594 ;;		Nothing
  3595 ;; This function is called by:
  3596 ;;		Interrupt level 1
  3597 ;; This function uses a non-reentrant model
  3598 ;;
  3599                           
  3600                           
  3601                           ;psect for function _isr
  3602  0BA2                     _isr:
  3603  0BA2                     i1l2276:
  3604                           
  3605                           ;PROYECTO.c: 74:     if (TMR1IF == 1){
  3606  0BA2  1283               	bcf	3,5	;RP0=0, select bank0
  3607  0BA3  1303               	bcf	3,6	;RP1=0, select bank0
  3608  0BA4  1C0C               	btfss	12,0	;volatile
  3609  0BA5  2BA7               	goto	u219_21
  3610  0BA6  2BA8               	goto	u219_20
  3611  0BA7                     u219_21:
  3612  0BA7  2BC4               	goto	i1l177
  3613  0BA8                     u219_20:
  3614  0BA8                     i1l2278:
  3615                           
  3616                           ;PROYECTO.c: 76:         cont++;
  3617  0BA8  3001               	movlw	1
  3618  0BA9  00F0               	movwf	??_isr
  3619  0BAA  0870               	movf	??_isr,w
  3620  0BAB  07A2               	addwf	_cont,f
  3621                           
  3622                           ;PROYECTO.c: 77:         if(cont == 2){
  3623  0BAC  3002               	movlw	2
  3624  0BAD  0622               	xorwf	_cont,w
  3625  0BAE  1D03               	btfss	3,2
  3626  0BAF  2BB1               	goto	u220_21
  3627  0BB0  2BB2               	goto	u220_20
  3628  0BB1                     u220_21:
  3629  0BB1  2BBC               	goto	i1l2286
  3630  0BB2                     u220_20:
  3631  0BB2                     i1l2280:
  3632                           
  3633                           ;PROYECTO.c: 79:             mins++;
  3634  0BB2  3001               	movlw	1
  3635  0BB3  00F0               	movwf	??_isr
  3636  0BB4  0870               	movf	??_isr,w
  3637  0BB5  07A1               	addwf	_mins,f
  3638                           
  3639                           ;PROYECTO.c: 80:             horas++;
  3640  0BB6  3001               	movlw	1
  3641  0BB7  00F0               	movwf	??_isr
  3642  0BB8  0870               	movf	??_isr,w
  3643  0BB9  07A0               	addwf	_horas,f
  3644  0BBA                     i1l2282:
  3645                           
  3646                           ;PROYECTO.c: 81:             PORTA = ~PORTA;
  3647  0BBA  0985               	comf	5,f	;volatile
  3648  0BBB                     i1l2284:
  3649                           
  3650                           ;PROYECTO.c: 82:             cont = 0;
  3651  0BBB  01A2               	clrf	_cont
  3652  0BBC                     i1l2286:
  3653                           
  3654                           ;PROYECTO.c: 85:         TMR1IF = 0;
  3655  0BBC  100C               	bcf	12,0	;volatile
  3656  0BBD                     i1l2288:
  3657                           
  3658                           ;PROYECTO.c: 86:         TMR1IE =1;
  3659  0BBD  1683               	bsf	3,5	;RP0=1, select bank1
  3660  0BBE  1303               	bcf	3,6	;RP1=0, select bank1
  3661  0BBF  140C               	bsf	12,0	;volatile
  3662  0BC0                     i1l2290:
  3663                           
  3664                           ;PROYECTO.c: 87:         TMR1H = 0;
  3665  0BC0  1283               	bcf	3,5	;RP0=0, select bank0
  3666  0BC1  1303               	bcf	3,6	;RP1=0, select bank0
  3667  0BC2  018F               	clrf	15	;volatile
  3668  0BC3                     i1l2292:
  3669                           
  3670                           ;PROYECTO.c: 88:         TMR1L = 0;
  3671  0BC3  018E               	clrf	14	;volatile
  3672  0BC4                     i1l177:
  3673  0BC4  0872               	movf	??_isr+2,w
  3674  0BC5  008A               	movwf	10
  3675  0BC6  0E71               	swapf	??_isr+1,w
  3676  0BC7  0083               	movwf	3
  3677  0BC8  0EFE               	swapf	btemp,f
  3678  0BC9  0E7E               	swapf	btemp,w
  3679  0BCA  0009               	retfie
  3680  0BCB                     __end_of_isr:
  3681  007E                     btemp	set	126	;btemp
  3682  007E                     wtemp0	set	126
  3683                           
  3684                           	psect	intentry
  3685  0004                     __pintentry:	
  3686                           ;incstack = 0
  3687                           ; Regs used in _isr: [wreg+status,2+status,0]
  3688                           
  3689  0004                     interrupt_function:
  3690  007E                     saved_w	set	btemp
  3691  0004  00FE               	movwf	btemp
  3692  0005  0E03               	swapf	3,w
  3693  0006  00F1               	movwf	??_isr+1
  3694  0007  080A               	movf	10,w
  3695  0008  00F2               	movwf	??_isr+2
  3696  0009  120A  158A  2BA2   	ljmp	_isr
  3697                           
  3698                           	psect	config
  3699                           
  3700                           ;Config register CONFIG1 @ 0x2007
  3701                           ;	Oscillator Selection bits
  3702                           ;	FOSC = INTRC_NOCLKOUT, INTOSCIO oscillator: I/O function on RA6/OSC2/CLKOUT pin, I/O f
      +                          unction on RA7/OSC1/CLKIN
  3703                           ;	Watchdog Timer Enable bit
  3704                           ;	WDTE = OFF, WDT disabled and can be enabled by SWDTEN bit of the WDTCON register
  3705                           ;	Power-up Timer Enable bit
  3706                           ;	PWRTE = OFF, PWRT disabled
  3707                           ;	RE3/MCLR pin function select bit
  3708                           ;	MCLRE = OFF, RE3/MCLR pin function is digital input, MCLR internally tied to VDD
  3709                           ;	Code Protection bit
  3710                           ;	CP = OFF, Program memory code protection is disabled
  3711                           ;	Data Code Protection bit
  3712                           ;	CPD = OFF, Data memory code protection is disabled
  3713                           ;	Brown Out Reset Selection bits
  3714                           ;	BOREN = OFF, BOR disabled
  3715                           ;	Internal External Switchover bit
  3716                           ;	IESO = OFF, Internal/External Switchover mode is disabled
  3717                           ;	Fail-Safe Clock Monitor Enabled bit
  3718                           ;	FCMEN = OFF, Fail-Safe Clock Monitor is disabled
  3719                           ;	Low Voltage Programming Enable bit
  3720                           ;	LVP = OFF, RB3 pin has digital I/O, HV on MCLR must be used for programming
  3721                           ;	In-Circuit Debugger Mode bit
  3722                           ;	DEBUG = 0x1, unprogrammed default
  3723  2007                     	org	8199
  3724  2007  20D4               	dw	8404
  3725                           
  3726                           ;Config register CONFIG2 @ 0x2008
  3727                           ;	Brown-out Reset Selection bit
  3728                           ;	BOR4V = BOR40V, Brown-out Reset set to 4.0V
  3729                           ;	Flash Program Memory Self Write Enable bits
  3730                           ;	WRT = OFF, Write protection off
  3731  2008                     	org	8200
  3732  2008  3FFF               	dw	16383
  3733                           
  3734                           	psect	maintext_split_1
  3735  0021                     u3500:
  3736  0021                     l3246:
  3737  0021  30A9               	movlw	169
  3738  0022  0278               	subwf	_escala,w
  3739  0023  1803               	skipnc
  3740  0024  2826               	goto	u3511
  3741  0025  2827               	goto	u3510
  3742  0026                     u3511:
  3743  0026  282C               	goto	l3250
  3744  0027                     u3510:
  3745  0027                     l3248:
  3746                           
  3747                           ;PROYECTO.c: 223:                     minuto = 45;
  3748  0027  302D               	movlw	45
  3749  0028  00BD               	movwf	??_main
  3750  0029  083D               	movf	??_main,w
  3751  002A  00F9               	movwf	_minuto
  3752                           
  3753                           ;PROYECTO.c: 224:                 }else if(escala >= 210 && escala <= 255 ){
  3754  002B  2837               	goto	l3254
  3755  002C                     l3250:
  3756  002C  30D2               	movlw	210
  3757  002D  0278               	subwf	_escala,w
  3758  002E  1C03               	skipc
  3759  002F  2831               	goto	u3521
  3760  0030  2832               	goto	u3520
  3761  0031                     u3521:
  3762  0031  2837               	goto	l195
  3763  0032                     u3520:
  3764  0032                     l3252:
  3765                           
  3766                           ;PROYECTO.c: 225:                     minuto = 55;
  3767  0032  3037               	movlw	55
  3768  0033  00BD               	movwf	??_main
  3769  0034  083D               	movf	??_main,w
  3770  0035  00F9               	movwf	_minuto
  3771  0036  2837               	goto	l3254
  3772  0037                     l195:
  3773  0037                     l3254:
  3774                           
  3775                           ;PROYECTO.c: 228:                 ADCON0bits.CHS = 5;
  3776  0037  081F               	movf	31,w	;volatile
  3777  0038  39C3               	andlw	-61
  3778  0039  3814               	iorlw	20
  3779  003A  009F               	movwf	31	;volatile
  3780                           
  3781                           ;PROYECTO.c: 229:             }
  3782  003B  29E5               	goto	l3406
  3783  003C                     l3256:
  3784  003C  0C1F               	rrf	31,w	;volatile
  3785  003D  00BD               	movwf	??_main
  3786  003E  0C3D               	rrf	??_main,w
  3787  003F  390F               	andlw	15
  3788  0040  3A05               	xorlw	5
  3789  0041  1D03               	skipz
  3790  0042  2844               	goto	u3531
  3791  0043  2845               	goto	u3530
  3792  0044                     u3531:
  3793  0044  29E5               	goto	l3406
  3794  0045                     u3530:
  3795  0045                     l3258:
  3796                           
  3797                           ;PROYECTO.c: 231:                 escala = ADRESH;
  3798  0045  081E               	movf	30,w	;volatile
  3799  0046  00BD               	movwf	??_main
  3800  0047  083D               	movf	??_main,w
  3801  0048  00F8               	movwf	_escala
  3802                           
  3803                           ;PROYECTO.c: 232:                 if (escala >= 0 && escala <=10 ){
  3804  0049  300B               	movlw	11
  3805  004A  0278               	subwf	_escala,w
  3806  004B  1803               	skipnc
  3807  004C  284E               	goto	u3541
  3808  004D  284F               	goto	u3540
  3809  004E                     u3541:
  3810  004E  2851               	goto	l3262
  3811  004F                     u3540:
  3812  004F                     l3260:
  3813                           
  3814                           ;PROYECTO.c: 233:                     hora = 0;
  3815  004F  01FA               	clrf	_hora
  3816                           
  3817                           ;PROYECTO.c: 234:                 }else if(escala >= 11 && escala <=20 ){
  3818  0050  29E1               	goto	l3404
  3819  0051                     l3262:
  3820  0051  300B               	movlw	11
  3821  0052  0278               	subwf	_escala,w
  3822  0053  1C03               	skipc
  3823  0054  2856               	goto	u3551
  3824  0055  2857               	goto	u3550
  3825  0056                     u3551:
  3826  0056  2860               	goto	l3268
  3827  0057                     u3550:
  3828  0057                     l3264:
  3829  0057  3015               	movlw	21
  3830  0058  0278               	subwf	_escala,w
  3831  0059  1803               	skipnc
  3832  005A  285C               	goto	u3561
  3833  005B  285D               	goto	u3560
  3834  005C                     u3561:
  3835  005C  2860               	goto	l3268
  3836  005D                     u3560:
  3837  005D                     l3266:
  3838                           
  3839                           ;PROYECTO.c: 235:                     hora = 1;
  3840  005D  01FA               	clrf	_hora
  3841  005E  0AFA               	incf	_hora,f
  3842                           
  3843                           ;PROYECTO.c: 236:                 }else if(escala >= 21 && escala <=30 ){
  3844  005F  29E1               	goto	l3404
  3845  0060                     l3268:
  3846  0060  3015               	movlw	21
  3847  0061  0278               	subwf	_escala,w
  3848  0062  1C03               	skipc
  3849  0063  2865               	goto	u3571
  3850  0064  2866               	goto	u3570
  3851  0065                     u3571:
  3852  0065  2871               	goto	l3274
  3853  0066                     u3570:
  3854  0066                     l3270:
  3855  0066  301F               	movlw	31
  3856  0067  0278               	subwf	_escala,w
  3857  0068  1803               	skipnc
  3858  0069  286B               	goto	u3581
  3859  006A  286C               	goto	u3580
  3860  006B                     u3581:
  3861  006B  2871               	goto	l3274
  3862  006C                     u3580:
  3863  006C                     l3272:
  3864                           
  3865                           ;PROYECTO.c: 237:                     hora = 2;
  3866  006C  3002               	movlw	2
  3867  006D  00BD               	movwf	??_main
  3868  006E  083D               	movf	??_main,w
  3869  006F  00FA               	movwf	_hora
  3870                           
  3871                           ;PROYECTO.c: 238:                 }else if(escala >= 31 && escala <=40 ){
  3872  0070  29E1               	goto	l3404
  3873  0071                     l3274:
  3874  0071  301F               	movlw	31
  3875  0072  0278               	subwf	_escala,w
  3876  0073  1C03               	skipc
  3877  0074  2876               	goto	u3591
  3878  0075  2877               	goto	u3590
  3879  0076                     u3591:
  3880  0076  2882               	goto	l3280
  3881  0077                     u3590:
  3882  0077                     l3276:
  3883  0077  3029               	movlw	41
  3884  0078  0278               	subwf	_escala,w
  3885  0079  1803               	skipnc
  3886  007A  287C               	goto	u3601
  3887  007B  287D               	goto	u3600
  3888  007C                     u3601:
  3889  007C  2882               	goto	l3280
  3890  007D                     u3600:
  3891  007D                     l3278:
  3892                           
  3893                           ;PROYECTO.c: 239:                     hora = 3;
  3894  007D  3003               	movlw	3
  3895  007E  00BD               	movwf	??_main
  3896  007F  083D               	movf	??_main,w
  3897  0080  00FA               	movwf	_hora
  3898                           
  3899                           ;PROYECTO.c: 240:                 }else if(escala >= 41 && escala <=50 ){
  3900  0081  29E1               	goto	l3404
  3901  0082                     l3280:
  3902  0082  3029               	movlw	41
  3903  0083  0278               	subwf	_escala,w
  3904  0084  1C03               	skipc
  3905  0085  2887               	goto	u3611
  3906  0086  2888               	goto	u3610
  3907  0087                     u3611:
  3908  0087  2893               	goto	l3286
  3909  0088                     u3610:
  3910  0088                     l3282:
  3911  0088  3033               	movlw	51
  3912  0089  0278               	subwf	_escala,w
  3913  008A  1803               	skipnc
  3914  008B  288D               	goto	u3621
  3915  008C  288E               	goto	u3620
  3916  008D                     u3621:
  3917  008D  2893               	goto	l3286
  3918  008E                     u3620:
  3919  008E                     l3284:
  3920                           
  3921                           ;PROYECTO.c: 241:                     hora = 4;
  3922  008E  3004               	movlw	4
  3923  008F  00BD               	movwf	??_main
  3924  0090  083D               	movf	??_main,w
  3925  0091  00FA               	movwf	_hora
  3926                           
  3927                           ;PROYECTO.c: 242:                 }else if(escala >= 51 && escala <=60 ){
  3928  0092  29E1               	goto	l3404
  3929  0093                     l3286:
  3930  0093  3033               	movlw	51
  3931  0094  0278               	subwf	_escala,w
  3932  0095  1C03               	skipc
  3933  0096  2898               	goto	u3631
  3934  0097  2899               	goto	u3630
  3935  0098                     u3631:
  3936  0098  28A4               	goto	l3292
  3937  0099                     u3630:
  3938  0099                     l3288:
  3939  0099  303D               	movlw	61
  3940  009A  0278               	subwf	_escala,w
  3941  009B  1803               	skipnc
  3942  009C  289E               	goto	u3641
  3943  009D  289F               	goto	u3640
  3944  009E                     u3641:
  3945  009E  28A4               	goto	l3292
  3946  009F                     u3640:
  3947  009F                     l3290:
  3948                           
  3949                           ;PROYECTO.c: 243:                     hora = 5;
  3950  009F  3005               	movlw	5
  3951  00A0  00BD               	movwf	??_main
  3952  00A1  083D               	movf	??_main,w
  3953  00A2  00FA               	movwf	_hora
  3954                           
  3955                           ;PROYECTO.c: 244:                 }else if(escala >= 61 && escala <=70 ){
  3956  00A3  29E1               	goto	l3404
  3957  00A4                     l3292:
  3958  00A4  303D               	movlw	61
  3959  00A5  0278               	subwf	_escala,w
  3960  00A6  1C03               	skipc
  3961  00A7  28A9               	goto	u3651
  3962  00A8  28AA               	goto	u3650
  3963  00A9                     u3651:
  3964  00A9  28B5               	goto	l3298
  3965  00AA                     u3650:
  3966  00AA                     l3294:
  3967  00AA  3047               	movlw	71
  3968  00AB  0278               	subwf	_escala,w
  3969  00AC  1803               	skipnc
  3970  00AD  28AF               	goto	u3661
  3971  00AE  28B0               	goto	u3660
  3972  00AF                     u3661:
  3973  00AF  28B5               	goto	l3298
  3974  00B0                     u3660:
  3975  00B0                     l3296:
  3976                           
  3977                           ;PROYECTO.c: 245:                     hora = 6;
  3978  00B0  3006               	movlw	6
  3979  00B1  00BD               	movwf	??_main
  3980  00B2  083D               	movf	??_main,w
  3981  00B3  00FA               	movwf	_hora
  3982                           
  3983                           ;PROYECTO.c: 246:                 }else if(escala >= 71 && escala <=80 ){
  3984  00B4  29E1               	goto	l3404
  3985  00B5                     l3298:
  3986  00B5  3047               	movlw	71
  3987  00B6  0278               	subwf	_escala,w
  3988  00B7  1C03               	skipc
  3989  00B8  28BA               	goto	u3671
  3990  00B9  28BB               	goto	u3670
  3991  00BA                     u3671:
  3992  00BA  28C6               	goto	l3304
  3993  00BB                     u3670:
  3994  00BB                     l3300:
  3995  00BB  3051               	movlw	81
  3996  00BC  0278               	subwf	_escala,w
  3997  00BD  1803               	skipnc
  3998  00BE  28C0               	goto	u3681
  3999  00BF  28C1               	goto	u3680
  4000  00C0                     u3681:
  4001  00C0  28C6               	goto	l3304
  4002  00C1                     u3680:
  4003  00C1                     l3302:
  4004                           
  4005                           ;PROYECTO.c: 247:                     hora = 7;
  4006  00C1  3007               	movlw	7
  4007  00C2  00BD               	movwf	??_main
  4008  00C3  083D               	movf	??_main,w
  4009  00C4  00FA               	movwf	_hora
  4010                           
  4011                           ;PROYECTO.c: 248:                 }else if(escala >= 81 && escala <=90 ){
  4012  00C5  29E1               	goto	l3404
  4013  00C6                     l3304:
  4014  00C6  3051               	movlw	81
  4015  00C7  0278               	subwf	_escala,w
  4016  00C8  1C03               	skipc
  4017  00C9  28CB               	goto	u3691
  4018  00CA  28CC               	goto	u3690
  4019  00CB                     u3691:
  4020  00CB  28D7               	goto	l3310
  4021  00CC                     u3690:
  4022  00CC                     l3306:
  4023  00CC  305B               	movlw	91
  4024  00CD  0278               	subwf	_escala,w
  4025  00CE  1803               	skipnc
  4026  00CF  28D1               	goto	u3701
  4027  00D0  28D2               	goto	u3700
  4028  00D1                     u3701:
  4029  00D1  28D7               	goto	l3310
  4030  00D2                     u3700:
  4031  00D2                     l3308:
  4032                           
  4033                           ;PROYECTO.c: 249:                     hora = 8;
  4034  00D2  3008               	movlw	8
  4035  00D3  00BD               	movwf	??_main
  4036  00D4  083D               	movf	??_main,w
  4037  00D5  00FA               	movwf	_hora
  4038                           
  4039                           ;PROYECTO.c: 250:                 }else if(escala >= 91 && escala <=100 ){
  4040  00D6  29E1               	goto	l3404
  4041  00D7                     l3310:
  4042  00D7  305B               	movlw	91
  4043  00D8  0278               	subwf	_escala,w
  4044  00D9  1C03               	skipc
  4045  00DA  28DC               	goto	u3711
  4046  00DB  28DD               	goto	u3710
  4047  00DC                     u3711:
  4048  00DC  28E8               	goto	l3316
  4049  00DD                     u3710:
  4050  00DD                     l3312:
  4051  00DD  3065               	movlw	101
  4052  00DE  0278               	subwf	_escala,w
  4053  00DF  1803               	skipnc
  4054  00E0  28E2               	goto	u3721
  4055  00E1  28E3               	goto	u3720
  4056  00E2                     u3721:
  4057  00E2  28E8               	goto	l3316
  4058  00E3                     u3720:
  4059  00E3                     l3314:
  4060                           
  4061                           ;PROYECTO.c: 251:                     hora = 9;
  4062  00E3  3009               	movlw	9
  4063  00E4  00BD               	movwf	??_main
  4064  00E5  083D               	movf	??_main,w
  4065  00E6  00FA               	movwf	_hora
  4066                           
  4067                           ;PROYECTO.c: 252:                 }else if(escala >= 101&& escala <=110 ){
  4068  00E7  29E1               	goto	l3404
  4069  00E8                     l3316:
  4070  00E8  3065               	movlw	101
  4071  00E9  0278               	subwf	_escala,w
  4072  00EA  1C03               	skipc
  4073  00EB  28ED               	goto	u3731
  4074  00EC  28EE               	goto	u3730
  4075  00ED                     u3731:
  4076  00ED  28F9               	goto	l3322
  4077  00EE                     u3730:
  4078  00EE                     l3318:
  4079  00EE  306F               	movlw	111
  4080  00EF  0278               	subwf	_escala,w
  4081  00F0  1803               	skipnc
  4082  00F1  28F3               	goto	u3741
  4083  00F2  28F4               	goto	u3740
  4084  00F3                     u3741:
  4085  00F3  28F9               	goto	l3322
  4086  00F4                     u3740:
  4087  00F4                     l3320:
  4088                           
  4089                           ;PROYECTO.c: 253:                     hora = 10;
  4090  00F4  300A               	movlw	10
  4091  00F5  00BD               	movwf	??_main
  4092  00F6  083D               	movf	??_main,w
  4093  00F7  00FA               	movwf	_hora
  4094                           
  4095                           ;PROYECTO.c: 254:                 }else if(escala >= 111 && escala <=120 ){
  4096  00F8  29E1               	goto	l3404
  4097  00F9                     l3322:
  4098  00F9  306F               	movlw	111
  4099  00FA  0278               	subwf	_escala,w
  4100  00FB  1C03               	skipc
  4101  00FC  28FE               	goto	u3751
  4102  00FD  28FF               	goto	u3750
  4103  00FE                     u3751:
  4104  00FE  290A               	goto	l3328
  4105  00FF                     u3750:
  4106  00FF                     l3324:
  4107  00FF  3079               	movlw	121
  4108  0100  0278               	subwf	_escala,w
  4109  0101  1803               	skipnc
  4110  0102  2904               	goto	u3761
  4111  0103  2905               	goto	u3760
  4112  0104                     u3761:
  4113  0104  290A               	goto	l3328
  4114  0105                     u3760:
  4115  0105                     l3326:
  4116                           
  4117                           ;PROYECTO.c: 255:                     hora = 11;
  4118  0105  300B               	movlw	11
  4119  0106  00BD               	movwf	??_main
  4120  0107  083D               	movf	??_main,w
  4121  0108  00FA               	movwf	_hora
  4122                           
  4123                           ;PROYECTO.c: 256:                 }else if(escala >= 121 && escala <=130 ){
  4124  0109  29E1               	goto	l3404
  4125  010A                     l3328:
  4126  010A  3079               	movlw	121
  4127  010B  0278               	subwf	_escala,w
  4128  010C  1C03               	skipc
  4129  010D  290F               	goto	u3771
  4130  010E  2910               	goto	u3770
  4131  010F                     u3771:
  4132  010F  291B               	goto	l3334
  4133  0110                     u3770:
  4134  0110                     l3330:
  4135  0110  3083               	movlw	131
  4136  0111  0278               	subwf	_escala,w
  4137  0112  1803               	skipnc
  4138  0113  2915               	goto	u3781
  4139  0114  2916               	goto	u3780
  4140  0115                     u3781:
  4141  0115  291B               	goto	l3334
  4142  0116                     u3780:
  4143  0116                     l3332:
  4144                           
  4145                           ;PROYECTO.c: 257:                     hora = 12;
  4146  0116  300C               	movlw	12
  4147  0117  00BD               	movwf	??_main
  4148  0118  083D               	movf	??_main,w
  4149  0119  00FA               	movwf	_hora
  4150                           
  4151                           ;PROYECTO.c: 258:                 }else if(escala >= 131 && escala <=140 ){
  4152  011A  29E1               	goto	l3404
  4153  011B                     l3334:
  4154  011B  3083               	movlw	131
  4155  011C  0278               	subwf	_escala,w
  4156  011D  1C03               	skipc
  4157  011E  2920               	goto	u3791
  4158  011F  2921               	goto	u3790
  4159  0120                     u3791:
  4160  0120  292C               	goto	l3340
  4161  0121                     u3790:
  4162  0121                     l3336:
  4163  0121  308D               	movlw	141
  4164  0122  0278               	subwf	_escala,w
  4165  0123  1803               	skipnc
  4166  0124  2926               	goto	u3801
  4167  0125  2927               	goto	u3800
  4168  0126                     u3801:
  4169  0126  292C               	goto	l3340
  4170  0127                     u3800:
  4171  0127                     l3338:
  4172                           
  4173                           ;PROYECTO.c: 259:                     hora = 13;
  4174  0127  300D               	movlw	13
  4175  0128  00BD               	movwf	??_main
  4176  0129  083D               	movf	??_main,w
  4177  012A  00FA               	movwf	_hora
  4178                           
  4179                           ;PROYECTO.c: 260:                 }else if(escala >= 141 && escala <=150 ){
  4180  012B  29E1               	goto	l3404
  4181  012C                     l3340:
  4182  012C  308D               	movlw	141
  4183  012D  0278               	subwf	_escala,w
  4184  012E  1C03               	skipc
  4185  012F  2931               	goto	u3811
  4186  0130  2932               	goto	u3810
  4187  0131                     u3811:
  4188  0131  293D               	goto	l3346
  4189  0132                     u3810:
  4190  0132                     l3342:
  4191  0132  3097               	movlw	151
  4192  0133  0278               	subwf	_escala,w
  4193  0134  1803               	skipnc
  4194  0135  2937               	goto	u3821
  4195  0136  2938               	goto	u3820
  4196  0137                     u3821:
  4197  0137  293D               	goto	l3346
  4198  0138                     u3820:
  4199  0138                     l3344:
  4200                           
  4201                           ;PROYECTO.c: 261:                     hora = 14;
  4202  0138  300E               	movlw	14
  4203  0139  00BD               	movwf	??_main
  4204  013A  083D               	movf	??_main,w
  4205  013B  00FA               	movwf	_hora
  4206                           
  4207                           ;PROYECTO.c: 262:                 }else if(escala >= 151 && escala <=160 ){
  4208  013C  29E1               	goto	l3404
  4209  013D                     l3346:
  4210  013D  3097               	movlw	151
  4211  013E  0278               	subwf	_escala,w
  4212  013F  1C03               	skipc
  4213  0140  2942               	goto	u3831
  4214  0141  2943               	goto	u3830
  4215  0142                     u3831:
  4216  0142  294E               	goto	l3352
  4217  0143                     u3830:
  4218  0143                     l3348:
  4219  0143  30A1               	movlw	161
  4220  0144  0278               	subwf	_escala,w
  4221  0145  1803               	skipnc
  4222  0146  2948               	goto	u3841
  4223  0147  2949               	goto	u3840
  4224  0148                     u3841:
  4225  0148  294E               	goto	l3352
  4226  0149                     u3840:
  4227  0149                     l3350:
  4228                           
  4229                           ;PROYECTO.c: 263:                     hora = 15;
  4230  0149  300F               	movlw	15
  4231  014A  00BD               	movwf	??_main
  4232  014B  083D               	movf	??_main,w
  4233  014C  00FA               	movwf	_hora
  4234                           
  4235                           ;PROYECTO.c: 264:                 }else if(escala >= 161 && escala <=170 ){
  4236  014D  29E1               	goto	l3404
  4237  014E                     l3352:
  4238  014E  30A1               	movlw	161
  4239  014F  0278               	subwf	_escala,w
  4240  0150  1C03               	skipc
  4241  0151  2953               	goto	u3851
  4242  0152  2954               	goto	u3850
  4243  0153                     u3851:
  4244  0153  295F               	goto	l3358
  4245  0154                     u3850:
  4246  0154                     l3354:
  4247  0154  30AB               	movlw	171
  4248  0155  0278               	subwf	_escala,w
  4249  0156  1803               	skipnc
  4250  0157  2959               	goto	u3861
  4251  0158  295A               	goto	u3860
  4252  0159                     u3861:
  4253  0159  295F               	goto	l3358
  4254  015A                     u3860:
  4255  015A                     l3356:
  4256                           
  4257                           ;PROYECTO.c: 265:                     hora = 16;
  4258  015A  3010               	movlw	16
  4259  015B  00BD               	movwf	??_main
  4260  015C  083D               	movf	??_main,w
  4261  015D  00FA               	movwf	_hora
  4262                           
  4263                           ;PROYECTO.c: 266:                 }else if(escala >= 171 && escala <=180 ){
  4264  015E  29E1               	goto	l3404
  4265  015F                     l3358:
  4266  015F  30AB               	movlw	171
  4267  0160  0278               	subwf	_escala,w
  4268  0161  1C03               	skipc
  4269  0162  2964               	goto	u3871
  4270  0163  2965               	goto	u3870
  4271  0164                     u3871:
  4272  0164  2970               	goto	l3364
  4273  0165                     u3870:
  4274  0165                     l3360:
  4275  0165  30B5               	movlw	181
  4276  0166  0278               	subwf	_escala,w
  4277  0167  1803               	skipnc
  4278  0168  296A               	goto	u3881
  4279  0169  296B               	goto	u3880
  4280  016A                     u3881:
  4281  016A  2970               	goto	l3364
  4282  016B                     u3880:
  4283  016B                     l3362:
  4284                           
  4285                           ;PROYECTO.c: 267:                     hora = 17;
  4286  016B  3011               	movlw	17
  4287  016C  00BD               	movwf	??_main
  4288  016D  083D               	movf	??_main,w
  4289  016E  00FA               	movwf	_hora
  4290                           
  4291                           ;PROYECTO.c: 268:                 }else if(escala >= 181 && escala <=190 ){
  4292  016F  29E1               	goto	l3404
  4293  0170                     l3364:
  4294  0170  30B5               	movlw	181
  4295  0171  0278               	subwf	_escala,w
  4296  0172  1C03               	skipc
  4297  0173  2975               	goto	u3891
  4298  0174  2976               	goto	u3890
  4299  0175                     u3891:
  4300  0175  2981               	goto	l3370
  4301  0176                     u3890:
  4302  0176                     l3366:
  4303  0176  30BF               	movlw	191
  4304  0177  0278               	subwf	_escala,w
  4305  0178  1803               	skipnc
  4306  0179  297B               	goto	u3901
  4307  017A  297C               	goto	u3900
  4308  017B                     u3901:
  4309  017B  2981               	goto	l3370
  4310  017C                     u3900:
  4311  017C                     l3368:
  4312                           
  4313                           ;PROYECTO.c: 269:                     hora = 18;
  4314  017C  3012               	movlw	18
  4315  017D  00BD               	movwf	??_main
  4316  017E  083D               	movf	??_main,w
  4317  017F  00FA               	movwf	_hora
  4318                           
  4319                           ;PROYECTO.c: 270:                 }else if(escala >= 191 && escala <=200 ){
  4320  0180  29E1               	goto	l3404
  4321  0181                     l3370:
  4322  0181  30BF               	movlw	191
  4323  0182  0278               	subwf	_escala,w
  4324  0183  1C03               	skipc
  4325  0184  2986               	goto	u3911
  4326  0185  2987               	goto	u3910
  4327  0186                     u3911:
  4328  0186  2992               	goto	l3376
  4329  0187                     u3910:
  4330  0187                     l3372:
  4331  0187  30C9               	movlw	201
  4332  0188  0278               	subwf	_escala,w
  4333  0189  1803               	skipnc
  4334  018A  298C               	goto	u3921
  4335  018B  298D               	goto	u3920
  4336  018C                     u3921:
  4337  018C  2992               	goto	l3376
  4338  018D                     u3920:
  4339  018D                     l3374:
  4340                           
  4341                           ;PROYECTO.c: 271:                     hora = 19;
  4342  018D  3013               	movlw	19
  4343  018E  00BD               	movwf	??_main
  4344  018F  083D               	movf	??_main,w
  4345  0190  00FA               	movwf	_hora
  4346                           
  4347                           ;PROYECTO.c: 272:                 }else if(escala >= 201&& escala <=210 ){
  4348  0191  29E1               	goto	l3404
  4349  0192                     l3376:
  4350  0192  30C9               	movlw	201
  4351  0193  0278               	subwf	_escala,w
  4352  0194  1C03               	skipc
  4353  0195  2997               	goto	u3931
  4354  0196  2998               	goto	u3930
  4355  0197                     u3931:
  4356  0197  29A3               	goto	l3382
  4357  0198                     u3930:
  4358  0198                     l3378:
  4359  0198  30D3               	movlw	211
  4360  0199  0278               	subwf	_escala,w
  4361  019A  1803               	skipnc
  4362  019B  299D               	goto	u3941
  4363  019C  299E               	goto	u3940
  4364  019D                     u3941:
  4365  019D  29A3               	goto	l3382
  4366  019E                     u3940:
  4367  019E                     l3380:
  4368                           
  4369                           ;PROYECTO.c: 273:                     hora = 20;
  4370  019E  3014               	movlw	20
  4371  019F  00BD               	movwf	??_main
  4372  01A0  083D               	movf	??_main,w
  4373  01A1  00FA               	movwf	_hora
  4374                           
  4375                           ;PROYECTO.c: 274:                 }else if(escala >= 211 && escala <=220 ){
  4376  01A2  29E1               	goto	l3404
  4377  01A3                     l3382:
  4378  01A3  30D3               	movlw	211
  4379  01A4  0278               	subwf	_escala,w
  4380  01A5  1C03               	skipc
  4381  01A6  29A8               	goto	u3951
  4382  01A7  29A9               	goto	u3950
  4383  01A8                     u3951:
  4384  01A8  29B4               	goto	l3388
  4385  01A9                     u3950:
  4386  01A9                     l3384:
  4387  01A9  30DD               	movlw	221
  4388  01AA  0278               	subwf	_escala,w
  4389  01AB  1803               	skipnc
  4390  01AC  29AE               	goto	u3961
  4391  01AD  29AF               	goto	u3960
  4392  01AE                     u3961:
  4393  01AE  29B4               	goto	l3388
  4394  01AF                     u3960:
  4395  01AF                     l3386:
  4396                           
  4397                           ;PROYECTO.c: 275:                     hora = 21;
  4398  01AF  3015               	movlw	21
  4399  01B0  00BD               	movwf	??_main
  4400  01B1  083D               	movf	??_main,w
  4401  01B2  00FA               	movwf	_hora
  4402                           
  4403                           ;PROYECTO.c: 276:                 }else if(escala >= 221 && escala <=230 ){
  4404  01B3  29E1               	goto	l3404
  4405  01B4                     l3388:
  4406  01B4  30DD               	movlw	221
  4407  01B5  0278               	subwf	_escala,w
  4408  01B6  1C03               	skipc
  4409  01B7  29B9               	goto	u3971
  4410  01B8  29BA               	goto	u3970
  4411  01B9                     u3971:
  4412  01B9  29C5               	goto	l3394
  4413  01BA                     u3970:
  4414  01BA                     l3390:
  4415  01BA  30E7               	movlw	231
  4416  01BB  0278               	subwf	_escala,w
  4417  01BC  1803               	skipnc
  4418  01BD  29BF               	goto	u3981
  4419  01BE  29C0               	goto	u3980
  4420  01BF                     u3981:
  4421  01BF  29C5               	goto	l3394
  4422  01C0                     u3980:
  4423  01C0                     l3392:
  4424                           
  4425                           ;PROYECTO.c: 277:                     hora = 22;
  4426  01C0  3016               	movlw	22
  4427  01C1  00BD               	movwf	??_main
  4428  01C2  083D               	movf	??_main,w
  4429  01C3  00FA               	movwf	_hora
  4430                           
  4431                           ;PROYECTO.c: 278:                 }else if(escala >= 231 && escala <=240 ){
  4432  01C4  29E1               	goto	l3404
  4433  01C5                     l3394:
  4434  01C5  30E7               	movlw	231
  4435  01C6  0278               	subwf	_escala,w
  4436  01C7  1C03               	skipc
  4437  01C8  29CA               	goto	u3991
  4438  01C9  29CB               	goto	u3990
  4439  01CA                     u3991:
  4440  01CA  29D6               	goto	l3400
  4441  01CB                     u3990:
  4442  01CB                     l3396:
  4443  01CB  30F1               	movlw	241
  4444  01CC  0278               	subwf	_escala,w
  4445  01CD  1803               	skipnc
  4446  01CE  29D0               	goto	u4001
  4447  01CF  29D1               	goto	u4000
  4448  01D0                     u4001:
  4449  01D0  29D6               	goto	l3400
  4450  01D1                     u4000:
  4451  01D1                     l3398:
  4452                           
  4453                           ;PROYECTO.c: 279:                     hora = 23;
  4454  01D1  3017               	movlw	23
  4455  01D2  00BD               	movwf	??_main
  4456  01D3  083D               	movf	??_main,w
  4457  01D4  00FA               	movwf	_hora
  4458                           
  4459                           ;PROYECTO.c: 280:                 }else if(escala >= 241 && escala <=255 ){
  4460  01D5  29E1               	goto	l3404
  4461  01D6                     l3400:
  4462  01D6  30F1               	movlw	241
  4463  01D7  0278               	subwf	_escala,w
  4464  01D8  1C03               	skipc
  4465  01D9  29DB               	goto	u4011
  4466  01DA  29DC               	goto	u4010
  4467  01DB                     u4011:
  4468  01DB  29E1               	goto	l246
  4469  01DC                     u4010:
  4470  01DC                     l3402:
  4471                           
  4472                           ;PROYECTO.c: 281:                     hora = 24;
  4473  01DC  3018               	movlw	24
  4474  01DD  00BD               	movwf	??_main
  4475  01DE  083D               	movf	??_main,w
  4476  01DF  00FA               	movwf	_hora
  4477  01E0  29E1               	goto	l3404
  4478  01E1                     l246:
  4479  01E1                     l3404:
  4480                           
  4481                           ;PROYECTO.c: 283:                 ADCON0bits.CHS = 6;
  4482  01E1  081F               	movf	31,w	;volatile
  4483  01E2  39C3               	andlw	-61
  4484  01E3  3818               	iorlw	24
  4485  01E4  009F               	movwf	31	;volatile
  4486  01E5                     l3406:
  4487                           
  4488                           ;PROYECTO.c: 285:             _delay((unsigned long)((50)*(4000000/4000000.0)));
  4489  01E5  300F               	movlw	15
  4490  01E6  1283               	bcf	3,5	;RP0=0, select bank0
  4491  01E7  1303               	bcf	3,6	;RP1=0, select bank0
  4492  01E8  00BD               	movwf	??_main
  4493  01E9                     u4547:
  4494  01E9  0BBD               	decfsz	??_main,f
  4495  01EA  29E9               	goto	u4547
  4496  01EB  29EC               	nop2
  4497  01EC                     l3408:
  4498                           
  4499                           ;PROYECTO.c: 287:             ADCON0bits.GO = 1;
  4500  01EC  1283               	bcf	3,5	;RP0=0, select bank0
  4501  01ED  1303               	bcf	3,6	;RP1=0, select bank0
  4502  01EE  149F               	bsf	31,1	;volatile
  4503  01EF                     l190:	
  4504                           ;PROYECTO.c: 288:         }
  4505                           
  4506                           
  4507                           ;PROYECTO.c: 290:        if(ventana == 1){
  4508  01EF  033A               	decf	_ventana,w
  4509  01F0  1D03               	btfss	3,2
  4510  01F1  29F3               	goto	u4021
  4511  01F2  29F4               	goto	u4020
  4512  01F3                     u4021:
  4513  01F3  2A36               	goto	l3414
  4514  01F4                     u4020:
  4515  01F4                     l3410:
  4516                           
  4517                           ;PROYECTO.c: 292:            USART_Cadena("\r Que accion desea ejecutar? \r");
  4518  01F4  302E               	movlw	low (STR_1| (0+32768))
  4519  01F5  00F4               	movwf	USART_Cadena@str
  4520  01F6  308A               	movlw	high (STR_1| (0+32768))
  4521  01F7  00F5               	movwf	USART_Cadena@str+1
  4522  01F8  120A  158A  237C  120A  118A  	fcall	_USART_Cadena
  4523                           
  4524                           ;PROYECTO.c: 293:            USART_Cadena("1) ver datos de usuario uno \r");
  4525  01FD  306C               	movlw	low (STR_2| (0+32768))
  4526  01FE  00F4               	movwf	USART_Cadena@str
  4527  01FF  308A               	movlw	high (STR_2| (0+32768))
  4528  0200  00F5               	movwf	USART_Cadena@str+1
  4529  0201  120A  158A  237C  120A  118A  	fcall	_USART_Cadena
  4530                           
  4531                           ;PROYECTO.c: 294:            USART_Cadena("2) ver datos de usuario dos\r");
  4532  0206  308A               	movlw	low (STR_3| (0+32768))
  4533  0207  00F4               	movwf	USART_Cadena@str
  4534  0208  308A               	movlw	high (STR_3| (0+32768))
  4535  0209  00F5               	movwf	USART_Cadena@str+1
  4536  020A  120A  158A  237C  120A  118A  	fcall	_USART_Cadena
  4537                           
  4538                           ;PROYECTO.c: 295:            USART_Cadena("3) ver datos de usuario tres \r");
  4539  020F  304D               	movlw	low (STR_4| (0+32768))
  4540  0210  00F4               	movwf	USART_Cadena@str
  4541  0211  308A               	movlw	high (STR_4| (0+32768))
  4542  0212  00F5               	movwf	USART_Cadena@str+1
  4543  0213  120A  158A  237C  120A  118A  	fcall	_USART_Cadena
  4544                           
  4545                           ;PROYECTO.c: 296:            USART_Cadena("4) Modificar horario usuario uno \r");
  4546  0218  308B               	movlw	low (STR_5| (0+32768))
  4547  0219  00F4               	movwf	USART_Cadena@str
  4548  021A  3089               	movlw	high (STR_5| (0+32768))
  4549  021B  00F5               	movwf	USART_Cadena@str+1
  4550  021C  120A  158A  237C  120A  118A  	fcall	_USART_Cadena
  4551                           
  4552                           ;PROYECTO.c: 297:            USART_Cadena("5) Modificar horario usuario dos\r");
  4553  0221  30AE               	movlw	low (STR_6| (0+32768))
  4554  0222  00F4               	movwf	USART_Cadena@str
  4555  0223  3089               	movlw	high (STR_6| (0+32768))
  4556  0224  00F5               	movwf	USART_Cadena@str+1
  4557  0225  120A  158A  237C  120A  118A  	fcall	_USART_Cadena
  4558                           
  4559                           ;PROYECTO.c: 298:            USART_Cadena("6) Modificar horario usuario tres \r\r");
  4560  022A  3042               	movlw	low (STR_7| (0+32768))
  4561  022B  00F4               	movwf	USART_Cadena@str
  4562  022C  3089               	movlw	high (STR_7| (0+32768))
  4563  022D  00F5               	movwf	USART_Cadena@str+1
  4564  022E  120A  158A  237C  120A  118A  	fcall	_USART_Cadena
  4565  0233                     l3412:
  4566                           
  4567                           ;PROYECTO.c: 299:            ventana = 0;
  4568  0233  1283               	bcf	3,5	;RP0=0, select bank0
  4569  0234  1303               	bcf	3,6	;RP1=0, select bank0
  4570  0235  01BA               	clrf	_ventana
  4571  0236                     l3414:
  4572                           
  4573                           ;PROYECTO.c: 302:        if (PIR1bits.RCIF == 1){
  4574  0236  1E8C               	btfss	12,5	;volatile
  4575  0237  2A39               	goto	u4031
  4576  0238  2A3A               	goto	u4030
  4577  0239                     u4031:
  4578  0239  2EFE               	goto	l3632
  4579  023A                     u4030:
  4580  023A                     l3416:
  4581                           
  4582                           ;PROYECTO.c: 303:            valor = USART_Rx();
  4583  023A  120A  158A  2370  120A  118A  	fcall	_USART_Rx
  4584  023F  1283               	bcf	3,5	;RP0=0, select bank0
  4585  0240  1303               	bcf	3,6	;RP1=0, select bank0
  4586  0241  00BD               	movwf	??_main
  4587  0242  083D               	movf	??_main,w
  4588  0243  00BB               	movwf	_valor
  4589  0244                     l3418:
  4590                           
  4591                           ;PROYECTO.c: 304:            ventana = 1;
  4592  0244  01BA               	clrf	_ventana
  4593  0245  0ABA               	incf	_ventana,f
  4594  0246  2EFE               	goto	l3632
  4595  0247                     l3420:
  4596                           
  4597                           ;PROYECTO.c: 309:                 USART_Cadena(" Esperar  ");
  4598  0247  30C1               	movlw	low (STR_8| (0+32768))
  4599  0248  00F4               	movwf	USART_Cadena@str
  4600  0249  308A               	movlw	high (STR_8| (0+32768))
  4601  024A  00F5               	movwf	USART_Cadena@str+1
  4602  024B  120A  158A  237C  120A  118A  	fcall	_USART_Cadena
  4603  0250                     l3422:
  4604                           
  4605                           ;PROYECTO.c: 310:                 SendCharH(me_1_us1_h);
  4606  0250  1283               	bcf	3,5	;RP0=0, select bank0
  4607  0251  1303               	bcf	3,6	;RP1=0, select bank0
  4608  0252  0834               	movf	_me_1_us1_h,w
  4609  0253  120A  158A  263B  120A  118A  	fcall	_SendCharH
  4610  0258                     l3424:
  4611                           
  4612                           ;PROYECTO.c: 311:                 USART_Cadena(" Horas ");
  4613  0258  30CC               	movlw	low (STR_9| (0+32768))
  4614  0259  00F4               	movwf	USART_Cadena@str
  4615  025A  308A               	movlw	high (STR_9| (0+32768))
  4616  025B  00F5               	movwf	USART_Cadena@str+1
  4617  025C  120A  158A  237C  120A  118A  	fcall	_USART_Cadena
  4618  0261                     l3426:
  4619                           
  4620                           ;PROYECTO.c: 312:                 USART_Cadena(" con  ");
  4621  0261  30D4               	movlw	low (STR_10| (0+32768))
  4622  0262  00F4               	movwf	USART_Cadena@str
  4623  0263  308A               	movlw	high (STR_10| (0+32768))
  4624  0264  00F5               	movwf	USART_Cadena@str+1
  4625  0265  120A  158A  237C  120A  118A  	fcall	_USART_Cadena
  4626  026A                     l3428:
  4627                           
  4628                           ;PROYECTO.c: 313:                 SendCharM(me_1_us1_m);
  4629  026A  1283               	bcf	3,5	;RP0=0, select bank0
  4630  026B  1303               	bcf	3,6	;RP1=0, select bank0
  4631  026C  082B               	movf	_me_1_us1_m,w
  4632  026D  120A  158A  2402  120A  118A  	fcall	_SendCharM
  4633  0272                     l3430:
  4634                           
  4635                           ;PROYECTO.c: 314:                 USART_Cadena(" mins. para el medicamento 1 \r");
  4636  0272  30F0               	movlw	low (STR_11| (0+32768))
  4637  0273  00F4               	movwf	USART_Cadena@str
  4638  0274  3089               	movlw	high (STR_11| (0+32768))
  4639  0275  00F5               	movwf	USART_Cadena@str+1
  4640  0276  120A  158A  237C  120A  118A  	fcall	_USART_Cadena
  4641  027B                     l3432:
  4642                           
  4643                           ;PROYECTO.c: 316:                 USART_Cadena(" Esperar  ");
  4644  027B  30C1               	movlw	low (STR_8| (0+32768))
  4645  027C  00F4               	movwf	USART_Cadena@str
  4646  027D  308A               	movlw	high (STR_8| (0+32768))
  4647  027E  00F5               	movwf	USART_Cadena@str+1
  4648  027F  120A  158A  237C  120A  118A  	fcall	_USART_Cadena
  4649                           
  4650                           ;PROYECTO.c: 317:                 SendCharH(me_2_us1_h);
  4651  0284  1283               	bcf	3,5	;RP0=0, select bank0
  4652  0285  1303               	bcf	3,6	;RP1=0, select bank0
  4653  0286  0833               	movf	_me_2_us1_h,w
  4654  0287  120A  158A  263B  120A  118A  	fcall	_SendCharH
  4655  028C                     l3434:
  4656                           
  4657                           ;PROYECTO.c: 318:                 USART_Cadena(" Horas ");
  4658  028C  30CC               	movlw	low (STR_9| (0+32768))
  4659  028D  00F4               	movwf	USART_Cadena@str
  4660  028E  308A               	movlw	high (STR_9| (0+32768))
  4661  028F  00F5               	movwf	USART_Cadena@str+1
  4662  0290  120A  158A  237C  120A  118A  	fcall	_USART_Cadena
  4663  0295                     l3436:
  4664                           
  4665                           ;PROYECTO.c: 319:                 USART_Cadena(" con  ");
  4666  0295  30D4               	movlw	low (STR_10| (0+32768))
  4667  0296  00F4               	movwf	USART_Cadena@str
  4668  0297  308A               	movlw	high (STR_10| (0+32768))
  4669  0298  00F5               	movwf	USART_Cadena@str+1
  4670  0299  120A  158A  237C  120A  118A  	fcall	_USART_Cadena
  4671  029E                     l3438:
  4672                           
  4673                           ;PROYECTO.c: 320:                 SendCharM(me_2_us1_m);
  4674  029E  1283               	bcf	3,5	;RP0=0, select bank0
  4675  029F  1303               	bcf	3,6	;RP1=0, select bank0
  4676  02A0  082A               	movf	_me_2_us1_m,w
  4677  02A1  120A  158A  2402  120A  118A  	fcall	_SendCharM
  4678  02A6                     l3440:
  4679                           
  4680                           ;PROYECTO.c: 321:                 USART_Cadena(" mins. para el medicamento 2 \r");
  4681  02A6  300F               	movlw	low (STR_15| (0+32768))
  4682  02A7  00F4               	movwf	USART_Cadena@str
  4683  02A8  308A               	movlw	high (STR_15| (0+32768))
  4684  02A9  00F5               	movwf	USART_Cadena@str+1
  4685  02AA  120A  158A  237C  120A  118A  	fcall	_USART_Cadena
  4686  02AF                     l3442:
  4687                           
  4688                           ;PROYECTO.c: 323:                 USART_Cadena(" Esperar  ");
  4689  02AF  30C1               	movlw	low (STR_8| (0+32768))
  4690  02B0  00F4               	movwf	USART_Cadena@str
  4691  02B1  308A               	movlw	high (STR_8| (0+32768))
  4692  02B2  00F5               	movwf	USART_Cadena@str+1
  4693  02B3  120A  158A  237C  120A  118A  	fcall	_USART_Cadena
  4694  02B8                     l3444:
  4695                           
  4696                           ;PROYECTO.c: 324:                 SendCharH(me_3_us1_h);
  4697  02B8  1283               	bcf	3,5	;RP0=0, select bank0
  4698  02B9  1303               	bcf	3,6	;RP1=0, select bank0
  4699  02BA  0832               	movf	_me_3_us1_h,w
  4700  02BB  120A  158A  263B  120A  118A  	fcall	_SendCharH
  4701                           
  4702                           ;PROYECTO.c: 325:                 USART_Cadena(" Horas ");
  4703  02C0  30CC               	movlw	low (STR_9| (0+32768))
  4704  02C1  00F4               	movwf	USART_Cadena@str
  4705  02C2  308A               	movlw	high (STR_9| (0+32768))
  4706  02C3  00F5               	movwf	USART_Cadena@str+1
  4707  02C4  120A  158A  237C  120A  118A  	fcall	_USART_Cadena
  4708                           
  4709                           ;PROYECTO.c: 326:                 USART_Cadena(" con  ");
  4710  02C9  30D4               	movlw	low (STR_10| (0+32768))
  4711  02CA  00F4               	movwf	USART_Cadena@str
  4712  02CB  308A               	movlw	high (STR_10| (0+32768))
  4713  02CC  00F5               	movwf	USART_Cadena@str+1
  4714  02CD  120A  158A  237C  120A  118A  	fcall	_USART_Cadena
  4715                           
  4716                           ;PROYECTO.c: 327:                 SendCharM(me_3_us1_m);
  4717  02D2  1283               	bcf	3,5	;RP0=0, select bank0
  4718  02D3  1303               	bcf	3,6	;RP1=0, select bank0
  4719  02D4  0829               	movf	_me_3_us1_m,w
  4720  02D5  120A  158A  2402  120A  118A  	fcall	_SendCharM
  4721                           
  4722                           ;PROYECTO.c: 328:                 USART_Cadena(" mins. para el medicamento 3 \r\r");
  4723  02DA  30D0               	movlw	low (STR_19| (0+32768))
  4724  02DB  00F4               	movwf	USART_Cadena@str
  4725  02DC  3089               	movlw	high (STR_19| (0+32768))
  4726  02DD  00F5               	movwf	USART_Cadena@str+1
  4727  02DE  120A  158A  237C  120A  118A  	fcall	_USART_Cadena
  4728  02E3                     l3446:
  4729                           
  4730                           ;PROYECTO.c: 329:                 ventana = 1;
  4731  02E3  1283               	bcf	3,5	;RP0=0, select bank0
  4732  02E4  1303               	bcf	3,6	;RP1=0, select bank0
  4733  02E5  01BA               	clrf	_ventana
  4734  02E6  0ABA               	incf	_ventana,f
  4735                           
  4736                           ;PROYECTO.c: 330:                 break;
  4737  02E7  2F1A               	goto	l3634
  4738  02E8                     l3448:
  4739                           
  4740                           ;PROYECTO.c: 333:                 USART_Cadena(" Esperar  ");
  4741  02E8  30C1               	movlw	low (STR_8| (0+32768))
  4742  02E9  00F4               	movwf	USART_Cadena@str
  4743  02EA  308A               	movlw	high (STR_8| (0+32768))
  4744  02EB  00F5               	movwf	USART_Cadena@str+1
  4745  02EC  120A  158A  237C  120A  118A  	fcall	_USART_Cadena
  4746  02F1                     l3450:
  4747                           
  4748                           ;PROYECTO.c: 334:                 SendCharH(me_1_us2_h);
  4749  02F1  1283               	bcf	3,5	;RP0=0, select bank0
  4750  02F2  1303               	bcf	3,6	;RP1=0, select bank0
  4751  02F3  0831               	movf	_me_1_us2_h,w
  4752  02F4  120A  158A  263B  120A  118A  	fcall	_SendCharH
  4753  02F9                     l3452:
  4754                           
  4755                           ;PROYECTO.c: 335:                 USART_Cadena(" Horas ");
  4756  02F9  30CC               	movlw	low (STR_9| (0+32768))
  4757  02FA  00F4               	movwf	USART_Cadena@str
  4758  02FB  308A               	movlw	high (STR_9| (0+32768))
  4759  02FC  00F5               	movwf	USART_Cadena@str+1
  4760  02FD  120A  158A  237C  120A  118A  	fcall	_USART_Cadena
  4761  0302                     l3454:
  4762                           
  4763                           ;PROYECTO.c: 336:                 USART_Cadena(" con  ");
  4764  0302  30D4               	movlw	low (STR_10| (0+32768))
  4765  0303  00F4               	movwf	USART_Cadena@str
  4766  0304  308A               	movlw	high (STR_10| (0+32768))
  4767  0305  00F5               	movwf	USART_Cadena@str+1
  4768  0306  120A  158A  237C  120A  118A  	fcall	_USART_Cadena
  4769  030B                     l3456:
  4770                           
  4771                           ;PROYECTO.c: 337:                 SendCharM(me_1_us2_m);
  4772  030B  1283               	bcf	3,5	;RP0=0, select bank0
  4773  030C  1303               	bcf	3,6	;RP1=0, select bank0
  4774  030D  0828               	movf	_me_1_us2_m,w
  4775  030E  120A  158A  2402  120A  118A  	fcall	_SendCharM
  4776  0313                     l3458:
  4777                           
  4778                           ;PROYECTO.c: 338:                 USART_Cadena(" mins. para el medicamento 1 \r");
  4779  0313  30F0               	movlw	low (STR_11| (0+32768))
  4780  0314  00F4               	movwf	USART_Cadena@str
  4781  0315  3089               	movlw	high (STR_11| (0+32768))
  4782  0316  00F5               	movwf	USART_Cadena@str+1
  4783  0317  120A  158A  237C  120A  118A  	fcall	_USART_Cadena
  4784  031C                     l3460:
  4785                           
  4786                           ;PROYECTO.c: 340:                 USART_Cadena(" Esperar  ");
  4787  031C  30C1               	movlw	low (STR_8| (0+32768))
  4788  031D  00F4               	movwf	USART_Cadena@str
  4789  031E  308A               	movlw	high (STR_8| (0+32768))
  4790  031F  00F5               	movwf	USART_Cadena@str+1
  4791  0320  120A  158A  237C  120A  118A  	fcall	_USART_Cadena
  4792                           
  4793                           ;PROYECTO.c: 341:                 SendCharH(me_2_us2_h);
  4794  0325  1283               	bcf	3,5	;RP0=0, select bank0
  4795  0326  1303               	bcf	3,6	;RP1=0, select bank0
  4796  0327  0830               	movf	_me_2_us2_h,w
  4797  0328  120A  158A  263B  120A  118A  	fcall	_SendCharH
  4798  032D                     l3462:
  4799                           
  4800                           ;PROYECTO.c: 342:                 USART_Cadena(" Horas ");
  4801  032D  30CC               	movlw	low (STR_9| (0+32768))
  4802  032E  00F4               	movwf	USART_Cadena@str
  4803  032F  308A               	movlw	high (STR_9| (0+32768))
  4804  0330  00F5               	movwf	USART_Cadena@str+1
  4805  0331  120A  158A  237C  120A  118A  	fcall	_USART_Cadena
  4806  0336                     l3464:
  4807                           
  4808                           ;PROYECTO.c: 343:                 USART_Cadena(" con  ");
  4809  0336  30D4               	movlw	low (STR_10| (0+32768))
  4810  0337  00F4               	movwf	USART_Cadena@str
  4811  0338  308A               	movlw	high (STR_10| (0+32768))
  4812  0339  00F5               	movwf	USART_Cadena@str+1
  4813  033A  120A  158A  237C  120A  118A  	fcall	_USART_Cadena
  4814  033F                     l3466:
  4815                           
  4816                           ;PROYECTO.c: 344:                 SendCharM(me_2_us2_m);
  4817  033F  1283               	bcf	3,5	;RP0=0, select bank0
  4818  0340  1303               	bcf	3,6	;RP1=0, select bank0
  4819  0341  0827               	movf	_me_2_us2_m,w
  4820  0342  120A  158A  2402  120A  118A  	fcall	_SendCharM
  4821  0347                     l3468:
  4822                           
  4823                           ;PROYECTO.c: 345:                 USART_Cadena(" mins. para el medicamento 2 \r");
  4824  0347  300F               	movlw	low (STR_15| (0+32768))
  4825  0348  00F4               	movwf	USART_Cadena@str
  4826  0349  308A               	movlw	high (STR_15| (0+32768))
  4827  034A  00F5               	movwf	USART_Cadena@str+1
  4828  034B  120A  158A  237C  120A  118A  	fcall	_USART_Cadena
  4829  0350                     l3470:
  4830                           
  4831                           ;PROYECTO.c: 347:                 USART_Cadena(" Esperar  ");
  4832  0350  30C1               	movlw	low (STR_8| (0+32768))
  4833  0351  00F4               	movwf	USART_Cadena@str
  4834  0352  308A               	movlw	high (STR_8| (0+32768))
  4835  0353  00F5               	movwf	USART_Cadena@str+1
  4836  0354  120A  158A  237C  120A  118A  	fcall	_USART_Cadena
  4837  0359                     l3472:
  4838                           
  4839                           ;PROYECTO.c: 348:                 SendCharH(me_3_us2_h);
  4840  0359  1283               	bcf	3,5	;RP0=0, select bank0
  4841  035A  1303               	bcf	3,6	;RP1=0, select bank0
  4842  035B  082F               	movf	_me_3_us2_h,w
  4843  035C  120A  158A  263B  120A  118A  	fcall	_SendCharH
  4844                           
  4845                           ;PROYECTO.c: 349:                 USART_Cadena(" Horas ");
  4846  0361  30CC               	movlw	low (STR_9| (0+32768))
  4847  0362  00F4               	movwf	USART_Cadena@str
  4848  0363  308A               	movlw	high (STR_9| (0+32768))
  4849  0364  00F5               	movwf	USART_Cadena@str+1
  4850  0365  120A  158A  237C  120A  118A  	fcall	_USART_Cadena
  4851                           
  4852                           ;PROYECTO.c: 350:                 USART_Cadena(" con  ");
  4853  036A  30D4               	movlw	low (STR_10| (0+32768))
  4854  036B  00F4               	movwf	USART_Cadena@str
  4855  036C  308A               	movlw	high (STR_10| (0+32768))
  4856  036D  00F5               	movwf	USART_Cadena@str+1
  4857  036E  120A  158A  237C  120A  118A  	fcall	_USART_Cadena
  4858                           
  4859                           ;PROYECTO.c: 351:                 SendCharM(me_3_us2_m);
  4860  0373  1283               	bcf	3,5	;RP0=0, select bank0
  4861  0374  1303               	bcf	3,6	;RP1=0, select bank0
  4862  0375  0826               	movf	_me_3_us2_m,w
  4863  0376  120A  158A  2402  120A  118A  	fcall	_SendCharM
  4864                           
  4865                           ;PROYECTO.c: 352:                 USART_Cadena(" mins. para el medicamento 3 \r\r");
  4866  037B  30D0               	movlw	low (STR_19| (0+32768))
  4867  037C  00F4               	movwf	USART_Cadena@str
  4868  037D  3089               	movlw	high (STR_19| (0+32768))
  4869  037E  00F5               	movwf	USART_Cadena@str+1
  4870  037F  120A  158A  237C  120A  118A  	fcall	_USART_Cadena
  4871  0384  2AE3               	goto	l3446
  4872  0385                     l3476:
  4873                           
  4874                           ;PROYECTO.c: 357:                 USART_Cadena(" Esperar  ");
  4875  0385  30C1               	movlw	low (STR_8| (0+32768))
  4876  0386  00F4               	movwf	USART_Cadena@str
  4877  0387  308A               	movlw	high (STR_8| (0+32768))
  4878  0388  00F5               	movwf	USART_Cadena@str+1
  4879  0389  120A  158A  237C  120A  118A  	fcall	_USART_Cadena
  4880  038E                     l3478:
  4881                           
  4882                           ;PROYECTO.c: 358:                 SendCharH(me_1_us3_h);
  4883  038E  1283               	bcf	3,5	;RP0=0, select bank0
  4884  038F  1303               	bcf	3,6	;RP1=0, select bank0
  4885  0390  082E               	movf	_me_1_us3_h,w
  4886  0391  120A  158A  263B  120A  118A  	fcall	_SendCharH
  4887  0396                     l3480:
  4888                           
  4889                           ;PROYECTO.c: 359:                 USART_Cadena(" Horas ");
  4890  0396  30CC               	movlw	low (STR_9| (0+32768))
  4891  0397  00F4               	movwf	USART_Cadena@str
  4892  0398  308A               	movlw	high (STR_9| (0+32768))
  4893  0399  00F5               	movwf	USART_Cadena@str+1
  4894  039A  120A  158A  237C  120A  118A  	fcall	_USART_Cadena
  4895  039F                     l3482:
  4896                           
  4897                           ;PROYECTO.c: 360:                 USART_Cadena(" con  ");
  4898  039F  30D4               	movlw	low (STR_10| (0+32768))
  4899  03A0  00F4               	movwf	USART_Cadena@str
  4900  03A1  308A               	movlw	high (STR_10| (0+32768))
  4901  03A2  00F5               	movwf	USART_Cadena@str+1
  4902  03A3  120A  158A  237C  120A  118A  	fcall	_USART_Cadena
  4903  03A8                     l3484:
  4904                           
  4905                           ;PROYECTO.c: 361:                 SendCharM(me_1_us3_m);
  4906  03A8  1283               	bcf	3,5	;RP0=0, select bank0
  4907  03A9  1303               	bcf	3,6	;RP1=0, select bank0
  4908  03AA  0825               	movf	_me_1_us3_m,w
  4909  03AB  120A  158A  2402  120A  118A  	fcall	_SendCharM
  4910  03B0                     l3486:
  4911                           
  4912                           ;PROYECTO.c: 362:                 USART_Cadena(" mins. para el medicamento 1 \r");
  4913  03B0  30F0               	movlw	low (STR_11| (0+32768))
  4914  03B1  00F4               	movwf	USART_Cadena@str
  4915  03B2  3089               	movlw	high (STR_11| (0+32768))
  4916  03B3  00F5               	movwf	USART_Cadena@str+1
  4917  03B4  120A  158A  237C  120A  118A  	fcall	_USART_Cadena
  4918  03B9                     l3488:
  4919                           
  4920                           ;PROYECTO.c: 364:                 USART_Cadena(" Esperar  ");
  4921  03B9  30C1               	movlw	low (STR_8| (0+32768))
  4922  03BA  00F4               	movwf	USART_Cadena@str
  4923  03BB  308A               	movlw	high (STR_8| (0+32768))
  4924  03BC  00F5               	movwf	USART_Cadena@str+1
  4925  03BD  120A  158A  237C  120A  118A  	fcall	_USART_Cadena
  4926                           
  4927                           ;PROYECTO.c: 365:                 SendCharH(me_2_us3_h);
  4928  03C2  1283               	bcf	3,5	;RP0=0, select bank0
  4929  03C3  1303               	bcf	3,6	;RP1=0, select bank0
  4930  03C4  082D               	movf	_me_2_us3_h,w
  4931  03C5  120A  158A  263B  120A  118A  	fcall	_SendCharH
  4932  03CA                     l3490:
  4933                           
  4934                           ;PROYECTO.c: 366:                 USART_Cadena(" Horas ");
  4935  03CA  30CC               	movlw	low (STR_9| (0+32768))
  4936  03CB  00F4               	movwf	USART_Cadena@str
  4937  03CC  308A               	movlw	high (STR_9| (0+32768))
  4938  03CD  00F5               	movwf	USART_Cadena@str+1
  4939  03CE  120A  158A  237C  120A  118A  	fcall	_USART_Cadena
  4940  03D3                     l3492:
  4941                           
  4942                           ;PROYECTO.c: 367:                 USART_Cadena(" con  ");
  4943  03D3  30D4               	movlw	low (STR_10| (0+32768))
  4944  03D4  00F4               	movwf	USART_Cadena@str
  4945  03D5  308A               	movlw	high (STR_10| (0+32768))
  4946  03D6  00F5               	movwf	USART_Cadena@str+1
  4947  03D7  120A  158A  237C  120A  118A  	fcall	_USART_Cadena
  4948  03DC                     l3494:
  4949                           
  4950                           ;PROYECTO.c: 368:                 SendCharM(me_2_us3_m);
  4951  03DC  1283               	bcf	3,5	;RP0=0, select bank0
  4952  03DD  1303               	bcf	3,6	;RP1=0, select bank0
  4953  03DE  0824               	movf	_me_2_us3_m,w
  4954  03DF  120A  158A  2402  120A  118A  	fcall	_SendCharM
  4955  03E4                     l3496:
  4956                           
  4957                           ;PROYECTO.c: 369:                 USART_Cadena(" mins. para el medicamento 2 \r");
  4958  03E4  300F               	movlw	low (STR_15| (0+32768))
  4959  03E5  00F4               	movwf	USART_Cadena@str
  4960  03E6  308A               	movlw	high (STR_15| (0+32768))
  4961  03E7  00F5               	movwf	USART_Cadena@str+1
  4962  03E8  120A  158A  237C  120A  118A  	fcall	_USART_Cadena
  4963  03ED                     l3498:
  4964                           
  4965                           ;PROYECTO.c: 371:                 USART_Cadena(" Esperar  ");
  4966  03ED  30C1               	movlw	low (STR_8| (0+32768))
  4967  03EE  00F4               	movwf	USART_Cadena@str
  4968  03EF  308A               	movlw	high (STR_8| (0+32768))
  4969  03F0  00F5               	movwf	USART_Cadena@str+1
  4970  03F1  120A  158A  237C  120A  118A  	fcall	_USART_Cadena
  4971  03F6                     l3500:
  4972                           
  4973                           ;PROYECTO.c: 372:                 SendCharH(me_3_us3_h);
  4974  03F6  1283               	bcf	3,5	;RP0=0, select bank0
  4975  03F7  1303               	bcf	3,6	;RP1=0, select bank0
  4976  03F8  082C               	movf	_me_3_us3_h,w
  4977  03F9  120A  158A  263B  120A  118A  	fcall	_SendCharH
  4978                           
  4979                           ;PROYECTO.c: 373:                 USART_Cadena(" Horas ");
  4980  03FE  30CC               	movlw	low (STR_9| (0+32768))
  4981  03FF  00F4               	movwf	USART_Cadena@str
  4982  0400  308A               	movlw	high (STR_9| (0+32768))
  4983  0401  00F5               	movwf	USART_Cadena@str+1
  4984  0402  120A  158A  237C  120A  118A  	fcall	_USART_Cadena
  4985                           
  4986                           ;PROYECTO.c: 374:                 USART_Cadena(" con  ");
  4987  0407  30D4               	movlw	low (STR_10| (0+32768))
  4988  0408  00F4               	movwf	USART_Cadena@str
  4989  0409  308A               	movlw	high (STR_10| (0+32768))
  4990  040A  00F5               	movwf	USART_Cadena@str+1
  4991  040B  120A  158A  237C  120A  118A  	fcall	_USART_Cadena
  4992                           
  4993                           ;PROYECTO.c: 375:                 SendCharM(me_3_us3_m);
  4994  0410  1283               	bcf	3,5	;RP0=0, select bank0
  4995  0411  1303               	bcf	3,6	;RP1=0, select bank0
  4996  0412  0823               	movf	_me_3_us3_m,w
  4997  0413  120A  158A  2402  120A  118A  	fcall	_SendCharM
  4998                           
  4999                           ;PROYECTO.c: 376:                 USART_Cadena(" mins. para el medicamento 3 \r\r");
  5000  0418  30D0               	movlw	low (STR_19| (0+32768))
  5001  0419  00F4               	movwf	USART_Cadena@str
  5002  041A  3089               	movlw	high (STR_19| (0+32768))
  5003  041B  00F5               	movwf	USART_Cadena@str+1
  5004  041C  120A  158A  237C  120A  118A  	fcall	_USART_Cadena
  5005  0421  2AE3               	goto	l3446
  5006  0422                     l3504:
  5007                           
  5008                           ;PROYECTO.c: 381:                 USART_Cadena(" Ingresá la letra de la nueva hora  \r"
      +                          );
  5009  0422  301B               	movlw	low (STR_44| (0+32768))
  5010  0423  00F4               	movwf	USART_Cadena@str
  5011  0424  3089               	movlw	high (STR_44| (0+32768))
  5012  0425  00F5               	movwf	USART_Cadena@str+1
  5013  0426  120A  158A  237C  120A  118A  	fcall	_USART_Cadena
  5014                           
  5015                           ;PROYECTO.c: 382:                 USART_Cadena(" a.0  b.1   c.2   d.3   e.4   f.5   g.6 
      +                            h.7  i.8\r");
  5016  042B  3000               	movlw	low (STR_45| (0+32768))
  5017  042C  00F4               	movwf	USART_Cadena@str
  5018  042D  3088               	movlw	high (STR_45| (0+32768))
  5019  042E  00F5               	movwf	USART_Cadena@str+1
  5020  042F  120A  158A  237C  120A  118A  	fcall	_USART_Cadena
  5021                           
  5022                           ;PROYECTO.c: 383:                 USART_Cadena(" j.9  k.10  l.11  m.12  n.13  o.14  p.15
      +                            q.16\r");
  5023  0434  3094               	movlw	low (STR_46| (0+32768))
  5024  0435  00F4               	movwf	USART_Cadena@str
  5025  0436  3088               	movlw	high (STR_46| (0+32768))
  5026  0437  00F5               	movwf	USART_Cadena@str+1
  5027  0438  120A  158A  237C  120A  118A  	fcall	_USART_Cadena
  5028                           
  5029                           ;PROYECTO.c: 384:                 USART_Cadena("r.17  s.18  t.19  u.20  v.21  w.22  x.23
      +                            y.24\r");
  5030  043D  3064               	movlw	low (STR_47| (0+32768))
  5031  043E  00F4               	movwf	USART_Cadena@str
  5032  043F  3088               	movlw	high (STR_47| (0+32768))
  5033  0440  00F5               	movwf	USART_Cadena@str+1
  5034  0441  120A  158A  237C  120A  118A  	fcall	_USART_Cadena
  5035  0446                     l3506:
  5036                           
  5037                           ;PROYECTO.c: 386:                     if (PIR1bits.RCIF == 1){
  5038  0446  1283               	bcf	3,5	;RP0=0, select bank0
  5039  0447  1303               	bcf	3,6	;RP1=0, select bank0
  5040  0448  1E8C               	btfss	12,5	;volatile
  5041  0449  2C4B               	goto	u4041
  5042  044A  2C4C               	goto	u4040
  5043  044B                     u4041:
  5044  044B  2C46               	goto	l3506
  5045  044C                     u4040:
  5046  044C                     l3508:
  5047                           
  5048                           ;PROYECTO.c: 387:                         USART_Cadena(" \r");
  5049  044C  3088               	movlw	low ((STR_51+33)| (0+32768))
  5050  044D  00F4               	movwf	USART_Cadena@str
  5051  044E  3089               	movlw	high ((STR_51+33)| (0+32768))
  5052  044F  00F5               	movwf	USART_Cadena@str+1
  5053  0450  120A  158A  237C  120A  118A  	fcall	_USART_Cadena
  5054  0455                     l3510:
  5055                           
  5056                           ;PROYECTO.c: 388:                         hora_nueva = USART_Rx();
  5057  0455  120A  158A  2370  120A  118A  	fcall	_USART_Rx
  5058  045A  1283               	bcf	3,5	;RP0=0, select bank0
  5059  045B  1303               	bcf	3,6	;RP1=0, select bank0
  5060  045C  00BD               	movwf	??_main
  5061  045D  083D               	movf	??_main,w
  5062  045E  00F6               	movwf	_hora_nueva
  5063  045F                     l3512:
  5064                           
  5065                           ;PROYECTO.c: 389:                         USART_Cadena(" \r");
  5066  045F  3088               	movlw	low ((STR_51+33)| (0+32768))
  5067  0460  00F4               	movwf	USART_Cadena@str
  5068  0461  3089               	movlw	high ((STR_51+33)| (0+32768))
  5069  0462  00F5               	movwf	USART_Cadena@str+1
  5070  0463  120A  158A  237C  120A  118A  	fcall	_USART_Cadena
  5071  0468                     l3514:
  5072                           
  5073                           ;PROYECTO.c: 390:                         hora_user1 = CharToNumH(hora_nueva, hora_user1
      +                          );
  5074  0468  1283               	bcf	3,5	;RP0=0, select bank0
  5075  0469  1303               	bcf	3,6	;RP1=0, select bank0
  5076  046A  0837               	movf	_hora_user1,w
  5077  046B  00BD               	movwf	??_main
  5078  046C  083D               	movf	??_main,w
  5079  046D  00F3               	movwf	CharToNumH@hora_user
  5080  046E  0876               	movf	_hora_nueva,w
  5081  046F  120A  158A  245D  120A  118A  	fcall	_CharToNumH
  5082  0474  1283               	bcf	3,5	;RP0=0, select bank0
  5083  0475  1303               	bcf	3,6	;RP1=0, select bank0
  5084  0476  00BE               	movwf	??_main+1
  5085  0477  083E               	movf	??_main+1,w
  5086  0478  00B7               	movwf	_hora_user1
  5087  0479                     l3516:	
  5088                           ;PROYECTO.c: 391:                         break;
  5089                           
  5090                           
  5091                           ;PROYECTO.c: 394:                 USART_Cadena(" Ingresá la letra de los minutos nuevos
      +                            \r");
  5092  0479  30C4               	movlw	low (STR_50| (0+32768))
  5093  047A  00F4               	movwf	USART_Cadena@str
  5094  047B  3088               	movlw	high (STR_50| (0+32768))
  5095  047C  00F5               	movwf	USART_Cadena@str+1
  5096  047D  120A  158A  237C  120A  118A  	fcall	_USART_Cadena
  5097                           
  5098                           ;PROYECTO.c: 395:                 USART_Cadena(" a.0  b.15   c.30   d.45   e.55   \r");
  5099  0482  3067               	movlw	low (STR_51| (0+32768))
  5100  0483  00F4               	movwf	USART_Cadena@str
  5101  0484  3089               	movlw	high (STR_51| (0+32768))
  5102  0485  00F5               	movwf	USART_Cadena@str+1
  5103  0486  120A  158A  237C  120A  118A  	fcall	_USART_Cadena
  5104  048B                     l3518:
  5105                           
  5106                           ;PROYECTO.c: 397:                     if (PIR1bits.RCIF == 1){
  5107  048B  1283               	bcf	3,5	;RP0=0, select bank0
  5108  048C  1303               	bcf	3,6	;RP1=0, select bank0
  5109  048D  1E8C               	btfss	12,5	;volatile
  5110  048E  2C90               	goto	u4051
  5111  048F  2C91               	goto	u4050
  5112  0490                     u4051:
  5113  0490  2C8B               	goto	l3518
  5114  0491                     u4050:
  5115  0491                     l3520:
  5116                           
  5117                           ;PROYECTO.c: 398:                         USART_Cadena(" \r");
  5118  0491  3088               	movlw	low ((STR_51+33)| (0+32768))
  5119  0492  00F4               	movwf	USART_Cadena@str
  5120  0493  3089               	movlw	high ((STR_51+33)| (0+32768))
  5121  0494  00F5               	movwf	USART_Cadena@str+1
  5122  0495  120A  158A  237C  120A  118A  	fcall	_USART_Cadena
  5123  049A                     l3522:
  5124                           
  5125                           ;PROYECTO.c: 399:                         hora_nueva = USART_Rx();
  5126  049A  120A  158A  2370  120A  118A  	fcall	_USART_Rx
  5127  049F  1283               	bcf	3,5	;RP0=0, select bank0
  5128  04A0  1303               	bcf	3,6	;RP1=0, select bank0
  5129  04A1  00BD               	movwf	??_main
  5130  04A2  083D               	movf	??_main,w
  5131  04A3  00F6               	movwf	_hora_nueva
  5132  04A4                     l3524:
  5133                           
  5134                           ;PROYECTO.c: 400:                         USART_Cadena(" \r");
  5135  04A4  3088               	movlw	low ((STR_51+33)| (0+32768))
  5136  04A5  00F4               	movwf	USART_Cadena@str
  5137  04A6  3089               	movlw	high ((STR_51+33)| (0+32768))
  5138  04A7  00F5               	movwf	USART_Cadena@str+1
  5139  04A8  120A  158A  237C  120A  118A  	fcall	_USART_Cadena
  5140  04AD                     l3526:
  5141                           
  5142                           ;PROYECTO.c: 401:                         min_user1 = CharToNumM(hora_nueva, min_user1);
  5143  04AD  0877               	movf	_min_user1,w
  5144  04AE  1283               	bcf	3,5	;RP0=0, select bank0
  5145  04AF  1303               	bcf	3,6	;RP1=0, select bank0
  5146  04B0  00BD               	movwf	??_main
  5147  04B1  083D               	movf	??_main,w
  5148  04B2  00F3               	movwf	CharToNumM@her
  5149  04B3  0876               	movf	_hora_nueva,w
  5150  04B4  120A  158A  23CB  120A  118A  	fcall	_CharToNumM
  5151  04B9  1283               	bcf	3,5	;RP0=0, select bank0
  5152  04BA  1303               	bcf	3,6	;RP1=0, select bank0
  5153  04BB  00BE               	movwf	??_main+1
  5154  04BC  083E               	movf	??_main+1,w
  5155  04BD  00F7               	movwf	_min_user1
  5156  04BE                     l3528:	
  5157                           ;PROYECTO.c: 402:                         break;
  5158                           
  5159                           
  5160                           ;PROYECTO.c: 405:                 USART_Cadena(" Actualmente se cuenta con 3 medicamento
      +                          s\r");
  5161  04BE  30F0               	movlw	low (STR_54| (0+32768))
  5162  04BF  00F4               	movwf	USART_Cadena@str
  5163  04C0  3088               	movlw	high (STR_54| (0+32768))
  5164  04C1  00F5               	movwf	USART_Cadena@str+1
  5165  04C2  120A  158A  237C  120A  118A  	fcall	_USART_Cadena
  5166                           
  5167                           ;PROYECTO.c: 406:                 USART_Cadena(" presione el número de medicamento a gu
      +                          ardar \r");
  5168  04C7  3034               	movlw	low (STR_55| (0+32768))
  5169  04C8  00F4               	movwf	USART_Cadena@str
  5170  04C9  3088               	movlw	high (STR_55| (0+32768))
  5171  04CA  00F5               	movwf	USART_Cadena@str+1
  5172  04CB  120A  158A  237C  120A  118A  	fcall	_USART_Cadena
  5173                           
  5174                           ;PROYECTO.c: 407:                 USART_Cadena(" 1.AFC    2.FFT   3.DHL \r");
  5175  04D0  30A7               	movlw	low (STR_56| (0+32768))
  5176  04D1  00F4               	movwf	USART_Cadena@str
  5177  04D2  308A               	movlw	high (STR_56| (0+32768))
  5178  04D3  00F5               	movwf	USART_Cadena@str+1
  5179  04D4  120A  158A  237C  120A  118A  	fcall	_USART_Cadena
  5180  04D9                     l3530:
  5181                           
  5182                           ;PROYECTO.c: 409:                     if (PIR1bits.RCIF == 1){
  5183  04D9  1283               	bcf	3,5	;RP0=0, select bank0
  5184  04DA  1303               	bcf	3,6	;RP1=0, select bank0
  5185  04DB  1E8C               	btfss	12,5	;volatile
  5186  04DC  2CDE               	goto	u4061
  5187  04DD  2CDF               	goto	u4060
  5188  04DE                     u4061:
  5189  04DE  2CD9               	goto	l3530
  5190  04DF                     u4060:
  5191  04DF                     l3532:
  5192                           
  5193                           ;PROYECTO.c: 410:                         hora_nueva = USART_Rx();
  5194  04DF  120A  158A  2370  120A  118A  	fcall	_USART_Rx
  5195  04E4  1283               	bcf	3,5	;RP0=0, select bank0
  5196  04E5  1303               	bcf	3,6	;RP1=0, select bank0
  5197  04E6  00BD               	movwf	??_main
  5198  04E7  083D               	movf	??_main,w
  5199  04E8  00F6               	movwf	_hora_nueva
  5200  04E9                     l3534:
  5201                           
  5202                           ;PROYECTO.c: 411:                         if(hora_nueva == '1'){
  5203  04E9  3031               	movlw	49
  5204  04EA  0676               	xorwf	_hora_nueva,w
  5205  04EB  1D03               	btfss	3,2
  5206  04EC  2CEE               	goto	u4071
  5207  04ED  2CEF               	goto	u4070
  5208  04EE                     u4071:
  5209  04EE  2CF8               	goto	l3538
  5210  04EF                     u4070:
  5211  04EF                     l3536:
  5212                           
  5213                           ;PROYECTO.c: 412:                             me_1_us1_h = hora_user1;
  5214  04EF  0837               	movf	_hora_user1,w
  5215  04F0  00BD               	movwf	??_main
  5216  04F1  083D               	movf	??_main,w
  5217  04F2  00B4               	movwf	_me_1_us1_h
  5218                           
  5219                           ;PROYECTO.c: 413:                             me_1_us1_m = min_user1;
  5220  04F3  0877               	movf	_min_user1,w
  5221  04F4  00BD               	movwf	??_main
  5222  04F5  083D               	movf	??_main,w
  5223  04F6  00AB               	movwf	_me_1_us1_m
  5224                           
  5225                           ;PROYECTO.c: 414:                         }else if(hora_nueva == '2'){
  5226  04F7  2AE3               	goto	l3446
  5227  04F8                     l3538:
  5228  04F8  3032               	movlw	50
  5229  04F9  0676               	xorwf	_hora_nueva,w
  5230  04FA  1D03               	btfss	3,2
  5231  04FB  2CFD               	goto	u4081
  5232  04FC  2CFE               	goto	u4080
  5233  04FD                     u4081:
  5234  04FD  2D07               	goto	l3542
  5235  04FE                     u4080:
  5236  04FE                     l3540:
  5237                           
  5238                           ;PROYECTO.c: 415:                             me_2_us1_h = hora_user1;
  5239  04FE  0837               	movf	_hora_user1,w
  5240  04FF  00BD               	movwf	??_main
  5241  0500  083D               	movf	??_main,w
  5242  0501  00B3               	movwf	_me_2_us1_h
  5243                           
  5244                           ;PROYECTO.c: 416:                             me_2_us1_m = min_user1;
  5245  0502  0877               	movf	_min_user1,w
  5246  0503  00BD               	movwf	??_main
  5247  0504  083D               	movf	??_main,w
  5248  0505  00AA               	movwf	_me_2_us1_m
  5249                           
  5250                           ;PROYECTO.c: 417:                         }else if(hora_nueva == '3'){
  5251  0506  2AE3               	goto	l3446
  5252  0507                     l3542:
  5253  0507  3033               	movlw	51
  5254  0508  0676               	xorwf	_hora_nueva,w
  5255  0509  1D03               	btfss	3,2
  5256  050A  2D0C               	goto	u4091
  5257  050B  2D0D               	goto	u4090
  5258  050C                     u4091:
  5259  050C  2AE3               	goto	l3446
  5260  050D                     u4090:
  5261  050D                     l3544:
  5262                           
  5263                           ;PROYECTO.c: 418:                             me_3_us1_h = hora_user1;
  5264  050D  0837               	movf	_hora_user1,w
  5265  050E  00BD               	movwf	??_main
  5266  050F  083D               	movf	??_main,w
  5267  0510  00B2               	movwf	_me_3_us1_h
  5268                           
  5269                           ;PROYECTO.c: 419:                             me_3_us1_m = min_user1;
  5270  0511  0877               	movf	_min_user1,w
  5271  0512  00BD               	movwf	??_main
  5272  0513  083D               	movf	??_main,w
  5273  0514  00A9               	movwf	_me_3_us1_m
  5274  0515  2AE3               	goto	l3446
  5275  0516                     l3546:
  5276                           
  5277                           ;PROYECTO.c: 428:                 USART_Cadena(" Ingresá la letra de la nueva hora  \r"
      +                          );
  5278  0516  301B               	movlw	low (STR_44| (0+32768))
  5279  0517  00F4               	movwf	USART_Cadena@str
  5280  0518  3089               	movlw	high (STR_44| (0+32768))
  5281  0519  00F5               	movwf	USART_Cadena@str+1
  5282  051A  120A  158A  237C  120A  118A  	fcall	_USART_Cadena
  5283                           
  5284                           ;PROYECTO.c: 429:                 USART_Cadena(" a.0  b.1   c.2   d.3   e.4   f.5   g.6 
      +                            h.7  i.8\r");
  5285  051F  3000               	movlw	low (STR_45| (0+32768))
  5286  0520  00F4               	movwf	USART_Cadena@str
  5287  0521  3088               	movlw	high (STR_45| (0+32768))
  5288  0522  00F5               	movwf	USART_Cadena@str+1
  5289  0523  120A  158A  237C  120A  118A  	fcall	_USART_Cadena
  5290                           
  5291                           ;PROYECTO.c: 430:                 USART_Cadena(" j.9  k.10  l.11  m.12  n.13  o.14  p.15
      +                            q.16\r");
  5292  0528  3094               	movlw	low (STR_46| (0+32768))
  5293  0529  00F4               	movwf	USART_Cadena@str
  5294  052A  3088               	movlw	high (STR_46| (0+32768))
  5295  052B  00F5               	movwf	USART_Cadena@str+1
  5296  052C  120A  158A  237C  120A  118A  	fcall	_USART_Cadena
  5297                           
  5298                           ;PROYECTO.c: 431:                 USART_Cadena("r.17  s.18  t.19  u.20  v.21  w.22  x.23
      +                            y.24\r");
  5299  0531  3064               	movlw	low (STR_47| (0+32768))
  5300  0532  00F4               	movwf	USART_Cadena@str
  5301  0533  3088               	movlw	high (STR_47| (0+32768))
  5302  0534  00F5               	movwf	USART_Cadena@str+1
  5303  0535  120A  158A  237C  120A  118A  	fcall	_USART_Cadena
  5304  053A                     l3548:
  5305                           
  5306                           ;PROYECTO.c: 433:                     if (PIR1bits.RCIF == 1){
  5307  053A  1283               	bcf	3,5	;RP0=0, select bank0
  5308  053B  1303               	bcf	3,6	;RP1=0, select bank0
  5309  053C  1E8C               	btfss	12,5	;volatile
  5310  053D  2D3F               	goto	u4101
  5311  053E  2D40               	goto	u4100
  5312  053F                     u4101:
  5313  053F  2D3A               	goto	l3548
  5314  0540                     u4100:
  5315  0540                     l3550:
  5316                           
  5317                           ;PROYECTO.c: 434:                         USART_Cadena(" \r");
  5318  0540  3088               	movlw	low ((STR_51+33)| (0+32768))
  5319  0541  00F4               	movwf	USART_Cadena@str
  5320  0542  3089               	movlw	high ((STR_51+33)| (0+32768))
  5321  0543  00F5               	movwf	USART_Cadena@str+1
  5322  0544  120A  158A  237C  120A  118A  	fcall	_USART_Cadena
  5323  0549                     l3552:
  5324                           
  5325                           ;PROYECTO.c: 435:                         hora_nueva = USART_Rx();
  5326  0549  120A  158A  2370  120A  118A  	fcall	_USART_Rx
  5327  054E  1283               	bcf	3,5	;RP0=0, select bank0
  5328  054F  1303               	bcf	3,6	;RP1=0, select bank0
  5329  0550  00BD               	movwf	??_main
  5330  0551  083D               	movf	??_main,w
  5331  0552  00F6               	movwf	_hora_nueva
  5332  0553                     l3554:
  5333                           
  5334                           ;PROYECTO.c: 436:                         USART_Cadena(" \r");
  5335  0553  3088               	movlw	low ((STR_51+33)| (0+32768))
  5336  0554  00F4               	movwf	USART_Cadena@str
  5337  0555  3089               	movlw	high ((STR_51+33)| (0+32768))
  5338  0556  00F5               	movwf	USART_Cadena@str+1
  5339  0557  120A  158A  237C  120A  118A  	fcall	_USART_Cadena
  5340  055C                     l3556:
  5341                           
  5342                           ;PROYECTO.c: 437:                         hora_user2 = CharToNumH(hora_nueva, hora_user2
      +                          );
  5343  055C  1283               	bcf	3,5	;RP0=0, select bank0
  5344  055D  1303               	bcf	3,6	;RP1=0, select bank0
  5345  055E  0836               	movf	_hora_user2,w
  5346  055F  00BD               	movwf	??_main
  5347  0560  083D               	movf	??_main,w
  5348  0561  00F3               	movwf	CharToNumH@hora_user
  5349  0562  0876               	movf	_hora_nueva,w
  5350  0563  120A  158A  245D  120A  118A  	fcall	_CharToNumH
  5351  0568  1283               	bcf	3,5	;RP0=0, select bank0
  5352  0569  1303               	bcf	3,6	;RP1=0, select bank0
  5353  056A  00BE               	movwf	??_main+1
  5354  056B  083E               	movf	??_main+1,w
  5355  056C  00B6               	movwf	_hora_user2
  5356  056D                     l3558:	
  5357                           ;PROYECTO.c: 438:                         break;
  5358                           
  5359                           
  5360                           ;PROYECTO.c: 441:                 USART_Cadena(" Ingresá la letra de los minutos nuevos
      +                            \r");
  5361  056D  30C4               	movlw	low (STR_50| (0+32768))
  5362  056E  00F4               	movwf	USART_Cadena@str
  5363  056F  3088               	movlw	high (STR_50| (0+32768))
  5364  0570  00F5               	movwf	USART_Cadena@str+1
  5365  0571  120A  158A  237C  120A  118A  	fcall	_USART_Cadena
  5366                           
  5367                           ;PROYECTO.c: 442:                 USART_Cadena(" a.0  b.15   c.30   d.45   e.55   \r");
  5368  0576  3067               	movlw	low (STR_51| (0+32768))
  5369  0577  00F4               	movwf	USART_Cadena@str
  5370  0578  3089               	movlw	high (STR_51| (0+32768))
  5371  0579  00F5               	movwf	USART_Cadena@str+1
  5372  057A  120A  158A  237C  120A  118A  	fcall	_USART_Cadena
  5373  057F                     l3560:
  5374                           
  5375                           ;PROYECTO.c: 444:                     if (PIR1bits.RCIF == 1){
  5376  057F  1283               	bcf	3,5	;RP0=0, select bank0
  5377  0580  1303               	bcf	3,6	;RP1=0, select bank0
  5378  0581  1E8C               	btfss	12,5	;volatile
  5379  0582  2D84               	goto	u4111
  5380  0583  2D85               	goto	u4110
  5381  0584                     u4111:
  5382  0584  2D7F               	goto	l3560
  5383  0585                     u4110:
  5384  0585                     l3562:
  5385                           
  5386                           ;PROYECTO.c: 445:                         USART_Cadena(" \r");
  5387  0585  3088               	movlw	low ((STR_51+33)| (0+32768))
  5388  0586  00F4               	movwf	USART_Cadena@str
  5389  0587  3089               	movlw	high ((STR_51+33)| (0+32768))
  5390  0588  00F5               	movwf	USART_Cadena@str+1
  5391  0589  120A  158A  237C  120A  118A  	fcall	_USART_Cadena
  5392  058E                     l3564:
  5393                           
  5394                           ;PROYECTO.c: 446:                         hora_nueva = USART_Rx();
  5395  058E  120A  158A  2370  120A  118A  	fcall	_USART_Rx
  5396  0593  1283               	bcf	3,5	;RP0=0, select bank0
  5397  0594  1303               	bcf	3,6	;RP1=0, select bank0
  5398  0595  00BD               	movwf	??_main
  5399  0596  083D               	movf	??_main,w
  5400  0597  00F6               	movwf	_hora_nueva
  5401  0598                     l3566:
  5402                           
  5403                           ;PROYECTO.c: 447:                         USART_Cadena(" \r");
  5404  0598  3088               	movlw	low ((STR_51+33)| (0+32768))
  5405  0599  00F4               	movwf	USART_Cadena@str
  5406  059A  3089               	movlw	high ((STR_51+33)| (0+32768))
  5407  059B  00F5               	movwf	USART_Cadena@str+1
  5408  059C  120A  158A  237C  120A  118A  	fcall	_USART_Cadena
  5409  05A1                     l3568:
  5410                           
  5411                           ;PROYECTO.c: 448:                         min_user2 = CharToNumM(hora_nueva, min_user2);
  5412  05A1  1283               	bcf	3,5	;RP0=0, select bank0
  5413  05A2  1303               	bcf	3,6	;RP1=0, select bank0
  5414  05A3  0839               	movf	_min_user2,w
  5415  05A4  00BD               	movwf	??_main
  5416  05A5  083D               	movf	??_main,w
  5417  05A6  00F3               	movwf	CharToNumM@her
  5418  05A7  0876               	movf	_hora_nueva,w
  5419  05A8  120A  158A  23CB  120A  118A  	fcall	_CharToNumM
  5420  05AD  1283               	bcf	3,5	;RP0=0, select bank0
  5421  05AE  1303               	bcf	3,6	;RP1=0, select bank0
  5422  05AF  00BE               	movwf	??_main+1
  5423  05B0  083E               	movf	??_main+1,w
  5424  05B1  00B9               	movwf	_min_user2
  5425  05B2                     l3570:	
  5426                           ;PROYECTO.c: 449:                         break;
  5427                           
  5428                           
  5429                           ;PROYECTO.c: 452:                 USART_Cadena(" Actualmente se cuenta con 3 medicamento
      +                          s\r");
  5430  05B2  30F0               	movlw	low (STR_54| (0+32768))
  5431  05B3  00F4               	movwf	USART_Cadena@str
  5432  05B4  3088               	movlw	high (STR_54| (0+32768))
  5433  05B5  00F5               	movwf	USART_Cadena@str+1
  5434  05B6  120A  158A  237C  120A  118A  	fcall	_USART_Cadena
  5435                           
  5436                           ;PROYECTO.c: 453:                 USART_Cadena(" presione el número de medicamento a gu
      +                          ardar \r");
  5437  05BB  3034               	movlw	low (STR_55| (0+32768))
  5438  05BC  00F4               	movwf	USART_Cadena@str
  5439  05BD  3088               	movlw	high (STR_55| (0+32768))
  5440  05BE  00F5               	movwf	USART_Cadena@str+1
  5441  05BF  120A  158A  237C  120A  118A  	fcall	_USART_Cadena
  5442                           
  5443                           ;PROYECTO.c: 454:                 USART_Cadena(" 1.AFC    2.FFT   3.DHL \r");
  5444  05C4  30A7               	movlw	low (STR_56| (0+32768))
  5445  05C5  00F4               	movwf	USART_Cadena@str
  5446  05C6  308A               	movlw	high (STR_56| (0+32768))
  5447  05C7  00F5               	movwf	USART_Cadena@str+1
  5448  05C8  120A  158A  237C  120A  118A  	fcall	_USART_Cadena
  5449  05CD                     l3572:
  5450                           
  5451                           ;PROYECTO.c: 456:                     if (PIR1bits.RCIF == 1){
  5452  05CD  1283               	bcf	3,5	;RP0=0, select bank0
  5453  05CE  1303               	bcf	3,6	;RP1=0, select bank0
  5454  05CF  1E8C               	btfss	12,5	;volatile
  5455  05D0  2DD2               	goto	u4121
  5456  05D1  2DD3               	goto	u4120
  5457  05D2                     u4121:
  5458  05D2  2DCD               	goto	l3572
  5459  05D3                     u4120:
  5460  05D3                     l3574:
  5461                           
  5462                           ;PROYECTO.c: 457:                         hora_nueva = USART_Rx();
  5463  05D3  120A  158A  2370  120A  118A  	fcall	_USART_Rx
  5464  05D8  1283               	bcf	3,5	;RP0=0, select bank0
  5465  05D9  1303               	bcf	3,6	;RP1=0, select bank0
  5466  05DA  00BD               	movwf	??_main
  5467  05DB  083D               	movf	??_main,w
  5468  05DC  00F6               	movwf	_hora_nueva
  5469  05DD                     l3576:
  5470                           
  5471                           ;PROYECTO.c: 458:                         if(hora_nueva == '1'){
  5472  05DD  3031               	movlw	49
  5473  05DE  0676               	xorwf	_hora_nueva,w
  5474  05DF  1D03               	btfss	3,2
  5475  05E0  2DE2               	goto	u4131
  5476  05E1  2DE3               	goto	u4130
  5477  05E2                     u4131:
  5478  05E2  2DEC               	goto	l3580
  5479  05E3                     u4130:
  5480  05E3                     l3578:
  5481                           
  5482                           ;PROYECTO.c: 459:                             me_1_us2_h = hora_user2;
  5483  05E3  0836               	movf	_hora_user2,w
  5484  05E4  00BD               	movwf	??_main
  5485  05E5  083D               	movf	??_main,w
  5486  05E6  00B1               	movwf	_me_1_us2_h
  5487                           
  5488                           ;PROYECTO.c: 460:                             me_1_us2_m = min_user2;
  5489  05E7  0839               	movf	_min_user2,w
  5490  05E8  00BD               	movwf	??_main
  5491  05E9  083D               	movf	??_main,w
  5492  05EA  00A8               	movwf	_me_1_us2_m
  5493                           
  5494                           ;PROYECTO.c: 461:                         }else if(hora_nueva == '2'){
  5495  05EB  2AE3               	goto	l3446
  5496  05EC                     l3580:
  5497  05EC  3032               	movlw	50
  5498  05ED  0676               	xorwf	_hora_nueva,w
  5499  05EE  1D03               	btfss	3,2
  5500  05EF  2DF1               	goto	u4141
  5501  05F0  2DF2               	goto	u4140
  5502  05F1                     u4141:
  5503  05F1  2DFB               	goto	l3584
  5504  05F2                     u4140:
  5505  05F2                     l3582:
  5506                           
  5507                           ;PROYECTO.c: 462:                             me_2_us2_h = hora_user2;
  5508  05F2  0836               	movf	_hora_user2,w
  5509  05F3  00BD               	movwf	??_main
  5510  05F4  083D               	movf	??_main,w
  5511  05F5  00B0               	movwf	_me_2_us2_h
  5512                           
  5513                           ;PROYECTO.c: 463:                             me_2_us2_m = min_user2;
  5514  05F6  0839               	movf	_min_user2,w
  5515  05F7  00BD               	movwf	??_main
  5516  05F8  083D               	movf	??_main,w
  5517  05F9  00A7               	movwf	_me_2_us2_m
  5518                           
  5519                           ;PROYECTO.c: 464:                         }else if(hora_nueva == '3'){
  5520  05FA  2AE3               	goto	l3446
  5521  05FB                     l3584:
  5522  05FB  3033               	movlw	51
  5523  05FC  0676               	xorwf	_hora_nueva,w
  5524  05FD  1D03               	btfss	3,2
  5525  05FE  2E00               	goto	u4151
  5526  05FF  2E01               	goto	u4150
  5527  0600                     u4151:
  5528  0600  2AE3               	goto	l3446
  5529  0601                     u4150:
  5530  0601                     l3586:
  5531                           
  5532                           ;PROYECTO.c: 465:                             me_3_us2_h = hora_user2;
  5533  0601  0836               	movf	_hora_user2,w
  5534  0602  00BD               	movwf	??_main
  5535  0603  083D               	movf	??_main,w
  5536  0604  00AF               	movwf	_me_3_us2_h
  5537                           
  5538                           ;PROYECTO.c: 466:                             me_3_us2_m = min_user2;
  5539  0605  0839               	movf	_min_user2,w
  5540  0606  00BD               	movwf	??_main
  5541  0607  083D               	movf	??_main,w
  5542  0608  00A6               	movwf	_me_3_us2_m
  5543  0609  2AE3               	goto	l3446
  5544  060A                     l3588:
  5545                           
  5546                           ;PROYECTO.c: 474:                 USART_Cadena(" Ingresá la letra de la nueva hora  \r"
      +                          );
  5547  060A  301B               	movlw	low (STR_44| (0+32768))
  5548  060B  00F4               	movwf	USART_Cadena@str
  5549  060C  3089               	movlw	high (STR_44| (0+32768))
  5550  060D  00F5               	movwf	USART_Cadena@str+1
  5551  060E  120A  158A  237C  120A  118A  	fcall	_USART_Cadena
  5552                           
  5553                           ;PROYECTO.c: 475:                 USART_Cadena(" a.0  b.1   c.2   d.3   e.4   f.5   g.6 
      +                            h.7  i.8\r");
  5554  0613  3000               	movlw	low (STR_45| (0+32768))
  5555  0614  00F4               	movwf	USART_Cadena@str
  5556  0615  3088               	movlw	high (STR_45| (0+32768))
  5557  0616  00F5               	movwf	USART_Cadena@str+1
  5558  0617  120A  158A  237C  120A  118A  	fcall	_USART_Cadena
  5559                           
  5560                           ;PROYECTO.c: 476:                 USART_Cadena(" j.9  k.10  l.11  m.12  n.13  o.14  p.15
      +                            q.16\r");
  5561  061C  3094               	movlw	low (STR_46| (0+32768))
  5562  061D  00F4               	movwf	USART_Cadena@str
  5563  061E  3088               	movlw	high (STR_46| (0+32768))
  5564  061F  00F5               	movwf	USART_Cadena@str+1
  5565  0620  120A  158A  237C  120A  118A  	fcall	_USART_Cadena
  5566                           
  5567                           ;PROYECTO.c: 477:                 USART_Cadena("r.17  s.18  t.19  u.20  v.21  w.22  x.23
      +                            y.24\r");
  5568  0625  3064               	movlw	low (STR_47| (0+32768))
  5569  0626  00F4               	movwf	USART_Cadena@str
  5570  0627  3088               	movlw	high (STR_47| (0+32768))
  5571  0628  00F5               	movwf	USART_Cadena@str+1
  5572  0629  120A  158A  237C  120A  118A  	fcall	_USART_Cadena
  5573  062E                     l3590:
  5574                           
  5575                           ;PROYECTO.c: 479:                     if (PIR1bits.RCIF == 1){
  5576  062E  1283               	bcf	3,5	;RP0=0, select bank0
  5577  062F  1303               	bcf	3,6	;RP1=0, select bank0
  5578  0630  1E8C               	btfss	12,5	;volatile
  5579  0631  2E33               	goto	u4161
  5580  0632  2E34               	goto	u4160
  5581  0633                     u4161:
  5582  0633  2E2E               	goto	l3590
  5583  0634                     u4160:
  5584  0634                     l3592:
  5585                           
  5586                           ;PROYECTO.c: 480:                         USART_Cadena(" \r");
  5587  0634  3088               	movlw	low ((STR_51+33)| (0+32768))
  5588  0635  00F4               	movwf	USART_Cadena@str
  5589  0636  3089               	movlw	high ((STR_51+33)| (0+32768))
  5590  0637  00F5               	movwf	USART_Cadena@str+1
  5591  0638  120A  158A  237C  120A  118A  	fcall	_USART_Cadena
  5592  063D                     l3594:
  5593                           
  5594                           ;PROYECTO.c: 481:                         hora_nueva = USART_Rx();
  5595  063D  120A  158A  2370  120A  118A  	fcall	_USART_Rx
  5596  0642  1283               	bcf	3,5	;RP0=0, select bank0
  5597  0643  1303               	bcf	3,6	;RP1=0, select bank0
  5598  0644  00BD               	movwf	??_main
  5599  0645  083D               	movf	??_main,w
  5600  0646  00F6               	movwf	_hora_nueva
  5601  0647                     l3596:
  5602                           
  5603                           ;PROYECTO.c: 482:                         USART_Cadena(" \r");
  5604  0647  3088               	movlw	low ((STR_51+33)| (0+32768))
  5605  0648  00F4               	movwf	USART_Cadena@str
  5606  0649  3089               	movlw	high ((STR_51+33)| (0+32768))
  5607  064A  00F5               	movwf	USART_Cadena@str+1
  5608  064B  120A  158A  237C  120A  118A  	fcall	_USART_Cadena
  5609  0650                     l3598:
  5610                           
  5611                           ;PROYECTO.c: 483:                         hora_user3 = CharToNumH(hora_nueva, hora_user3
      +                          );
  5612  0650  1283               	bcf	3,5	;RP0=0, select bank0
  5613  0651  1303               	bcf	3,6	;RP1=0, select bank0
  5614  0652  0835               	movf	_hora_user3,w
  5615  0653  00BD               	movwf	??_main
  5616  0654  083D               	movf	??_main,w
  5617  0655  00F3               	movwf	CharToNumH@hora_user
  5618  0656  0876               	movf	_hora_nueva,w
  5619  0657  120A  158A  245D  120A  118A  	fcall	_CharToNumH
  5620  065C  1283               	bcf	3,5	;RP0=0, select bank0
  5621  065D  1303               	bcf	3,6	;RP1=0, select bank0
  5622  065E  00BE               	movwf	??_main+1
  5623  065F  083E               	movf	??_main+1,w
  5624  0660  00B5               	movwf	_hora_user3
  5625  0661                     l3600:	
  5626                           ;PROYECTO.c: 484:                         break;
  5627                           
  5628                           
  5629                           ;PROYECTO.c: 487:                 USART_Cadena(" Ingresá la letra de los minutos nuevos
      +                            \r");
  5630  0661  30C4               	movlw	low (STR_50| (0+32768))
  5631  0662  00F4               	movwf	USART_Cadena@str
  5632  0663  3088               	movlw	high (STR_50| (0+32768))
  5633  0664  00F5               	movwf	USART_Cadena@str+1
  5634  0665  120A  158A  237C  120A  118A  	fcall	_USART_Cadena
  5635                           
  5636                           ;PROYECTO.c: 488:                 USART_Cadena(" a.0  b.15   c.30   d.45   e.55   \r");
  5637  066A  3067               	movlw	low (STR_51| (0+32768))
  5638  066B  00F4               	movwf	USART_Cadena@str
  5639  066C  3089               	movlw	high (STR_51| (0+32768))
  5640  066D  00F5               	movwf	USART_Cadena@str+1
  5641  066E  120A  158A  237C  120A  118A  	fcall	_USART_Cadena
  5642  0673                     l3602:
  5643                           
  5644                           ;PROYECTO.c: 490:                     if (PIR1bits.RCIF == 1){
  5645  0673  1283               	bcf	3,5	;RP0=0, select bank0
  5646  0674  1303               	bcf	3,6	;RP1=0, select bank0
  5647  0675  1E8C               	btfss	12,5	;volatile
  5648  0676  2E78               	goto	u4171
  5649  0677  2E79               	goto	u4170
  5650  0678                     u4171:
  5651  0678  2E73               	goto	l3602
  5652  0679                     u4170:
  5653  0679                     l3604:
  5654                           
  5655                           ;PROYECTO.c: 491:                         USART_Cadena(" \r");
  5656  0679  3088               	movlw	low ((STR_51+33)| (0+32768))
  5657  067A  00F4               	movwf	USART_Cadena@str
  5658  067B  3089               	movlw	high ((STR_51+33)| (0+32768))
  5659  067C  00F5               	movwf	USART_Cadena@str+1
  5660  067D  120A  158A  237C  120A  118A  	fcall	_USART_Cadena
  5661  0682                     l3606:
  5662                           
  5663                           ;PROYECTO.c: 492:                         hora_nueva = USART_Rx();
  5664  0682  120A  158A  2370  120A  118A  	fcall	_USART_Rx
  5665  0687  1283               	bcf	3,5	;RP0=0, select bank0
  5666  0688  1303               	bcf	3,6	;RP1=0, select bank0
  5667  0689  00BD               	movwf	??_main
  5668  068A  083D               	movf	??_main,w
  5669  068B  00F6               	movwf	_hora_nueva
  5670  068C                     l3608:
  5671                           
  5672                           ;PROYECTO.c: 493:                         USART_Cadena(" \r");
  5673  068C  3088               	movlw	low ((STR_51+33)| (0+32768))
  5674  068D  00F4               	movwf	USART_Cadena@str
  5675  068E  3089               	movlw	high ((STR_51+33)| (0+32768))
  5676  068F  00F5               	movwf	USART_Cadena@str+1
  5677  0690  120A  158A  237C  120A  118A  	fcall	_USART_Cadena
  5678  0695                     l3610:
  5679                           
  5680                           ;PROYECTO.c: 494:                         min_user3 = CharToNumM(hora_nueva, min_user3);
  5681  0695  1283               	bcf	3,5	;RP0=0, select bank0
  5682  0696  1303               	bcf	3,6	;RP1=0, select bank0
  5683  0697  0838               	movf	_min_user3,w
  5684  0698  00BD               	movwf	??_main
  5685  0699  083D               	movf	??_main,w
  5686  069A  00F3               	movwf	CharToNumM@her
  5687  069B  0876               	movf	_hora_nueva,w
  5688  069C  120A  158A  23CB  120A  118A  	fcall	_CharToNumM
  5689  06A1  1283               	bcf	3,5	;RP0=0, select bank0
  5690  06A2  1303               	bcf	3,6	;RP1=0, select bank0
  5691  06A3  00BE               	movwf	??_main+1
  5692  06A4  083E               	movf	??_main+1,w
  5693  06A5  00B8               	movwf	_min_user3
  5694  06A6                     l3612:	
  5695                           ;PROYECTO.c: 495:                         break;
  5696                           
  5697                           
  5698                           ;PROYECTO.c: 498:                 USART_Cadena(" Actualmente se cuenta con 3 medicamento
      +                          s\r");
  5699  06A6  30F0               	movlw	low (STR_54| (0+32768))
  5700  06A7  00F4               	movwf	USART_Cadena@str
  5701  06A8  3088               	movlw	high (STR_54| (0+32768))
  5702  06A9  00F5               	movwf	USART_Cadena@str+1
  5703  06AA  120A  158A  237C  120A  118A  	fcall	_USART_Cadena
  5704                           
  5705                           ;PROYECTO.c: 499:                 USART_Cadena(" presione el número de medicamento a gu
      +                          ardar \r");
  5706  06AF  3034               	movlw	low (STR_55| (0+32768))
  5707  06B0  00F4               	movwf	USART_Cadena@str
  5708  06B1  3088               	movlw	high (STR_55| (0+32768))
  5709  06B2  00F5               	movwf	USART_Cadena@str+1
  5710  06B3  120A  158A  237C  120A  118A  	fcall	_USART_Cadena
  5711                           
  5712                           ;PROYECTO.c: 500:                 USART_Cadena(" 1.AFC    2.FFT   3.DHL \r");
  5713  06B8  30A7               	movlw	low (STR_56| (0+32768))
  5714  06B9  00F4               	movwf	USART_Cadena@str
  5715  06BA  308A               	movlw	high (STR_56| (0+32768))
  5716  06BB  00F5               	movwf	USART_Cadena@str+1
  5717  06BC  120A  158A  237C  120A  118A  	fcall	_USART_Cadena
  5718  06C1                     l3614:
  5719                           
  5720                           ;PROYECTO.c: 502:                     if (PIR1bits.RCIF == 1){
  5721  06C1  1283               	bcf	3,5	;RP0=0, select bank0
  5722  06C2  1303               	bcf	3,6	;RP1=0, select bank0
  5723  06C3  1E8C               	btfss	12,5	;volatile
  5724  06C4  2EC6               	goto	u4181
  5725  06C5  2EC7               	goto	u4180
  5726  06C6                     u4181:
  5727  06C6  2EC1               	goto	l3614
  5728  06C7                     u4180:
  5729  06C7                     l3616:
  5730                           
  5731                           ;PROYECTO.c: 503:                         hora_nueva = USART_Rx();
  5732  06C7  120A  158A  2370  120A  118A  	fcall	_USART_Rx
  5733  06CC  1283               	bcf	3,5	;RP0=0, select bank0
  5734  06CD  1303               	bcf	3,6	;RP1=0, select bank0
  5735  06CE  00BD               	movwf	??_main
  5736  06CF  083D               	movf	??_main,w
  5737  06D0  00F6               	movwf	_hora_nueva
  5738  06D1                     l3618:
  5739                           
  5740                           ;PROYECTO.c: 504:                         if(hora_nueva == '1'){
  5741  06D1  3031               	movlw	49
  5742  06D2  0676               	xorwf	_hora_nueva,w
  5743  06D3  1D03               	btfss	3,2
  5744  06D4  2ED6               	goto	u4191
  5745  06D5  2ED7               	goto	u4190
  5746  06D6                     u4191:
  5747  06D6  2EE0               	goto	l3622
  5748  06D7                     u4190:
  5749  06D7                     l3620:
  5750                           
  5751                           ;PROYECTO.c: 505:                             me_1_us3_h = hora_user3;
  5752  06D7  0835               	movf	_hora_user3,w
  5753  06D8  00BD               	movwf	??_main
  5754  06D9  083D               	movf	??_main,w
  5755  06DA  00AE               	movwf	_me_1_us3_h
  5756                           
  5757                           ;PROYECTO.c: 506:                             me_1_us3_m = min_user3;
  5758  06DB  0838               	movf	_min_user3,w
  5759  06DC  00BD               	movwf	??_main
  5760  06DD  083D               	movf	??_main,w
  5761  06DE  00A5               	movwf	_me_1_us3_m
  5762                           
  5763                           ;PROYECTO.c: 507:                         }else if(hora_nueva == '2'){
  5764  06DF  2AE3               	goto	l3446
  5765  06E0                     l3622:
  5766  06E0  3032               	movlw	50
  5767  06E1  0676               	xorwf	_hora_nueva,w
  5768  06E2  1D03               	btfss	3,2
  5769  06E3  2EE5               	goto	u4201
  5770  06E4  2EE6               	goto	u4200
  5771  06E5                     u4201:
  5772  06E5  2EEF               	goto	l3626
  5773  06E6                     u4200:
  5774  06E6                     l3624:
  5775                           
  5776                           ;PROYECTO.c: 508:                             me_2_us3_h = hora_user3;
  5777  06E6  0835               	movf	_hora_user3,w
  5778  06E7  00BD               	movwf	??_main
  5779  06E8  083D               	movf	??_main,w
  5780  06E9  00AD               	movwf	_me_2_us3_h
  5781                           
  5782                           ;PROYECTO.c: 509:                             me_2_us3_m = min_user3;
  5783  06EA  0838               	movf	_min_user3,w
  5784  06EB  00BD               	movwf	??_main
  5785  06EC  083D               	movf	??_main,w
  5786  06ED  00A4               	movwf	_me_2_us3_m
  5787                           
  5788                           ;PROYECTO.c: 510:                         }else if(hora_nueva == '3'){
  5789  06EE  2AE3               	goto	l3446
  5790  06EF                     l3626:
  5791  06EF  3033               	movlw	51
  5792  06F0  0676               	xorwf	_hora_nueva,w
  5793  06F1  1D03               	btfss	3,2
  5794  06F2  2EF4               	goto	u4211
  5795  06F3  2EF5               	goto	u4210
  5796  06F4                     u4211:
  5797  06F4  2AE3               	goto	l3446
  5798  06F5                     u4210:
  5799  06F5                     l3628:
  5800                           
  5801                           ;PROYECTO.c: 511:                             me_3_us3_h = hora_user3;
  5802  06F5  0835               	movf	_hora_user3,w
  5803  06F6  00BD               	movwf	??_main
  5804  06F7  083D               	movf	??_main,w
  5805  06F8  00AC               	movwf	_me_3_us3_h
  5806                           
  5807                           ;PROYECTO.c: 512:                             me_3_us3_m = min_user3;
  5808  06F9  0838               	movf	_min_user3,w
  5809  06FA  00BD               	movwf	??_main
  5810  06FB  083D               	movf	??_main,w
  5811  06FC  00A3               	movwf	_me_3_us3_m
  5812  06FD  2AE3               	goto	l3446
  5813  06FE                     l3632:
  5814  06FE  083B               	movf	_valor,w
  5815  06FF  00BD               	movwf	??_main
  5816  0700  01BE               	clrf	??_main+1
  5817                           
  5818                           ; Switch on 2 bytes has been partitioned into a top level switch of size 1, and 1 sub-sw
      +                          itches
  5819                           ; Switch size 1, requested type "simple"
  5820                           ; Number of cases is 1, Range of values is 0 to 0
  5821                           ; switch strategies available:
  5822                           ; Name         Instructions Cycles
  5823                           ; simple_byte            4     3 (average)
  5824                           ; direct_byte           11     8 (fixed)
  5825                           ; jumptable            260     6 (fixed)
  5826                           ;	Chosen strategy is simple_byte
  5827  0701  083E               	movf	??_main+1,w
  5828  0702  3A00               	xorlw	0	; case 0
  5829  0703  1903               	skipnz
  5830  0704  2F06               	goto	l3782
  5831  0705  2F1A               	goto	l3634
  5832  0706                     l3782:
  5833                           
  5834                           ; Switch size 1, requested type "simple"
  5835                           ; Number of cases is 6, Range of values is 49 to 54
  5836                           ; switch strategies available:
  5837                           ; Name         Instructions Cycles
  5838                           ; simple_byte           19    10 (average)
  5839                           ; direct_byte           29    11 (fixed)
  5840                           ; jumptable            263     9 (fixed)
  5841                           ;	Chosen strategy is simple_byte
  5842  0706  083D               	movf	??_main,w
  5843  0707  3A31               	xorlw	49	; case 49
  5844  0708  1903               	skipnz
  5845  0709  2A47               	goto	l3420
  5846  070A  3A03               	xorlw	3	; case 50
  5847  070B  1903               	skipnz
  5848  070C  2AE8               	goto	l3448
  5849  070D  3A01               	xorlw	1	; case 51
  5850  070E  1903               	skipnz
  5851  070F  2B85               	goto	l3476
  5852  0710  3A07               	xorlw	7	; case 52
  5853  0711  1903               	skipnz
  5854  0712  2C22               	goto	l3504
  5855  0713  3A01               	xorlw	1	; case 53
  5856  0714  1903               	skipnz
  5857  0715  2D16               	goto	l3546
  5858  0716  3A03               	xorlw	3	; case 54
  5859  0717  1903               	skipnz
  5860  0718  2E0A               	goto	l3588
  5861  0719  2F1A               	goto	l3634
  5862  071A                     l3634:
  5863                           
  5864                           ;PROYECTO.c: 521:        valor = '0';
  5865  071A  3030               	movlw	48
  5866  071B  00BD               	movwf	??_main
  5867  071C  083D               	movf	??_main,w
  5868  071D  00BB               	movwf	_valor
  5869  071E                     l3636:
  5870                           
  5871                           ;PROYECTO.c: 523:        if (RB7==0 && RB3==1 && RB4==0){
  5872  071E  1B86               	btfsc	6,7	;volatile
  5873  071F  2F21               	goto	u4221
  5874  0720  2F22               	goto	u4220
  5875  0721                     u4221:
  5876  0721  2F33               	goto	l313
  5877  0722                     u4220:
  5878  0722                     l3638:
  5879  0722  1D86               	btfss	6,3	;volatile
  5880  0723  2F25               	goto	u4231
  5881  0724  2F26               	goto	u4230
  5882  0725                     u4231:
  5883  0725  2F33               	goto	l313
  5884  0726                     u4230:
  5885  0726                     l3640:
  5886  0726  1A06               	btfsc	6,4	;volatile
  5887  0727  2F29               	goto	u4241
  5888  0728  2F2A               	goto	u4240
  5889  0729                     u4241:
  5890  0729  2F33               	goto	l313
  5891  072A                     u4240:
  5892  072A                     l3642:
  5893                           
  5894                           ;PROYECTO.c: 524:            me_3_us3_m = minuto;
  5895  072A  0879               	movf	_minuto,w
  5896  072B  00BD               	movwf	??_main
  5897  072C  083D               	movf	??_main,w
  5898  072D  00A3               	movwf	_me_3_us3_m
  5899                           
  5900                           ;PROYECTO.c: 525:            me_3_us3_h = hora;
  5901  072E  087A               	movf	_hora,w
  5902  072F  00BD               	movwf	??_main
  5903  0730  083D               	movf	??_main,w
  5904  0731  00AC               	movwf	_me_3_us3_h
  5905                           
  5906                           ;PROYECTO.c: 526:        }else if (RB7==0 && RB3==0 && RB4==1){
  5907  0732  2F5C               	goto	l3656
  5908  0733                     l313:
  5909  0733  1B86               	btfsc	6,7	;volatile
  5910  0734  2F36               	goto	u4251
  5911  0735  2F37               	goto	u4250
  5912  0736                     u4251:
  5913  0736  2F48               	goto	l315
  5914  0737                     u4250:
  5915  0737                     l3644:
  5916  0737  1986               	btfsc	6,3	;volatile
  5917  0738  2F3A               	goto	u4261
  5918  0739  2F3B               	goto	u4260
  5919  073A                     u4261:
  5920  073A  2F48               	goto	l315
  5921  073B                     u4260:
  5922  073B                     l3646:
  5923  073B  1E06               	btfss	6,4	;volatile
  5924  073C  2F3E               	goto	u4271
  5925  073D  2F3F               	goto	u4270
  5926  073E                     u4271:
  5927  073E  2F48               	goto	l315
  5928  073F                     u4270:
  5929  073F                     l3648:
  5930                           
  5931                           ;PROYECTO.c: 527:            me_2_us3_m = minuto;
  5932  073F  0879               	movf	_minuto,w
  5933  0740  00BD               	movwf	??_main
  5934  0741  083D               	movf	??_main,w
  5935  0742  00A4               	movwf	_me_2_us3_m
  5936                           
  5937                           ;PROYECTO.c: 528:            me_2_us3_h = hora;
  5938  0743  087A               	movf	_hora,w
  5939  0744  00BD               	movwf	??_main
  5940  0745  083D               	movf	??_main,w
  5941  0746  00AD               	movwf	_me_2_us3_h
  5942                           
  5943                           ;PROYECTO.c: 529:        }else if (RB7==0 && RB3==0 && RB4==0){
  5944  0747  2F5C               	goto	l3656
  5945  0748                     l315:
  5946  0748  1B86               	btfsc	6,7	;volatile
  5947  0749  2F4B               	goto	u4281
  5948  074A  2F4C               	goto	u4280
  5949  074B                     u4281:
  5950  074B  2F5C               	goto	l3656
  5951  074C                     u4280:
  5952  074C                     l3650:
  5953  074C  1986               	btfsc	6,3	;volatile
  5954  074D  2F4F               	goto	u4291
  5955  074E  2F50               	goto	u4290
  5956  074F                     u4291:
  5957  074F  2F5C               	goto	l3656
  5958  0750                     u4290:
  5959  0750                     l3652:
  5960  0750  1A06               	btfsc	6,4	;volatile
  5961  0751  2F53               	goto	u4301
  5962  0752  2F54               	goto	u4300
  5963  0753                     u4301:
  5964  0753  2F5C               	goto	l3656
  5965  0754                     u4300:
  5966  0754                     l3654:
  5967                           
  5968                           ;PROYECTO.c: 530:            me_1_us3_m = minuto;
  5969  0754  0879               	movf	_minuto,w
  5970  0755  00BD               	movwf	??_main
  5971  0756  083D               	movf	??_main,w
  5972  0757  00A5               	movwf	_me_1_us3_m
  5973                           
  5974                           ;PROYECTO.c: 531:            me_1_us3_h = hora;
  5975  0758  087A               	movf	_hora,w
  5976  0759  00BD               	movwf	??_main
  5977  075A  083D               	movf	??_main,w
  5978  075B  00AE               	movwf	_me_1_us3_h
  5979  075C                     l3656:
  5980                           
  5981                           ;PROYECTO.c: 534:        if (RB6==0 && RB3==1 && RB4==0){
  5982  075C  1B06               	btfsc	6,6	;volatile
  5983  075D  2F5F               	goto	u4311
  5984  075E  2F60               	goto	u4310
  5985  075F                     u4311:
  5986  075F  2F71               	goto	l318
  5987  0760                     u4310:
  5988  0760                     l3658:
  5989  0760  1D86               	btfss	6,3	;volatile
  5990  0761  2F63               	goto	u4321
  5991  0762  2F64               	goto	u4320
  5992  0763                     u4321:
  5993  0763  2F71               	goto	l318
  5994  0764                     u4320:
  5995  0764                     l3660:
  5996  0764  1A06               	btfsc	6,4	;volatile
  5997  0765  2F67               	goto	u4331
  5998  0766  2F68               	goto	u4330
  5999  0767                     u4331:
  6000  0767  2F71               	goto	l318
  6001  0768                     u4330:
  6002  0768                     l3662:
  6003                           
  6004                           ;PROYECTO.c: 535:            me_3_us2_m = minuto;
  6005  0768  0879               	movf	_minuto,w
  6006  0769  00BD               	movwf	??_main
  6007  076A  083D               	movf	??_main,w
  6008  076B  00A6               	movwf	_me_3_us2_m
  6009                           
  6010                           ;PROYECTO.c: 536:            me_3_us2_h = hora;
  6011  076C  087A               	movf	_hora,w
  6012  076D  00BD               	movwf	??_main
  6013  076E  083D               	movf	??_main,w
  6014  076F  00AF               	movwf	_me_3_us2_h
  6015                           
  6016                           ;PROYECTO.c: 537:        }else if (RB6==0 && RB3==0 && RB4==1){
  6017  0770  2F9A               	goto	l3676
  6018  0771                     l318:
  6019  0771  1B06               	btfsc	6,6	;volatile
  6020  0772  2F74               	goto	u4341
  6021  0773  2F75               	goto	u4340
  6022  0774                     u4341:
  6023  0774  2F86               	goto	l320
  6024  0775                     u4340:
  6025  0775                     l3664:
  6026  0775  1986               	btfsc	6,3	;volatile
  6027  0776  2F78               	goto	u4351
  6028  0777  2F79               	goto	u4350
  6029  0778                     u4351:
  6030  0778  2F86               	goto	l320
  6031  0779                     u4350:
  6032  0779                     l3666:
  6033  0779  1E06               	btfss	6,4	;volatile
  6034  077A  2F7C               	goto	u4361
  6035  077B  2F7D               	goto	u4360
  6036  077C                     u4361:
  6037  077C  2F86               	goto	l320
  6038  077D                     u4360:
  6039  077D                     l3668:
  6040                           
  6041                           ;PROYECTO.c: 538:            me_2_us2_m = minuto;
  6042  077D  0879               	movf	_minuto,w
  6043  077E  00BD               	movwf	??_main
  6044  077F  083D               	movf	??_main,w
  6045  0780  00A7               	movwf	_me_2_us2_m
  6046                           
  6047                           ;PROYECTO.c: 539:            me_2_us2_h = hora;
  6048  0781  087A               	movf	_hora,w
  6049  0782  00BD               	movwf	??_main
  6050  0783  083D               	movf	??_main,w
  6051  0784  00B0               	movwf	_me_2_us2_h
  6052                           
  6053                           ;PROYECTO.c: 540:        }else if (RB6==0 && RB3==0 && RB4==0){
  6054  0785  2F9A               	goto	l3676
  6055  0786                     l320:
  6056  0786  1B06               	btfsc	6,6	;volatile
  6057  0787  2F89               	goto	u4371
  6058  0788  2F8A               	goto	u4370
  6059  0789                     u4371:
  6060  0789  2F9A               	goto	l3676
  6061  078A                     u4370:
  6062  078A                     l3670:
  6063  078A  1986               	btfsc	6,3	;volatile
  6064  078B  2F8D               	goto	u4381
  6065  078C  2F8E               	goto	u4380
  6066  078D                     u4381:
  6067  078D  2F9A               	goto	l3676
  6068  078E                     u4380:
  6069  078E                     l3672:
  6070  078E  1A06               	btfsc	6,4	;volatile
  6071  078F  2F91               	goto	u4391
  6072  0790  2F92               	goto	u4390
  6073  0791                     u4391:
  6074  0791  2F9A               	goto	l3676
  6075  0792                     u4390:
  6076  0792                     l3674:
  6077                           
  6078                           ;PROYECTO.c: 541:            me_1_us2_m = minuto;
  6079  0792  0879               	movf	_minuto,w
  6080  0793  00BD               	movwf	??_main
  6081  0794  083D               	movf	??_main,w
  6082  0795  00A8               	movwf	_me_1_us2_m
  6083                           
  6084                           ;PROYECTO.c: 542:            me_1_us2_h = hora;
  6085  0796  087A               	movf	_hora,w
  6086  0797  00BD               	movwf	??_main
  6087  0798  083D               	movf	??_main,w
  6088  0799  00B1               	movwf	_me_1_us2_h
  6089  079A                     l3676:
  6090                           
  6091                           ;PROYECTO.c: 545:        if (RB5==0 && RB3==0 && RB4==1){
  6092  079A  1A86               	btfsc	6,5	;volatile
  6093  079B  2F9D               	goto	u4401
  6094  079C  2F9E               	goto	u4400
  6095  079D                     u4401:
  6096  079D  2FAF               	goto	l323
  6097  079E                     u4400:
  6098  079E                     l3678:
  6099  079E  1986               	btfsc	6,3	;volatile
  6100  079F  2FA1               	goto	u4411
  6101  07A0  2FA2               	goto	u4410
  6102  07A1                     u4411:
  6103  07A1  2FAF               	goto	l323
  6104  07A2                     u4410:
  6105  07A2                     l3680:
  6106  07A2  1E06               	btfss	6,4	;volatile
  6107  07A3  2FA5               	goto	u4421
  6108  07A4  2FA6               	goto	u4420
  6109  07A5                     u4421:
  6110  07A5  2FAF               	goto	l323
  6111  07A6                     u4420:
  6112  07A6                     l3682:
  6113                           
  6114                           ;PROYECTO.c: 546:            me_3_us1_m = minuto;
  6115  07A6  0879               	movf	_minuto,w
  6116  07A7  00BD               	movwf	??_main
  6117  07A8  083D               	movf	??_main,w
  6118  07A9  00A9               	movwf	_me_3_us1_m
  6119                           
  6120                           ;PROYECTO.c: 547:            me_3_us1_h = hora;
  6121  07AA  087A               	movf	_hora,w
  6122  07AB  00BD               	movwf	??_main
  6123  07AC  083D               	movf	??_main,w
  6124  07AD  00B2               	movwf	_me_3_us1_h
  6125                           
  6126                           ;PROYECTO.c: 548:        }else if (RB5==0 && RB3==1 && RB4==0){
  6127  07AE  2FD9               	goto	l324
  6128  07AF                     l323:
  6129  07AF  1A86               	btfsc	6,5	;volatile
  6130  07B0  2FB2               	goto	u4431
  6131  07B1  2FB3               	goto	u4430
  6132  07B2                     u4431:
  6133  07B2  2FC4               	goto	l325
  6134  07B3                     u4430:
  6135  07B3                     l3684:
  6136  07B3  1D86               	btfss	6,3	;volatile
  6137  07B4  2FB6               	goto	u4441
  6138  07B5  2FB7               	goto	u4440
  6139  07B6                     u4441:
  6140  07B6  2FC4               	goto	l325
  6141  07B7                     u4440:
  6142  07B7                     l3686:
  6143  07B7  1A06               	btfsc	6,4	;volatile
  6144  07B8  2FBA               	goto	u4451
  6145  07B9  2FBB               	goto	u4450
  6146  07BA                     u4451:
  6147  07BA  2FC4               	goto	l325
  6148  07BB                     u4450:
  6149  07BB                     l3688:
  6150                           
  6151                           ;PROYECTO.c: 549:            me_2_us1_m = minuto;
  6152  07BB  0879               	movf	_minuto,w
  6153  07BC  00BD               	movwf	??_main
  6154  07BD  083D               	movf	??_main,w
  6155  07BE  00AA               	movwf	_me_2_us1_m
  6156                           
  6157                           ;PROYECTO.c: 550:            me_2_us1_h = hora;
  6158  07BF  087A               	movf	_hora,w
  6159  07C0  00BD               	movwf	??_main
  6160  07C1  083D               	movf	??_main,w
  6161  07C2  00B3               	movwf	_me_2_us1_h
  6162                           
  6163                           ;PROYECTO.c: 551:        }else if (RB5==0 && RB3==0 && RB4==0){
  6164  07C3  2FD9               	goto	l324
  6165  07C4                     l325:
  6166  07C4  1A86               	btfsc	6,5	;volatile
  6167  07C5  2FC7               	goto	u4461
  6168  07C6  2FC8               	goto	u4460
  6169  07C7                     u4461:
  6170  07C7  2FD9               	goto	l324
  6171  07C8                     u4460:
  6172  07C8                     l3690:
  6173  07C8  1986               	btfsc	6,3	;volatile
  6174  07C9  2FCB               	goto	u4471
  6175  07CA  2FCC               	goto	u4470
  6176  07CB                     u4471:
  6177  07CB  2FD9               	goto	l324
  6178  07CC                     u4470:
  6179  07CC                     l3692:
  6180  07CC  1A06               	btfsc	6,4	;volatile
  6181  07CD  2FCF               	goto	u4481
  6182  07CE  2FD0               	goto	u4480
  6183  07CF                     u4481:
  6184  07CF  2FD9               	goto	l324
  6185  07D0                     u4480:
  6186  07D0                     l3694:
  6187                           
  6188                           ;PROYECTO.c: 552:            me_1_us1_m = minuto;
  6189  07D0  0879               	movf	_minuto,w
  6190  07D1  00BD               	movwf	??_main
  6191  07D2  083D               	movf	??_main,w
  6192  07D3  00AB               	movwf	_me_1_us1_m
  6193                           
  6194                           ;PROYECTO.c: 553:            me_1_us1_h = hora;
  6195  07D4  087A               	movf	_hora,w
  6196  07D5  00BD               	movwf	??_main
  6197  07D6  083D               	movf	??_main,w
  6198  07D7  00B4               	movwf	_me_1_us1_h
  6199  07D8  2FD9               	goto	l324
  6200  07D9                     l324:
  6201  07D9  120A  158A  2D97   	goto	l3186
  6202  07DC  120A  118A  280C   	ljmp	start
  6203  07DF                     __end_of_main:

Data Sizes:
    Strings     743
    Constant    0
    Data        0
    BSS         33
    Persistent  0
    Stack       0

Auto Spaces:
    Space          Size  Autos    Used
    COMMON           14      6      11
    BANK0            80      3      31
    BANK1            80      0       0
    BANK3            96      0       0
    BANK2            96      0       0

Pointer List with Targets:

    USART_Cadena@str	PTR unsigned char  size(2) Largest target is 52
		 -> STR_87(CODE[3]), STR_86(CODE[3]), STR_85(CODE[3]), STR_84(CODE[3]), 
		 -> STR_83(CODE[2]), STR_82(CODE[26]), STR_81(CODE[48]), STR_80(CODE[43]), 
		 -> STR_79(CODE[3]), STR_78(CODE[3]), STR_77(CODE[36]), STR_76(CODE[44]), 
		 -> STR_75(CODE[3]), STR_74(CODE[3]), STR_73(CODE[48]), STR_72(CODE[48]), 
		 -> STR_71(CODE[52]), STR_70(CODE[39]), STR_69(CODE[26]), STR_68(CODE[48]), 
		 -> STR_67(CODE[43]), STR_66(CODE[3]), STR_65(CODE[3]), STR_64(CODE[36]), 
		 -> STR_63(CODE[44]), STR_62(CODE[3]), STR_61(CODE[3]), STR_60(CODE[48]), 
		 -> STR_59(CODE[48]), STR_58(CODE[52]), STR_57(CODE[39]), STR_56(CODE[26]), 
		 -> STR_55(CODE[48]), STR_54(CODE[43]), STR_53(CODE[3]), STR_52(CODE[3]), 
		 -> STR_51(CODE[36]), STR_50(CODE[44]), STR_49(CODE[3]), STR_48(CODE[3]), 
		 -> STR_47(CODE[48]), STR_46(CODE[48]), STR_45(CODE[52]), STR_44(CODE[39]), 
		 -> STR_43(CODE[32]), STR_42(CODE[7]), STR_41(CODE[8]), STR_40(CODE[11]), 
		 -> STR_39(CODE[31]), STR_38(CODE[7]), STR_37(CODE[8]), STR_36(CODE[11]), 
		 -> STR_35(CODE[31]), STR_34(CODE[7]), STR_33(CODE[8]), STR_32(CODE[11]), 
		 -> STR_31(CODE[32]), STR_30(CODE[7]), STR_29(CODE[8]), STR_28(CODE[11]), 
		 -> STR_27(CODE[31]), STR_26(CODE[7]), STR_25(CODE[8]), STR_24(CODE[11]), 
		 -> STR_23(CODE[31]), STR_22(CODE[7]), STR_21(CODE[8]), STR_20(CODE[11]), 
		 -> STR_19(CODE[32]), STR_18(CODE[7]), STR_17(CODE[8]), STR_16(CODE[11]), 
		 -> STR_15(CODE[31]), STR_14(CODE[7]), STR_13(CODE[8]), STR_12(CODE[11]), 
		 -> STR_11(CODE[31]), STR_10(CODE[7]), STR_9(CODE[8]), STR_8(CODE[11]), 
		 -> STR_7(CODE[37]), STR_6(CODE[34]), STR_5(CODE[35]), STR_4(CODE[31]), 
		 -> STR_3(CODE[29]), STR_2(CODE[30]), STR_1(CODE[31]), 


Critical Paths under _main in COMMON

    _main->_CharToNumH
    _main->_CharToNumM
    _main->_SendCharH
    _main->_USART_Cadena
    _SendCharM->_USART_Cadena
    _USART_Cadena->_USART_Tx

Critical Paths under _isr in COMMON

    None.

Critical Paths under _main in BANK0

    _main->_CharToNumH
    _main->_SendCharM

Critical Paths under _isr in BANK0

    None.

Critical Paths under _main in BANK1

    None.

Critical Paths under _isr in BANK1

    None.

Critical Paths under _main in BANK3

    None.

Critical Paths under _isr in BANK3

    None.

Critical Paths under _main in BANK2

    None.

Critical Paths under _isr in BANK2

    None.

Call Graph Tables:

 ---------------------------------------------------------------------------------
 (Depth) Function   	        Calls       Base Space   Used Autos Params    Refs
 ---------------------------------------------------------------------------------
 (0) _main                                                 2     2      0   16801
                                              1 BANK0      2     2      0
                         _CharToNumH
                         _CharToNumM
                          _SendCharH
                          _SendCharM
                       _USART_Cadena
                           _USART_Rx
 ---------------------------------------------------------------------------------
 (1) _USART_Rx                                             0     0      0       0
 ---------------------------------------------------------------------------------
 (1) _SendCharM                                            1     1      0    8081
                                              0 BANK0      1     1      0
                       _USART_Cadena
 ---------------------------------------------------------------------------------
 (1) _USART_Cadena                                         2     0      2    7926
                                              4 COMMON     2     0      2
                           _USART_Tx
 ---------------------------------------------------------------------------------
 (2) _USART_Tx                                             1     1      0      31
                                              3 COMMON     1     1      0
 ---------------------------------------------------------------------------------
 (1) _SendCharH                                            3     3      0      22
                                              3 COMMON     3     3      0
 ---------------------------------------------------------------------------------
 (1) _CharToNumM                                           3     2      1     365
                                              3 COMMON     3     2      1
 ---------------------------------------------------------------------------------
 (1) _CharToNumH                                           4     3      1     407
                                              3 COMMON     3     2      1
                                              0 BANK0      1     1      0
 ---------------------------------------------------------------------------------
 Estimated maximum stack depth 2
 ---------------------------------------------------------------------------------
 (Depth) Function   	        Calls       Base Space   Used Autos Params    Refs
 ---------------------------------------------------------------------------------
 (4) _isr                                                  3     3      0       0
                                              0 COMMON     3     3      0
 ---------------------------------------------------------------------------------
 Estimated maximum stack depth 4
 ---------------------------------------------------------------------------------

 Call Graph Graphs:

 _main (ROOT)
   _CharToNumH
   _CharToNumM
   _SendCharH
   _SendCharM
     _USART_Cadena
       _USART_Tx
   _USART_Cadena
     _USART_Tx
   _USART_Rx

 _isr (ROOT)

 Address spaces:
Name               Size   Autos  Total    Cost      Usage
BITCOMMON            E      0       0       0        0.0%
EEDATA             100      0       0       0        0.0%
NULL                 0      0       0       0        0.0%
CODE                 0      0       0       0        0.0%
COMMON               E      6       B       1       78.6%
BITSFR0              0      0       0       1        0.0%
SFR0                 0      0       0       1        0.0%
BITSFR1              0      0       0       2        0.0%
SFR1                 0      0       0       2        0.0%
STACK                0      0       0       2        0.0%
ABS                  0      0      2A       3        0.0%
BITBANK0            50      0       0       4        0.0%
BITSFR3              0      0       0       4        0.0%
SFR3                 0      0       0       4        0.0%
BANK0               50      3      1F       5       38.8%
BITSFR2              0      0       0       5        0.0%
SFR2                 0      0       0       5        0.0%
BITBANK1            50      0       0       6        0.0%
BANK1               50      0       0       7        0.0%
BITBANK3            60      0       0       8        0.0%
BANK3               60      0       0       9        0.0%
BITBANK2            60      0       0      10        0.0%
BANK2               60      0       0      11        0.0%
DATA                 0      0      2A      12        0.0%


Microchip Technology PIC Macro Assembler V2.31 build 20201012212115 
Symbol Table                                                                                   Mon May 31 19:47:16 2021

                      pc 0002                       fsr 0004                      l320 0786  
                    l401 0EC6                      l313 0733                      l323 07AF  
                    l315 0748                      l412 0EDE                      l324 07D9  
                    l405 0ECD                      l333 07F2                      l325 07C4  
                    l422 0EF9                      l350 0E3D                      l510 0C5C  
                    l318 0771                      l246 01E1                      l190 01EF  
                    l415 0EE8                      l440 0F22                      l408 0ED7  
                    l336 07FC                      l504 0C5C                      l184 0DB1  
                    l433 0F11                      l345 0BA1                      l450 0F3D  
                    l426 0F00                      l186 0DC7                      l443 0F2C  
                    l419 0EEF                      l371 0E74                      l363 0E5E  
                    l355 0E48                      l339 0B73                      l195 0037  
                    l540 0D2F                      l516 0C63                      l436 0F1B  
                    l188 0DDD                      l461 0F55                      l429 0F0A  
                    l454 0F44                      l471 0F70                      l447 0F33  
                    l391 0EAB                      l383 0E95                      l375 0E7F  
                    l367 0E69                      l359 0E53                      l552 0C01  
                    l544 0C00                      l464 0F5F                      l457 0F4E  
                    l482 0F88                      l394 0EB5                      l475 0F77  
                    l387 0EA0                      l379 0E8A                      l548 0C00  
                    l492 0FA3                      l468 0F66                      l485 0F92  
                    l478 0F81                      l398 0EBC                      l495 0FFF  
                    l489 0F99                      l498 0C05                      _RB0 0030  
                    _RB1 0031                      _RB2 0032                      _RB3 0033  
                    _RD0 0040                      _RB4 0034                      _RD1 0041  
                    _RB5 0035                      _RD2 0042                      _RB6 0036  
                    _RB7 0037                      _isr 0BA2                      fsr0 0004  
                    indf 0000               _CharToNumH 0C5D               _CharToNumM 0BCB  
                   l2100 0EA6                     l2110 0ED3                     l2102 0EB1  
                   l3000 0C12                     l2130 0F28                     l2122 0F06  
                   l2114 0EE4                     l2106 0EC2                     l3010 0C3C  
                   l3002 0C1C                     l3020 0C61                     l3012 0C42  
                   l3004 0C22                     l3100 0D47                     l3030 0C7A  
                   l3022 0C66                     l2150 0F7D                     l2142 0F5B  
                   l2134 0F39                     l2126 0F17                     l2118 0EF5  
                   l3014 0C4C                     l3006 0C2C                     l3110 0D56  
                   l3102 0D4E                     l3040 0C93                     l3032 0C7F  
                   l3024 0C6B                     l2080 0E3C                     l3016 0C52  
                   l3008 0C32                     l3200 0DB6                     l3120 0D5F  
                   l3112 0D57                     l3104 0D51                     l3050 0CAC  
                   l3042 0C98                     l3034 0C84                     l3026 0C70  
                   l3018 0C60                     l2154 0F8E                     l2146 0F6C  
                   l2138 0F4A                     l2090 0E6F                     l2082 0E43  
                   l3210 0DD6                     l3202 0DC0                     l3130 0D69  
                   l3122 0D60                     l3114 0D58                     l3106 0D54  
                   l3060 0CC5                     l3052 0CB1                     l3044 0C9D  
                   l3036 0C89                     l3028 0C75                     l2260 0BDA  
                   l2092 0E7A                     l2084 0E4E                     l2164 0FAA  
                   l2076 0B70                     l3300 00BB                     l3220 0DEC  
                   l3212 0DDB                     l3204 0DC5                     l3140 0D6E  
                   l3132 0D6A                     l3124 0D63                     l3116 0D59  
                   l3108 0D55                     l3062 0CCA                     l3054 0CB6  
                   l3046 0CA2                     l3038 0C8E                     l3070 0CD9  
                   l2270 0BF5                     l2262 0BDF                     l2254 0BCC  
                   l2158 0F9F                     l2094 0E85                     l2086 0E59  
                   l3310 00D7                     l3302 00C1                     l3230 0E0B  
                   l3222 0DEF                     l3214 0DE0                     l3206 0DCB  
                   l3150 0D7A                     l3142 0D6F                     l3134 0D6B  
                   l3126 0D67                     l3118 0D5E                     l3064 0CCF  
                   l3056 0CBB                     l3048 0CA7                     l3072 0D2E  
                   l2272 0BFB                     l2264 0BE5                     l2256 0BD2  
                   l2096 0E90                     l2088 0E64                     l3400 01D6  
                   l3320 00F4                     l3312 00DD                     l3304 00C6  
                   l3240 0E26                     l3232 0E0F                     l3216 0DE8  
                   l3208 0DCC                     l3224 0DF0                     l3160 0D83  
                   l3152 0D7B                     l3144 0D72                     l3136 0D6C  
                   l3128 0D68                     l3066 0CD4                     l3058 0CC0  
                   l2266 0BEA                     l2258 0BD4                     l2098 0E9B  
                   l3410 01F4                     l3402 01DC                     l3330 0110  
                   l3322 00F9                     l3314 00E3                     l3306 00CC  
                   l3250 002C                     l3242 0E2C                     l3234 0E15  
                   l3226 0DF6                     l3218 0DEB                     l3170 0D8C  
                   l3162 0D84                     l3154 0D7E                     l3146 0D73  
                   l3138 0D6D                     l3090 0D3D                     l3082 0D30  
                   l2268 0BF0                     l3500 03F6                     l3420 0247  
                   l3412 0233                     l3340 012C                     l3332 0116  
                   l3324 00FF                     l3316 00E8                     l3308 00D2  
                   l3404 01E1                     l3260 004F                     l3252 0032  
                   l3244 0E31                     l3236 0E1B                     l3228 0E01  
                   l3180 0D93                     l3172 0D8D                     l3164 0D85  
                   l3156 0D7F                     l3148 0D76                     l3092 0D3E  
                   l3084 0D37                     l3510 0455                     l3430 0272  
                   l3422 0250                     l3414 0236                     l3350 0149  
                   l3342 0132                     l3334 011B                     l3326 0105  
                   l3318 00EE                     l3270 0066                     l3262 0051  
                   l3406 01E5                     l3246 0021                     l3238 0E20  
                   l3254 0037                     l3190 0D9F                     l3182 0D94  
                   l3174 0D90                     l3166 0D86                     l3158 0D80  
                   l3094 0D3F                     l3086 0D39                     l3600 0661  
                   l3520 0491                     l3512 045F                     l3504 0422  
                   l3440 02A6                     l3432 027B                     l3424 0258  
                   l3416 023A                     l3408 01EC                     l3360 0165  
                   l3352 014E                     l3344 0138                     l3336 0121  
                   l3328 010A                     l3280 0082                     l3272 006C  
                   l3264 0057                     l3248 0027                     l3256 003C  
                   l3192 0DA0                     l3184 0D95                     l3176 0D91  
                   l3168 0D89                     l3096 0D42                     l3088 0D3C  
                   l3610 0695                     l3602 0673                     l3530 04D9  
                   l3522 049A                     l3514 0468                     l3506 0446  
                   l3450 02F1                     l3442 02AF                     l3434 028C  
                   l3426 0261                     l3418 0244                     l3370 0181  
                   l3362 016B                     l3354 0154                     l3346 013D  
                   l3338 0127                     l3290 009F                     l3282 0088  
                   l3274 0071                     l3266 005D                     l3258 0045  
                   l3194 0DAA                     l3186 0D97                     l3178 0D92  
                   l3098 0D43                     l3620 06D7                     l3612 06A6  
                   l3604 0679                     l3540 04FE                     l3532 04DF  
                   l3524 04A4                     l3516 0479                     l3508 044C  
                   l3460 031C                     l3452 02F9                     l3444 02B8  
                   l3436 0295                     l3428 026A                     l3380 019E  
                   l3372 0187                     l3364 0170                     l3356 015A  
                   l3348 0143                     l3292 00A4                     l3284 008E  
                   l3276 0077                     l3268 0060                     l3196 0DAF  
                   l3188 0D9B                     l3622 06E0                     l3614 06C1  
                   l3606 0682                     l3550 0540                     l3542 0507  
                   l3534 04E9                     l3526 04AD                     l3518 048B  
                   l3470 0350                     l3462 032D                     l3454 0302  
                   l3446 02E3                     l3438 029E                     l3390 01BA  
                   l3382 01A3                     l3374 018D                     l3366 0176  
                   l3358 015F                     l3294 00AA                     l3286 0093  
                   l3278 007D                     l3198 0DB5                     l3640 0726  
                   l3624 06E6                     l3616 06C7                     l3608 068C  
                   l3560 057F                     l3552 0549                     l3544 050D  
                   l3536 04EF                     l3528 04BE                     l3480 0396  
                   l3472 0359                     l3464 0336                     l3456 030B  
                   l3448 02E8                     l3632 06FE                     l3392 01C0  
                   l3384 01A9                     l3376 0192                     l3368 017C  
                   l3296 00B0                     l3288 0099                     l3650 074C  
                   l3642 072A                     l3626 06EF                     l3618 06D1  
                   l3570 05B2                     l3562 0585                     l3554 0553  
                   l3546 0516                     l3538 04F8                     l3490 03CA  
                   l3482 039F                     l3466 033F                     l3458 0313  
                   l3634 071A                     l3394 01C5                     l3386 01AF  
                   l3378 0198                     l3298 00B5                     l3660 0764  
                   l3652 0750                     l3644 0737                     l3636 071E  
                   l3628 06F5                     l3580 05EC                     l3572 05CD  
                   l3564 058E                     l3556 055C                     l3548 053A  
                   l3492 03D3                     l3484 03A8                     l3476 0385  
                   l3468 0347                     l3396 01CB                     l3388 01B4  
                   l3670 078A                     l3662 0768                     l3654 0754  
                   l3646 073B                     l3638 0722                     l3590 062E  
                   l3582 05F2                     l3574 05D3                     l3566 0598  
                   l3558 056D                     l3494 03DC                     l3486 03B0  
                   l3478 038E                     l3398 01D1                     l3680 07A2  
                   l3672 078E                     l3664 0775                     l3648 073F  
                   l3656 075C                     l3592 0634                     l3584 05FB  
                   l3576 05DD                     l3568 05A1                     l3496 03E4  
                   l3488 03B9                     l3690 07C8                     l3682 07A6  
                   l3674 0792                     l3666 0779                     l3658 0760  
                   l3594 063D                     l3586 0601                     l3578 05E3  
                   l3498 03ED                     l3692 07CC                     l3684 07B3  
                   l3668 077D                     l3676 079A                     l3596 0647  
                   l3588 060A                     l2990 0B7D                     l3694 07D0  
                   l3686 07B7                     l3678 079E                     l3782 0706  
                   l3598 0650                     l3784 0FB2                     l2984 07F2  
                   l2992 0B8B                     l3688 07BB                     l3786 0CE1  
                   l2986 07F8                     l2994 0B91                     l2988 0B7C  
                   l2996 0C05                     l2998 0C0B                     ?_isr 0070  
                   STR_1 0A2E                     STR_2 0A6C                     STR_3 0A8A  
                   STR_4 0A4D                     STR_5 098B                     STR_6 09AE  
                   STR_7 0942                     STR_8 0AC1                     STR_9 0ACC  
                   _T0IF 005A                     u2000 0F6C                     u2001 0F6B  
                   u2010 0F76                     u2011 0F75                     u2020 0F7D  
                   u2021 0F7C                     u2030 0F87                     u2031 0F86  
                   u2040 0F8E                     u2041 0F8D                     u2050 0F98  
                   u2051 0F97                     u2140 0BD2                     u2060 0F9F  
                   u2141 0BD1                     u2061 0F9E                     u2150 0BDA  
                   u2070 0FA9                     u2151 0BD9                     u2071 0FA8  
                   u2160 0BE5                     u4000 01D1                     u2161 0BE4  
                   u4001 01D0                     u2170 0BF0                     u4010 01DC  
                   u2171 0BEF                     u4011 01DB                     u2180 0BFB  
                   u1700 0E59                     u4100 0540                     u4020 01F4  
                   u2181 0BFA                     u1701 0E58                     u4101 053F  
                   u4021 01F3                     u1710 0E64                     u3310 07F8  
                   u4110 0585                     u4030 023A                     u1711 0E63  
                   u3311 07F7                     u4111 0584                     u4031 0239  
                   u1800 0EC2                     u1720 0E6F                     u3320 0BA1  
                   u4200 06E6                     u4120 05D3                     u4040 044C  
                   u3400 0D9F                     u1801 0EC1                     u1721 0E6E  
                   u3321 0BA0                     u4201 06E5                     u4121 05D2  
                   u4041 044B                     u3401 0D9E                     u1810 0ECC  
                   u1730 0E7A                     u3330 0C0B                     u4210 06F5  
                   u4130 05E3                     u4050 0491                     u3410 0DB5  
                   u1811 0ECB                     u1731 0E79                     u3331 0C0A  
                   u4211 06F4                     u4131 05E2                     u4051 0490  
                   u3411 0DB4                     u1900 0F17                     u1820 0ED3  
                   u1740 0E85                     u3340 0C12                     u4300 0754  
                   u4220 0722                     u4140 05F2                     u4060 04DF  
                   u3500 0021                     u3420 0DCB                     u1901 0F16  
                   u1821 0ED2                     u1741 0E84                     u3341 0C11  
                   u4301 0753                     u4221 0721                     u4141 05F1  
                   u4061 04DE                     u3501 0E38                     u3421 0DCA  
                   u1910 0F21                     u1830 0EDD                     u1750 0E90  
                   u3350 0C22                     u4310 0760                     u4230 0726  
                   u4150 0601                     u4070 04EF                     u3510 0027  
                   u3430 0DF6                     u1911 0F20                     u1831 0EDC  
                   u1751 0E8F                     u3351 0C21                     u4311 075F  
                   u4231 0725                     u4151 0600                     u4071 04EE  
                   u3511 0026                     u3431 0DF3                     u1920 0F28  
                   u1840 0EE4                     u1760 0E9B                     u1680 0E43  
                   u3360 0C32                     u4400 079E                     u4320 0764  
                   u4240 072A                     u4160 0634                     u4080 04FE  
                   u3600 007D                     u3520 0032                     u3440 0E01  
                   u1921 0F27                     u1841 0EE3                     u1761 0E9A  
                   u1681 0E42                     u3361 0C31                     u4401 079D  
                   u4321 0763                     u4241 0729                     u4161 0633  
                   u4081 04FD                     u3601 007C                     u3521 0031  
                   u3441 0DFE                     u1930 0F32                     u1850 0EEE  
                   u1770 0EA6                     u1690 0E4E                     u3370 0C42  
                   u4410 07A2                     u4330 0768                     u4250 0737  
                   u4170 0679                     u4090 050D                     u3610 0088  
                   u3530 0045                     u3450 0E0B                     u1931 0F31  
                   u1851 0EED                     u1771 0EA5                     u1691 0E4D  
                   u3371 0C41                     u4411 07A1                     u4331 0767  
                   u4251 0736                     u4171 0678                     u4091 050C  
                   u3611 0087                     u3531 0044                     u3451 0E0A  
                   u1940 0F39                     u1860 0EF5                     u1780 0EB1  
                   u3380 0C52                     u4420 07A6                     u4340 0775  
                   u4260 073B                     u4180 06C7                     u3700 00D2  
                   u3620 008E                     u3540 004F                     u3460 0E15  
                   u1941 0F38                     u1861 0EF4                     u1781 0EB0  
                   u3381 0C51                     u4421 07A5                     u4341 0774  
                   u4261 073A                     u4181 06C6                     u3701 00D1  
                   u3621 008D                     u3541 004E                     u3461 0E14  
                   u1950 0F43                     u1870 0EFF                     u1790 0EBB  
                   u4430 07B3                     u4350 0779                     u4270 073F  
                   u4190 06D7                     u3710 00DD                     u3630 0099  
                   u3550 0057                     u3470 0E1B                     u3390 0D9B  
                   u1951 0F42                     u1871 0EFE                     u1791 0EBA  
                   u4431 07B2                     u4351 0778                     u4271 073E  
                   u4191 06D6                     u3711 00DC                     u3631 0098  
                   u3551 0056                     u3471 0E1A                     u3391 0D9A  
                   u1960 0F4A                     u1880 0F06                     u4440 07B7  
                   u4360 077D                     u4280 074C                     u3800 0127  
                   u3720 00E3                     u3640 009F                     u3560 005D  
                   u3480 0E26                     u1961 0F49                     u1881 0F05  
                   u4441 07B6                     u4361 077C                     u4281 074B  
                   u3801 0126                     u3721 00E2                     u3641 009E  
                   u3561 005C                     u3481 0E25                     u1970 0F54  
                   u1890 0F10                     u4450 07BB                     u4370 078A  
                   u4290 0750                     u3810 0132                     u3730 00EE  
                   u3650 00AA                     u3570 0066                     u3490 0E2C  
                   u1971 0F53                     u1891 0F0F                     u4451 07BA  
                   u4371 0789                     u4291 074F                     u3811 0131  
                   u3731 00ED                     u3651 00A9                     u3571 0065  
                   u3491 0E2B                     u4507 0DA6                     u1980 0F5B  
                   u4460 07C8                     u4380 078E                     u3900 017C  
                   u3820 0138                     u3740 00F4                     u3660 00B0  
                   u3580 006C                     u1981 0F5A                     u4461 07C7  
                   u4381 078D                     u3901 017B                     u3821 0137  
                   u3741 00F3                     u3661 00AF                     u3581 006B  
                   u4517 0DBC                     u1990 0F65                     u4470 07CC  
                   u4390 0792                     u3910 0187                     u3830 0143  
                   u3750 00FF                     u3670 00BB                     u3590 0077  
                   u1991 0F64                     u4471 07CB                     u4391 0791  
                   u3911 0186                     u3831 0142                     u3751 00FE  
                   u3671 00BA                     u3591 0076                     u4527 0DD2  
                   u4480 07D0                     u3920 018D                     u3840 0149  
                   u3760 0105                     u3680 00C1                     u4481 07CF  
                   u3921 018C                     u3841 0148                     u3761 0104  
                   u3681 00C0                     u4537 0DE4                     u3930 0198  
                   u3850 0154                     u3770 0110                     u3690 00CC  
                   u4547 01E9                     u3931 0197                     u3851 0153  
                   u3771 010F                     u3691 00CB                     u3940 019E  
                   u3860 015A                     u3780 0116                     u3941 019D  
                   u3861 0159                     u3781 0115                     u3950 01A9  
                   u3870 0165                     u3790 0121                     u3951 01A8  
                   u3871 0164                     u3791 0120                     u3960 01AF  
                   u3880 016B                     u3961 01AE                     u3881 016A  
                   u4497 0D4B                     u3970 01BA                     u3890 0176  
                   u3971 01B9                     u3891 0175                     u3980 01C0  
                   u3981 01BF                     u3990 01CB                     u3991 01CA  
                   _TMR0 0001                     _cont 0022                     _main 0D30  
                   _hora 007A                     _mins 0021                     btemp 007E  
                   start 000C                    ??_isr 0070                    ?_main 0070  
                  STR_10 0AD4                    STR_11 09F0                    STR_20 0AC1  
                  STR_12 0AC1                    STR_21 0ACC                    STR_13 0ACC  
                  STR_30 0AD4                    STR_22 0AD4                    STR_14 0AD4  
                  STR_31 09D0                    STR_23 09F0                    STR_15 0A0F  
                  STR_40 0AC1                    STR_32 0AC1                    STR_24 0AC1  
                  STR_16 0AC1                    STR_41 0ACC                    STR_33 0ACC  
                  STR_25 0ACC                    STR_17 0ACC                    STR_42 0AD4  
                  STR_34 0AD4                    STR_26 0AD4                    STR_18 0AD4  
                  STR_50 08C4                    STR_43 09D0                    STR_35 09F0  
                  STR_27 0A0F                    STR_19 09D0                    STR_51 0967  
                  STR_52 0988                    STR_60 0864                    STR_36 0AC1  
                  STR_28 0AC1                    STR_44 091B                    STR_61 0988  
                  STR_53 0988                    STR_37 0ACC                    STR_29 0ACC  
                  STR_45 0800                    STR_62 0988                    STR_70 091B  
                  STR_38 0AD4                    STR_54 08F0                    STR_46 0894  
                  STR_63 08C4                    STR_39 0A0F                    STR_71 0800  
                  STR_47 0864                    STR_55 0834                    STR_48 0988  
                  STR_64 0967                    STR_72 0894                    STR_80 08F0  
                  STR_56 0AA7                    STR_65 0988                    STR_49 0988  
                  STR_57 091B                    STR_81 0834                    STR_73 0864  
                  STR_74 0988                    STR_66 0988                    STR_82 0AA7  
                  STR_58 0800                    STR_75 0988                    STR_59 0894  
                  STR_67 08F0                    STR_83 0ADC                    STR_76 08C4  
                  STR_68 0834                    STR_84 0ADE                    STR_77 0967  
                  STR_69 0AA7                    STR_85 0ADB                    STR_78 0988  
                  STR_86 0AE1                    STR_79 0988                    STR_87 0AE4  
                  _ANSEL 0188                    i1l177 0BC4                    _RCREG 001A  
                  _TMR1H 000F                    _TMR1L 000E                    _SPBRG 0099  
                  _PORTA 0005                    _PORTB 0006                    _PORTC 0007  
                  _PORTD 0008                    _PORTE 0009                    _TRISA 0085  
                  _TRISB 0086                    _TRISD 0088                    _TRISE 0089  
                  _TXREG 0019                    _horas 0020                    _valor 003B  
       __end_of_USART_Rx 0B74         __end_of_USART_Tx 07FD             USART_Tx@data 0073  
                  pclath 000A                    status 0003                    wtemp0 007E  
        __initialization 000F             __end_of_main 07DF                   ??_main 003D  
            ?_CharToNumH 0073              ?_CharToNumM 0073                   _ADRESH 001E  
                 _ANSELH 0189                   i1l2280 0BB2                   i1l2290 0BC0  
                 i1l2282 0BBA                   i1l2292 0BC3                   i1l2284 0BBB  
                 i1l2276 0BA2                   i1l2286 0BBC                   i1l2278 0BA8  
                 i1l2288 0BBD                   u220_20 0BB2                   u220_21 0BB1  
                 u219_20 0BA8                   u219_21 0BA7                   _TMR1IE 0460  
                 _TMR1IF 0060                   _SPBRGH 009A       __size_of_SendCharH 01C5  
     __size_of_SendCharM 005B                   _escala 0078                   _minuto 0079  
            SendCharH@in 0075              SendCharM@in 003C                   saved_w 007E  
__end_of__initialization 001D           __pcstackCOMMON 0070      __size_of_CharToNumH 00D3  
    __size_of_CharToNumM 0037                ?_USART_Rx 0070                ?_USART_Tx 0070  
         _OPTION_REGbits 0081        __end_of_SendCharH 1000        __end_of_SendCharM 0C5D  
             __pbssBANK0 0020               _me_1_us1_h 0034               _me_1_us2_h 0031  
             _me_1_us1_m 002B               _me_1_us3_h 002E               _me_1_us2_m 0028  
             _me_1_us3_m 0025               _me_2_us1_h 0033               _me_2_us2_h 0030  
             _me_2_us1_m 002A               _me_2_us3_h 002D               _me_2_us2_m 0027  
             _me_2_us3_m 0024               _me_3_us1_h 0032               _me_3_us2_h 002F  
             _me_3_us1_m 0029               _me_3_us3_h 002C               _me_3_us2_m 0026  
             _me_3_us3_m 0023               __pmaintext 0D30               __pintentry 0004  
             ??_USART_Rx 0073               ??_USART_Tx 0073               __stringtab 07DF  
             _hora_nueva 0076               _hora_user1 0037               _hora_user2 0036  
             _hora_user3 0035                  __ptext1 0B70                  __ptext2 0C02  
                __ptext3 0B7C                  __ptext4 07F1                  __ptext5 0E3B  
                __ptext6 0BCB                  __ptext7 0C5D                  __ptext8 0BA2  
              _T1CONbits 0010             __size_of_isr 0029                  _ventana 003A  
           ??_CharToNumH 0074             ??_CharToNumM 0074                  clrloop0 0B75  
    CharToNumH@hora_user 0073     end_of_initialization 001D             CharToNumH@in 003C  
           CharToNumM@in 0075                _RCSTAbits 0018                  psplit$0 A0015  
           __pstringtext 0800       __end_of_CharToNumH 0D30       __end_of_CharToNumM 0C02  
   pnum$maintext_split_1 0015            ?_USART_Cadena 0074                _TXSTAbits 0098  
            _BAUDCTLbits 0187        __size_of_USART_Rx 0004        __size_of_USART_Tx 000C  
    start_initialization 000F              __end_of_isr 0BCB           ??_USART_Cadena 0076  
              _SendCharH 0E3B                _SendCharM 0C02              __pbssCOMMON 0076  
              ___latbits 0002            __pcstackBANK0 003C               ?_SendCharH 0070  
             ?_SendCharM 0070                __pstrings 07DF                _min_user1 0077  
              _min_user2 0039                _min_user3 0038        interrupt_function 0004  
              clear_ram0 0B74                 _PIE1bits 008C                 _PIR1bits 000C  
        USART_Cadena@str 0074     __end_of_USART_Cadena 0BA2                 _USART_Rx 0B70  
               _USART_Tx 07F1               _ADCON0bits 001F              __stringbase 07F1  
             _ADCON1bits 009F                 _WPUBbits 0095              ??_SendCharH 0073  
            ??_SendCharM 0076             pnum$maintext 000A       __end_of__stringtab 07F1  
          __size_of_main FAAF               _INTCONbits 000B            CharToNumM@her 0073  
               intlevel1 0000                stringcode 07E9    __size_of_USART_Cadena 0026  
             _OSCCONbits 008F                 stringtab 07DF             _USART_Cadena 0B7C  
